---
triple:          'x86_64-apple-darwin'
binary-path:     '/Users/victor/Documents/teste/quic_jr/msquic/artifacts/bin/macos/x64_Debug_openssl3/msquictest'
relocations:
  - { offsetInCU: 0x52, offset: 0x52, size: 0x8, addend: 0x0, symName: _TestingKernelMode, symObjAddr: 0x1066BD8, symBinAddr: 0x1004F8790, symSize: 0x0 }
  - { offsetInCU: 0x6E, offset: 0x6E, size: 0x8, addend: 0x0, symName: _PrivateTestLibrary, symObjAddr: 0x1066BD9, symBinAddr: 0x1004F8791, symSize: 0x0 }
  - { offsetInCU: 0x83, offset: 0x83, size: 0x8, addend: 0x0, symName: _UseDuoNic, symObjAddr: 0x1066BDA, symBinAddr: 0x1004F8792, symSize: 0x0 }
  - { offsetInCU: 0x98, offset: 0x98, size: 0x8, addend: 0x0, symName: _UseQTIP, symObjAddr: 0x1066BDB, symBinAddr: 0x1004F8793, symSize: 0x0 }
  - { offsetInCU: 0xAD, offset: 0xAD, size: 0x8, addend: 0x0, symName: _MsQuic, symObjAddr: 0x1066BE0, symBinAddr: 0x1004F8798, symSize: 0x0 }
  - { offsetInCU: 0x1E0A, offset: 0x1E0A, size: 0x8, addend: 0x0, symName: _OsRunner, symObjAddr: 0x1066BE8, symBinAddr: 0x1004F87A0, symSize: 0x0 }
  - { offsetInCU: 0x1E1F, offset: 0x1E1F, size: 0x8, addend: 0x0, symName: _Timeout, symObjAddr: 0x95E28, symBinAddr: 0x1004F2888, symSize: 0x0 }
  - { offsetInCU: 0x1E34, offset: 0x1E34, size: 0x8, addend: 0x0, symName: _ServerSelfSignedCredConfig, symObjAddr: 0x1066BF0, symBinAddr: 0x1004F87A8, symSize: 0x0 }
  - { offsetInCU: 0x1E49, offset: 0x1E49, size: 0x8, addend: 0x0, symName: _ServerSelfSignedCredConfigClientAuth, symObjAddr: 0x1066C28, symBinAddr: 0x1004F87E0, symSize: 0x0 }
  - { offsetInCU: 0x1E5E, offset: 0x1E5E, size: 0x8, addend: 0x0, symName: _ClientCertCredConfig, symObjAddr: 0x1066C60, symBinAddr: 0x1004F8818, symSize: 0x0 }
  - { offsetInCU: 0x1E73, offset: 0x1E73, size: 0x8, addend: 0x0, symName: _DriverClient, symObjAddr: 0x1066C98, symBinAddr: 0x1004F8850, symSize: 0x0 }
  - { offsetInCU: 0x1F74, offset: 0x1F74, size: 0x8, addend: 0x0, symName: __ZN36ParameterValidation_ValidateApi_Test10test_info_E, symObjAddr: 0x1066CA0, symBinAddr: 0x1004F8858, symSize: 0x0 }
  - { offsetInCU: 0x242E, offset: 0x242E, size: 0x8, addend: 0x0, symName: __ZN7testing8internal12TypeIdHelperI8WithBoolE6dummy_E, symObjAddr: 0x95F48, symBinAddr: 0x1004F29A8, symSize: 0x0 }
  - { offsetInCU: 0x2462, offset: 0x2462, size: 0x8, addend: 0x0, symName: __ZN7testing8internal12TypeIdHelperI31WithValidateConnectionEventArgsE6dummy_E, symObjAddr: 0x95F49, symBinAddr: 0x1004F29A9, symSize: 0x0 }
  - { offsetInCU: 0x2496, offset: 0x2496, size: 0x8, addend: 0x0, symName: __ZN7testing8internal12TypeIdHelperI33WithValidateNetStatsConnEventArgsE6dummy_E, symObjAddr: 0x95F4A, symBinAddr: 0x1004F29AA, symSize: 0x0 }
  - { offsetInCU: 0x24CA, offset: 0x24CA, size: 0x8, addend: 0x0, symName: __ZN7testing8internal12TypeIdHelperI27WithValidateStreamEventArgsE6dummy_E, symObjAddr: 0x95F4B, symBinAddr: 0x1004F29AB, symSize: 0x0 }
  - { offsetInCU: 0x24FE, offset: 0x24FE, size: 0x8, addend: 0x0, symName: __ZN7testing8internal12TypeIdHelperI25WithValidateTlsConfigArgsE6dummy_E, symObjAddr: 0x95F4C, symBinAddr: 0x1004F29AC, symSize: 0x0 }
  - { offsetInCU: 0x2532, offset: 0x2532, size: 0x8, addend: 0x0, symName: __ZN7testing8internal12TypeIdHelperI14WithFamilyArgsE6dummy_E, symObjAddr: 0x95F4D, symBinAddr: 0x1004F29AD, symSize: 0x0 }
  - { offsetInCU: 0x2566, offset: 0x2566, size: 0x8, addend: 0x0, symName: __ZN7testing8internal12TypeIdHelperI11WithMtuArgsE6dummy_E, symObjAddr: 0x95F4E, symBinAddr: 0x1004F29AE, symSize: 0x0 }
  - { offsetInCU: 0x259A, offset: 0x259A, size: 0x8, addend: 0x0, symName: __ZN7testing8internal12TypeIdHelperI18WithHandshakeArgs1E6dummy_E, symObjAddr: 0x95F4F, symBinAddr: 0x1004F29AF, symSize: 0x0 }
  - { offsetInCU: 0x25CE, offset: 0x25CE, size: 0x8, addend: 0x0, symName: __ZN7testing8internal12TypeIdHelperI18WithHandshakeArgs2E6dummy_E, symObjAddr: 0x95F50, symBinAddr: 0x1004F29B0, symSize: 0x0 }
  - { offsetInCU: 0x2602, offset: 0x2602, size: 0x8, addend: 0x0, symName: __ZN7testing8internal12TypeIdHelperI18WithHandshakeArgs3E6dummy_E, symObjAddr: 0x95F51, symBinAddr: 0x1004F29B1, symSize: 0x0 }
  - { offsetInCU: 0x2636, offset: 0x2636, size: 0x8, addend: 0x0, symName: __ZN7testing8internal12TypeIdHelperI29WithVersionNegotiationExtArgsE6dummy_E, symObjAddr: 0x95F52, symBinAddr: 0x1004F29B2, symSize: 0x0 }
  - { offsetInCU: 0x266A, offset: 0x266A, size: 0x8, addend: 0x0, symName: __ZN7testing8internal12TypeIdHelperI22WithFeatureSupportArgsE6dummy_E, symObjAddr: 0x95F53, symBinAddr: 0x1004F29B3, symSize: 0x0 }
  - { offsetInCU: 0x269E, offset: 0x269E, size: 0x8, addend: 0x0, symName: __ZN7testing8internal12TypeIdHelperI18WithHandshakeArgs5E6dummy_E, symObjAddr: 0x95F54, symBinAddr: 0x1004F29B4, symSize: 0x0 }
  - { offsetInCU: 0x26D2, offset: 0x26D2, size: 0x8, addend: 0x0, symName: __ZN7testing8internal12TypeIdHelperI18WithHandshakeArgs6E6dummy_E, symObjAddr: 0x95F55, symBinAddr: 0x1004F29B5, symSize: 0x0 }
  - { offsetInCU: 0x2706, offset: 0x2706, size: 0x8, addend: 0x0, symName: __ZN7testing8internal12TypeIdHelperI18WithHandshakeArgs7E6dummy_E, symObjAddr: 0x95F56, symBinAddr: 0x1004F29B6, symSize: 0x0 }
  - { offsetInCU: 0x273A, offset: 0x273A, size: 0x8, addend: 0x0, symName: __ZN7testing8internal12TypeIdHelperI18WithHandshakeArgs8E6dummy_E, symObjAddr: 0x95F57, symBinAddr: 0x1004F29B7, symSize: 0x0 }
  - { offsetInCU: 0x276E, offset: 0x276E, size: 0x8, addend: 0x0, symName: __ZN7testing8internal12TypeIdHelperI18WithHandshakeArgs9E6dummy_E, symObjAddr: 0x95F58, symBinAddr: 0x1004F29B8, symSize: 0x0 }
  - { offsetInCU: 0x27A2, offset: 0x27A2, size: 0x8, addend: 0x0, symName: __ZN7testing8internal12TypeIdHelperI18WithHandshakeArgs4E6dummy_E, symObjAddr: 0x95F59, symBinAddr: 0x1004F29B9, symSize: 0x0 }
  - { offsetInCU: 0x27D6, offset: 0x27D6, size: 0x8, addend: 0x0, symName: __ZN7testing8internal12TypeIdHelperI21WithRebindPaddingArgsE6dummy_E, symObjAddr: 0x95F5A, symBinAddr: 0x1004F29BA, symSize: 0x0 }
  - { offsetInCU: 0x280A, offset: 0x280A, size: 0x8, addend: 0x0, symName: __ZN7testing8internal12TypeIdHelperI19WithHandshakeArgs10E6dummy_E, symObjAddr: 0x95F5B, symBinAddr: 0x1004F29BB, symSize: 0x0 }
  - { offsetInCU: 0x283E, offset: 0x283E, size: 0x8, addend: 0x0, symName: __ZN7testing8internal12TypeIdHelperI19WithHandshakeArgs11E6dummy_E, symObjAddr: 0x95F5C, symBinAddr: 0x1004F29BC, symSize: 0x0 }
  - { offsetInCU: 0x2872, offset: 0x2872, size: 0x8, addend: 0x0, symName: __ZN7testing8internal12TypeIdHelperI13WithSendArgs1E6dummy_E, symObjAddr: 0x95F5D, symBinAddr: 0x1004F29BD, symSize: 0x0 }
  - { offsetInCU: 0x28A6, offset: 0x28A6, size: 0x8, addend: 0x0, symName: __ZN7testing8internal12TypeIdHelperI13WithSendArgs2E6dummy_E, symObjAddr: 0x95F5E, symBinAddr: 0x1004F29BE, symSize: 0x0 }
  - { offsetInCU: 0x28DA, offset: 0x28DA, size: 0x8, addend: 0x0, symName: __ZN7testing8internal12TypeIdHelperI13WithSendArgs3E6dummy_E, symObjAddr: 0x95F5F, symBinAddr: 0x1004F29BF, symSize: 0x0 }
  - { offsetInCU: 0x290E, offset: 0x290E, size: 0x8, addend: 0x0, symName: __ZN7testing8internal12TypeIdHelperI17WithSend0RttArgs1E6dummy_E, symObjAddr: 0x95F60, symBinAddr: 0x1004F29C0, symSize: 0x0 }
  - { offsetInCU: 0x2942, offset: 0x2942, size: 0x8, addend: 0x0, symName: __ZN7testing8internal12TypeIdHelperI17WithSend0RttArgs2E6dummy_E, symObjAddr: 0x95F61, symBinAddr: 0x1004F29C1, symSize: 0x0 }
  - { offsetInCU: 0x2976, offset: 0x2976, size: 0x8, addend: 0x0, symName: __ZN7testing8internal12TypeIdHelperI18WithKeyUpdateArgs1E6dummy_E, symObjAddr: 0x95F62, symBinAddr: 0x1004F29C2, symSize: 0x0 }
  - { offsetInCU: 0x29AA, offset: 0x29AA, size: 0x8, addend: 0x0, symName: __ZN7testing8internal12TypeIdHelperI18WithKeyUpdateArgs2E6dummy_E, symObjAddr: 0x95F63, symBinAddr: 0x1004F29C3, symSize: 0x0 }
  - { offsetInCU: 0x29DE, offset: 0x29DE, size: 0x8, addend: 0x0, symName: __ZN7testing8internal12TypeIdHelperI16WithAbortiveArgsE6dummy_E, symObjAddr: 0x95F64, symBinAddr: 0x1004F29C4, symSize: 0x0 }
  - { offsetInCU: 0x2A12, offset: 0x2A12, size: 0x8, addend: 0x0, symName: __ZN7testing8internal12TypeIdHelperI20WithCancelOnLossArgsE6dummy_E, symObjAddr: 0x95F65, symBinAddr: 0x1004F29C5, symSize: 0x0 }
  - { offsetInCU: 0x2A46, offset: 0x2A46, size: 0x8, addend: 0x0, symName: __ZN7testing8internal12TypeIdHelperI17WithCidUpdateArgsE6dummy_E, symObjAddr: 0x95F66, symBinAddr: 0x1004F29C6, symSize: 0x0 }
  - { offsetInCU: 0x2A7A, offset: 0x2A7A, size: 0x8, addend: 0x0, symName: __ZN7testing8internal12TypeIdHelperI21WithReceiveResumeArgsE6dummy_E, symObjAddr: 0x95F67, symBinAddr: 0x1004F29C7, symSize: 0x0 }
  - { offsetInCU: 0x2AAE, offset: 0x2AAE, size: 0x8, addend: 0x0, symName: __ZN7testing8internal12TypeIdHelperI27WithReceiveResumeNoDataArgsE6dummy_E, symObjAddr: 0x95F68, symBinAddr: 0x1004F29C8, symSize: 0x0 }
  - { offsetInCU: 0x2AE2, offset: 0x2AE2, size: 0x8, addend: 0x0, symName: __ZN7testing8internal12TypeIdHelperI29WithDrillInitialPacketCidArgsE6dummy_E, symObjAddr: 0x95F69, symBinAddr: 0x1004F29C9, symSize: 0x0 }
  - { offsetInCU: 0x2B16, offset: 0x2B16, size: 0x8, addend: 0x0, symName: __ZN7testing8internal12TypeIdHelperI31WithDrillInitialPacketTokenArgsE6dummy_E, symObjAddr: 0x95F6A, symBinAddr: 0x1004F29CA, symSize: 0x0 }
  - { offsetInCU: 0x2B4A, offset: 0x2B4A, size: 0x8, addend: 0x0, symName: __ZN7testing8internal12TypeIdHelperI27WithDatagramNegotiationArgsE6dummy_E, symObjAddr: 0x95F6B, symBinAddr: 0x1004F29CB, symSize: 0x0 }
  - { offsetInCU: 0x17545, offset: 0x17545, size: 0x8, addend: 0x0, symName: __ZN7testing8internal27CheckedDowncastToActualTypeINS0_26ParameterizedTestSuiteInfoI8WithBoolEENS0_30ParameterizedTestSuiteInfoBaseEEEPT_PT0_, symObjAddr: 0x49E90, symBinAddr: 0x10004B1E0, symSize: 0xA0 }
  - { offsetInCU: 0x175EA, offset: 0x175EA, size: 0x8, addend: 0x0, symName: __ZN7testing8internal5posix5AbortEv, symObjAddr: 0x49E80, symBinAddr: 0x10004B1D0, symSize: 0x10 }
  - { offsetInCU: 0x1764D, offset: 0x1764D, size: 0x8, addend: 0x0, symName: __ZN7testing8internal27CheckedDowncastToActualTypeINS0_26ParameterizedTestSuiteInfoI31WithValidateConnectionEventArgsEENS0_30ParameterizedTestSuiteInfoBaseEEEPT_PT0_, symObjAddr: 0x4C7F0, symBinAddr: 0x10004DB40, symSize: 0xA0 }
  - { offsetInCU: 0x176FE, offset: 0x176FE, size: 0x8, addend: 0x0, symName: __ZN7testing8internal27CheckedDowncastToActualTypeINS0_26ParameterizedTestSuiteInfoI33WithValidateNetStatsConnEventArgsEENS0_30ParameterizedTestSuiteInfoBaseEEEPT_PT0_, symObjAddr: 0x4DDB0, symBinAddr: 0x10004F100, symSize: 0xA0 }
  - { offsetInCU: 0x177AF, offset: 0x177AF, size: 0x8, addend: 0x0, symName: __ZN7testing8internal27CheckedDowncastToActualTypeINS0_26ParameterizedTestSuiteInfoI27WithValidateStreamEventArgsEENS0_30ParameterizedTestSuiteInfoBaseEEEPT_PT0_, symObjAddr: 0x4F370, symBinAddr: 0x1000506C0, symSize: 0xA0 }
  - { offsetInCU: 0x17860, offset: 0x17860, size: 0x8, addend: 0x0, symName: __ZN7testing8internal27CheckedDowncastToActualTypeINS0_26ParameterizedTestSuiteInfoI25WithValidateTlsConfigArgsEENS0_30ParameterizedTestSuiteInfoBaseEEEPT_PT0_, symObjAddr: 0x50930, symBinAddr: 0x100051C80, symSize: 0xA0 }
  - { offsetInCU: 0x17911, offset: 0x17911, size: 0x8, addend: 0x0, symName: __ZN7testing8internal27CheckedDowncastToActualTypeINS0_26ParameterizedTestSuiteInfoI14WithFamilyArgsEENS0_30ParameterizedTestSuiteInfoBaseEEEPT_PT0_, symObjAddr: 0x51D50, symBinAddr: 0x1000530A0, symSize: 0xA0 }
  - { offsetInCU: 0x179C2, offset: 0x179C2, size: 0x8, addend: 0x0, symName: __ZN7testing8internal27CheckedDowncastToActualTypeINS0_26ParameterizedTestSuiteInfoI11WithMtuArgsEENS0_30ParameterizedTestSuiteInfoBaseEEEPT_PT0_, symObjAddr: 0x53330, symBinAddr: 0x100054680, symSize: 0xA0 }
  - { offsetInCU: 0x17A73, offset: 0x17A73, size: 0x8, addend: 0x0, symName: __ZN7testing8internal27CheckedDowncastToActualTypeINS0_26ParameterizedTestSuiteInfoI21WithRebindPaddingArgsEENS0_30ParameterizedTestSuiteInfoBaseEEEPT_PT0_, symObjAddr: 0x63B50, symBinAddr: 0x100064EA0, symSize: 0xA0 }
  - { offsetInCU: 0x17B24, offset: 0x17B24, size: 0x8, addend: 0x0, symName: __ZN7testing8internal27CheckedDowncastToActualTypeINS0_26ParameterizedTestSuiteInfoI29WithVersionNegotiationExtArgsEENS0_30ParameterizedTestSuiteInfoBaseEEEPT_PT0_, symObjAddr: 0x58BC0, symBinAddr: 0x100059F10, symSize: 0xA0 }
  - { offsetInCU: 0x17BD5, offset: 0x17BD5, size: 0x8, addend: 0x0, symName: __ZN7testing8internal27CheckedDowncastToActualTypeINS0_26ParameterizedTestSuiteInfoI18WithHandshakeArgs1EENS0_30ParameterizedTestSuiteInfoBaseEEEPT_PT0_, symObjAddr: 0x549E0, symBinAddr: 0x100055D30, symSize: 0xA0 }
  - { offsetInCU: 0x17C86, offset: 0x17C86, size: 0x8, addend: 0x0, symName: __ZN7testing8internal27CheckedDowncastToActualTypeINS0_26ParameterizedTestSuiteInfoI18WithHandshakeArgs2EENS0_30ParameterizedTestSuiteInfoBaseEEEPT_PT0_, symObjAddr: 0x55FA0, symBinAddr: 0x1000572F0, symSize: 0xA0 }
  - { offsetInCU: 0x17D37, offset: 0x17D37, size: 0x8, addend: 0x0, symName: __ZN7testing8internal27CheckedDowncastToActualTypeINS0_26ParameterizedTestSuiteInfoI18WithHandshakeArgs3EENS0_30ParameterizedTestSuiteInfoBaseEEEPT_PT0_, symObjAddr: 0x57600, symBinAddr: 0x100058950, symSize: 0xA0 }
  - { offsetInCU: 0x17DE8, offset: 0x17DE8, size: 0x8, addend: 0x0, symName: __ZN7testing8internal27CheckedDowncastToActualTypeINS0_26ParameterizedTestSuiteInfoI18WithHandshakeArgs4EENS0_30ParameterizedTestSuiteInfoBaseEEEPT_PT0_, symObjAddr: 0x62590, symBinAddr: 0x1000638E0, symSize: 0xA0 }
  - { offsetInCU: 0x17E99, offset: 0x17E99, size: 0x8, addend: 0x0, symName: __ZN7testing8internal27CheckedDowncastToActualTypeINS0_26ParameterizedTestSuiteInfoI18WithHandshakeArgs5EENS0_30ParameterizedTestSuiteInfoBaseEEEPT_PT0_, symObjAddr: 0x5B980, symBinAddr: 0x10005CCD0, symSize: 0xA0 }
  - { offsetInCU: 0x17F4A, offset: 0x17F4A, size: 0x8, addend: 0x0, symName: __ZN7testing8internal27CheckedDowncastToActualTypeINS0_26ParameterizedTestSuiteInfoI18WithHandshakeArgs6EENS0_30ParameterizedTestSuiteInfoBaseEEEPT_PT0_, symObjAddr: 0x5CFE0, symBinAddr: 0x10005E330, symSize: 0xA0 }
  - { offsetInCU: 0x17FFB, offset: 0x17FFB, size: 0x8, addend: 0x0, symName: __ZN7testing8internal27CheckedDowncastToActualTypeINS0_26ParameterizedTestSuiteInfoI18WithHandshakeArgs7EENS0_30ParameterizedTestSuiteInfoBaseEEEPT_PT0_, symObjAddr: 0x5E640, symBinAddr: 0x10005F990, symSize: 0xA0 }
  - { offsetInCU: 0x180AC, offset: 0x180AC, size: 0x8, addend: 0x0, symName: __ZN7testing8internal27CheckedDowncastToActualTypeINS0_26ParameterizedTestSuiteInfoI22WithFeatureSupportArgsEENS0_30ParameterizedTestSuiteInfoBaseEEEPT_PT0_, symObjAddr: 0x5A2A0, symBinAddr: 0x10005B5F0, symSize: 0xA0 }
  - { offsetInCU: 0x1815D, offset: 0x1815D, size: 0x8, addend: 0x0, symName: __ZN7testing8internal27CheckedDowncastToActualTypeINS0_26ParameterizedTestSuiteInfoI18WithHandshakeArgs8EENS0_30ParameterizedTestSuiteInfoBaseEEEPT_PT0_, symObjAddr: 0x5FC60, symBinAddr: 0x100060FB0, symSize: 0xA0 }
  - { offsetInCU: 0x1820E, offset: 0x1820E, size: 0x8, addend: 0x0, symName: __ZN7testing8internal27CheckedDowncastToActualTypeINS0_26ParameterizedTestSuiteInfoI18WithHandshakeArgs9EENS0_30ParameterizedTestSuiteInfoBaseEEEPT_PT0_, symObjAddr: 0x61280, symBinAddr: 0x1000625D0, symSize: 0xA0 }
  - { offsetInCU: 0x18298, offset: 0x18298, size: 0x8, addend: 0x0, symName: __ZN7testing8internal27CheckedDowncastToActualTypeINS0_26ParameterizedTestSuiteInfoI19WithHandshakeArgs10EENS0_30ParameterizedTestSuiteInfoBaseEEEPT_PT0_, symObjAddr: 0x65170, symBinAddr: 0x1000664C0, symSize: 0xA0 }
  - { offsetInCU: 0x18349, offset: 0x18349, size: 0x8, addend: 0x0, symName: __ZN7testing8internal27CheckedDowncastToActualTypeINS0_26ParameterizedTestSuiteInfoI19WithHandshakeArgs11EENS0_30ParameterizedTestSuiteInfoBaseEEEPT_PT0_, symObjAddr: 0x667D0, symBinAddr: 0x100067B20, symSize: 0xA0 }
  - { offsetInCU: 0x183FA, offset: 0x183FA, size: 0x8, addend: 0x0, symName: __ZN7testing8internal27CheckedDowncastToActualTypeINS0_26ParameterizedTestSuiteInfoI13WithSendArgs1EENS0_30ParameterizedTestSuiteInfoBaseEEEPT_PT0_, symObjAddr: 0x67DB0, symBinAddr: 0x100069100, symSize: 0xA0 }
  - { offsetInCU: 0x184AB, offset: 0x184AB, size: 0x8, addend: 0x0, symName: __ZN7testing8internal27CheckedDowncastToActualTypeINS0_26ParameterizedTestSuiteInfoI13WithSendArgs2EENS0_30ParameterizedTestSuiteInfoBaseEEEPT_PT0_, symObjAddr: 0x69370, symBinAddr: 0x10006A6C0, symSize: 0xA0 }
  - { offsetInCU: 0x1855C, offset: 0x1855C, size: 0x8, addend: 0x0, symName: __ZN7testing8internal27CheckedDowncastToActualTypeINS0_26ParameterizedTestSuiteInfoI13WithSendArgs3EENS0_30ParameterizedTestSuiteInfoBaseEEEPT_PT0_, symObjAddr: 0x6AA50, symBinAddr: 0x10006BDA0, symSize: 0xA0 }
  - { offsetInCU: 0x1860D, offset: 0x1860D, size: 0x8, addend: 0x0, symName: __ZN7testing8internal27CheckedDowncastToActualTypeINS0_26ParameterizedTestSuiteInfoI17WithSend0RttArgs1EENS0_30ParameterizedTestSuiteInfoBaseEEEPT_PT0_, symObjAddr: 0x6C010, symBinAddr: 0x10006D360, symSize: 0xA0 }
  - { offsetInCU: 0x186BE, offset: 0x186BE, size: 0x8, addend: 0x0, symName: __ZN7testing8internal27CheckedDowncastToActualTypeINS0_26ParameterizedTestSuiteInfoI17WithSend0RttArgs2EENS0_30ParameterizedTestSuiteInfoBaseEEEPT_PT0_, symObjAddr: 0x6D5D0, symBinAddr: 0x10006E920, symSize: 0xA0 }
  - { offsetInCU: 0x1876F, offset: 0x1876F, size: 0x8, addend: 0x0, symName: __ZN7testing8internal27CheckedDowncastToActualTypeINS0_26ParameterizedTestSuiteInfoI18WithKeyUpdateArgs1EENS0_30ParameterizedTestSuiteInfoBaseEEEPT_PT0_, symObjAddr: 0x6EBF0, symBinAddr: 0x10006FF40, symSize: 0xA0 }
  - { offsetInCU: 0x18820, offset: 0x18820, size: 0x8, addend: 0x0, symName: __ZN7testing8internal27CheckedDowncastToActualTypeINS0_26ParameterizedTestSuiteInfoI18WithKeyUpdateArgs2EENS0_30ParameterizedTestSuiteInfoBaseEEEPT_PT0_, symObjAddr: 0x70210, symBinAddr: 0x100071560, symSize: 0xA0 }
  - { offsetInCU: 0x188D1, offset: 0x188D1, size: 0x8, addend: 0x0, symName: __ZN7testing8internal27CheckedDowncastToActualTypeINS0_26ParameterizedTestSuiteInfoI16WithAbortiveArgsEENS0_30ParameterizedTestSuiteInfoBaseEEEPT_PT0_, symObjAddr: 0x71850, symBinAddr: 0x100072BA0, symSize: 0xA0 }
  - { offsetInCU: 0x18982, offset: 0x18982, size: 0x8, addend: 0x0, symName: __ZN7testing8internal27CheckedDowncastToActualTypeINS0_26ParameterizedTestSuiteInfoI20WithCancelOnLossArgsEENS0_30ParameterizedTestSuiteInfoBaseEEEPT_PT0_, symObjAddr: 0x72E10, symBinAddr: 0x100074160, symSize: 0xA0 }
  - { offsetInCU: 0x18A33, offset: 0x18A33, size: 0x8, addend: 0x0, symName: __ZN7testing8internal27CheckedDowncastToActualTypeINS0_26ParameterizedTestSuiteInfoI17WithCidUpdateArgsEENS0_30ParameterizedTestSuiteInfoBaseEEEPT_PT0_, symObjAddr: 0x74430, symBinAddr: 0x100075780, symSize: 0xA0 }
  - { offsetInCU: 0x18AE4, offset: 0x18AE4, size: 0x8, addend: 0x0, symName: __ZN7testing8internal27CheckedDowncastToActualTypeINS0_26ParameterizedTestSuiteInfoI21WithReceiveResumeArgsEENS0_30ParameterizedTestSuiteInfoBaseEEEPT_PT0_, symObjAddr: 0x75A50, symBinAddr: 0x100076DA0, symSize: 0xA0 }
  - { offsetInCU: 0x18B95, offset: 0x18B95, size: 0x8, addend: 0x0, symName: __ZN7testing8internal27CheckedDowncastToActualTypeINS0_26ParameterizedTestSuiteInfoI27WithReceiveResumeNoDataArgsEENS0_30ParameterizedTestSuiteInfoBaseEEEPT_PT0_, symObjAddr: 0x77010, symBinAddr: 0x100078360, symSize: 0xA0 }
  - { offsetInCU: 0x18C46, offset: 0x18C46, size: 0x8, addend: 0x0, symName: __ZN7testing8internal27CheckedDowncastToActualTypeINS0_26ParameterizedTestSuiteInfoI27WithDatagramNegotiationArgsEENS0_30ParameterizedTestSuiteInfoBaseEEEPT_PT0_, symObjAddr: 0x7B240, symBinAddr: 0x10007C590, symSize: 0xA0 }
  - { offsetInCU: 0x18CF7, offset: 0x18CF7, size: 0x8, addend: 0x0, symName: __ZN7testing8internal27CheckedDowncastToActualTypeINS0_26ParameterizedTestSuiteInfoI29WithDrillInitialPacketCidArgsEENS0_30ParameterizedTestSuiteInfoBaseEEEPT_PT0_, symObjAddr: 0x786A0, symBinAddr: 0x1000799F0, symSize: 0xA0 }
  - { offsetInCU: 0x18DA8, offset: 0x18DA8, size: 0x8, addend: 0x0, symName: __ZN7testing8internal27CheckedDowncastToActualTypeINS0_26ParameterizedTestSuiteInfoI31WithDrillInitialPacketTokenArgsEENS0_30ParameterizedTestSuiteInfoBaseEEEPT_PT0_, symObjAddr: 0x79C60, symBinAddr: 0x10007AFB0, symSize: 0xA0 }
  - { offsetInCU: 0x1D625, offset: 0x1D625, size: 0x8, addend: 0x0, symName: __ZN7testing8internal27CheckedDowncastToActualTypeIKNS0_30ValuesInIteratorRangeGeneratorIbE8IteratorEKNS0_22ParamIteratorInterfaceIbEEEEPT_PT0_, symObjAddr: 0x381A0, symBinAddr: 0x100039860, symSize: 0xA0 }
  - { offsetInCU: 0x1D6AF, offset: 0x1D6AF, size: 0x8, addend: 0x0, symName: __ZN7testing8internal27CheckedDowncastToActualTypeIKNS0_30ValuesInIteratorRangeGeneratorI27ValidateConnectionEventArgsE8IteratorEKNS0_22ParamIteratorInterfaceIS3_EEEEPT_PT0_, symObjAddr: 0x388C0, symBinAddr: 0x100039F80, symSize: 0xA0 }
  - { offsetInCU: 0x1D739, offset: 0x1D739, size: 0x8, addend: 0x0, symName: __ZN7testing8internal27CheckedDowncastToActualTypeIKNS0_30ValuesInIteratorRangeGeneratorI29ValidateNetStatsConnEventArgsE8IteratorEKNS0_22ParamIteratorInterfaceIS3_EEEEPT_PT0_, symObjAddr: 0x38FE0, symBinAddr: 0x10003A6A0, symSize: 0xA0 }
  - { offsetInCU: 0x1D7C3, offset: 0x1D7C3, size: 0x8, addend: 0x0, symName: __ZN7testing8internal27CheckedDowncastToActualTypeIKNS0_30ValuesInIteratorRangeGeneratorI23ValidateStreamEventArgsE8IteratorEKNS0_22ParamIteratorInterfaceIS3_EEEEPT_PT0_, symObjAddr: 0x39700, symBinAddr: 0x10003ADC0, symSize: 0xA0 }
  - { offsetInCU: 0x1D84D, offset: 0x1D84D, size: 0x8, addend: 0x0, symName: __ZN7testing8internal27CheckedDowncastToActualTypeIKNS0_30ValuesInIteratorRangeGeneratorI13TlsConfigArgsE8IteratorEKNS0_22ParamIteratorInterfaceIS3_EEEEPT_PT0_, symObjAddr: 0x39EB0, symBinAddr: 0x10003B570, symSize: 0xA0 }
  - { offsetInCU: 0x1D8D7, offset: 0x1D8D7, size: 0x8, addend: 0x0, symName: __ZN7testing8internal27CheckedDowncastToActualTypeIKNS0_30ValuesInIteratorRangeGeneratorI10FamilyArgsE8IteratorEKNS0_22ParamIteratorInterfaceIS3_EEEEPT_PT0_, symObjAddr: 0x3A610, symBinAddr: 0x10003BCD0, symSize: 0xA0 }
  - { offsetInCU: 0x1D961, offset: 0x1D961, size: 0x8, addend: 0x0, symName: __ZN7testing8internal27CheckedDowncastToActualTypeIKNS0_30ValuesInIteratorRangeGeneratorI7MtuArgsE8IteratorEKNS0_22ParamIteratorInterfaceIS3_EEEEPT_PT0_, symObjAddr: 0x3AE50, symBinAddr: 0x10003C510, symSize: 0xA0 }
  - { offsetInCU: 0x1D9EB, offset: 0x1D9EB, size: 0x8, addend: 0x0, symName: __ZN7testing8internal27CheckedDowncastToActualTypeIKNS0_30ValuesInIteratorRangeGeneratorI17RebindPaddingArgsE8IteratorEKNS0_22ParamIteratorInterfaceIS3_EEEEPT_PT0_, symObjAddr: 0x3B5E0, symBinAddr: 0x10003CCA0, symSize: 0xA0 }
  - { offsetInCU: 0x1DA75, offset: 0x1DA75, size: 0x8, addend: 0x0, symName: __ZN7testing8internal27CheckedDowncastToActualTypeIKNS0_30ValuesInIteratorRangeGeneratorI25VersionNegotiationExtArgsE8IteratorEKNS0_22ParamIteratorInterfaceIS3_EEEEPT_PT0_, symObjAddr: 0x3BDB0, symBinAddr: 0x10003D470, symSize: 0xA0 }
  - { offsetInCU: 0x1DAFF, offset: 0x1DAFF, size: 0x8, addend: 0x0, symName: __ZN7testing8internal27CheckedDowncastToActualTypeIKNS0_30ValuesInIteratorRangeGeneratorI14HandshakeArgs1E8IteratorEKNS0_22ParamIteratorInterfaceIS3_EEEEPT_PT0_, symObjAddr: 0x3C600, symBinAddr: 0x10003DCC0, symSize: 0xA0 }
  - { offsetInCU: 0x1DB89, offset: 0x1DB89, size: 0x8, addend: 0x0, symName: __ZN7testing8internal27CheckedDowncastToActualTypeIKNS0_30ValuesInIteratorRangeGeneratorI14HandshakeArgs2E8IteratorEKNS0_22ParamIteratorInterfaceIS3_EEEEPT_PT0_, symObjAddr: 0x3CDA0, symBinAddr: 0x10003E460, symSize: 0xA0 }
  - { offsetInCU: 0x1DC13, offset: 0x1DC13, size: 0x8, addend: 0x0, symName: __ZN7testing8internal27CheckedDowncastToActualTypeIKNS0_30ValuesInIteratorRangeGeneratorI14HandshakeArgs3E8IteratorEKNS0_22ParamIteratorInterfaceIS3_EEEEPT_PT0_, symObjAddr: 0x3D5A0, symBinAddr: 0x10003EC60, symSize: 0xA0 }
  - { offsetInCU: 0x1DC9D, offset: 0x1DC9D, size: 0x8, addend: 0x0, symName: __ZN7testing8internal27CheckedDowncastToActualTypeIKNS0_30ValuesInIteratorRangeGeneratorI14HandshakeArgs4E8IteratorEKNS0_22ParamIteratorInterfaceIS3_EEEEPT_PT0_, symObjAddr: 0x3DDC0, symBinAddr: 0x10003F480, symSize: 0xA0 }
  - { offsetInCU: 0x1DD27, offset: 0x1DD27, size: 0x8, addend: 0x0, symName: __ZN7testing8internal27CheckedDowncastToActualTypeIKNS0_30ValuesInIteratorRangeGeneratorI14HandshakeArgs5E8IteratorEKNS0_22ParamIteratorInterfaceIS3_EEEEPT_PT0_, symObjAddr: 0x3E510, symBinAddr: 0x10003FBD0, symSize: 0xA0 }
  - { offsetInCU: 0x1DDB1, offset: 0x1DDB1, size: 0x8, addend: 0x0, symName: __ZN7testing8internal27CheckedDowncastToActualTypeIKNS0_30ValuesInIteratorRangeGeneratorI14HandshakeArgs6E8IteratorEKNS0_22ParamIteratorInterfaceIS3_EEEEPT_PT0_, symObjAddr: 0x3ECB0, symBinAddr: 0x100040370, symSize: 0xA0 }
  - { offsetInCU: 0x1DE3B, offset: 0x1DE3B, size: 0x8, addend: 0x0, symName: __ZN7testing8internal27CheckedDowncastToActualTypeIKNS0_30ValuesInIteratorRangeGeneratorI14HandshakeArgs7E8IteratorEKNS0_22ParamIteratorInterfaceIS3_EEEEPT_PT0_, symObjAddr: 0x3F450, symBinAddr: 0x100040B10, symSize: 0xA0 }
  - { offsetInCU: 0x1DEC5, offset: 0x1DEC5, size: 0x8, addend: 0x0, symName: __ZN7testing8internal27CheckedDowncastToActualTypeIKNS0_30ValuesInIteratorRangeGeneratorI18FeatureSupportArgsE8IteratorEKNS0_22ParamIteratorInterfaceIS3_EEEEPT_PT0_, symObjAddr: 0x3FC20, symBinAddr: 0x1000412E0, symSize: 0xA0 }
  - { offsetInCU: 0x1DF4F, offset: 0x1DF4F, size: 0x8, addend: 0x0, symName: __ZN7testing8internal27CheckedDowncastToActualTypeIKNS0_30ValuesInIteratorRangeGeneratorI14HandshakeArgs8E8IteratorEKNS0_22ParamIteratorInterfaceIS3_EEEEPT_PT0_, symObjAddr: 0x40390, symBinAddr: 0x100041A50, symSize: 0xA0 }
  - { offsetInCU: 0x1DFD9, offset: 0x1DFD9, size: 0x8, addend: 0x0, symName: __ZN7testing8internal27CheckedDowncastToActualTypeIKNS0_30ValuesInIteratorRangeGeneratorI15HandshakeArgs10E8IteratorEKNS0_22ParamIteratorInterfaceIS3_EEEEPT_PT0_, symObjAddr: 0x40B20, symBinAddr: 0x1000421E0, symSize: 0xA0 }
  - { offsetInCU: 0x1E063, offset: 0x1E063, size: 0x8, addend: 0x0, symName: __ZN7testing8internal27CheckedDowncastToActualTypeIKNS0_30ValuesInIteratorRangeGeneratorI15HandshakeArgs11E8IteratorEKNS0_22ParamIteratorInterfaceIS3_EEEEPT_PT0_, symObjAddr: 0x41220, symBinAddr: 0x1000428E0, symSize: 0xA0 }
  - { offsetInCU: 0x1E0ED, offset: 0x1E0ED, size: 0x8, addend: 0x0, symName: __ZN7testing8internal27CheckedDowncastToActualTypeIKNS0_30ValuesInIteratorRangeGeneratorI9SendArgs1E8IteratorEKNS0_22ParamIteratorInterfaceIS3_EEEEPT_PT0_, symObjAddr: 0x41B50, symBinAddr: 0x100043210, symSize: 0xA0 }
  - { offsetInCU: 0x1E177, offset: 0x1E177, size: 0x8, addend: 0x0, symName: __ZN7testing8internal27CheckedDowncastToActualTypeIKNS0_30ValuesInIteratorRangeGeneratorI9SendArgs2E8IteratorEKNS0_22ParamIteratorInterfaceIS3_EEEEPT_PT0_, symObjAddr: 0x42330, symBinAddr: 0x1000439F0, symSize: 0xA0 }
  - { offsetInCU: 0x1E201, offset: 0x1E201, size: 0x8, addend: 0x0, symName: __ZN7testing8internal27CheckedDowncastToActualTypeIKNS0_30ValuesInIteratorRangeGeneratorI9SendArgs3E8IteratorEKNS0_22ParamIteratorInterfaceIS3_EEEEPT_PT0_, symObjAddr: 0x42BD0, symBinAddr: 0x100044290, symSize: 0xA0 }
  - { offsetInCU: 0x1E28B, offset: 0x1E28B, size: 0x8, addend: 0x0, symName: __ZN7testing8internal27CheckedDowncastToActualTypeIKNS0_30ValuesInIteratorRangeGeneratorI13Send0RttArgs1E8IteratorEKNS0_22ParamIteratorInterfaceIS3_EEEEPT_PT0_, symObjAddr: 0x434C0, symBinAddr: 0x100044B80, symSize: 0xA0 }
  - { offsetInCU: 0x1E315, offset: 0x1E315, size: 0x8, addend: 0x0, symName: __ZN7testing8internal27CheckedDowncastToActualTypeIKNS0_30ValuesInIteratorRangeGeneratorI13Send0RttArgs2E8IteratorEKNS0_22ParamIteratorInterfaceIS3_EEEEPT_PT0_, symObjAddr: 0x43C60, symBinAddr: 0x100045320, symSize: 0xA0 }
  - { offsetInCU: 0x1E39F, offset: 0x1E39F, size: 0x8, addend: 0x0, symName: __ZN7testing8internal27CheckedDowncastToActualTypeIKNS0_30ValuesInIteratorRangeGeneratorI14KeyUpdateArgs1E8IteratorEKNS0_22ParamIteratorInterfaceIS3_EEEEPT_PT0_, symObjAddr: 0x443F0, symBinAddr: 0x100045AB0, symSize: 0xA0 }
  - { offsetInCU: 0x1E429, offset: 0x1E429, size: 0x8, addend: 0x0, symName: __ZN7testing8internal27CheckedDowncastToActualTypeIKNS0_30ValuesInIteratorRangeGeneratorI14KeyUpdateArgs2E8IteratorEKNS0_22ParamIteratorInterfaceIS3_EEEEPT_PT0_, symObjAddr: 0x44BA0, symBinAddr: 0x100046260, symSize: 0xA0 }
  - { offsetInCU: 0x1E4B3, offset: 0x1E4B3, size: 0x8, addend: 0x0, symName: __ZN7testing8internal27CheckedDowncastToActualTypeIKNS0_30ValuesInIteratorRangeGeneratorI12AbortiveArgsE8IteratorEKNS0_22ParamIteratorInterfaceIS3_EEEEPT_PT0_, symObjAddr: 0x45560, symBinAddr: 0x100046C20, symSize: 0xA0 }
  - { offsetInCU: 0x1E53D, offset: 0x1E53D, size: 0x8, addend: 0x0, symName: __ZN7testing8internal27CheckedDowncastToActualTypeIKNS0_30ValuesInIteratorRangeGeneratorI16CancelOnLossArgsE8IteratorEKNS0_22ParamIteratorInterfaceIS3_EEEEPT_PT0_, symObjAddr: 0x45C60, symBinAddr: 0x100047320, symSize: 0xA0 }
  - { offsetInCU: 0x1E5C7, offset: 0x1E5C7, size: 0x8, addend: 0x0, symName: __ZN7testing8internal27CheckedDowncastToActualTypeIKNS0_30ValuesInIteratorRangeGeneratorI13CidUpdateArgsE8IteratorEKNS0_22ParamIteratorInterfaceIS3_EEEEPT_PT0_, symObjAddr: 0x46410, symBinAddr: 0x100047AD0, symSize: 0xA0 }
  - { offsetInCU: 0x1E651, offset: 0x1E651, size: 0x8, addend: 0x0, symName: __ZN7testing8internal27CheckedDowncastToActualTypeIKNS0_30ValuesInIteratorRangeGeneratorI17ReceiveResumeArgsE8IteratorEKNS0_22ParamIteratorInterfaceIS3_EEEEPT_PT0_, symObjAddr: 0x46D10, symBinAddr: 0x1000483D0, symSize: 0xA0 }
  - { offsetInCU: 0x1E6DB, offset: 0x1E6DB, size: 0x8, addend: 0x0, symName: __ZN7testing8internal27CheckedDowncastToActualTypeIKNS0_30ValuesInIteratorRangeGeneratorI23ReceiveResumeNoDataArgsE8IteratorEKNS0_22ParamIteratorInterfaceIS3_EEEEPT_PT0_, symObjAddr: 0x474A0, symBinAddr: 0x100048B60, symSize: 0xA0 }
  - { offsetInCU: 0x1E765, offset: 0x1E765, size: 0x8, addend: 0x0, symName: __ZN7testing8internal27CheckedDowncastToActualTypeIKNS0_30ValuesInIteratorRangeGeneratorI23DatagramNegotiationArgsE8IteratorEKNS0_22ParamIteratorInterfaceIS3_EEEEPT_PT0_, symObjAddr: 0x47C40, symBinAddr: 0x100049300, symSize: 0xA0 }
  - { offsetInCU: 0x1E7EF, offset: 0x1E7EF, size: 0x8, addend: 0x0, symName: __ZN7testing8internal27CheckedDowncastToActualTypeIKNS0_30ValuesInIteratorRangeGeneratorI25DrillInitialPacketCidArgsE8IteratorEKNS0_22ParamIteratorInterfaceIS3_EEEEPT_PT0_, symObjAddr: 0x48490, symBinAddr: 0x100049B50, symSize: 0xA0 }
  - { offsetInCU: 0x1E879, offset: 0x1E879, size: 0x8, addend: 0x0, symName: __ZN7testing8internal27CheckedDowncastToActualTypeIKNS0_30ValuesInIteratorRangeGeneratorI27DrillInitialPacketTokenArgsE8IteratorEKNS0_22ParamIteratorInterfaceIS3_EEEEPT_PT0_, symObjAddr: 0x48BF0, symBinAddr: 0x10004A2B0, symSize: 0xA0 }
  - { offsetInCU: 0x22FE5, offset: 0x22FE5, size: 0x8, addend: 0x0, symName: __ZN7testing18WithParamInterfaceIbE10parameter_E, symObjAddr: 0x95E30, symBinAddr: 0x1004F2890, symSize: 0x0 }
  - { offsetInCU: 0x22FFC, offset: 0x22FFC, size: 0x8, addend: 0x0, symName: __ZN7testing18WithParamInterfaceI27ValidateConnectionEventArgsE10parameter_E, symObjAddr: 0x95E38, symBinAddr: 0x1004F2898, symSize: 0x0 }
  - { offsetInCU: 0x23013, offset: 0x23013, size: 0x8, addend: 0x0, symName: __ZN7testing18WithParamInterfaceI29ValidateNetStatsConnEventArgsE10parameter_E, symObjAddr: 0x95E40, symBinAddr: 0x1004F28A0, symSize: 0x0 }
  - { offsetInCU: 0x2302A, offset: 0x2302A, size: 0x8, addend: 0x0, symName: __ZN7testing18WithParamInterfaceI23ValidateStreamEventArgsE10parameter_E, symObjAddr: 0x95E48, symBinAddr: 0x1004F28A8, symSize: 0x0 }
  - { offsetInCU: 0x23041, offset: 0x23041, size: 0x8, addend: 0x0, symName: __ZN7testing18WithParamInterfaceI13TlsConfigArgsE10parameter_E, symObjAddr: 0x95E50, symBinAddr: 0x1004F28B0, symSize: 0x0 }
  - { offsetInCU: 0x23058, offset: 0x23058, size: 0x8, addend: 0x0, symName: __ZN7testing18WithParamInterfaceI10FamilyArgsE10parameter_E, symObjAddr: 0x95E58, symBinAddr: 0x1004F28B8, symSize: 0x0 }
  - { offsetInCU: 0x2306F, offset: 0x2306F, size: 0x8, addend: 0x0, symName: __ZN7testing18WithParamInterfaceI7MtuArgsE10parameter_E, symObjAddr: 0x95E60, symBinAddr: 0x1004F28C0, symSize: 0x0 }
  - { offsetInCU: 0x23086, offset: 0x23086, size: 0x8, addend: 0x0, symName: __ZN7testing18WithParamInterfaceI14HandshakeArgs1E10parameter_E, symObjAddr: 0x95E68, symBinAddr: 0x1004F28C8, symSize: 0x0 }
  - { offsetInCU: 0x2309D, offset: 0x2309D, size: 0x8, addend: 0x0, symName: __ZN7testing18WithParamInterfaceI14HandshakeArgs2E10parameter_E, symObjAddr: 0x95E70, symBinAddr: 0x1004F28D0, symSize: 0x0 }
  - { offsetInCU: 0x230B4, offset: 0x230B4, size: 0x8, addend: 0x0, symName: __ZN7testing18WithParamInterfaceI14HandshakeArgs3E10parameter_E, symObjAddr: 0x95E78, symBinAddr: 0x1004F28D8, symSize: 0x0 }
  - { offsetInCU: 0x230CB, offset: 0x230CB, size: 0x8, addend: 0x0, symName: __ZN7testing18WithParamInterfaceI25VersionNegotiationExtArgsE10parameter_E, symObjAddr: 0x95E80, symBinAddr: 0x1004F28E0, symSize: 0x0 }
  - { offsetInCU: 0x230E2, offset: 0x230E2, size: 0x8, addend: 0x0, symName: __ZN7testing18WithParamInterfaceI18FeatureSupportArgsE10parameter_E, symObjAddr: 0x95E88, symBinAddr: 0x1004F28E8, symSize: 0x0 }
  - { offsetInCU: 0x230F9, offset: 0x230F9, size: 0x8, addend: 0x0, symName: __ZN7testing18WithParamInterfaceI14HandshakeArgs5E10parameter_E, symObjAddr: 0x95E90, symBinAddr: 0x1004F28F0, symSize: 0x0 }
  - { offsetInCU: 0x23110, offset: 0x23110, size: 0x8, addend: 0x0, symName: __ZN7testing18WithParamInterfaceI14HandshakeArgs6E10parameter_E, symObjAddr: 0x95E98, symBinAddr: 0x1004F28F8, symSize: 0x0 }
  - { offsetInCU: 0x23127, offset: 0x23127, size: 0x8, addend: 0x0, symName: __ZN7testing18WithParamInterfaceI14HandshakeArgs7E10parameter_E, symObjAddr: 0x95EA0, symBinAddr: 0x1004F2900, symSize: 0x0 }
  - { offsetInCU: 0x2313E, offset: 0x2313E, size: 0x8, addend: 0x0, symName: __ZN7testing18WithParamInterfaceI14HandshakeArgs8E10parameter_E, symObjAddr: 0x95EA8, symBinAddr: 0x1004F2908, symSize: 0x0 }
  - { offsetInCU: 0x23155, offset: 0x23155, size: 0x8, addend: 0x0, symName: __ZN7testing18WithParamInterfaceI14HandshakeArgs4E10parameter_E, symObjAddr: 0x95EB0, symBinAddr: 0x1004F2910, symSize: 0x0 }
  - { offsetInCU: 0x2316C, offset: 0x2316C, size: 0x8, addend: 0x0, symName: __ZN7testing18WithParamInterfaceI17RebindPaddingArgsE10parameter_E, symObjAddr: 0x95EB8, symBinAddr: 0x1004F2918, symSize: 0x0 }
  - { offsetInCU: 0x23183, offset: 0x23183, size: 0x8, addend: 0x0, symName: __ZN7testing18WithParamInterfaceI15HandshakeArgs10E10parameter_E, symObjAddr: 0x95EC0, symBinAddr: 0x1004F2920, symSize: 0x0 }
  - { offsetInCU: 0x2319A, offset: 0x2319A, size: 0x8, addend: 0x0, symName: __ZN7testing18WithParamInterfaceI15HandshakeArgs11E10parameter_E, symObjAddr: 0x95EC8, symBinAddr: 0x1004F2928, symSize: 0x0 }
  - { offsetInCU: 0x231B1, offset: 0x231B1, size: 0x8, addend: 0x0, symName: __ZN7testing18WithParamInterfaceI9SendArgs1E10parameter_E, symObjAddr: 0x95ED0, symBinAddr: 0x1004F2930, symSize: 0x0 }
  - { offsetInCU: 0x231C8, offset: 0x231C8, size: 0x8, addend: 0x0, symName: __ZN7testing18WithParamInterfaceI9SendArgs2E10parameter_E, symObjAddr: 0x95ED8, symBinAddr: 0x1004F2938, symSize: 0x0 }
  - { offsetInCU: 0x231DF, offset: 0x231DF, size: 0x8, addend: 0x0, symName: __ZN7testing18WithParamInterfaceI9SendArgs3E10parameter_E, symObjAddr: 0x95EE0, symBinAddr: 0x1004F2940, symSize: 0x0 }
  - { offsetInCU: 0x231F6, offset: 0x231F6, size: 0x8, addend: 0x0, symName: __ZN7testing18WithParamInterfaceI13Send0RttArgs1E10parameter_E, symObjAddr: 0x95EE8, symBinAddr: 0x1004F2948, symSize: 0x0 }
  - { offsetInCU: 0x2320D, offset: 0x2320D, size: 0x8, addend: 0x0, symName: __ZN7testing18WithParamInterfaceI13Send0RttArgs2E10parameter_E, symObjAddr: 0x95EF0, symBinAddr: 0x1004F2950, symSize: 0x0 }
  - { offsetInCU: 0x23224, offset: 0x23224, size: 0x8, addend: 0x0, symName: __ZN7testing18WithParamInterfaceI14KeyUpdateArgs1E10parameter_E, symObjAddr: 0x95EF8, symBinAddr: 0x1004F2958, symSize: 0x0 }
  - { offsetInCU: 0x2323B, offset: 0x2323B, size: 0x8, addend: 0x0, symName: __ZN7testing18WithParamInterfaceI14KeyUpdateArgs2E10parameter_E, symObjAddr: 0x95F00, symBinAddr: 0x1004F2960, symSize: 0x0 }
  - { offsetInCU: 0x23252, offset: 0x23252, size: 0x8, addend: 0x0, symName: __ZN7testing18WithParamInterfaceI12AbortiveArgsE10parameter_E, symObjAddr: 0x95F08, symBinAddr: 0x1004F2968, symSize: 0x0 }
  - { offsetInCU: 0x23269, offset: 0x23269, size: 0x8, addend: 0x0, symName: __ZN7testing18WithParamInterfaceI16CancelOnLossArgsE10parameter_E, symObjAddr: 0x95F10, symBinAddr: 0x1004F2970, symSize: 0x0 }
  - { offsetInCU: 0x23280, offset: 0x23280, size: 0x8, addend: 0x0, symName: __ZN7testing18WithParamInterfaceI13CidUpdateArgsE10parameter_E, symObjAddr: 0x95F18, symBinAddr: 0x1004F2978, symSize: 0x0 }
  - { offsetInCU: 0x23297, offset: 0x23297, size: 0x8, addend: 0x0, symName: __ZN7testing18WithParamInterfaceI17ReceiveResumeArgsE10parameter_E, symObjAddr: 0x95F20, symBinAddr: 0x1004F2980, symSize: 0x0 }
  - { offsetInCU: 0x232AE, offset: 0x232AE, size: 0x8, addend: 0x0, symName: __ZN7testing18WithParamInterfaceI23ReceiveResumeNoDataArgsE10parameter_E, symObjAddr: 0x95F28, symBinAddr: 0x1004F2988, symSize: 0x0 }
  - { offsetInCU: 0x232C5, offset: 0x232C5, size: 0x8, addend: 0x0, symName: __ZN7testing18WithParamInterfaceI25DrillInitialPacketCidArgsE10parameter_E, symObjAddr: 0x95F30, symBinAddr: 0x1004F2990, symSize: 0x0 }
  - { offsetInCU: 0x232DC, offset: 0x232DC, size: 0x8, addend: 0x0, symName: __ZN7testing18WithParamInterfaceI27DrillInitialPacketTokenArgsE10parameter_E, symObjAddr: 0x95F38, symBinAddr: 0x1004F2998, symSize: 0x0 }
  - { offsetInCU: 0x232F3, offset: 0x232F3, size: 0x8, addend: 0x0, symName: __ZN7testing18WithParamInterfaceI23DatagramNegotiationArgsE10parameter_E, symObjAddr: 0x95F40, symBinAddr: 0x1004F29A0, symSize: 0x0 }
  - { offsetInCU: 0x23E7E, offset: 0x23E7E, size: 0x8, addend: 0x0, symName: __ZN7testing8ValuesInINSt3__111__wrap_iterIPK27ValidateConnectionEventArgsEEEENS_8internal14ParamGeneratorINS1_15iterator_traitsIT_E10value_typeEEESA_SA_, symObjAddr: 0x38440, symBinAddr: 0x100039B00, symSize: 0x110 }
  - { offsetInCU: 0x245A6, offset: 0x245A6, size: 0x8, addend: 0x0, symName: __ZN7testing8ValuesInINSt3__111__wrap_iterIPK29ValidateNetStatsConnEventArgsEEEENS_8internal14ParamGeneratorINS1_15iterator_traitsIT_E10value_typeEEESA_SA_, symObjAddr: 0x38B60, symBinAddr: 0x10003A220, symSize: 0x110 }
  - { offsetInCU: 0x24CCE, offset: 0x24CCE, size: 0x8, addend: 0x0, symName: __ZN7testing8ValuesInINSt3__111__wrap_iterIPK23ValidateStreamEventArgsEEEENS_8internal14ParamGeneratorINS1_15iterator_traitsIT_E10value_typeEEESA_SA_, symObjAddr: 0x39280, symBinAddr: 0x10003A940, symSize: 0x110 }
  - { offsetInCU: 0x253F6, offset: 0x253F6, size: 0x8, addend: 0x0, symName: __ZN7testing8ValuesInINSt3__111__wrap_iterIPK13TlsConfigArgsEEEENS_8internal14ParamGeneratorINS1_15iterator_traitsIT_E10value_typeEEESA_SA_, symObjAddr: 0x39A30, symBinAddr: 0x10003B0F0, symSize: 0x110 }
  - { offsetInCU: 0x25B1E, offset: 0x25B1E, size: 0x8, addend: 0x0, symName: __ZN7testing8ValuesInINSt3__111__wrap_iterIPK10FamilyArgsEEEENS_8internal14ParamGeneratorINS1_15iterator_traitsIT_E10value_typeEEESA_SA_, symObjAddr: 0x3A190, symBinAddr: 0x10003B850, symSize: 0x110 }
  - { offsetInCU: 0x26246, offset: 0x26246, size: 0x8, addend: 0x0, symName: __ZN7testing8ValuesInINSt3__111__wrap_iterIPK7MtuArgsEEEENS_8internal14ParamGeneratorINS1_15iterator_traitsIT_E10value_typeEEESA_SA_, symObjAddr: 0x3A9B0, symBinAddr: 0x10003C070, symSize: 0x130 }
  - { offsetInCU: 0x2698E, offset: 0x2698E, size: 0x8, addend: 0x0, symName: __ZN7testing8ValuesInINSt3__111__wrap_iterIPK17RebindPaddingArgsEEEENS_8internal14ParamGeneratorINS1_15iterator_traitsIT_E10value_typeEEESA_SA_, symObjAddr: 0x3B160, symBinAddr: 0x10003C820, symSize: 0x110 }
  - { offsetInCU: 0x270B6, offset: 0x270B6, size: 0x8, addend: 0x0, symName: __ZN7testing8ValuesInINSt3__111__wrap_iterIPK25VersionNegotiationExtArgsEEEENS_8internal14ParamGeneratorINS1_15iterator_traitsIT_E10value_typeEEESA_SA_, symObjAddr: 0x3B930, symBinAddr: 0x10003CFF0, symSize: 0x110 }
  - { offsetInCU: 0x277DE, offset: 0x277DE, size: 0x8, addend: 0x0, symName: __ZN7testing8ValuesInINSt3__111__wrap_iterIPK14HandshakeArgs1EEEENS_8internal14ParamGeneratorINS1_15iterator_traitsIT_E10value_typeEEESA_SA_, symObjAddr: 0x3C180, symBinAddr: 0x10003D840, symSize: 0x110 }
  - { offsetInCU: 0x27F06, offset: 0x27F06, size: 0x8, addend: 0x0, symName: __ZN7testing8ValuesInINSt3__111__wrap_iterIPK14HandshakeArgs2EEEENS_8internal14ParamGeneratorINS1_15iterator_traitsIT_E10value_typeEEESA_SA_, symObjAddr: 0x3C920, symBinAddr: 0x10003DFE0, symSize: 0x110 }
  - { offsetInCU: 0x2862E, offset: 0x2862E, size: 0x8, addend: 0x0, symName: __ZN7testing8ValuesInINSt3__111__wrap_iterIPK14HandshakeArgs3EEEENS_8internal14ParamGeneratorINS1_15iterator_traitsIT_E10value_typeEEESA_SA_, symObjAddr: 0x3D120, symBinAddr: 0x10003E7E0, symSize: 0x110 }
  - { offsetInCU: 0x28D56, offset: 0x28D56, size: 0x8, addend: 0x0, symName: __ZN7testing8ValuesInINSt3__111__wrap_iterIPK14HandshakeArgs4EEEENS_8internal14ParamGeneratorINS1_15iterator_traitsIT_E10value_typeEEESA_SA_, symObjAddr: 0x3D940, symBinAddr: 0x10003F000, symSize: 0x110 }
  - { offsetInCU: 0x2947E, offset: 0x2947E, size: 0x8, addend: 0x0, symName: __ZN7testing8ValuesInINSt3__111__wrap_iterIPK14HandshakeArgs5EEEENS_8internal14ParamGeneratorINS1_15iterator_traitsIT_E10value_typeEEESA_SA_, symObjAddr: 0x3E090, symBinAddr: 0x10003F750, symSize: 0x110 }
  - { offsetInCU: 0x29BA6, offset: 0x29BA6, size: 0x8, addend: 0x0, symName: __ZN7testing8ValuesInINSt3__111__wrap_iterIPK14HandshakeArgs6EEEENS_8internal14ParamGeneratorINS1_15iterator_traitsIT_E10value_typeEEESA_SA_, symObjAddr: 0x3E830, symBinAddr: 0x10003FEF0, symSize: 0x110 }
  - { offsetInCU: 0x2A2CE, offset: 0x2A2CE, size: 0x8, addend: 0x0, symName: __ZN7testing8ValuesInINSt3__111__wrap_iterIPK14HandshakeArgs7EEEENS_8internal14ParamGeneratorINS1_15iterator_traitsIT_E10value_typeEEESA_SA_, symObjAddr: 0x3EFD0, symBinAddr: 0x100040690, symSize: 0x110 }
  - { offsetInCU: 0x2A9F6, offset: 0x2A9F6, size: 0x8, addend: 0x0, symName: __ZN7testing8ValuesInINSt3__111__wrap_iterIPK18FeatureSupportArgsEEEENS_8internal14ParamGeneratorINS1_15iterator_traitsIT_E10value_typeEEESA_SA_, symObjAddr: 0x3F7A0, symBinAddr: 0x100040E60, symSize: 0x110 }
  - { offsetInCU: 0x2B11E, offset: 0x2B11E, size: 0x8, addend: 0x0, symName: __ZN7testing8ValuesInINSt3__111__wrap_iterIPK14HandshakeArgs8EEEENS_8internal14ParamGeneratorINS1_15iterator_traitsIT_E10value_typeEEESA_SA_, symObjAddr: 0x3FF10, symBinAddr: 0x1000415D0, symSize: 0x110 }
  - { offsetInCU: 0x2B846, offset: 0x2B846, size: 0x8, addend: 0x0, symName: __ZN7testing8ValuesInINSt3__111__wrap_iterIPK15HandshakeArgs10EEEENS_8internal14ParamGeneratorINS1_15iterator_traitsIT_E10value_typeEEESA_SA_, symObjAddr: 0x406A0, symBinAddr: 0x100041D60, symSize: 0x110 }
  - { offsetInCU: 0x2BF6E, offset: 0x2BF6E, size: 0x8, addend: 0x0, symName: __ZN7testing8ValuesInINSt3__111__wrap_iterIPK15HandshakeArgs11EEEENS_8internal14ParamGeneratorINS1_15iterator_traitsIT_E10value_typeEEESA_SA_, symObjAddr: 0x40DB0, symBinAddr: 0x100042470, symSize: 0x100 }
  - { offsetInCU: 0x2C6A5, offset: 0x2C6A5, size: 0x8, addend: 0x0, symName: __ZN7testing8ValuesInINSt3__111__wrap_iterIPK9SendArgs1EEEENS_8internal14ParamGeneratorINS1_15iterator_traitsIT_E10value_typeEEESA_SA_, symObjAddr: 0x416D0, symBinAddr: 0x100042D90, symSize: 0x110 }
  - { offsetInCU: 0x2CDDF, offset: 0x2CDDF, size: 0x8, addend: 0x0, symName: __ZN7testing8ValuesInINSt3__111__wrap_iterIPK9SendArgs2EEEENS_8internal14ParamGeneratorINS1_15iterator_traitsIT_E10value_typeEEESA_SA_, symObjAddr: 0x41EB0, symBinAddr: 0x100043570, symSize: 0x110 }
  - { offsetInCU: 0x2D507, offset: 0x2D507, size: 0x8, addend: 0x0, symName: __ZN7testing8ValuesInINSt3__111__wrap_iterIPK9SendArgs3EEEENS_8internal14ParamGeneratorINS1_15iterator_traitsIT_E10value_typeEEESA_SA_, symObjAddr: 0x42750, symBinAddr: 0x100043E10, symSize: 0x110 }
  - { offsetInCU: 0x2DC41, offset: 0x2DC41, size: 0x8, addend: 0x0, symName: __ZN7testing8ValuesInINSt3__111__wrap_iterIPK13Send0RttArgs1EEEENS_8internal14ParamGeneratorINS1_15iterator_traitsIT_E10value_typeEEESA_SA_, symObjAddr: 0x43040, symBinAddr: 0x100044700, symSize: 0x110 }
  - { offsetInCU: 0x2E37B, offset: 0x2E37B, size: 0x8, addend: 0x0, symName: __ZN7testing8ValuesInINSt3__111__wrap_iterIPK13Send0RttArgs2EEEENS_8internal14ParamGeneratorINS1_15iterator_traitsIT_E10value_typeEEESA_SA_, symObjAddr: 0x437E0, symBinAddr: 0x100044EA0, symSize: 0x110 }
  - { offsetInCU: 0x2EAB5, offset: 0x2EAB5, size: 0x8, addend: 0x0, symName: __ZN7testing8ValuesInINSt3__111__wrap_iterIPK14KeyUpdateArgs1EEEENS_8internal14ParamGeneratorINS1_15iterator_traitsIT_E10value_typeEEESA_SA_, symObjAddr: 0x43F70, symBinAddr: 0x100045630, symSize: 0x110 }
  - { offsetInCU: 0x2F1DD, offset: 0x2F1DD, size: 0x8, addend: 0x0, symName: __ZN7testing8ValuesInINSt3__111__wrap_iterIPK14KeyUpdateArgs2EEEENS_8internal14ParamGeneratorINS1_15iterator_traitsIT_E10value_typeEEESA_SA_, symObjAddr: 0x44720, symBinAddr: 0x100045DE0, symSize: 0x110 }
  - { offsetInCU: 0x2F905, offset: 0x2F905, size: 0x8, addend: 0x0, symName: __ZN7testing8ValuesInINSt3__111__wrap_iterIPK12AbortiveArgsEEEENS_8internal14ParamGeneratorINS1_15iterator_traitsIT_E10value_typeEEESA_SA_, symObjAddr: 0x450E0, symBinAddr: 0x1000467A0, symSize: 0x110 }
  - { offsetInCU: 0x3002D, offset: 0x3002D, size: 0x8, addend: 0x0, symName: __ZN7testing8ValuesInINSt3__111__wrap_iterIPK16CancelOnLossArgsEEEENS_8internal14ParamGeneratorINS1_15iterator_traitsIT_E10value_typeEEESA_SA_, symObjAddr: 0x457F0, symBinAddr: 0x100046EB0, symSize: 0x100 }
  - { offsetInCU: 0x30764, offset: 0x30764, size: 0x8, addend: 0x0, symName: __ZN7testing8ValuesInINSt3__111__wrap_iterIPK13CidUpdateArgsEEEENS_8internal14ParamGeneratorINS1_15iterator_traitsIT_E10value_typeEEESA_SA_, symObjAddr: 0x45F90, symBinAddr: 0x100047650, symSize: 0x110 }
  - { offsetInCU: 0x30E8C, offset: 0x30E8C, size: 0x8, addend: 0x0, symName: __ZN7testing8ValuesInINSt3__111__wrap_iterIPK17ReceiveResumeArgsEEEENS_8internal14ParamGeneratorINS1_15iterator_traitsIT_E10value_typeEEESA_SA_, symObjAddr: 0x46870, symBinAddr: 0x100047F30, symSize: 0x130 }
  - { offsetInCU: 0x315D4, offset: 0x315D4, size: 0x8, addend: 0x0, symName: __ZN7testing8ValuesInINSt3__111__wrap_iterIPK23ReceiveResumeNoDataArgsEEEENS_8internal14ParamGeneratorINS1_15iterator_traitsIT_E10value_typeEEESA_SA_, symObjAddr: 0x47020, symBinAddr: 0x1000486E0, symSize: 0x110 }
  - { offsetInCU: 0x31CFC, offset: 0x31CFC, size: 0x8, addend: 0x0, symName: __ZN7testing8ValuesInINSt3__111__wrap_iterIPK23DatagramNegotiationArgsEEEENS_8internal14ParamGeneratorINS1_15iterator_traitsIT_E10value_typeEEESA_SA_, symObjAddr: 0x477C0, symBinAddr: 0x100048E80, symSize: 0x110 }
  - { offsetInCU: 0x32424, offset: 0x32424, size: 0x8, addend: 0x0, symName: __ZN7testing8ValuesInINSt3__111__wrap_iterIPK25DrillInitialPacketCidArgsEEEENS_8internal14ParamGeneratorINS1_15iterator_traitsIT_E10value_typeEEESA_SA_, symObjAddr: 0x48010, symBinAddr: 0x1000496D0, symSize: 0x110 }
  - { offsetInCU: 0x32B4C, offset: 0x32B4C, size: 0x8, addend: 0x0, symName: __ZN7testing8ValuesInINSt3__111__wrap_iterIPK27DrillInitialPacketTokenArgsEEEENS_8internal14ParamGeneratorINS1_15iterator_traitsIT_E10value_typeEEESA_SA_, symObjAddr: 0x48770, symBinAddr: 0x100049E30, symSize: 0x110 }
  - { offsetInCU: 0x33310, offset: 0x33310, size: 0x8, addend: 0x0, symName: __ZN7testing8ValuesInINSt3__16vectorIbNS1_9allocatorIbEEEEEENS_8internal14ParamGeneratorINT_10value_typeEEERKS8_, symObjAddr: 0x37BD0, symBinAddr: 0x100039290, symSize: 0xE0 }
  - { offsetInCU: 0x33784, offset: 0x33784, size: 0x8, addend: 0x0, symName: __ZN7testing13PrintToStringIbEENSt3__112basic_stringIcNS1_11char_traitsIcEENS1_9allocatorIcEEEERKT_, symObjAddr: 0x4B6E0, symBinAddr: 0x10004CA30, symSize: 0x110 }
  - { offsetInCU: 0x33A93, offset: 0x33A93, size: 0x8, addend: 0x0, symName: __ZN7testing13PrintToStringI27ValidateConnectionEventArgsEENSt3__112basic_stringIcNS2_11char_traitsIcEENS2_9allocatorIcEEEERKT_, symObjAddr: 0x4D960, symBinAddr: 0x10004ECB0, symSize: 0xF0 }
  - { offsetInCU: 0x33D99, offset: 0x33D99, size: 0x8, addend: 0x0, symName: __ZN7testing13PrintToStringI29ValidateNetStatsConnEventArgsEENSt3__112basic_stringIcNS2_11char_traitsIcEENS2_9allocatorIcEEEERKT_, symObjAddr: 0x4EF20, symBinAddr: 0x100050270, symSize: 0xF0 }
  - { offsetInCU: 0x3409F, offset: 0x3409F, size: 0x8, addend: 0x0, symName: __ZN7testing13PrintToStringI23ValidateStreamEventArgsEENSt3__112basic_stringIcNS2_11char_traitsIcEENS2_9allocatorIcEEEERKT_, symObjAddr: 0x504E0, symBinAddr: 0x100051830, symSize: 0xF0 }
  - { offsetInCU: 0x343A5, offset: 0x343A5, size: 0x8, addend: 0x0, symName: __ZN7testing13PrintToStringI13TlsConfigArgsEENSt3__112basic_stringIcNS2_11char_traitsIcEENS2_9allocatorIcEEEERKT_, symObjAddr: 0x51AA0, symBinAddr: 0x100052DF0, symSize: 0x110 }
  - { offsetInCU: 0x3472F, offset: 0x3472F, size: 0x8, addend: 0x0, symName: __ZN7testing13PrintToStringI10FamilyArgsEENSt3__112basic_stringIcNS2_11char_traitsIcEENS2_9allocatorIcEEEERKT_, symObjAddr: 0x52EC0, symBinAddr: 0x100054210, symSize: 0x100 }
  - { offsetInCU: 0x34A72, offset: 0x34A72, size: 0x8, addend: 0x0, symName: __ZN7testing13PrintToStringI7MtuArgsEENSt3__112basic_stringIcNS2_11char_traitsIcEENS2_9allocatorIcEEEERKT_, symObjAddr: 0x544B0, symBinAddr: 0x100055800, symSize: 0x160 }
  - { offsetInCU: 0x34EA8, offset: 0x34EA8, size: 0x8, addend: 0x0, symName: __ZN7testing13PrintToStringI14HandshakeArgs1EENSt3__112basic_stringIcNS2_11char_traitsIcEENS2_9allocatorIcEEEERKT_, symObjAddr: 0x55B50, symBinAddr: 0x100056EA0, symSize: 0xF0 }
  - { offsetInCU: 0x351A6, offset: 0x351A6, size: 0x8, addend: 0x0, symName: __ZN7testing13PrintToStringI14HandshakeArgs2EENSt3__112basic_stringIcNS2_11char_traitsIcEENS2_9allocatorIcEEEERKT_, symObjAddr: 0x57110, symBinAddr: 0x100058460, symSize: 0x140 }
  - { offsetInCU: 0x35598, offset: 0x35598, size: 0x8, addend: 0x0, symName: __ZN7testing13PrintToStringI14HandshakeArgs3EENSt3__112basic_stringIcNS2_11char_traitsIcEENS2_9allocatorIcEEEERKT_, symObjAddr: 0x58770, symBinAddr: 0x100059AC0, symSize: 0xF0 }
  - { offsetInCU: 0x35896, offset: 0x35896, size: 0x8, addend: 0x0, symName: __ZN7testing13PrintToStringI25VersionNegotiationExtArgsEENSt3__112basic_stringIcNS2_11char_traitsIcEENS2_9allocatorIcEEEERKT_, symObjAddr: 0x59D30, symBinAddr: 0x10005B080, symSize: 0x180 }
  - { offsetInCU: 0x35D29, offset: 0x35D29, size: 0x8, addend: 0x0, symName: __ZN7testing13PrintToStringI18FeatureSupportArgsEENSt3__112basic_stringIcNS2_11char_traitsIcEENS2_9allocatorIcEEEERKT_, symObjAddr: 0x5B410, symBinAddr: 0x10005C760, symSize: 0x180 }
  - { offsetInCU: 0x361C1, offset: 0x361C1, size: 0x8, addend: 0x0, symName: __ZN7testing13PrintToStringI14HandshakeArgs5EENSt3__112basic_stringIcNS2_11char_traitsIcEENS2_9allocatorIcEEEERKT_, symObjAddr: 0x5CAF0, symBinAddr: 0x10005DE40, symSize: 0x140 }
  - { offsetInCU: 0x365B3, offset: 0x365B3, size: 0x8, addend: 0x0, symName: __ZN7testing13PrintToStringI14HandshakeArgs6EENSt3__112basic_stringIcNS2_11char_traitsIcEENS2_9allocatorIcEEEERKT_, symObjAddr: 0x5E150, symBinAddr: 0x10005F4A0, symSize: 0x140 }
  - { offsetInCU: 0x369A5, offset: 0x369A5, size: 0x8, addend: 0x0, symName: __ZN7testing13PrintToStringI14HandshakeArgs7EENSt3__112basic_stringIcNS2_11char_traitsIcEENS2_9allocatorIcEEEERKT_, symObjAddr: 0x5F7B0, symBinAddr: 0x100060B00, symSize: 0x120 }
  - { offsetInCU: 0x36D30, offset: 0x36D30, size: 0x8, addend: 0x0, symName: __ZN7testing13PrintToStringI14HandshakeArgs8EENSt3__112basic_stringIcNS2_11char_traitsIcEENS2_9allocatorIcEEEERKT_, symObjAddr: 0x60DD0, symBinAddr: 0x100062120, symSize: 0x120 }
  - { offsetInCU: 0x370BB, offset: 0x370BB, size: 0x8, addend: 0x0, symName: __ZN7testing13PrintToStringI14HandshakeArgs4EENSt3__112basic_stringIcNS2_11char_traitsIcEENS2_9allocatorIcEEEERKT_, symObjAddr: 0x63700, symBinAddr: 0x100064A50, symSize: 0xF0 }
  - { offsetInCU: 0x373B9, offset: 0x373B9, size: 0x8, addend: 0x0, symName: __ZN7testing13PrintToStringI17RebindPaddingArgsEENSt3__112basic_stringIcNS2_11char_traitsIcEENS2_9allocatorIcEEEERKT_, symObjAddr: 0x64CC0, symBinAddr: 0x100066010, symSize: 0x120 }
  - { offsetInCU: 0x37744, offset: 0x37744, size: 0x8, addend: 0x0, symName: __ZN7testing13PrintToStringI15HandshakeArgs10EENSt3__112basic_stringIcNS2_11char_traitsIcEENS2_9allocatorIcEEEERKT_, symObjAddr: 0x662E0, symBinAddr: 0x100067630, symSize: 0x140 }
  - { offsetInCU: 0x37B39, offset: 0x37B39, size: 0x8, addend: 0x0, symName: __ZN7testing13PrintToStringI15HandshakeArgs11EENSt3__112basic_stringIcNS2_11char_traitsIcEENS2_9allocatorIcEEEERKT_, symObjAddr: 0x67940, symBinAddr: 0x100068C90, symSize: 0x100 }
  - { offsetInCU: 0x37E7D, offset: 0x37E7D, size: 0x8, addend: 0x0, symName: __ZN7testing13PrintToStringI9SendArgs1EENSt3__112basic_stringIcNS2_11char_traitsIcEENS2_9allocatorIcEEEERKT_, symObjAddr: 0x68F20, symBinAddr: 0x10006A270, symSize: 0xF0 }
  - { offsetInCU: 0x3817B, offset: 0x3817B, size: 0x8, addend: 0x0, symName: __ZN7testing13PrintToStringI9SendArgs2EENSt3__112basic_stringIcNS2_11char_traitsIcEENS2_9allocatorIcEEEERKT_, symObjAddr: 0x6A4E0, symBinAddr: 0x10006B830, symSize: 0x180 }
  - { offsetInCU: 0x385E0, offset: 0x385E0, size: 0x8, addend: 0x0, symName: __ZN7testing13PrintToStringI9SendArgs3EENSt3__112basic_stringIcNS2_11char_traitsIcEENS2_9allocatorIcEEEERKT_, symObjAddr: 0x6BBC0, symBinAddr: 0x10006CF10, symSize: 0xF0 }
  - { offsetInCU: 0x388DE, offset: 0x388DE, size: 0x8, addend: 0x0, symName: __ZN7testing13PrintToStringI13Send0RttArgs1EENSt3__112basic_stringIcNS2_11char_traitsIcEENS2_9allocatorIcEEEERKT_, symObjAddr: 0x6D180, symBinAddr: 0x10006E4D0, symSize: 0xF0 }
  - { offsetInCU: 0x38BDC, offset: 0x38BDC, size: 0x8, addend: 0x0, symName: __ZN7testing13PrintToStringI13Send0RttArgs2EENSt3__112basic_stringIcNS2_11char_traitsIcEENS2_9allocatorIcEEEERKT_, symObjAddr: 0x6E740, symBinAddr: 0x10006FA90, symSize: 0x120 }
  - { offsetInCU: 0x38F67, offset: 0x38F67, size: 0x8, addend: 0x0, symName: __ZN7testing13PrintToStringI14KeyUpdateArgs1EENSt3__112basic_stringIcNS2_11char_traitsIcEENS2_9allocatorIcEEEERKT_, symObjAddr: 0x6FD60, symBinAddr: 0x1000710B0, symSize: 0x120 }
  - { offsetInCU: 0x392F2, offset: 0x392F2, size: 0x8, addend: 0x0, symName: __ZN7testing13PrintToStringI14KeyUpdateArgs2EENSt3__112basic_stringIcNS2_11char_traitsIcEENS2_9allocatorIcEEEERKT_, symObjAddr: 0x71380, symBinAddr: 0x1000726D0, symSize: 0x130 }
  - { offsetInCU: 0x396BB, offset: 0x396BB, size: 0x8, addend: 0x0, symName: __ZN7testing13PrintToStringI12AbortiveArgsEENSt3__112basic_stringIcNS2_11char_traitsIcEENS2_9allocatorIcEEEERKT_, symObjAddr: 0x729C0, symBinAddr: 0x100073D10, symSize: 0xF0 }
  - { offsetInCU: 0x399B9, offset: 0x399B9, size: 0x8, addend: 0x0, symName: __ZN7testing13PrintToStringI16CancelOnLossArgsEENSt3__112basic_stringIcNS2_11char_traitsIcEENS2_9allocatorIcEEEERKT_, symObjAddr: 0x73F80, symBinAddr: 0x1000752D0, symSize: 0x120 }
  - { offsetInCU: 0x39D46, offset: 0x39D46, size: 0x8, addend: 0x0, symName: __ZN7testing13PrintToStringI13CidUpdateArgsEENSt3__112basic_stringIcNS2_11char_traitsIcEENS2_9allocatorIcEEEERKT_, symObjAddr: 0x755A0, symBinAddr: 0x1000768F0, symSize: 0x120 }
  - { offsetInCU: 0x3A0D1, offset: 0x3A0D1, size: 0x8, addend: 0x0, symName: __ZN7testing13PrintToStringI17ReceiveResumeArgsEENSt3__112basic_stringIcNS2_11char_traitsIcEENS2_9allocatorIcEEEERKT_, symObjAddr: 0x76BC0, symBinAddr: 0x100077F10, symSize: 0xF0 }
  - { offsetInCU: 0x3A3CF, offset: 0x3A3CF, size: 0x8, addend: 0x0, symName: __ZN7testing13PrintToStringI23ReceiveResumeNoDataArgsEENSt3__112basic_stringIcNS2_11char_traitsIcEENS2_9allocatorIcEEEERKT_, symObjAddr: 0x78180, symBinAddr: 0x1000794D0, symSize: 0x150 }
  - { offsetInCU: 0x3A7DF, offset: 0x3A7DF, size: 0x8, addend: 0x0, symName: __ZN7testing13PrintToStringI25DrillInitialPacketCidArgsEENSt3__112basic_stringIcNS2_11char_traitsIcEENS2_9allocatorIcEEEERKT_, symObjAddr: 0x79810, symBinAddr: 0x10007AB60, symSize: 0xF0 }
  - { offsetInCU: 0x3AADD, offset: 0x3AADD, size: 0x8, addend: 0x0, symName: __ZN7testing13PrintToStringI27DrillInitialPacketTokenArgsEENSt3__112basic_stringIcNS2_11char_traitsIcEENS2_9allocatorIcEEEERKT_, symObjAddr: 0x7ADD0, symBinAddr: 0x10007C120, symSize: 0x100 }
  - { offsetInCU: 0x3AE21, offset: 0x3AE21, size: 0x8, addend: 0x0, symName: __ZN7testing13PrintToStringI23DatagramNegotiationArgsEENSt3__112basic_stringIcNS2_11char_traitsIcEENS2_9allocatorIcEEEERKT_, symObjAddr: 0x7C3B0, symBinAddr: 0x10007D700, symSize: 0x140 }
  - { offsetInCU: 0x11C005, offset: 0x11C005, size: 0x8, addend: 0x0, symName: __ZNSt3__124__put_character_sequenceB8ue170006IcNS_11char_traitsIcEEEERNS_13basic_ostreamIT_T0_EES7_PKS4_m, symObjAddr: 0x49BA0, symBinAddr: 0x10004AEF0, symSize: 0x160 }
  - { offsetInCU: 0x12DCAB, offset: 0x12DCAB, size: 0x8, addend: 0x0, symName: __ZNSt3__120__throw_length_errorB8ue170006EPKc, symObjAddr: 0x25E90, symBinAddr: 0x100027E90, symSize: 0x50 }
  - { offsetInCU: 0x1718CA, offset: 0x1718CA, size: 0x8, addend: 0x0, symName: __ZNSt3__116__pad_and_outputB8ue170006IcNS_11char_traitsIcEEEENS_19ostreambuf_iteratorIT_T0_EES6_PKS4_S8_S8_RNS_8ios_baseES4_, symObjAddr: 0x49D00, symBinAddr: 0x10004B050, symSize: 0x170 }
  - { offsetInCU: 0x1730B4, offset: 0x1730B4, size: 0x8, addend: 0x0, symName: __ZNSt3__127__tree_balance_after_insertB8ue170006IPNS_16__tree_node_baseIPvEEEEvT_S5_, symObjAddr: 0x4BAB0, symBinAddr: 0x10004CE00, symSize: 0x1A0 }
  - { offsetInCU: 0x17A754, offset: 0x17A754, size: 0x8, addend: 0x0, symName: __ZSt28__throw_bad_array_new_lengthB8ue170006v, symObjAddr: 0x25F10, symBinAddr: 0x100027F10, symSize: 0x40 }
  - { offsetInCU: 0x17B285, offset: 0x17B285, size: 0x8, addend: 0x0, symName: __ZN45ParameterValidation_ValidateRegistration_Test10test_info_E, symObjAddr: 0x1066CA8, symBinAddr: 0x1004F8860, symSize: 0x0 }
  - { offsetInCU: 0x17B36D, offset: 0x17B36D, size: 0x8, addend: 0x0, symName: __ZN44ParameterValidation_ValidateGlobalParam_Test10test_info_E, symObjAddr: 0x1066CB0, symBinAddr: 0x1004F8868, symSize: 0x0 }
  - { offsetInCU: 0x17B455, offset: 0x17B455, size: 0x8, addend: 0x0, symName: __ZN44ParameterValidation_ValidateCommonParam_Test10test_info_E, symObjAddr: 0x1066CB8, symBinAddr: 0x1004F8870, symSize: 0x0 }
  - { offsetInCU: 0x17B53D, offset: 0x17B53D, size: 0x8, addend: 0x0, symName: __ZN50ParameterValidation_ValidateRegistrationParam_Test10test_info_E, symObjAddr: 0x1066CC0, symBinAddr: 0x1004F8878, symSize: 0x0 }
  - { offsetInCU: 0x17B625, offset: 0x17B625, size: 0x8, addend: 0x0, symName: __ZN51ParameterValidation_ValidateConfigurationParam_Test10test_info_E, symObjAddr: 0x1066CC8, symBinAddr: 0x1004F8880, symSize: 0x0 }
  - { offsetInCU: 0x17B70D, offset: 0x17B70D, size: 0x8, addend: 0x0, symName: __ZN46ParameterValidation_ValidateListenerParam_Test10test_info_E, symObjAddr: 0x1066CD0, symBinAddr: 0x1004F8888, symSize: 0x0 }
  - { offsetInCU: 0x17B7FE, offset: 0x17B7FE, size: 0x8, addend: 0x0, symName: __ZN48ParameterValidation_ValidateConnectionParam_Test10test_info_E, symObjAddr: 0x1066CD8, symBinAddr: 0x1004F8890, symSize: 0x0 }
  - { offsetInCU: 0x17B8EF, offset: 0x17B8EF, size: 0x8, addend: 0x0, symName: __ZN41ParameterValidation_ValidateTlsParam_Test10test_info_E, symObjAddr: 0x1066CE0, symBinAddr: 0x1004F8898, symSize: 0x0 }
  - { offsetInCU: 0x17B9E0, offset: 0x17B9E0, size: 0x8, addend: 0x0, symName: __ZN44ParameterValidation_ValidateStreamParam_Test10test_info_E, symObjAddr: 0x1066CE8, symBinAddr: 0x1004F88A0, symSize: 0x0 }
  - { offsetInCU: 0x17BAD1, offset: 0x17BAD1, size: 0x8, addend: 0x0, symName: __ZN48ParameterValidation_ValidateGetPerfCounters_Test10test_info_E, symObjAddr: 0x1066CF0, symBinAddr: 0x1004F88A8, symSize: 0x0 }
  - { offsetInCU: 0x17BBC2, offset: 0x17BBC2, size: 0x8, addend: 0x0, symName: __ZN46ParameterValidation_ValidateConfiguration_Test10test_info_E, symObjAddr: 0x1066CF8, symBinAddr: 0x1004F88B0, symSize: 0x0 }
  - { offsetInCU: 0x17BCB3, offset: 0x17BCB3, size: 0x8, addend: 0x0, symName: __ZN41ParameterValidation_ValidateListener_Test10test_info_E, symObjAddr: 0x1066D00, symBinAddr: 0x1004F88B8, symSize: 0x0 }
  - { offsetInCU: 0x17BDA4, offset: 0x17BDA4, size: 0x8, addend: 0x0, symName: __ZN43ParameterValidation_ValidateConnection_Test10test_info_E, symObjAddr: 0x1066D08, symBinAddr: 0x1004F88C0, symSize: 0x0 }
  - { offsetInCU: 0x17BE95, offset: 0x17BE95, size: 0x8, addend: 0x0, symName: __ZN59OwnershipValidation_RegistrationShutdownBeforeConnOpen_Test10test_info_E, symObjAddr: 0x1066D10, symBinAddr: 0x1004F88C8, symSize: 0x0 }
  - { offsetInCU: 0x17BF86, offset: 0x17BF86, size: 0x8, addend: 0x0, symName: __ZN58OwnershipValidation_RegistrationShutdownAfterConnOpen_Test10test_info_E, symObjAddr: 0x1066D18, symBinAddr: 0x1004F88D0, symSize: 0x0 }
  - { offsetInCU: 0x17C077, offset: 0x17C077, size: 0x8, addend: 0x0, symName: __ZN69OwnershipValidation_RegistrationShutdownAfterConnOpenBeforeStart_Test10test_info_E, symObjAddr: 0x1066D20, symBinAddr: 0x1004F88D8, symSize: 0x0 }
  - { offsetInCU: 0x17C168, offset: 0x17C168, size: 0x8, addend: 0x0, symName: __ZN66OwnershipValidation_RegistrationShutdownAfterConnOpenAndStart_Test10test_info_E, symObjAddr: 0x1066D28, symBinAddr: 0x1004F88E0, symSize: 0x0 }
  - { offsetInCU: 0x17C259, offset: 0x17C259, size: 0x8, addend: 0x0, symName: __ZN57OwnershipValidation_ConnectionCloseBeforeStreamClose_Test10test_info_E, symObjAddr: 0x1066D30, symBinAddr: 0x1004F88E8, symSize: 0x0 }
  - { offsetInCU: 0x17C34A, offset: 0x17C34A, size: 0x8, addend: 0x0, symName: __ZN28WithBool_ValidateStream_Test24gtest_registering_dummy_E, symObjAddr: 0x1066D38, symBinAddr: 0x1004F88F0, symSize: 0x0 }
  - { offsetInCU: 0x17C43F, offset: 0x17C43F, size: 0x8, addend: 0x0, symName: __ZN51ParameterValidation_CloseConnBeforeStreamFlush_Test10test_info_E, symObjAddr: 0x1066D40, symBinAddr: 0x1004F88F8, symSize: 0x0 }
  - { offsetInCU: 0x17C530, offset: 0x17C530, size: 0x8, addend: 0x0, symName: __ZN61WithValidateConnectionEventArgs_ValidateConnectionEvents_Test24gtest_registering_dummy_E, symObjAddr: 0x1066D48, symBinAddr: 0x1004F8900, symSize: 0x0 }
  - { offsetInCU: 0x17C7E7, offset: 0x17C7E7, size: 0x8, addend: 0x0, symName: __ZN63WithValidateNetStatsConnEventArgs_ValidateNetStatConnEvent_Test24gtest_registering_dummy_E, symObjAddr: 0x1066D4C, symBinAddr: 0x1004F8904, symSize: 0x0 }
  - { offsetInCU: 0x17CA9E, offset: 0x17CA9E, size: 0x8, addend: 0x0, symName: __ZN53WithValidateStreamEventArgs_ValidateStreamEvents_Test24gtest_registering_dummy_E, symObjAddr: 0x1066D50, symBinAddr: 0x1004F8908, symSize: 0x0 }
  - { offsetInCU: 0x17CD55, offset: 0x17CD55, size: 0x8, addend: 0x0, symName: __ZN48ParameterValidation_ValidateVersionSettings_Test10test_info_E, symObjAddr: 0x1066D58, symBinAddr: 0x1004F8910, symSize: 0x0 }
  - { offsetInCU: 0x17CE46, offset: 0x17CE46, size: 0x8, addend: 0x0, symName: __ZN41ParameterValidation_ValidateParamApi_Test10test_info_E, symObjAddr: 0x1066D60, symBinAddr: 0x1004F8918, symSize: 0x0 }
  - { offsetInCU: 0x17CF37, offset: 0x17CF37, size: 0x8, addend: 0x0, symName: __ZN48WithValidateTlsConfigArgs_ValidateTlsConfig_Test24gtest_registering_dummy_E, symObjAddr: 0x1066D68, symBinAddr: 0x1004F8920, symSize: 0x0 }
  - { offsetInCU: 0x17D245, offset: 0x17D245, size: 0x8, addend: 0x0, symName: __ZN25Basic_CreateListener_Test10test_info_E, symObjAddr: 0x1066D70, symBinAddr: 0x1004F8928, symSize: 0x0 }
  - { offsetInCU: 0x17D336, offset: 0x17D336, size: 0x8, addend: 0x0, symName: __ZN24Basic_StartListener_Test10test_info_E, symObjAddr: 0x1066D78, symBinAddr: 0x1004F8930, symSize: 0x0 }
  - { offsetInCU: 0x17D427, offset: 0x17D427, size: 0x8, addend: 0x0, symName: __ZN34Basic_StartListenerMultiAlpns_Test10test_info_E, symObjAddr: 0x1066D80, symBinAddr: 0x1004F8938, symSize: 0x0 }
  - { offsetInCU: 0x17D518, offset: 0x17D518, size: 0x8, addend: 0x0, symName: __ZN41WithFamilyArgs_StartListenerImplicit_Test24gtest_registering_dummy_E, symObjAddr: 0x1066D88, symBinAddr: 0x1004F8940, symSize: 0x0 }
  - { offsetInCU: 0x17D7CC, offset: 0x17D7CC, size: 0x8, addend: 0x0, symName: __ZN28Basic_StartTwoListeners_Test10test_info_E, symObjAddr: 0x1066D90, symBinAddr: 0x1004F8948, symSize: 0x0 }
  - { offsetInCU: 0x17D8BD, offset: 0x17D8BD, size: 0x8, addend: 0x0, symName: __ZN36Basic_StartTwoListenersSameALPN_Test10test_info_E, symObjAddr: 0x1066D98, symBinAddr: 0x1004F8950, symSize: 0x0 }
  - { offsetInCU: 0x17D9AE, offset: 0x17D9AE, size: 0x8, addend: 0x0, symName: __ZN41WithFamilyArgs_StartListenerExplicit_Test24gtest_registering_dummy_E, symObjAddr: 0x1066DA0, symBinAddr: 0x1004F8958, symSize: 0x0 }
  - { offsetInCU: 0x17DA3C, offset: 0x17DA3C, size: 0x8, addend: 0x0, symName: __ZN27Basic_CreateConnection_Test10test_info_E, symObjAddr: 0x1066DA8, symBinAddr: 0x1004F8960, symSize: 0x0 }
  - { offsetInCU: 0x17DB2D, offset: 0x17DB2D, size: 0x8, addend: 0x0, symName: __ZN38Basic_ConnectionCloseFromCallback_Test10test_info_E, symObjAddr: 0x1066DB0, symBinAddr: 0x1004F8968, symSize: 0x0 }
  - { offsetInCU: 0x17DC1E, offset: 0x17DC1E, size: 0x8, addend: 0x0, symName: __ZN30WithBool_RejectConnection_Test24gtest_registering_dummy_E, symObjAddr: 0x1066DB8, symBinAddr: 0x1004F8970, symSize: 0x0 }
  - { offsetInCU: 0x17DCAC, offset: 0x17DCAC, size: 0x8, addend: 0x0, symName: __ZN23WithFamilyArgs_Ecn_Test24gtest_registering_dummy_E, symObjAddr: 0x1066DBC, symBinAddr: 0x1004F8974, symSize: 0x0 }
  - { offsetInCU: 0x17DD3A, offset: 0x17DD3A, size: 0x8, addend: 0x0, symName: __ZN36WithFamilyArgs_LocalPathChanges_Test24gtest_registering_dummy_E, symObjAddr: 0x1066DC0, symBinAddr: 0x1004F8978, symSize: 0x0 }
  - { offsetInCU: 0x17DDC8, offset: 0x17DDC8, size: 0x8, addend: 0x0, symName: __ZN17Mtu_Settings_Test10test_info_E, symObjAddr: 0x1066DC8, symBinAddr: 0x1004F8980, symSize: 0x0 }
  - { offsetInCU: 0x17DEB9, offset: 0x17DEB9, size: 0x8, addend: 0x0, symName: __ZN29WithMtuArgs_MtuDiscovery_Test24gtest_registering_dummy_E, symObjAddr: 0x1066DD0, symBinAddr: 0x1004F8988, symSize: 0x0 }
  - { offsetInCU: 0x17E185, offset: 0x17E185, size: 0x8, addend: 0x0, symName: __ZN26Alpn_ValidAlpnLengths_Test10test_info_E, symObjAddr: 0x1066DD8, symBinAddr: 0x1004F8990, symSize: 0x0 }
  - { offsetInCU: 0x17E276, offset: 0x17E276, size: 0x8, addend: 0x0, symName: __ZN28Alpn_InvalidAlpnLengths_Test10test_info_E, symObjAddr: 0x1066DE0, symBinAddr: 0x1004F8998, symSize: 0x0 }
  - { offsetInCU: 0x17E367, offset: 0x17E367, size: 0x8, addend: 0x0, symName: __ZN20Alpn_ChangeAlpn_Test10test_info_E, symObjAddr: 0x1066DE8, symBinAddr: 0x1004F89A0, symSize: 0x0 }
  - { offsetInCU: 0x17E458, offset: 0x17E458, size: 0x8, addend: 0x0, symName: __ZN42WithFamilyArgs_BindConnectionImplicit_Test24gtest_registering_dummy_E, symObjAddr: 0x1066DF0, symBinAddr: 0x1004F89A8, symSize: 0x0 }
  - { offsetInCU: 0x17E4E6, offset: 0x17E4E6, size: 0x8, addend: 0x0, symName: __ZN42WithFamilyArgs_BindConnectionExplicit_Test24gtest_registering_dummy_E, symObjAddr: 0x1066DF4, symBinAddr: 0x1004F89AC, symSize: 0x0 }
  - { offsetInCU: 0x17E574, offset: 0x17E574, size: 0x8, addend: 0x0, symName: __ZN31WithHandshakeArgs1_Connect_Test24gtest_registering_dummy_E, symObjAddr: 0x1066DF8, symBinAddr: 0x1004F89B0, symSize: 0x0 }
  - { offsetInCU: 0x17E858, offset: 0x17E858, size: 0x8, addend: 0x0, symName: __ZN30WithHandshakeArgs1_Resume_Test24gtest_registering_dummy_E, symObjAddr: 0x1066DFC, symBinAddr: 0x1004F89B4, symSize: 0x0 }
  - { offsetInCU: 0x17E8E6, offset: 0x17E8E6, size: 0x8, addend: 0x0, symName: __ZN35WithHandshakeArgs1_ResumeAsync_Test24gtest_registering_dummy_E, symObjAddr: 0x1066E00, symBinAddr: 0x1004F89B8, symSize: 0x0 }
  - { offsetInCU: 0x17E974, offset: 0x17E974, size: 0x8, addend: 0x0, symName: __ZN39WithHandshakeArgs1_ResumeRejection_Test24gtest_registering_dummy_E, symObjAddr: 0x1066E04, symBinAddr: 0x1004F89BC, symSize: 0x0 }
  - { offsetInCU: 0x17EA02, offset: 0x17EA02, size: 0x8, addend: 0x0, symName: __ZN50WithHandshakeArgs1_ResumeRejectionByServerApp_Test24gtest_registering_dummy_E, symObjAddr: 0x1066E08, symBinAddr: 0x1004F89C0, symSize: 0x0 }
  - { offsetInCU: 0x17EA90, offset: 0x17EA90, size: 0x8, addend: 0x0, symName: __ZN55WithHandshakeArgs1_ResumeRejectionByServerAppAsync_Test24gtest_registering_dummy_E, symObjAddr: 0x1066E0C, symBinAddr: 0x1004F89C4, symSize: 0x0 }
  - { offsetInCU: 0x17EB1E, offset: 0x17EB1E, size: 0x8, addend: 0x0, symName: __ZN36WithFamilyArgs_InterfaceBinding_Test24gtest_registering_dummy_E, symObjAddr: 0x1066E10, symBinAddr: 0x1004F89C8, symSize: 0x0 }
  - { offsetInCU: 0x17EBAC, offset: 0x17EBAC, size: 0x8, addend: 0x0, symName: __ZN34WithHandshakeArgs2_OldVersion_Test24gtest_registering_dummy_E, symObjAddr: 0x1066E14, symBinAddr: 0x1004F89CC, symSize: 0x0 }
  - { offsetInCU: 0x17EE6C, offset: 0x17EE6C, size: 0x8, addend: 0x0, symName: __ZN43WithHandshakeArgs3_AsyncSecurityConfig_Test24gtest_registering_dummy_E, symObjAddr: 0x1066E18, symBinAddr: 0x1004F89D0, symSize: 0x0 }
  - { offsetInCU: 0x17F144, offset: 0x17F144, size: 0x8, addend: 0x0, symName: __ZN38WithFamilyArgs_VersionNegotiation_Test24gtest_registering_dummy_E, symObjAddr: 0x1066E1C, symBinAddr: 0x1004F89D4, symSize: 0x0 }
  - { offsetInCU: 0x17F1D2, offset: 0x17F1D2, size: 0x8, addend: 0x0, symName: __ZN43WithFamilyArgs_VersionNegotiationRetry_Test24gtest_registering_dummy_E, symObjAddr: 0x1066E20, symBinAddr: 0x1004F89D8, symSize: 0x0 }
  - { offsetInCU: 0x17F260, offset: 0x17F260, size: 0x8, addend: 0x0, symName: __ZN53WithFamilyArgs_CompatibleVersionNegotiationRetry_Test24gtest_registering_dummy_E, symObjAddr: 0x1066E24, symBinAddr: 0x1004F89DC, symSize: 0x0 }
  - { offsetInCU: 0x17F2EE, offset: 0x17F2EE, size: 0x8, addend: 0x0, symName: __ZN63WithVersionNegotiationExtArgs_CompatibleVersionNegotiation_Test24gtest_registering_dummy_E, symObjAddr: 0x1066E28, symBinAddr: 0x1004F89E0, symSize: 0x0 }
  - { offsetInCU: 0x17F5BA, offset: 0x17F5BA, size: 0x8, addend: 0x0, symName: __ZN76WithVersionNegotiationExtArgs_CompatibleVersionNegotiationDefaultServer_Test24gtest_registering_dummy_E, symObjAddr: 0x1066E2C, symBinAddr: 0x1004F89E4, symSize: 0x0 }
  - { offsetInCU: 0x17F648, offset: 0x17F648, size: 0x8, addend: 0x0, symName: __ZN76WithVersionNegotiationExtArgs_CompatibleVersionNegotiationDefaultClient_Test24gtest_registering_dummy_E, symObjAddr: 0x1066E30, symBinAddr: 0x1004F89E8, symSize: 0x0 }
  - { offsetInCU: 0x17F6D6, offset: 0x17F6D6, size: 0x8, addend: 0x0, symName: __ZN50WithFamilyArgs_IncompatibleVersionNegotiation_Test24gtest_registering_dummy_E, symObjAddr: 0x1066E34, symBinAddr: 0x1004F89EC, symSize: 0x0 }
  - { offsetInCU: 0x17F764, offset: 0x17F764, size: 0x8, addend: 0x0, symName: __ZN44WithFamilyArgs_FailedVersionNegotiation_Test24gtest_registering_dummy_E, symObjAddr: 0x1066E38, symBinAddr: 0x1004F89F0, symSize: 0x0 }
  - { offsetInCU: 0x17F7F2, offset: 0x17F7F2, size: 0x8, addend: 0x0, symName: __ZN52WithFeatureSupportArgs_ReliableResetNegotiation_Test24gtest_registering_dummy_E, symObjAddr: 0x1066E3C, symBinAddr: 0x1004F89F4, symSize: 0x0 }
  - { offsetInCU: 0x17FAC3, offset: 0x17FAC3, size: 0x8, addend: 0x0, symName: __ZN50WithFeatureSupportArgs_OneWayDelayNegotiation_Test24gtest_registering_dummy_E, symObjAddr: 0x1066E40, symBinAddr: 0x1004F89F8, symSize: 0x0 }
  - { offsetInCU: 0x17FB51, offset: 0x17FB51, size: 0x8, addend: 0x0, symName: __ZN57WithHandshakeArgs5_CustomServerCertificateValidation_Test24gtest_registering_dummy_E, symObjAddr: 0x1066E44, symBinAddr: 0x1004F89FC, symSize: 0x0 }
  - { offsetInCU: 0x17FE11, offset: 0x17FE11, size: 0x8, addend: 0x0, symName: __ZN57WithHandshakeArgs5_CustomClientCertificateValidation_Test24gtest_registering_dummy_E, symObjAddr: 0x1066E48, symBinAddr: 0x1004F8A00, symSize: 0x0 }
  - { offsetInCU: 0x17FE9F, offset: 0x17FE9F, size: 0x8, addend: 0x0, symName: __ZN48WithHandshakeArgs6_ConnectClientCertificate_Test24gtest_registering_dummy_E, symObjAddr: 0x1066E4C, symBinAddr: 0x1004F8A04, symSize: 0x0 }
  - { offsetInCU: 0x18015F, offset: 0x18015F, size: 0x8, addend: 0x0, symName: __ZN38WithHandshakeArgs7_CibirExtension_Test24gtest_registering_dummy_E, symObjAddr: 0x1066E50, symBinAddr: 0x1004F8A08, symSize: 0x0 }
  - { offsetInCU: 0x180421, offset: 0x180421, size: 0x8, addend: 0x0, symName: __ZN35WithHandshakeArgs8_OddSizeVnTp_Test24gtest_registering_dummy_E, symObjAddr: 0x1066E54, symBinAddr: 0x1004F8A0C, symSize: 0x0 }
  - { offsetInCU: 0x1806E5, offset: 0x1806E5, size: 0x8, addend: 0x0, symName: __ZN49WithHandshakeArgs9_VnTpChosenVersionMismatch_Test24gtest_registering_dummy_E, symObjAddr: 0x1066E58, symBinAddr: 0x1004F8A10, symSize: 0x0 }
  - { offsetInCU: 0x1807B0, offset: 0x1807B0, size: 0x8, addend: 0x0, symName: __ZN45WithHandshakeArgs9_VnTpChosenVersionZero_Test24gtest_registering_dummy_E, symObjAddr: 0x1066E5C, symBinAddr: 0x1004F8A14, symSize: 0x0 }
  - { offsetInCU: 0x18083E, offset: 0x18083E, size: 0x8, addend: 0x0, symName: __ZN44WithHandshakeArgs9_VnTpOtherVersionZero_Test24gtest_registering_dummy_E, symObjAddr: 0x1066E60, symBinAddr: 0x1004F8A18, symSize: 0x0 }
  - { offsetInCU: 0x1808CC, offset: 0x1808CC, size: 0x8, addend: 0x0, symName: __ZN34WithHandshakeArgs4_RandomLoss_Test24gtest_registering_dummy_E, symObjAddr: 0x1066E64, symBinAddr: 0x1004F8A1C, symSize: 0x0 }
  - { offsetInCU: 0x180BA4, offset: 0x180BA4, size: 0x8, addend: 0x0, symName: __ZN40WithHandshakeArgs4_RandomLossResume_Test24gtest_registering_dummy_E, symObjAddr: 0x1066E68, symBinAddr: 0x1004F8A20, symSize: 0x0 }
  - { offsetInCU: 0x180C32, offset: 0x180C32, size: 0x8, addend: 0x0, symName: __ZN49WithHandshakeArgs4_RandomLossResumeRejection_Test24gtest_registering_dummy_E, symObjAddr: 0x1066E6C, symBinAddr: 0x1004F8A24, symSize: 0x0 }
  - { offsetInCU: 0x180CC0, offset: 0x180CC0, size: 0x8, addend: 0x0, symName: __ZN31WithFamilyArgs_Unreachable_Test24gtest_registering_dummy_E, symObjAddr: 0x1066E70, symBinAddr: 0x1004F8A28, symSize: 0x0 }
  - { offsetInCU: 0x180D4E, offset: 0x180D4E, size: 0x8, addend: 0x0, symName: __ZN33HandshakeTest_InvalidAddress_Test10test_info_E, symObjAddr: 0x1066E78, symBinAddr: 0x1004F8A30, symSize: 0x0 }
  - { offsetInCU: 0x180E3F, offset: 0x180E3F, size: 0x8, addend: 0x0, symName: __ZN27WithFamilyArgs_BadALPN_Test24gtest_registering_dummy_E, symObjAddr: 0x1066E80, symBinAddr: 0x1004F8A38, symSize: 0x0 }
  - { offsetInCU: 0x180ECD, offset: 0x180ECD, size: 0x8, addend: 0x0, symName: __ZN26WithFamilyArgs_BadSNI_Test24gtest_registering_dummy_E, symObjAddr: 0x1066E84, symBinAddr: 0x1004F8A3C, symSize: 0x0 }
  - { offsetInCU: 0x180F5B, offset: 0x180F5B, size: 0x8, addend: 0x0, symName: __ZN34WithFamilyArgs_ServerRejected_Test24gtest_registering_dummy_E, symObjAddr: 0x1066E88, symBinAddr: 0x1004F8A40, symSize: 0x0 }
  - { offsetInCU: 0x180FE9, offset: 0x180FE9, size: 0x8, addend: 0x0, symName: __ZN43WithFamilyArgs_ClientBlockedSourcePort_Test24gtest_registering_dummy_E, symObjAddr: 0x1066E8C, symBinAddr: 0x1004F8A44, symSize: 0x0 }
  - { offsetInCU: 0x181077, offset: 0x181077, size: 0x8, addend: 0x0, symName: __ZN30WithFamilyArgs_RebindPort_Test24gtest_registering_dummy_E, symObjAddr: 0x1066E90, symBinAddr: 0x1004F8A48, symSize: 0x0 }
  - { offsetInCU: 0x181105, offset: 0x181105, size: 0x8, addend: 0x0, symName: __ZN43WithRebindPaddingArgs_RebindPortPadded_Test24gtest_registering_dummy_E, symObjAddr: 0x1066E94, symBinAddr: 0x1004F8A4C, symSize: 0x0 }
  - { offsetInCU: 0x1813C9, offset: 0x1813C9, size: 0x8, addend: 0x0, symName: __ZN30WithFamilyArgs_RebindAddr_Test24gtest_registering_dummy_E, symObjAddr: 0x1066E98, symBinAddr: 0x1004F8A50, symSize: 0x0 }
  - { offsetInCU: 0x181457, offset: 0x181457, size: 0x8, addend: 0x0, symName: __ZN38WithFamilyArgs_RebindDatapathAddr_Test24gtest_registering_dummy_E, symObjAddr: 0x1066E9C, symBinAddr: 0x1004F8A54, symSize: 0x0 }
  - { offsetInCU: 0x1814E5, offset: 0x1814E5, size: 0x8, addend: 0x0, symName: __ZN43WithRebindPaddingArgs_RebindAddrPadded_Test24gtest_registering_dummy_E, symObjAddr: 0x1066EA0, symBinAddr: 0x1004F8A58, symSize: 0x0 }
  - { offsetInCU: 0x181573, offset: 0x181573, size: 0x8, addend: 0x0, symName: __ZN41WithFamilyArgs_PathValidationTimeout_Test24gtest_registering_dummy_E, symObjAddr: 0x1066EA4, symBinAddr: 0x1004F8A5C, symSize: 0x0 }
  - { offsetInCU: 0x181601, offset: 0x181601, size: 0x8, addend: 0x0, symName: __ZN38WithFamilyArgs_ChangeMaxStreamIDs_Test24gtest_registering_dummy_E, symObjAddr: 0x1066EA8, symBinAddr: 0x1004F8A60, symSize: 0x0 }
  - { offsetInCU: 0x18168F, offset: 0x18168F, size: 0x8, addend: 0x0, symName: __ZN32WithFamilyArgs_LoadBalanced_Test24gtest_registering_dummy_E, symObjAddr: 0x1066EAC, symBinAddr: 0x1004F8A64, symSize: 0x0 }
  - { offsetInCU: 0x18171D, offset: 0x18171D, size: 0x8, addend: 0x0, symName: __ZN54WithHandshakeArgs10_HandshakeSpecificLossPatterns_Test24gtest_registering_dummy_E, symObjAddr: 0x1066EB0, symBinAddr: 0x1004F8A68, symSize: 0x0 }
  - { offsetInCU: 0x181A0D, offset: 0x181A0D, size: 0x8, addend: 0x0, symName: __ZN48WithHandshakeArgs11_ShutdownDuringHandshake_Test24gtest_registering_dummy_E, symObjAddr: 0x1066EB4, symBinAddr: 0x1004F8A6C, symSize: 0x0 }
  - { offsetInCU: 0x181CC4, offset: 0x181CC4, size: 0x8, addend: 0x0, symName: __ZN23WithSendArgs1_Send_Test24gtest_registering_dummy_E, symObjAddr: 0x1066EB8, symBinAddr: 0x1004F8A70, symSize: 0x0 }
  - { offsetInCU: 0x181FC9, offset: 0x181FC9, size: 0x8, addend: 0x0, symName: __ZN28WithSendArgs2_SendLarge_Test24gtest_registering_dummy_E, symObjAddr: 0x1066EBC, symBinAddr: 0x1004F8A74, symSize: 0x0 }
  - { offsetInCU: 0x18229A, offset: 0x18229A, size: 0x8, addend: 0x0, symName: __ZN37WithSendArgs3_SendIntermittently_Test24gtest_registering_dummy_E, symObjAddr: 0x1066EC0, symBinAddr: 0x1004F8A78, symSize: 0x0 }
  - { offsetInCU: 0x182585, offset: 0x182585, size: 0x8, addend: 0x0, symName: __ZN31WithSend0RttArgs1_Send0Rtt_Test24gtest_registering_dummy_E, symObjAddr: 0x1066EC4, symBinAddr: 0x1004F8A7C, symSize: 0x0 }
  - { offsetInCU: 0x18287D, offset: 0x18287D, size: 0x8, addend: 0x0, symName: __ZN33WithSend0RttArgs2_Reject0Rtt_Test24gtest_registering_dummy_E, symObjAddr: 0x1066EC8, symBinAddr: 0x1004F8A80, symSize: 0x0 }
  - { offsetInCU: 0x182B41, offset: 0x182B41, size: 0x8, addend: 0x0, symName: __ZN25WithBool_IdleTimeout_Test24gtest_registering_dummy_E, symObjAddr: 0x1066ECC, symBinAddr: 0x1004F8A84, symSize: 0x0 }
  - { offsetInCU: 0x182BCF, offset: 0x182BCF, size: 0x8, addend: 0x0, symName: __ZN27Misc_IdleDestCidChange_Test10test_info_E, symObjAddr: 0x1066ED0, symBinAddr: 0x1004F8A88, symSize: 0x0 }
  - { offsetInCU: 0x182CC0, offset: 0x182CC0, size: 0x8, addend: 0x0, symName: __ZN26Misc_ServerDisconnect_Test10test_info_E, symObjAddr: 0x1066ED8, symBinAddr: 0x1004F8A90, symSize: 0x0 }
  - { offsetInCU: 0x182DB1, offset: 0x182DB1, size: 0x8, addend: 0x0, symName: __ZN26Misc_ClientDisconnect_Test10test_info_E, symObjAddr: 0x1066EE0, symBinAddr: 0x1004F8A98, symSize: 0x0 }
  - { offsetInCU: 0x182EA2, offset: 0x182EA2, size: 0x8, addend: 0x0, symName: __ZN27Misc_StatelessResetKey_Test10test_info_E, symObjAddr: 0x1066EE8, symBinAddr: 0x1004F8AA0, symSize: 0x0 }
  - { offsetInCU: 0x182F93, offset: 0x182F93, size: 0x8, addend: 0x0, symName: __ZN33WithKeyUpdateArgs1_KeyUpdate_Test24gtest_registering_dummy_E, symObjAddr: 0x1066EF0, symBinAddr: 0x1004F8AA8, symSize: 0x0 }
  - { offsetInCU: 0x183257, offset: 0x183257, size: 0x8, addend: 0x0, symName: __ZN34WithKeyUpdateArgs2_RandomLoss_Test24gtest_registering_dummy_E, symObjAddr: 0x1066EF4, symBinAddr: 0x1004F8AAC, symSize: 0x0 }
  - { offsetInCU: 0x18351B, offset: 0x18351B, size: 0x8, addend: 0x0, symName: __ZN38WithAbortiveArgs_AbortiveShutdown_Test24gtest_registering_dummy_E, symObjAddr: 0x1066EF8, symBinAddr: 0x1004F8AB0, symSize: 0x0 }
  - { offsetInCU: 0x183892, offset: 0x183892, size: 0x8, addend: 0x0, symName: __ZN42WithCancelOnLossArgs_CancelOnLossSend_Test24gtest_registering_dummy_E, symObjAddr: 0x1066EFC, symBinAddr: 0x1004F8AB4, symSize: 0x0 }
  - { offsetInCU: 0x183B49, offset: 0x183B49, size: 0x8, addend: 0x0, symName: __ZN32WithCidUpdateArgs_CidUpdate_Test24gtest_registering_dummy_E, symObjAddr: 0x1066F00, symBinAddr: 0x1004F8AB8, symSize: 0x0 }
  - { offsetInCU: 0x183E0D, offset: 0x183E0D, size: 0x8, addend: 0x0, symName: __ZN40WithReceiveResumeArgs_ReceiveResume_Test24gtest_registering_dummy_E, symObjAddr: 0x1066F04, symBinAddr: 0x1004F8ABC, symSize: 0x0 }
  - { offsetInCU: 0x18415D, offset: 0x18415D, size: 0x8, addend: 0x0, symName: __ZN52WithReceiveResumeNoDataArgs_ReceiveResumeNoData_Test24gtest_registering_dummy_E, symObjAddr: 0x1066F08, symBinAddr: 0x1004F8AC0, symSize: 0x0 }
  - { offsetInCU: 0x184421, offset: 0x184421, size: 0x8, addend: 0x0, symName: __ZN32WithFamilyArgs_AckSendDelay_Test24gtest_registering_dummy_E, symObjAddr: 0x1066F0C, symBinAddr: 0x1004F8AC4, symSize: 0x0 }
  - { offsetInCU: 0x1844AF, offset: 0x1844AF, size: 0x8, addend: 0x0, symName: __ZN28Misc_AbortPausedReceive_Test10test_info_E, symObjAddr: 0x1066F10, symBinAddr: 0x1004F8AC8, symSize: 0x0 }
  - { offsetInCU: 0x1845A0, offset: 0x1845A0, size: 0x8, addend: 0x0, symName: __ZN29Misc_AbortPendingReceive_Test10test_info_E, symObjAddr: 0x1066F18, symBinAddr: 0x1004F8AD0, symSize: 0x0 }
  - { offsetInCU: 0x184691, offset: 0x184691, size: 0x8, addend: 0x0, symName: __ZN32Misc_AbortIncompleteReceive_Test10test_info_E, symObjAddr: 0x1066F20, symBinAddr: 0x1004F8AD8, symSize: 0x0 }
  - { offsetInCU: 0x184782, offset: 0x184782, size: 0x8, addend: 0x0, symName: __ZN21Misc_SlowReceive_Test10test_info_E, symObjAddr: 0x1066F28, symBinAddr: 0x1004F8AE0, symSize: 0x0 }
  - { offsetInCU: 0x184873, offset: 0x184873, size: 0x8, addend: 0x0, symName: __ZN23Misc_NthPacketDrop_Test10test_info_E, symObjAddr: 0x1066F30, symBinAddr: 0x1004F8AE8, symSize: 0x0 }
  - { offsetInCU: 0x184964, offset: 0x184964, size: 0x8, addend: 0x0, symName: __ZN24Misc_StreamPriority_Test10test_info_E, symObjAddr: 0x1066F38, symBinAddr: 0x1004F8AF0, symSize: 0x0 }
  - { offsetInCU: 0x184A55, offset: 0x184A55, size: 0x8, addend: 0x0, symName: __ZN36Misc_StreamPriorityInfiniteLoop_Test10test_info_E, symObjAddr: 0x1066F40, symBinAddr: 0x1004F8AF8, symSize: 0x0 }
  - { offsetInCU: 0x184B46, offset: 0x184B46, size: 0x8, addend: 0x0, symName: __ZN36Misc_StreamDifferentAbortErrors_Test10test_info_E, symObjAddr: 0x1066F48, symBinAddr: 0x1004F8B00, symSize: 0x0 }
  - { offsetInCU: 0x184C37, offset: 0x184C37, size: 0x8, addend: 0x0, symName: __ZN32Misc_StreamAbortRecvFinRace_Test10test_info_E, symObjAddr: 0x1066F50, symBinAddr: 0x1004F8B08, symSize: 0x0 }
  - { offsetInCU: 0x184D28, offset: 0x184D28, size: 0x8, addend: 0x0, symName: __ZN47Misc_StreamBlockUnblockBidiConnFlowControl_Test10test_info_E, symObjAddr: 0x1066F58, symBinAddr: 0x1004F8B10, symSize: 0x0 }
  - { offsetInCU: 0x184E19, offset: 0x184E19, size: 0x8, addend: 0x0, symName: __ZN29Misc_StreamReliableReset_Test10test_info_E, symObjAddr: 0x1066F60, symBinAddr: 0x1004F8B18, symSize: 0x0 }
  - { offsetInCU: 0x184F0A, offset: 0x184F0A, size: 0x8, addend: 0x0, symName: __ZN42Misc_StreamReliableResetMultipleSends_Test10test_info_E, symObjAddr: 0x1066F68, symBinAddr: 0x1004F8B20, symSize: 0x0 }
  - { offsetInCU: 0x184FFB, offset: 0x184FFB, size: 0x8, addend: 0x0, symName: __ZN48Misc_StreamBlockUnblockUnidiConnFlowControl_Test10test_info_E, symObjAddr: 0x1066F70, symBinAddr: 0x1004F8B28, symSize: 0x0 }
  - { offsetInCU: 0x1850EC, offset: 0x1850EC, size: 0x8, addend: 0x0, symName: __ZN36Misc_StreamAbortConnFlowControl_Test10test_info_E, symObjAddr: 0x1066F78, symBinAddr: 0x1004F8B30, symSize: 0x0 }
  - { offsetInCU: 0x1851DD, offset: 0x1851DD, size: 0x8, addend: 0x0, symName: __ZN24Drill_VarIntEncoder_Test10test_info_E, symObjAddr: 0x1066F80, symBinAddr: 0x1004F8B38, symSize: 0x0 }
  - { offsetInCU: 0x1852CE, offset: 0x1852CE, size: 0x8, addend: 0x0, symName: __ZN57WithDrillInitialPacketCidArgs_DrillInitialPacketCids_Test24gtest_registering_dummy_E, symObjAddr: 0x1066F88, symBinAddr: 0x1004F8B40, symSize: 0x0 }
  - { offsetInCU: 0x1855B2, offset: 0x1855B2, size: 0x8, addend: 0x0, symName: __ZN60WithDrillInitialPacketTokenArgs_DrillInitialPacketToken_Test24gtest_registering_dummy_E, symObjAddr: 0x1066F8C, symBinAddr: 0x1004F8B44, symSize: 0x0 }
  - { offsetInCU: 0x185869, offset: 0x185869, size: 0x8, addend: 0x0, symName: __ZN64WithDrillInitialPacketTokenArgs_QuicDrillTestServerVNPacket_Test24gtest_registering_dummy_E, symObjAddr: 0x1066F90, symBinAddr: 0x1004F8B48, symSize: 0x0 }
  - { offsetInCU: 0x1858F7, offset: 0x1858F7, size: 0x8, addend: 0x0, symName: __ZN52WithDatagramNegotiationArgs_DatagramNegotiation_Test24gtest_registering_dummy_E, symObjAddr: 0x1066F94, symBinAddr: 0x1004F8B4C, symSize: 0x0 }
  - { offsetInCU: 0x185BBB, offset: 0x185BBB, size: 0x8, addend: 0x0, symName: __ZN32WithFamilyArgs_DatagramSend_Test24gtest_registering_dummy_E, symObjAddr: 0x1066F98, symBinAddr: 0x1004F8B50, symSize: 0x0 }
  - { offsetInCU: 0x199F46, offset: 0x199F46, size: 0x8, addend: 0x0, symName: __ZlsRNSt3__113basic_ostreamIcNS_11char_traitsIcEEEERK7MtuArgs, symObjAddr: 0x0, symBinAddr: 0x100002000, symSize: 0x90 }
  - { offsetInCU: 0x19A09D, offset: 0x19A09D, size: 0x8, addend: 0x0, symName: __ZlsRNSt3__113basic_ostreamIcNS_11char_traitsIcEEEERK10FamilyArgs, symObjAddr: 0x90, symBinAddr: 0x100002090, symSize: 0x30 }
  - { offsetInCU: 0x19A113, offset: 0x19A113, size: 0x8, addend: 0x0, symName: __ZlsRNSt3__113basic_ostreamIcNS_11char_traitsIcEEEERK14HandshakeArgs1, symObjAddr: 0xC0, symBinAddr: 0x1000020C0, symSize: 0x120 }
  - { offsetInCU: 0x19A426, offset: 0x19A426, size: 0x8, addend: 0x0, symName: __ZlsRNSt3__113basic_ostreamIcNS_11char_traitsIcEEEERK14HandshakeArgs2, symObjAddr: 0x1E0, symBinAddr: 0x1000021E0, symSize: 0x70 }
  - { offsetInCU: 0x19A52C, offset: 0x19A52C, size: 0x8, addend: 0x0, symName: __ZlsRNSt3__113basic_ostreamIcNS_11char_traitsIcEEEERK14HandshakeArgs3, symObjAddr: 0x250, symBinAddr: 0x100002250, symSize: 0xF0 }
  - { offsetInCU: 0x19A79A, offset: 0x19A79A, size: 0x8, addend: 0x0, symName: __ZlsRNSt3__113basic_ostreamIcNS_11char_traitsIcEEEERK14HandshakeArgs4, symObjAddr: 0x340, symBinAddr: 0x100002340, symSize: 0xE0 }
  - { offsetInCU: 0x19A9D7, offset: 0x19A9D7, size: 0x8, addend: 0x0, symName: __ZlsRNSt3__113basic_ostreamIcNS_11char_traitsIcEEEERK14HandshakeArgs5, symObjAddr: 0x420, symBinAddr: 0x100002420, symSize: 0x70 }
  - { offsetInCU: 0x19AADD, offset: 0x19AADD, size: 0x8, addend: 0x0, symName: __ZlsRNSt3__113basic_ostreamIcNS_11char_traitsIcEEEERK25VersionNegotiationExtArgs, symObjAddr: 0x490, symBinAddr: 0x100002490, symSize: 0xB0 }
  - { offsetInCU: 0x19AC8E, offset: 0x19AC8E, size: 0x8, addend: 0x0, symName: __ZlsRNSt3__113basic_ostreamIcNS_11char_traitsIcEEEERK14HandshakeArgs6, symObjAddr: 0x540, symBinAddr: 0x100002540, symSize: 0x70 }
  - { offsetInCU: 0x19AD94, offset: 0x19AD94, size: 0x8, addend: 0x0, symName: __ZlsRNSt3__113basic_ostreamIcNS_11char_traitsIcEEEERK14HandshakeArgs7, symObjAddr: 0x5B0, symBinAddr: 0x1000025B0, symSize: 0x50 }
  - { offsetInCU: 0x19AE32, offset: 0x19AE32, size: 0x8, addend: 0x0, symName: __ZlsRNSt3__113basic_ostreamIcNS_11char_traitsIcEEEERK14HandshakeArgs8, symObjAddr: 0x600, symBinAddr: 0x100002600, symSize: 0x50 }
  - { offsetInCU: 0x19AED0, offset: 0x19AED0, size: 0x8, addend: 0x0, symName: __ZlsRNSt3__113basic_ostreamIcNS_11char_traitsIcEEEERK15HandshakeArgs10, symObjAddr: 0x650, symBinAddr: 0x100002650, symSize: 0x70 }
  - { offsetInCU: 0x19AFD9, offset: 0x19AFD9, size: 0x8, addend: 0x0, symName: __ZlsRNSt3__113basic_ostreamIcNS_11char_traitsIcEEEERK15HandshakeArgs11, symObjAddr: 0x6C0, symBinAddr: 0x1000026C0, symSize: 0x30 }
  - { offsetInCU: 0x19B03D, offset: 0x19B03D, size: 0x8, addend: 0x0, symName: __ZlsRNSt3__113basic_ostreamIcNS_11char_traitsIcEEEERK18FeatureSupportArgs, symObjAddr: 0x6F0, symBinAddr: 0x1000026F0, symSize: 0xC0 }
  - { offsetInCU: 0x19B1F9, offset: 0x19B1F9, size: 0x8, addend: 0x0, symName: __ZlsRNSt3__113basic_ostreamIcNS_11char_traitsIcEEEERK9SendArgs1, symObjAddr: 0x7B0, symBinAddr: 0x1000027B0, symSize: 0x130 }
  - { offsetInCU: 0x19B4F3, offset: 0x19B4F3, size: 0x8, addend: 0x0, symName: __ZlsRNSt3__113basic_ostreamIcNS_11char_traitsIcEEEERK9SendArgs2, symObjAddr: 0x8E0, symBinAddr: 0x1000028E0, symSize: 0xB0 }
  - { offsetInCU: 0x19B675, offset: 0x19B675, size: 0x8, addend: 0x0, symName: __ZlsRNSt3__113basic_ostreamIcNS_11char_traitsIcEEEERK9SendArgs3, symObjAddr: 0x990, symBinAddr: 0x100002990, symSize: 0xD0 }
  - { offsetInCU: 0x19B84F, offset: 0x19B84F, size: 0x8, addend: 0x0, symName: __ZlsRNSt3__113basic_ostreamIcNS_11char_traitsIcEEEERK13Send0RttArgs1, symObjAddr: 0xA60, symBinAddr: 0x100002A60, symSize: 0x100 }
  - { offsetInCU: 0x19BAD5, offset: 0x19BAD5, size: 0x8, addend: 0x0, symName: __ZlsRNSt3__113basic_ostreamIcNS_11char_traitsIcEEEERK13Send0RttArgs2, symObjAddr: 0xB60, symBinAddr: 0x100002B60, symSize: 0x50 }
  - { offsetInCU: 0x19BB73, offset: 0x19BB73, size: 0x8, addend: 0x0, symName: __ZlsRNSt3__113basic_ostreamIcNS_11char_traitsIcEEEERK14KeyUpdateArgs1, symObjAddr: 0xBB0, symBinAddr: 0x100002BB0, symSize: 0x50 }
  - { offsetInCU: 0x19BC11, offset: 0x19BC11, size: 0x8, addend: 0x0, symName: __ZlsRNSt3__113basic_ostreamIcNS_11char_traitsIcEEEERK14KeyUpdateArgs2, symObjAddr: 0xC00, symBinAddr: 0x100002C00, symSize: 0x60 }
  - { offsetInCU: 0x19BCEC, offset: 0x19BCEC, size: 0x8, addend: 0x0, symName: __ZlsRNSt3__113basic_ostreamIcNS_11char_traitsIcEEEERK12AbortiveArgs, symObjAddr: 0xC60, symBinAddr: 0x100002C60, symSize: 0x160 }
  - { offsetInCU: 0x19BF91, offset: 0x19BF91, size: 0x8, addend: 0x0, symName: __ZlsRNSt3__113basic_ostreamIcNS_11char_traitsIcEEEERK16CancelOnLossArgs, symObjAddr: 0xDC0, symBinAddr: 0x100002DC0, symSize: 0x50 }
  - { offsetInCU: 0x19C063, offset: 0x19C063, size: 0x8, addend: 0x0, symName: __ZlsRNSt3__113basic_ostreamIcNS_11char_traitsIcEEEERK13CidUpdateArgs, symObjAddr: 0xE10, symBinAddr: 0x100002E10, symSize: 0x50 }
  - { offsetInCU: 0x19C100, offset: 0x19C100, size: 0x8, addend: 0x0, symName: __ZlsRNSt3__113basic_ostreamIcNS_11char_traitsIcEEEERK17ReceiveResumeArgs, symObjAddr: 0xE60, symBinAddr: 0x100002E60, symSize: 0x150 }
  - { offsetInCU: 0x19C40E, offset: 0x19C40E, size: 0x8, addend: 0x0, symName: __ZlsRNSt3__113basic_ostreamIcNS_11char_traitsIcEEEERK23ReceiveResumeNoDataArgs, symObjAddr: 0xFB0, symBinAddr: 0x100002FB0, symSize: 0x80 }
  - { offsetInCU: 0x19C52A, offset: 0x19C52A, size: 0x8, addend: 0x0, symName: __ZlsRNSt3__113basic_ostreamIcNS_11char_traitsIcEEEERK23DatagramNegotiationArgs, symObjAddr: 0x1030, symBinAddr: 0x100003030, symSize: 0x70 }
  - { offsetInCU: 0x19C632, offset: 0x19C632, size: 0x8, addend: 0x0, symName: __ZlsRNSt3__113basic_ostreamIcNS_11char_traitsIcEEEERK25DrillInitialPacketCidArgs, symObjAddr: 0x10A0, symBinAddr: 0x1000030A0, symSize: 0x130 }
  - { offsetInCU: 0x19C98F, offset: 0x19C98F, size: 0x8, addend: 0x0, symName: __ZlsRNSt3__113basic_ostreamIcNS_11char_traitsIcEEEERK27DrillInitialPacketTokenArgs, symObjAddr: 0x11D0, symBinAddr: 0x1000031D0, symSize: 0x30 }
  - { offsetInCU: 0x19C9F3, offset: 0x19C9F3, size: 0x8, addend: 0x0, symName: __ZlsRNSt3__113basic_ostreamIcNS_11char_traitsIcEEEERK27ValidateConnectionEventArgs, symObjAddr: 0x1200, symBinAddr: 0x100003200, symSize: 0x10 }
  - { offsetInCU: 0x19CA18, offset: 0x19CA18, size: 0x8, addend: 0x0, symName: __ZlsRNSt3__113basic_ostreamIcNS_11char_traitsIcEEEERK29ValidateNetStatsConnEventArgs, symObjAddr: 0x1210, symBinAddr: 0x100003210, symSize: 0x10 }
  - { offsetInCU: 0x19CA3D, offset: 0x19CA3D, size: 0x8, addend: 0x0, symName: __ZlsRNSt3__113basic_ostreamIcNS_11char_traitsIcEEEERK23ValidateStreamEventArgs, symObjAddr: 0x1220, symBinAddr: 0x100003220, symSize: 0x10 }
  - { offsetInCU: 0x19CA62, offset: 0x19CA62, size: 0x8, addend: 0x0, symName: __ZlsRNSt3__113basic_ostreamIcNS_11char_traitsIcEEEERK17RebindPaddingArgs, symObjAddr: 0x1230, symBinAddr: 0x100003230, symSize: 0x50 }
  - { offsetInCU: 0x19CAFF, offset: 0x19CAFF, size: 0x8, addend: 0x0, symName: __ZlsRNSt3__113basic_ostreamIcNS_11char_traitsIcEEEERK21CXPLAT_TEST_CERT_TYPE, symObjAddr: 0x1280, symBinAddr: 0x100003280, symSize: 0xA0 }
  - { offsetInCU: 0x19CC8B, offset: 0x19CC8B, size: 0x8, addend: 0x0, symName: __ZlsRNSt3__113basic_ostreamIcNS_11char_traitsIcEEEERK20QUIC_CREDENTIAL_TYPE, symObjAddr: 0x1320, symBinAddr: 0x100003320, symSize: 0xB0 }
  - { offsetInCU: 0x19CE56, offset: 0x19CE56, size: 0x8, addend: 0x0, symName: __ZlsRNSt3__113basic_ostreamIcNS_11char_traitsIcEEEERK13TlsConfigArgs, symObjAddr: 0x13D0, symBinAddr: 0x1000033D0, symSize: 0x40 }
  - { offsetInCU: 0x19CEE7, offset: 0x19CEE7, size: 0x8, addend: 0x0, symName: __Z13IsWindows2019v, symObjAddr: 0x1410, symBinAddr: 0x100003410, symSize: 0x30 }
  - { offsetInCU: 0x19CEFB, offset: 0x19CEFB, size: 0x8, addend: 0x0, symName: __Z13IsWindows2022v, symObjAddr: 0x1440, symBinAddr: 0x100003440, symSize: 0x30 }
  - { offsetInCU: 0x19CFE4, offset: 0x19CFE4, size: 0x8, addend: 0x0, symName: _LogTestFailure, symObjAddr: 0x1470, symBinAddr: 0x100003470, symSize: 0x180 }
  - { offsetInCU: 0x19D21B, offset: 0x19D21B, size: 0x8, addend: 0x0, symName: __ZN7testing8internal16SuiteApiResolverINS_4TestEE19GetSetUpCaseOrSuiteEPKci, symObjAddr: 0x15F0, symBinAddr: 0x1000035F0, symSize: 0xD0 }
  - { offsetInCU: 0x19D3A5, offset: 0x19D3A5, size: 0x8, addend: 0x0, symName: __ZN7testing8internal16SuiteApiResolverINS_4TestEE22GetTearDownCaseOrSuiteEPKci, symObjAddr: 0x16C0, symBinAddr: 0x1000036C0, symSize: 0xD0 }
  - { offsetInCU: 0x19D865, offset: 0x19D865, size: 0x8, addend: 0x0, symName: __ZN36ParameterValidation_ValidateApi_Test8TestBodyEv, symObjAddr: 0x1790, symBinAddr: 0x100003790, symSize: 0x140 }
  - { offsetInCU: 0x19E000, offset: 0x19E000, size: 0x8, addend: 0x0, symName: __ZN7testing15AssertionResultD1Ev, symObjAddr: 0x18D0, symBinAddr: 0x1000038D0, symSize: 0x40 }
  - { offsetInCU: 0x19E1EA, offset: 0x19E1EA, size: 0x8, addend: 0x0, symName: __ZN45ParameterValidation_ValidateRegistration_Test8TestBodyEv, symObjAddr: 0x1910, symBinAddr: 0x100003910, symSize: 0x140 }
  - { offsetInCU: 0x19E985, offset: 0x19E985, size: 0x8, addend: 0x0, symName: __ZN44ParameterValidation_ValidateGlobalParam_Test8TestBodyEv, symObjAddr: 0x1A50, symBinAddr: 0x100003A50, symSize: 0x140 }
  - { offsetInCU: 0x19F120, offset: 0x19F120, size: 0x8, addend: 0x0, symName: __ZN44ParameterValidation_ValidateCommonParam_Test8TestBodyEv, symObjAddr: 0x1B90, symBinAddr: 0x100003B90, symSize: 0x140 }
  - { offsetInCU: 0x19F8BB, offset: 0x19F8BB, size: 0x8, addend: 0x0, symName: __ZN50ParameterValidation_ValidateRegistrationParam_Test8TestBodyEv, symObjAddr: 0x1CD0, symBinAddr: 0x100003CD0, symSize: 0x140 }
  - { offsetInCU: 0x1A0056, offset: 0x1A0056, size: 0x8, addend: 0x0, symName: __ZN51ParameterValidation_ValidateConfigurationParam_Test8TestBodyEv, symObjAddr: 0x1E10, symBinAddr: 0x100003E10, symSize: 0x140 }
  - { offsetInCU: 0x1A07F1, offset: 0x1A07F1, size: 0x8, addend: 0x0, symName: __ZN46ParameterValidation_ValidateListenerParam_Test8TestBodyEv, symObjAddr: 0x1F50, symBinAddr: 0x100003F50, symSize: 0x140 }
  - { offsetInCU: 0x1A0F94, offset: 0x1A0F94, size: 0x8, addend: 0x0, symName: __ZN48ParameterValidation_ValidateConnectionParam_Test8TestBodyEv, symObjAddr: 0x2090, symBinAddr: 0x100004090, symSize: 0x140 }
  - { offsetInCU: 0x1A1737, offset: 0x1A1737, size: 0x8, addend: 0x0, symName: __ZN41ParameterValidation_ValidateTlsParam_Test8TestBodyEv, symObjAddr: 0x21D0, symBinAddr: 0x1000041D0, symSize: 0x140 }
  - { offsetInCU: 0x1A1EDA, offset: 0x1A1EDA, size: 0x8, addend: 0x0, symName: __ZN44ParameterValidation_ValidateStreamParam_Test8TestBodyEv, symObjAddr: 0x2310, symBinAddr: 0x100004310, symSize: 0x140 }
  - { offsetInCU: 0x1A267D, offset: 0x1A267D, size: 0x8, addend: 0x0, symName: __ZN48ParameterValidation_ValidateGetPerfCounters_Test8TestBodyEv, symObjAddr: 0x2450, symBinAddr: 0x100004450, symSize: 0x140 }
  - { offsetInCU: 0x1A2E20, offset: 0x1A2E20, size: 0x8, addend: 0x0, symName: __ZN46ParameterValidation_ValidateConfiguration_Test8TestBodyEv, symObjAddr: 0x2590, symBinAddr: 0x100004590, symSize: 0x140 }
  - { offsetInCU: 0x1A35C3, offset: 0x1A35C3, size: 0x8, addend: 0x0, symName: __ZN41ParameterValidation_ValidateListener_Test8TestBodyEv, symObjAddr: 0x26D0, symBinAddr: 0x1000046D0, symSize: 0x140 }
  - { offsetInCU: 0x1A3D66, offset: 0x1A3D66, size: 0x8, addend: 0x0, symName: __ZN43ParameterValidation_ValidateConnection_Test8TestBodyEv, symObjAddr: 0x2810, symBinAddr: 0x100004810, symSize: 0x140 }
  - { offsetInCU: 0x1A4509, offset: 0x1A4509, size: 0x8, addend: 0x0, symName: __ZN59OwnershipValidation_RegistrationShutdownBeforeConnOpen_Test8TestBodyEv, symObjAddr: 0x2950, symBinAddr: 0x100004950, symSize: 0x140 }
  - { offsetInCU: 0x1A4CAC, offset: 0x1A4CAC, size: 0x8, addend: 0x0, symName: __ZN58OwnershipValidation_RegistrationShutdownAfterConnOpen_Test8TestBodyEv, symObjAddr: 0x2A90, symBinAddr: 0x100004A90, symSize: 0x140 }
  - { offsetInCU: 0x1A544F, offset: 0x1A544F, size: 0x8, addend: 0x0, symName: __ZN69OwnershipValidation_RegistrationShutdownAfterConnOpenBeforeStart_Test8TestBodyEv, symObjAddr: 0x2BD0, symBinAddr: 0x100004BD0, symSize: 0x140 }
  - { offsetInCU: 0x1A5BF2, offset: 0x1A5BF2, size: 0x8, addend: 0x0, symName: __ZN66OwnershipValidation_RegistrationShutdownAfterConnOpenAndStart_Test8TestBodyEv, symObjAddr: 0x2D10, symBinAddr: 0x100004D10, symSize: 0x140 }
  - { offsetInCU: 0x1A6395, offset: 0x1A6395, size: 0x8, addend: 0x0, symName: __ZN57OwnershipValidation_ConnectionCloseBeforeStreamClose_Test8TestBodyEv, symObjAddr: 0x2E50, symBinAddr: 0x100004E50, symSize: 0x140 }
  - { offsetInCU: 0x1A6E43, offset: 0x1A6E43, size: 0x8, addend: 0x0, symName: __ZN28WithBool_ValidateStream_Test13AddToRegistryEv, symObjAddr: 0x2F90, symBinAddr: 0x100004F90, symSize: 0x1F0 }
  - { offsetInCU: 0x1A7E10, offset: 0x1A7E10, size: 0x8, addend: 0x0, symName: __ZN7testing8internal30ParameterizedTestSuiteRegistry25GetTestSuitePatternHolderI8WithBoolEEPNS0_26ParameterizedTestSuiteInfoIT_EENSt3__112basic_stringIcNS8_11char_traitsIcEENS8_9allocatorIcEEEENS0_12CodeLocationE, symObjAddr: 0x18110, symBinAddr: 0x10001A110, symSize: 0x340 }
  - { offsetInCU: 0x1A8D7A, offset: 0x1A8D7A, size: 0x8, addend: 0x0, symName: __ZN7testing8internal26ParameterizedTestSuiteInfoI8WithBoolE14AddTestPatternEPKcS5_PNS0_19TestMetaFactoryBaseIbEENS0_12CodeLocationE, symObjAddr: 0x25910, symBinAddr: 0x100027910, symSize: 0x200 }
  - { offsetInCU: 0x1A9678, offset: 0x1A9678, size: 0x8, addend: 0x0, symName: __ZN28WithBool_ValidateStream_Test8TestBodyEv, symObjAddr: 0x3180, symBinAddr: 0x100005180, symSize: 0x160 }
  - { offsetInCU: 0x1A9E87, offset: 0x1A9E87, size: 0x8, addend: 0x0, symName: __ZN7testing18WithParamInterfaceIbE8GetParamEv, symObjAddr: 0x32E0, symBinAddr: 0x1000052E0, symSize: 0xB0 }
  - { offsetInCU: 0x1A9F59, offset: 0x1A9F59, size: 0x8, addend: 0x0, symName: __ZN11TestLoggerTIbEC2EPKcRKb, symObjAddr: 0x4C5B0, symBinAddr: 0x10004D900, symSize: 0x1C0 }
  - { offsetInCU: 0x1AA3CE, offset: 0x1AA3CE, size: 0x8, addend: 0x0, symName: __ZN51ParameterValidation_CloseConnBeforeStreamFlush_Test8TestBodyEv, symObjAddr: 0x3390, symBinAddr: 0x100005390, symSize: 0x140 }
  - { offsetInCU: 0x1AAC26, offset: 0x1AAC26, size: 0x8, addend: 0x0, symName: __ZN61WithValidateConnectionEventArgs_ValidateConnectionEvents_Test13AddToRegistryEv, symObjAddr: 0x34D0, symBinAddr: 0x1000054D0, symSize: 0x210 }
  - { offsetInCU: 0x1ABC50, offset: 0x1ABC50, size: 0x8, addend: 0x0, symName: __ZN7testing8internal30ParameterizedTestSuiteRegistry25GetTestSuitePatternHolderI31WithValidateConnectionEventArgsEEPNS0_26ParameterizedTestSuiteInfoIT_EENSt3__112basic_stringIcNS8_11char_traitsIcEENS8_9allocatorIcEEEENS0_12CodeLocationE, symObjAddr: 0x184B0, symBinAddr: 0x10001A4B0, symSize: 0x340 }
  - { offsetInCU: 0x1ACBBA, offset: 0x1ACBBA, size: 0x8, addend: 0x0, symName: __ZN7testing8internal26ParameterizedTestSuiteInfoI31WithValidateConnectionEventArgsE14AddTestPatternEPKcS5_PNS0_19TestMetaFactoryBaseI27ValidateConnectionEventArgsEENS0_12CodeLocationE, symObjAddr: 0x260F0, symBinAddr: 0x1000280B0, symSize: 0x200 }
  - { offsetInCU: 0x1AD4B8, offset: 0x1AD4B8, size: 0x8, addend: 0x0, symName: __ZN61WithValidateConnectionEventArgs_ValidateConnectionEvents_Test8TestBodyEv, symObjAddr: 0x36E0, symBinAddr: 0x1000056E0, symSize: 0x160 }
  - { offsetInCU: 0x1ADCC1, offset: 0x1ADCC1, size: 0x8, addend: 0x0, symName: __ZN7testing18WithParamInterfaceI27ValidateConnectionEventArgsE8GetParamEv, symObjAddr: 0x3840, symBinAddr: 0x100005840, symSize: 0xB0 }
  - { offsetInCU: 0x1ADD93, offset: 0x1ADD93, size: 0x8, addend: 0x0, symName: __ZN11TestLoggerTI27ValidateConnectionEventArgsEC2EPKcRKS0_, symObjAddr: 0x4DBF0, symBinAddr: 0x10004EF40, symSize: 0x1C0 }
  - { offsetInCU: 0x1AE27E, offset: 0x1AE27E, size: 0x8, addend: 0x0, symName: __ZN63WithValidateNetStatsConnEventArgs_ValidateNetStatConnEvent_Test13AddToRegistryEv, symObjAddr: 0x38F0, symBinAddr: 0x1000058F0, symSize: 0x210 }
  - { offsetInCU: 0x1AF292, offset: 0x1AF292, size: 0x8, addend: 0x0, symName: __ZN7testing8internal30ParameterizedTestSuiteRegistry25GetTestSuitePatternHolderI33WithValidateNetStatsConnEventArgsEEPNS0_26ParameterizedTestSuiteInfoIT_EENSt3__112basic_stringIcNS8_11char_traitsIcEENS8_9allocatorIcEEEENS0_12CodeLocationE, symObjAddr: 0x18940, symBinAddr: 0x10001A940, symSize: 0x340 }
  - { offsetInCU: 0x1B01FC, offset: 0x1B01FC, size: 0x8, addend: 0x0, symName: __ZN7testing8internal26ParameterizedTestSuiteInfoI33WithValidateNetStatsConnEventArgsE14AddTestPatternEPKcS5_PNS0_19TestMetaFactoryBaseI29ValidateNetStatsConnEventArgsEENS0_12CodeLocationE, symObjAddr: 0x267A0, symBinAddr: 0x100028720, symSize: 0x200 }
  - { offsetInCU: 0x1B0AFA, offset: 0x1B0AFA, size: 0x8, addend: 0x0, symName: __ZN63WithValidateNetStatsConnEventArgs_ValidateNetStatConnEvent_Test8TestBodyEv, symObjAddr: 0x3B00, symBinAddr: 0x100005B00, symSize: 0x160 }
  - { offsetInCU: 0x1B1303, offset: 0x1B1303, size: 0x8, addend: 0x0, symName: __ZN7testing18WithParamInterfaceI29ValidateNetStatsConnEventArgsE8GetParamEv, symObjAddr: 0x3C60, symBinAddr: 0x100005C60, symSize: 0xB0 }
  - { offsetInCU: 0x1B13D5, offset: 0x1B13D5, size: 0x8, addend: 0x0, symName: __ZN11TestLoggerTI29ValidateNetStatsConnEventArgsEC2EPKcRKS0_, symObjAddr: 0x4F1B0, symBinAddr: 0x100050500, symSize: 0x1C0 }
  - { offsetInCU: 0x1B18C0, offset: 0x1B18C0, size: 0x8, addend: 0x0, symName: __ZN53WithValidateStreamEventArgs_ValidateStreamEvents_Test13AddToRegistryEv, symObjAddr: 0x3D10, symBinAddr: 0x100005D10, symSize: 0x210 }
  - { offsetInCU: 0x1B28EA, offset: 0x1B28EA, size: 0x8, addend: 0x0, symName: __ZN7testing8internal30ParameterizedTestSuiteRegistry25GetTestSuitePatternHolderI27WithValidateStreamEventArgsEEPNS0_26ParameterizedTestSuiteInfoIT_EENSt3__112basic_stringIcNS8_11char_traitsIcEENS8_9allocatorIcEEEENS0_12CodeLocationE, symObjAddr: 0x18DD0, symBinAddr: 0x10001ADD0, symSize: 0x340 }
  - { offsetInCU: 0x1B3854, offset: 0x1B3854, size: 0x8, addend: 0x0, symName: __ZN7testing8internal26ParameterizedTestSuiteInfoI27WithValidateStreamEventArgsE14AddTestPatternEPKcS5_PNS0_19TestMetaFactoryBaseI23ValidateStreamEventArgsEENS0_12CodeLocationE, symObjAddr: 0x26E50, symBinAddr: 0x100028D90, symSize: 0x200 }
  - { offsetInCU: 0x1B4152, offset: 0x1B4152, size: 0x8, addend: 0x0, symName: __ZN53WithValidateStreamEventArgs_ValidateStreamEvents_Test8TestBodyEv, symObjAddr: 0x3F20, symBinAddr: 0x100005F20, symSize: 0x160 }
  - { offsetInCU: 0x1B495B, offset: 0x1B495B, size: 0x8, addend: 0x0, symName: __ZN7testing18WithParamInterfaceI23ValidateStreamEventArgsE8GetParamEv, symObjAddr: 0x4080, symBinAddr: 0x100006080, symSize: 0xB0 }
  - { offsetInCU: 0x1B4A2D, offset: 0x1B4A2D, size: 0x8, addend: 0x0, symName: __ZN11TestLoggerTI23ValidateStreamEventArgsEC2EPKcRKS0_, symObjAddr: 0x50770, symBinAddr: 0x100051AC0, symSize: 0x1C0 }
  - { offsetInCU: 0x1B4EC9, offset: 0x1B4EC9, size: 0x8, addend: 0x0, symName: __ZN48ParameterValidation_ValidateVersionSettings_Test8TestBodyEv, symObjAddr: 0x4130, symBinAddr: 0x100006130, symSize: 0x140 }
  - { offsetInCU: 0x1B566C, offset: 0x1B566C, size: 0x8, addend: 0x0, symName: __ZN41ParameterValidation_ValidateParamApi_Test8TestBodyEv, symObjAddr: 0x4270, symBinAddr: 0x100006270, symSize: 0x140 }
  - { offsetInCU: 0x1B5E5E, offset: 0x1B5E5E, size: 0x8, addend: 0x0, symName: __ZN48WithValidateTlsConfigArgs_ValidateTlsConfig_Test13AddToRegistryEv, symObjAddr: 0x43B0, symBinAddr: 0x1000063B0, symSize: 0x210 }
  - { offsetInCU: 0x1B6E88, offset: 0x1B6E88, size: 0x8, addend: 0x0, symName: __ZN7testing8internal30ParameterizedTestSuiteRegistry25GetTestSuitePatternHolderI25WithValidateTlsConfigArgsEEPNS0_26ParameterizedTestSuiteInfoIT_EENSt3__112basic_stringIcNS8_11char_traitsIcEENS8_9allocatorIcEEEENS0_12CodeLocationE, symObjAddr: 0x19260, symBinAddr: 0x10001B260, symSize: 0x340 }
  - { offsetInCU: 0x1B7DF2, offset: 0x1B7DF2, size: 0x8, addend: 0x0, symName: __ZN7testing8internal26ParameterizedTestSuiteInfoI25WithValidateTlsConfigArgsE14AddTestPatternEPKcS5_PNS0_19TestMetaFactoryBaseI13TlsConfigArgsEENS0_12CodeLocationE, symObjAddr: 0x275E0, symBinAddr: 0x1000294E0, symSize: 0x200 }
  - { offsetInCU: 0x1B86EA, offset: 0x1B86EA, size: 0x8, addend: 0x0, symName: __ZN48WithValidateTlsConfigArgs_ValidateTlsConfig_Test8TestBodyEv, symObjAddr: 0x45C0, symBinAddr: 0x1000065C0, symSize: 0x520 }
  - { offsetInCU: 0x1B91E2, offset: 0x1B91E2, size: 0x8, addend: 0x0, symName: __ZN7testing18WithParamInterfaceI13TlsConfigArgsE8GetParamEv, symObjAddr: 0x4AE0, symBinAddr: 0x100006AE0, symSize: 0xB0 }
  - { offsetInCU: 0x1B9381, offset: 0x1B9381, size: 0x8, addend: 0x0, symName: __ZN25Basic_CreateListener_Test8TestBodyEv, symObjAddr: 0x4B90, symBinAddr: 0x100006B90, symSize: 0x140 }
  - { offsetInCU: 0x1B9B24, offset: 0x1B9B24, size: 0x8, addend: 0x0, symName: __ZN24Basic_StartListener_Test8TestBodyEv, symObjAddr: 0x4CD0, symBinAddr: 0x100006CD0, symSize: 0x140 }
  - { offsetInCU: 0x1BA2C7, offset: 0x1BA2C7, size: 0x8, addend: 0x0, symName: __ZN34Basic_StartListenerMultiAlpns_Test8TestBodyEv, symObjAddr: 0x4E10, symBinAddr: 0x100006E10, symSize: 0x140 }
  - { offsetInCU: 0x1BAAB9, offset: 0x1BAAB9, size: 0x8, addend: 0x0, symName: __ZN41WithFamilyArgs_StartListenerImplicit_Test13AddToRegistryEv, symObjAddr: 0x4F50, symBinAddr: 0x100006F50, symSize: 0x1F0 }
  - { offsetInCU: 0x1BB9A0, offset: 0x1BB9A0, size: 0x8, addend: 0x0, symName: __ZN7testing8internal30ParameterizedTestSuiteRegistry25GetTestSuitePatternHolderI14WithFamilyArgsEEPNS0_26ParameterizedTestSuiteInfoIT_EENSt3__112basic_stringIcNS8_11char_traitsIcEENS8_9allocatorIcEEEENS0_12CodeLocationE, symObjAddr: 0x196F0, symBinAddr: 0x10001B6F0, symSize: 0x340 }
  - { offsetInCU: 0x1BC90A, offset: 0x1BC90A, size: 0x8, addend: 0x0, symName: __ZN7testing8internal26ParameterizedTestSuiteInfoI14WithFamilyArgsE14AddTestPatternEPKcS5_PNS0_19TestMetaFactoryBaseI10FamilyArgsEENS0_12CodeLocationE, symObjAddr: 0x27DE0, symBinAddr: 0x100029CA0, symSize: 0x200 }
  - { offsetInCU: 0x1BD208, offset: 0x1BD208, size: 0x8, addend: 0x0, symName: __ZN41WithFamilyArgs_StartListenerImplicit_Test8TestBodyEv, symObjAddr: 0x5140, symBinAddr: 0x100007140, symSize: 0x160 }
  - { offsetInCU: 0x1BDA11, offset: 0x1BDA11, size: 0x8, addend: 0x0, symName: __ZN7testing18WithParamInterfaceI10FamilyArgsE8GetParamEv, symObjAddr: 0x52A0, symBinAddr: 0x1000072A0, symSize: 0xB0 }
  - { offsetInCU: 0x1BDAE3, offset: 0x1BDAE3, size: 0x8, addend: 0x0, symName: __ZN11TestLoggerTI10FamilyArgsEC2EPKcRKS0_, symObjAddr: 0x53160, symBinAddr: 0x1000544B0, symSize: 0x1D0 }
  - { offsetInCU: 0x1BDFBF, offset: 0x1BDFBF, size: 0x8, addend: 0x0, symName: __ZN28Basic_StartTwoListeners_Test8TestBodyEv, symObjAddr: 0x5350, symBinAddr: 0x100007350, symSize: 0x140 }
  - { offsetInCU: 0x1BE762, offset: 0x1BE762, size: 0x8, addend: 0x0, symName: __ZN36Basic_StartTwoListenersSameALPN_Test8TestBodyEv, symObjAddr: 0x5490, symBinAddr: 0x100007490, symSize: 0x140 }
  - { offsetInCU: 0x1BEF54, offset: 0x1BEF54, size: 0x8, addend: 0x0, symName: __ZN41WithFamilyArgs_StartListenerExplicit_Test13AddToRegistryEv, symObjAddr: 0x55D0, symBinAddr: 0x1000075D0, symSize: 0x1F0 }
  - { offsetInCU: 0x1BFE3B, offset: 0x1BFE3B, size: 0x8, addend: 0x0, symName: __ZN41WithFamilyArgs_StartListenerExplicit_Test8TestBodyEv, symObjAddr: 0x57C0, symBinAddr: 0x1000077C0, symSize: 0x160 }
  - { offsetInCU: 0x1C0651, offset: 0x1C0651, size: 0x8, addend: 0x0, symName: __ZN27Basic_CreateConnection_Test8TestBodyEv, symObjAddr: 0x5920, symBinAddr: 0x100007920, symSize: 0x140 }
  - { offsetInCU: 0x1C0DF4, offset: 0x1C0DF4, size: 0x8, addend: 0x0, symName: __ZN38Basic_ConnectionCloseFromCallback_Test8TestBodyEv, symObjAddr: 0x5A60, symBinAddr: 0x100007A60, symSize: 0x140 }
  - { offsetInCU: 0x1C15E6, offset: 0x1C15E6, size: 0x8, addend: 0x0, symName: __ZN30WithBool_RejectConnection_Test13AddToRegistryEv, symObjAddr: 0x5BA0, symBinAddr: 0x100007BA0, symSize: 0x1F0 }
  - { offsetInCU: 0x1C24CD, offset: 0x1C24CD, size: 0x8, addend: 0x0, symName: __ZN30WithBool_RejectConnection_Test8TestBodyEv, symObjAddr: 0x5D90, symBinAddr: 0x100007D90, symSize: 0x160 }
  - { offsetInCU: 0x1C2D38, offset: 0x1C2D38, size: 0x8, addend: 0x0, symName: __ZN23WithFamilyArgs_Ecn_Test13AddToRegistryEv, symObjAddr: 0x5EF0, symBinAddr: 0x100007EF0, symSize: 0x1F0 }
  - { offsetInCU: 0x1C3C1F, offset: 0x1C3C1F, size: 0x8, addend: 0x0, symName: __ZN23WithFamilyArgs_Ecn_Test8TestBodyEv, symObjAddr: 0x60E0, symBinAddr: 0x1000080E0, symSize: 0x160 }
  - { offsetInCU: 0x1C4485, offset: 0x1C4485, size: 0x8, addend: 0x0, symName: __ZN36WithFamilyArgs_LocalPathChanges_Test13AddToRegistryEv, symObjAddr: 0x6240, symBinAddr: 0x100008240, symSize: 0x1F0 }
  - { offsetInCU: 0x1C536C, offset: 0x1C536C, size: 0x8, addend: 0x0, symName: __ZN36WithFamilyArgs_LocalPathChanges_Test8TestBodyEv, symObjAddr: 0x6430, symBinAddr: 0x100008430, symSize: 0x160 }
  - { offsetInCU: 0x1C5B82, offset: 0x1C5B82, size: 0x8, addend: 0x0, symName: __ZN17Mtu_Settings_Test8TestBodyEv, symObjAddr: 0x6590, symBinAddr: 0x100008590, symSize: 0x140 }
  - { offsetInCU: 0x1C6374, offset: 0x1C6374, size: 0x8, addend: 0x0, symName: __ZN29WithMtuArgs_MtuDiscovery_Test13AddToRegistryEv, symObjAddr: 0x66D0, symBinAddr: 0x1000086D0, symSize: 0x1F0 }
  - { offsetInCU: 0x1C725B, offset: 0x1C725B, size: 0x8, addend: 0x0, symName: __ZN7testing8internal30ParameterizedTestSuiteRegistry25GetTestSuitePatternHolderI11WithMtuArgsEEPNS0_26ParameterizedTestSuiteInfoIT_EENSt3__112basic_stringIcNS8_11char_traitsIcEENS8_9allocatorIcEEEENS0_12CodeLocationE, symObjAddr: 0x19B80, symBinAddr: 0x10001BB80, symSize: 0x340 }
  - { offsetInCU: 0x1C81C5, offset: 0x1C81C5, size: 0x8, addend: 0x0, symName: __ZN7testing8internal26ParameterizedTestSuiteInfoI11WithMtuArgsE14AddTestPatternEPKcS5_PNS0_19TestMetaFactoryBaseI7MtuArgsEENS0_12CodeLocationE, symObjAddr: 0x28A00, symBinAddr: 0x10002A880, symSize: 0x200 }
  - { offsetInCU: 0x1C8AC3, offset: 0x1C8AC3, size: 0x8, addend: 0x0, symName: __ZN29WithMtuArgs_MtuDiscovery_Test8TestBodyEv, symObjAddr: 0x68C0, symBinAddr: 0x1000088C0, symSize: 0x1A0 }
  - { offsetInCU: 0x1C9344, offset: 0x1C9344, size: 0x8, addend: 0x0, symName: __ZN7testing18WithParamInterfaceI7MtuArgsE8GetParamEv, symObjAddr: 0x6A60, symBinAddr: 0x100008A60, symSize: 0xB0 }
  - { offsetInCU: 0x1C9416, offset: 0x1C9416, size: 0x8, addend: 0x0, symName: __ZN11TestLoggerTI7MtuArgsEC2EPKcRKS0_, symObjAddr: 0x547B0, symBinAddr: 0x100055B00, symSize: 0x230 }
  - { offsetInCU: 0x1C99E9, offset: 0x1C99E9, size: 0x8, addend: 0x0, symName: __ZN26Alpn_ValidAlpnLengths_Test8TestBodyEv, symObjAddr: 0x6B10, symBinAddr: 0x100008B10, symSize: 0x140 }
  - { offsetInCU: 0x1CA18C, offset: 0x1CA18C, size: 0x8, addend: 0x0, symName: __ZN28Alpn_InvalidAlpnLengths_Test8TestBodyEv, symObjAddr: 0x6C50, symBinAddr: 0x100008C50, symSize: 0x140 }
  - { offsetInCU: 0x1CA92F, offset: 0x1CA92F, size: 0x8, addend: 0x0, symName: __ZN20Alpn_ChangeAlpn_Test8TestBodyEv, symObjAddr: 0x6D90, symBinAddr: 0x100008D90, symSize: 0x140 }
  - { offsetInCU: 0x1CB122, offset: 0x1CB122, size: 0x8, addend: 0x0, symName: __ZN42WithFamilyArgs_BindConnectionImplicit_Test13AddToRegistryEv, symObjAddr: 0x6ED0, symBinAddr: 0x100008ED0, symSize: 0x1F0 }
  - { offsetInCU: 0x1CC009, offset: 0x1CC009, size: 0x8, addend: 0x0, symName: __ZN42WithFamilyArgs_BindConnectionImplicit_Test8TestBodyEv, symObjAddr: 0x70C0, symBinAddr: 0x1000090C0, symSize: 0x160 }
  - { offsetInCU: 0x1CC86E, offset: 0x1CC86E, size: 0x8, addend: 0x0, symName: __ZN42WithFamilyArgs_BindConnectionExplicit_Test13AddToRegistryEv, symObjAddr: 0x7220, symBinAddr: 0x100009220, symSize: 0x1F0 }
  - { offsetInCU: 0x1CD755, offset: 0x1CD755, size: 0x8, addend: 0x0, symName: __ZN42WithFamilyArgs_BindConnectionExplicit_Test8TestBodyEv, symObjAddr: 0x7410, symBinAddr: 0x100009410, symSize: 0x160 }
  - { offsetInCU: 0x1CDFBA, offset: 0x1CDFBA, size: 0x8, addend: 0x0, symName: __ZN31WithHandshakeArgs1_Connect_Test13AddToRegistryEv, symObjAddr: 0x7570, symBinAddr: 0x100009570, symSize: 0x1F0 }
  - { offsetInCU: 0x1CEEA1, offset: 0x1CEEA1, size: 0x8, addend: 0x0, symName: __ZN7testing8internal30ParameterizedTestSuiteRegistry25GetTestSuitePatternHolderI18WithHandshakeArgs1EEPNS0_26ParameterizedTestSuiteInfoIT_EENSt3__112basic_stringIcNS8_11char_traitsIcEENS8_9allocatorIcEEEENS0_12CodeLocationE, symObjAddr: 0x1A930, symBinAddr: 0x10001C930, symSize: 0x340 }
  - { offsetInCU: 0x1CFE0B, offset: 0x1CFE0B, size: 0x8, addend: 0x0, symName: __ZN7testing8internal26ParameterizedTestSuiteInfoI18WithHandshakeArgs1E14AddTestPatternEPKcS5_PNS0_19TestMetaFactoryBaseI14HandshakeArgs1EENS0_12CodeLocationE, symObjAddr: 0x293A0, symBinAddr: 0x10002B1E0, symSize: 0x200 }
  - { offsetInCU: 0x1D0709, offset: 0x1D0709, size: 0x8, addend: 0x0, symName: __ZN31WithHandshakeArgs1_Connect_Test8TestBodyEv, symObjAddr: 0x7760, symBinAddr: 0x100009760, symSize: 0x1D0 }
  - { offsetInCU: 0x1D0FB8, offset: 0x1D0FB8, size: 0x8, addend: 0x0, symName: __ZN7testing18WithParamInterfaceI14HandshakeArgs1E8GetParamEv, symObjAddr: 0x7930, symBinAddr: 0x100009930, symSize: 0xB0 }
  - { offsetInCU: 0x1D108A, offset: 0x1D108A, size: 0x8, addend: 0x0, symName: __ZN11TestLoggerTI14HandshakeArgs1EC2EPKcRKS0_, symObjAddr: 0x55DE0, symBinAddr: 0x100057130, symSize: 0x1C0 }
  - { offsetInCU: 0x1D15A9, offset: 0x1D15A9, size: 0x8, addend: 0x0, symName: __ZN30WithHandshakeArgs1_Resume_Test13AddToRegistryEv, symObjAddr: 0x79E0, symBinAddr: 0x1000099E0, symSize: 0x1F0 }
  - { offsetInCU: 0x1D2490, offset: 0x1D2490, size: 0x8, addend: 0x0, symName: __ZN30WithHandshakeArgs1_Resume_Test8TestBodyEv, symObjAddr: 0x7BD0, symBinAddr: 0x100009BD0, symSize: 0x1D0 }
  - { offsetInCU: 0x1D2D8E, offset: 0x1D2D8E, size: 0x8, addend: 0x0, symName: __ZN35WithHandshakeArgs1_ResumeAsync_Test13AddToRegistryEv, symObjAddr: 0x7DA0, symBinAddr: 0x100009DA0, symSize: 0x1F0 }
  - { offsetInCU: 0x1D3C75, offset: 0x1D3C75, size: 0x8, addend: 0x0, symName: __ZN35WithHandshakeArgs1_ResumeAsync_Test8TestBodyEv, symObjAddr: 0x7F90, symBinAddr: 0x100009F90, symSize: 0x1D0 }
  - { offsetInCU: 0x1D4573, offset: 0x1D4573, size: 0x8, addend: 0x0, symName: __ZN39WithHandshakeArgs1_ResumeRejection_Test13AddToRegistryEv, symObjAddr: 0x8160, symBinAddr: 0x10000A160, symSize: 0x1F0 }
  - { offsetInCU: 0x1D545A, offset: 0x1D545A, size: 0x8, addend: 0x0, symName: __ZN39WithHandshakeArgs1_ResumeRejection_Test8TestBodyEv, symObjAddr: 0x8350, symBinAddr: 0x10000A350, symSize: 0x1D0 }
  - { offsetInCU: 0x1D5D58, offset: 0x1D5D58, size: 0x8, addend: 0x0, symName: __ZN50WithHandshakeArgs1_ResumeRejectionByServerApp_Test13AddToRegistryEv, symObjAddr: 0x8520, symBinAddr: 0x10000A520, symSize: 0x1F0 }
  - { offsetInCU: 0x1D6C3F, offset: 0x1D6C3F, size: 0x8, addend: 0x0, symName: __ZN50WithHandshakeArgs1_ResumeRejectionByServerApp_Test8TestBodyEv, symObjAddr: 0x8710, symBinAddr: 0x10000A710, symSize: 0x1D0 }
  - { offsetInCU: 0x1D753D, offset: 0x1D753D, size: 0x8, addend: 0x0, symName: __ZN55WithHandshakeArgs1_ResumeRejectionByServerAppAsync_Test13AddToRegistryEv, symObjAddr: 0x88E0, symBinAddr: 0x10000A8E0, symSize: 0x1F0 }
  - { offsetInCU: 0x1D8424, offset: 0x1D8424, size: 0x8, addend: 0x0, symName: __ZN55WithHandshakeArgs1_ResumeRejectionByServerAppAsync_Test8TestBodyEv, symObjAddr: 0x8AD0, symBinAddr: 0x10000AAD0, symSize: 0x1D0 }
  - { offsetInCU: 0x1D8D22, offset: 0x1D8D22, size: 0x8, addend: 0x0, symName: __ZN36WithFamilyArgs_InterfaceBinding_Test13AddToRegistryEv, symObjAddr: 0x8CA0, symBinAddr: 0x10000ACA0, symSize: 0x1F0 }
  - { offsetInCU: 0x1D9C09, offset: 0x1D9C09, size: 0x8, addend: 0x0, symName: __ZN36WithFamilyArgs_InterfaceBinding_Test8TestBodyEv, symObjAddr: 0x8E90, symBinAddr: 0x10000AE90, symSize: 0x210 }
  - { offsetInCU: 0x1DA626, offset: 0x1DA626, size: 0x8, addend: 0x0, symName: __ZN34WithHandshakeArgs2_OldVersion_Test13AddToRegistryEv, symObjAddr: 0x90A0, symBinAddr: 0x10000B0A0, symSize: 0x1F0 }
  - { offsetInCU: 0x1DB50D, offset: 0x1DB50D, size: 0x8, addend: 0x0, symName: __ZN7testing8internal30ParameterizedTestSuiteRegistry25GetTestSuitePatternHolderI18WithHandshakeArgs2EEPNS0_26ParameterizedTestSuiteInfoIT_EENSt3__112basic_stringIcNS8_11char_traitsIcEENS8_9allocatorIcEEEENS0_12CodeLocationE, symObjAddr: 0x1ADC0, symBinAddr: 0x10001CDC0, symSize: 0x340 }
  - { offsetInCU: 0x1DC477, offset: 0x1DC477, size: 0x8, addend: 0x0, symName: __ZN7testing8internal26ParameterizedTestSuiteInfoI18WithHandshakeArgs2E14AddTestPatternEPKcS5_PNS0_19TestMetaFactoryBaseI14HandshakeArgs2EENS0_12CodeLocationE, symObjAddr: 0x29F30, symBinAddr: 0x10002BD30, symSize: 0x200 }
  - { offsetInCU: 0x1DCD75, offset: 0x1DCD75, size: 0x8, addend: 0x0, symName: __ZN34WithHandshakeArgs2_OldVersion_Test8TestBodyEv, symObjAddr: 0x9290, symBinAddr: 0x10000B290, symSize: 0x190 }
  - { offsetInCU: 0x1DD5BD, offset: 0x1DD5BD, size: 0x8, addend: 0x0, symName: __ZN7testing18WithParamInterfaceI14HandshakeArgs2E8GetParamEv, symObjAddr: 0x9420, symBinAddr: 0x10000B420, symSize: 0xB0 }
  - { offsetInCU: 0x1DD68F, offset: 0x1DD68F, size: 0x8, addend: 0x0, symName: __ZN11TestLoggerTI14HandshakeArgs2EC2EPKcRKS0_, symObjAddr: 0x573F0, symBinAddr: 0x100058740, symSize: 0x210 }
  - { offsetInCU: 0x1DDC4F, offset: 0x1DDC4F, size: 0x8, addend: 0x0, symName: __ZN43WithHandshakeArgs3_AsyncSecurityConfig_Test13AddToRegistryEv, symObjAddr: 0x94D0, symBinAddr: 0x10000B4D0, symSize: 0x1F0 }
  - { offsetInCU: 0x1DEB36, offset: 0x1DEB36, size: 0x8, addend: 0x0, symName: __ZN7testing8internal30ParameterizedTestSuiteRegistry25GetTestSuitePatternHolderI18WithHandshakeArgs3EEPNS0_26ParameterizedTestSuiteInfoIT_EENSt3__112basic_stringIcNS8_11char_traitsIcEENS8_9allocatorIcEEEENS0_12CodeLocationE, symObjAddr: 0x1B250, symBinAddr: 0x10001D250, symSize: 0x340 }
  - { offsetInCU: 0x1DFAA0, offset: 0x1DFAA0, size: 0x8, addend: 0x0, symName: __ZN7testing8internal26ParameterizedTestSuiteInfoI18WithHandshakeArgs3E14AddTestPatternEPKcS5_PNS0_19TestMetaFactoryBaseI14HandshakeArgs3EENS0_12CodeLocationE, symObjAddr: 0x2A5E0, symBinAddr: 0x10002C3A0, symSize: 0x200 }
  - { offsetInCU: 0x1E039E, offset: 0x1E039E, size: 0x8, addend: 0x0, symName: __ZN43WithHandshakeArgs3_AsyncSecurityConfig_Test8TestBodyEv, symObjAddr: 0x96C0, symBinAddr: 0x10000B6C0, symSize: 0x1C0 }
  - { offsetInCU: 0x1E0C2D, offset: 0x1E0C2D, size: 0x8, addend: 0x0, symName: __ZN7testing18WithParamInterfaceI14HandshakeArgs3E8GetParamEv, symObjAddr: 0x9880, symBinAddr: 0x10000B880, symSize: 0xB0 }
  - { offsetInCU: 0x1E0CFF, offset: 0x1E0CFF, size: 0x8, addend: 0x0, symName: __ZN11TestLoggerTI14HandshakeArgs3EC2EPKcRKS0_, symObjAddr: 0x58A00, symBinAddr: 0x100059D50, symSize: 0x1C0 }
  - { offsetInCU: 0x1E11D3, offset: 0x1E11D3, size: 0x8, addend: 0x0, symName: __ZN38WithFamilyArgs_VersionNegotiation_Test13AddToRegistryEv, symObjAddr: 0x9930, symBinAddr: 0x10000B930, symSize: 0x1F0 }
  - { offsetInCU: 0x1E20BA, offset: 0x1E20BA, size: 0x8, addend: 0x0, symName: __ZN38WithFamilyArgs_VersionNegotiation_Test8TestBodyEv, symObjAddr: 0x9B20, symBinAddr: 0x10000BB20, symSize: 0x160 }
  - { offsetInCU: 0x1E291F, offset: 0x1E291F, size: 0x8, addend: 0x0, symName: __ZN43WithFamilyArgs_VersionNegotiationRetry_Test13AddToRegistryEv, symObjAddr: 0x9C80, symBinAddr: 0x10000BC80, symSize: 0x1F0 }
  - { offsetInCU: 0x1E3806, offset: 0x1E3806, size: 0x8, addend: 0x0, symName: __ZN43WithFamilyArgs_VersionNegotiationRetry_Test8TestBodyEv, symObjAddr: 0x9E70, symBinAddr: 0x10000BE70, symSize: 0x160 }
  - { offsetInCU: 0x1E406B, offset: 0x1E406B, size: 0x8, addend: 0x0, symName: __ZN53WithFamilyArgs_CompatibleVersionNegotiationRetry_Test13AddToRegistryEv, symObjAddr: 0x9FD0, symBinAddr: 0x10000BFD0, symSize: 0x1F0 }
  - { offsetInCU: 0x1E4F52, offset: 0x1E4F52, size: 0x8, addend: 0x0, symName: __ZN53WithFamilyArgs_CompatibleVersionNegotiationRetry_Test8TestBodyEv, symObjAddr: 0xA1C0, symBinAddr: 0x10000C1C0, symSize: 0x160 }
  - { offsetInCU: 0x1E57B7, offset: 0x1E57B7, size: 0x8, addend: 0x0, symName: __ZN63WithVersionNegotiationExtArgs_CompatibleVersionNegotiation_Test13AddToRegistryEv, symObjAddr: 0xA320, symBinAddr: 0x10000C320, symSize: 0x210 }
  - { offsetInCU: 0x1E67E1, offset: 0x1E67E1, size: 0x8, addend: 0x0, symName: __ZN7testing8internal30ParameterizedTestSuiteRegistry25GetTestSuitePatternHolderI29WithVersionNegotiationExtArgsEEPNS0_26ParameterizedTestSuiteInfoIT_EENSt3__112basic_stringIcNS8_11char_traitsIcEENS8_9allocatorIcEEEENS0_12CodeLocationE, symObjAddr: 0x1A4A0, symBinAddr: 0x10001C4A0, symSize: 0x340 }
  - { offsetInCU: 0x1E774B, offset: 0x1E774B, size: 0x8, addend: 0x0, symName: __ZN7testing8internal26ParameterizedTestSuiteInfoI29WithVersionNegotiationExtArgsE14AddTestPatternEPKcS5_PNS0_19TestMetaFactoryBaseI25VersionNegotiationExtArgsEENS0_12CodeLocationE, symObjAddr: 0x2AF00, symBinAddr: 0x10002CC80, symSize: 0x200 }
  - { offsetInCU: 0x1E8049, offset: 0x1E8049, size: 0x8, addend: 0x0, symName: __ZN63WithVersionNegotiationExtArgs_CompatibleVersionNegotiation_Test8TestBodyEv, symObjAddr: 0xA530, symBinAddr: 0x10000C530, symSize: 0x180 }
  - { offsetInCU: 0x1E88AA, offset: 0x1E88AA, size: 0x8, addend: 0x0, symName: __ZN7testing18WithParamInterfaceI25VersionNegotiationExtArgsE8GetParamEv, symObjAddr: 0xA6B0, symBinAddr: 0x10000C6B0, symSize: 0xB0 }
  - { offsetInCU: 0x1E897C, offset: 0x1E897C, size: 0x8, addend: 0x0, symName: __ZN11TestLoggerTI25VersionNegotiationExtArgsEC2EPKcRKS0_, symObjAddr: 0x5A050, symBinAddr: 0x10005B3A0, symSize: 0x250 }
  - { offsetInCU: 0x1E8FF4, offset: 0x1E8FF4, size: 0x8, addend: 0x0, symName: __ZN76WithVersionNegotiationExtArgs_CompatibleVersionNegotiationDefaultServer_Test13AddToRegistryEv, symObjAddr: 0xA760, symBinAddr: 0x10000C760, symSize: 0x210 }
  - { offsetInCU: 0x1EA01E, offset: 0x1EA01E, size: 0x8, addend: 0x0, symName: __ZN76WithVersionNegotiationExtArgs_CompatibleVersionNegotiationDefaultServer_Test8TestBodyEv, symObjAddr: 0xA970, symBinAddr: 0x10000C970, symSize: 0x180 }
  - { offsetInCU: 0x1EA8E5, offset: 0x1EA8E5, size: 0x8, addend: 0x0, symName: __ZN76WithVersionNegotiationExtArgs_CompatibleVersionNegotiationDefaultClient_Test13AddToRegistryEv, symObjAddr: 0xAAF0, symBinAddr: 0x10000CAF0, symSize: 0x210 }
  - { offsetInCU: 0x1EB90F, offset: 0x1EB90F, size: 0x8, addend: 0x0, symName: __ZN76WithVersionNegotiationExtArgs_CompatibleVersionNegotiationDefaultClient_Test8TestBodyEv, symObjAddr: 0xAD00, symBinAddr: 0x10000CD00, symSize: 0x180 }
  - { offsetInCU: 0x1EC1D6, offset: 0x1EC1D6, size: 0x8, addend: 0x0, symName: __ZN50WithFamilyArgs_IncompatibleVersionNegotiation_Test13AddToRegistryEv, symObjAddr: 0xAE80, symBinAddr: 0x10000CE80, symSize: 0x1F0 }
  - { offsetInCU: 0x1ED0BD, offset: 0x1ED0BD, size: 0x8, addend: 0x0, symName: __ZN50WithFamilyArgs_IncompatibleVersionNegotiation_Test8TestBodyEv, symObjAddr: 0xB070, symBinAddr: 0x10000D070, symSize: 0x160 }
  - { offsetInCU: 0x1ED922, offset: 0x1ED922, size: 0x8, addend: 0x0, symName: __ZN44WithFamilyArgs_FailedVersionNegotiation_Test13AddToRegistryEv, symObjAddr: 0xB1D0, symBinAddr: 0x10000D1D0, symSize: 0x1F0 }
  - { offsetInCU: 0x1EE809, offset: 0x1EE809, size: 0x8, addend: 0x0, symName: __ZN44WithFamilyArgs_FailedVersionNegotiation_Test8TestBodyEv, symObjAddr: 0xB3C0, symBinAddr: 0x10000D3C0, symSize: 0x160 }
  - { offsetInCU: 0x1EF06E, offset: 0x1EF06E, size: 0x8, addend: 0x0, symName: __ZN52WithFeatureSupportArgs_ReliableResetNegotiation_Test13AddToRegistryEv, symObjAddr: 0xB520, symBinAddr: 0x10000D520, symSize: 0x1F0 }
  - { offsetInCU: 0x1EFF55, offset: 0x1EFF55, size: 0x8, addend: 0x0, symName: __ZN7testing8internal30ParameterizedTestSuiteRegistry25GetTestSuitePatternHolderI22WithFeatureSupportArgsEEPNS0_26ParameterizedTestSuiteInfoIT_EENSt3__112basic_stringIcNS8_11char_traitsIcEENS8_9allocatorIcEEEENS0_12CodeLocationE, symObjAddr: 0x1C920, symBinAddr: 0x10001E920, symSize: 0x340 }
  - { offsetInCU: 0x1F0EBF, offset: 0x1F0EBF, size: 0x8, addend: 0x0, symName: __ZN7testing8internal26ParameterizedTestSuiteInfoI22WithFeatureSupportArgsE14AddTestPatternEPKcS5_PNS0_19TestMetaFactoryBaseI18FeatureSupportArgsEENS0_12CodeLocationE, symObjAddr: 0x2B8F0, symBinAddr: 0x10002D630, symSize: 0x200 }
  - { offsetInCU: 0x1F17BD, offset: 0x1F17BD, size: 0x8, addend: 0x0, symName: __ZN52WithFeatureSupportArgs_ReliableResetNegotiation_Test8TestBodyEv, symObjAddr: 0xB710, symBinAddr: 0x10000D710, symSize: 0x180 }
  - { offsetInCU: 0x1F201E, offset: 0x1F201E, size: 0x8, addend: 0x0, symName: __ZN7testing18WithParamInterfaceI18FeatureSupportArgsE8GetParamEv, symObjAddr: 0xB890, symBinAddr: 0x10000D890, symSize: 0xB0 }
  - { offsetInCU: 0x1F20F0, offset: 0x1F20F0, size: 0x8, addend: 0x0, symName: __ZN11TestLoggerTI18FeatureSupportArgsEC2EPKcRKS0_, symObjAddr: 0x5B730, symBinAddr: 0x10005CA80, symSize: 0x250 }
  - { offsetInCU: 0x1F276D, offset: 0x1F276D, size: 0x8, addend: 0x0, symName: __ZN50WithFeatureSupportArgs_OneWayDelayNegotiation_Test13AddToRegistryEv, symObjAddr: 0xB940, symBinAddr: 0x10000D940, symSize: 0x1F0 }
  - { offsetInCU: 0x1F3654, offset: 0x1F3654, size: 0x8, addend: 0x0, symName: __ZN50WithFeatureSupportArgs_OneWayDelayNegotiation_Test8TestBodyEv, symObjAddr: 0xBB30, symBinAddr: 0x10000DB30, symSize: 0x180 }
  - { offsetInCU: 0x1F3F1B, offset: 0x1F3F1B, size: 0x8, addend: 0x0, symName: __ZN57WithHandshakeArgs5_CustomServerCertificateValidation_Test13AddToRegistryEv, symObjAddr: 0xBCB0, symBinAddr: 0x10000DCB0, symSize: 0x1F0 }
  - { offsetInCU: 0x1F4E02, offset: 0x1F4E02, size: 0x8, addend: 0x0, symName: __ZN7testing8internal30ParameterizedTestSuiteRegistry25GetTestSuitePatternHolderI18WithHandshakeArgs5EEPNS0_26ParameterizedTestSuiteInfoIT_EENSt3__112basic_stringIcNS8_11char_traitsIcEENS8_9allocatorIcEEEENS0_12CodeLocationE, symObjAddr: 0x1BB70, symBinAddr: 0x10001DB70, symSize: 0x340 }
  - { offsetInCU: 0x1F5D6C, offset: 0x1F5D6C, size: 0x8, addend: 0x0, symName: __ZN7testing8internal26ParameterizedTestSuiteInfoI18WithHandshakeArgs5E14AddTestPatternEPKcS5_PNS0_19TestMetaFactoryBaseI14HandshakeArgs5EENS0_12CodeLocationE, symObjAddr: 0x2C070, symBinAddr: 0x10002DD70, symSize: 0x200 }
  - { offsetInCU: 0x1F666A, offset: 0x1F666A, size: 0x8, addend: 0x0, symName: __ZN57WithHandshakeArgs5_CustomServerCertificateValidation_Test8TestBodyEv, symObjAddr: 0xBEA0, symBinAddr: 0x10000DEA0, symSize: 0x170 }
  - { offsetInCU: 0x1F6E9A, offset: 0x1F6E9A, size: 0x8, addend: 0x0, symName: __ZN7testing18WithParamInterfaceI14HandshakeArgs5E8GetParamEv, symObjAddr: 0xC010, symBinAddr: 0x10000E010, symSize: 0xB0 }
  - { offsetInCU: 0x1F6F6C, offset: 0x1F6F6C, size: 0x8, addend: 0x0, symName: __ZN11TestLoggerTI14HandshakeArgs5EC2EPKcRKS0_, symObjAddr: 0x5CDD0, symBinAddr: 0x10005E120, symSize: 0x210 }
  - { offsetInCU: 0x1F753E, offset: 0x1F753E, size: 0x8, addend: 0x0, symName: __ZN57WithHandshakeArgs5_CustomClientCertificateValidation_Test13AddToRegistryEv, symObjAddr: 0xC0C0, symBinAddr: 0x10000E0C0, symSize: 0x1F0 }
  - { offsetInCU: 0x1F8425, offset: 0x1F8425, size: 0x8, addend: 0x0, symName: __ZN57WithHandshakeArgs5_CustomClientCertificateValidation_Test8TestBodyEv, symObjAddr: 0xC2B0, symBinAddr: 0x10000E2B0, symSize: 0x170 }
  - { offsetInCU: 0x1F8CB6, offset: 0x1F8CB6, size: 0x8, addend: 0x0, symName: __ZN48WithHandshakeArgs6_ConnectClientCertificate_Test13AddToRegistryEv, symObjAddr: 0xC420, symBinAddr: 0x10000E420, symSize: 0x1F0 }
  - { offsetInCU: 0x1F9B9D, offset: 0x1F9B9D, size: 0x8, addend: 0x0, symName: __ZN7testing8internal30ParameterizedTestSuiteRegistry25GetTestSuitePatternHolderI18WithHandshakeArgs6EEPNS0_26ParameterizedTestSuiteInfoIT_EENSt3__112basic_stringIcNS8_11char_traitsIcEENS8_9allocatorIcEEEENS0_12CodeLocationE, symObjAddr: 0x1C000, symBinAddr: 0x10001E000, symSize: 0x340 }
  - { offsetInCU: 0x1FAB07, offset: 0x1FAB07, size: 0x8, addend: 0x0, symName: __ZN7testing8internal26ParameterizedTestSuiteInfoI18WithHandshakeArgs6E14AddTestPatternEPKcS5_PNS0_19TestMetaFactoryBaseI14HandshakeArgs6EENS0_12CodeLocationE, symObjAddr: 0x2C7F0, symBinAddr: 0x10002E4B0, symSize: 0x200 }
  - { offsetInCU: 0x1FB405, offset: 0x1FB405, size: 0x8, addend: 0x0, symName: __ZN48WithHandshakeArgs6_ConnectClientCertificate_Test8TestBodyEv, symObjAddr: 0xC610, symBinAddr: 0x10000E610, symSize: 0x170 }
  - { offsetInCU: 0x1FBC35, offset: 0x1FBC35, size: 0x8, addend: 0x0, symName: __ZN7testing18WithParamInterfaceI14HandshakeArgs6E8GetParamEv, symObjAddr: 0xC780, symBinAddr: 0x10000E780, symSize: 0xB0 }
  - { offsetInCU: 0x1FBD07, offset: 0x1FBD07, size: 0x8, addend: 0x0, symName: __ZN11TestLoggerTI14HandshakeArgs6EC2EPKcRKS0_, symObjAddr: 0x5E430, symBinAddr: 0x10005F780, symSize: 0x210 }
  - { offsetInCU: 0x1FC2D9, offset: 0x1FC2D9, size: 0x8, addend: 0x0, symName: __ZN38WithHandshakeArgs7_CibirExtension_Test13AddToRegistryEv, symObjAddr: 0xC830, symBinAddr: 0x10000E830, symSize: 0x1F0 }
  - { offsetInCU: 0x1FD1C0, offset: 0x1FD1C0, size: 0x8, addend: 0x0, symName: __ZN7testing8internal30ParameterizedTestSuiteRegistry25GetTestSuitePatternHolderI18WithHandshakeArgs7EEPNS0_26ParameterizedTestSuiteInfoIT_EENSt3__112basic_stringIcNS8_11char_traitsIcEENS8_9allocatorIcEEEENS0_12CodeLocationE, symObjAddr: 0x1C490, symBinAddr: 0x10001E490, symSize: 0x340 }
  - { offsetInCU: 0x1FE12A, offset: 0x1FE12A, size: 0x8, addend: 0x0, symName: __ZN7testing8internal26ParameterizedTestSuiteInfoI18WithHandshakeArgs7E14AddTestPatternEPKcS5_PNS0_19TestMetaFactoryBaseI14HandshakeArgs7EENS0_12CodeLocationE, symObjAddr: 0x2CEA0, symBinAddr: 0x10002EB20, symSize: 0x200 }
  - { offsetInCU: 0x1FEA28, offset: 0x1FEA28, size: 0x8, addend: 0x0, symName: __ZN38WithHandshakeArgs7_CibirExtension_Test8TestBodyEv, symObjAddr: 0xCA20, symBinAddr: 0x10000EA20, symSize: 0x170 }
  - { offsetInCU: 0x1FF258, offset: 0x1FF258, size: 0x8, addend: 0x0, symName: __ZN7testing18WithParamInterfaceI14HandshakeArgs7E8GetParamEv, symObjAddr: 0xCB90, symBinAddr: 0x10000EB90, symSize: 0xB0 }
  - { offsetInCU: 0x1FF32A, offset: 0x1FF32A, size: 0x8, addend: 0x0, symName: __ZN11TestLoggerTI14HandshakeArgs7EC2EPKcRKS0_, symObjAddr: 0x5FA70, symBinAddr: 0x100060DC0, symSize: 0x1F0 }
  - { offsetInCU: 0x1FF895, offset: 0x1FF895, size: 0x8, addend: 0x0, symName: __ZN35WithHandshakeArgs8_OddSizeVnTp_Test13AddToRegistryEv, symObjAddr: 0xCC40, symBinAddr: 0x10000EC40, symSize: 0x1F0 }
  - { offsetInCU: 0x20077C, offset: 0x20077C, size: 0x8, addend: 0x0, symName: __ZN7testing8internal30ParameterizedTestSuiteRegistry25GetTestSuitePatternHolderI18WithHandshakeArgs8EEPNS0_26ParameterizedTestSuiteInfoIT_EENSt3__112basic_stringIcNS8_11char_traitsIcEENS8_9allocatorIcEEEENS0_12CodeLocationE, symObjAddr: 0x1CDB0, symBinAddr: 0x10001EDB0, symSize: 0x340 }
  - { offsetInCU: 0x2016E6, offset: 0x2016E6, size: 0x8, addend: 0x0, symName: __ZN7testing8internal26ParameterizedTestSuiteInfoI18WithHandshakeArgs8E14AddTestPatternEPKcS5_PNS0_19TestMetaFactoryBaseI14HandshakeArgs8EENS0_12CodeLocationE, symObjAddr: 0x2D550, symBinAddr: 0x10002F190, symSize: 0x200 }
  - { offsetInCU: 0x201FE4, offset: 0x201FE4, size: 0x8, addend: 0x0, symName: __ZN35WithHandshakeArgs8_OddSizeVnTp_Test8TestBodyEv, symObjAddr: 0xCE30, symBinAddr: 0x10000EE30, symSize: 0x170 }
  - { offsetInCU: 0x202814, offset: 0x202814, size: 0x8, addend: 0x0, symName: __ZN7testing18WithParamInterfaceI14HandshakeArgs8E8GetParamEv, symObjAddr: 0xCFA0, symBinAddr: 0x10000EFA0, symSize: 0xB0 }
  - { offsetInCU: 0x2028E6, offset: 0x2028E6, size: 0x8, addend: 0x0, symName: __ZN11TestLoggerTI14HandshakeArgs8EC2EPKcRKS0_, symObjAddr: 0x61090, symBinAddr: 0x1000623E0, symSize: 0x1F0 }
  - { offsetInCU: 0x202E52, offset: 0x202E52, size: 0x8, addend: 0x0, symName: __ZN49WithHandshakeArgs9_VnTpChosenVersionMismatch_Test13AddToRegistryEv, symObjAddr: 0xD050, symBinAddr: 0x10000F050, symSize: 0x1F0 }
  - { offsetInCU: 0x203D39, offset: 0x203D39, size: 0x8, addend: 0x0, symName: __ZN7testing8internal30ParameterizedTestSuiteRegistry25GetTestSuitePatternHolderI18WithHandshakeArgs9EEPNS0_26ParameterizedTestSuiteInfoIT_EENSt3__112basic_stringIcNS8_11char_traitsIcEENS8_9allocatorIcEEEENS0_12CodeLocationE, symObjAddr: 0x1D240, symBinAddr: 0x10001F240, symSize: 0x340 }
  - { offsetInCU: 0x204CA3, offset: 0x204CA3, size: 0x8, addend: 0x0, symName: __ZN7testing8internal26ParameterizedTestSuiteInfoI18WithHandshakeArgs9E14AddTestPatternEPKcS5_PNS0_19TestMetaFactoryBaseIbEENS0_12CodeLocationE, symObjAddr: 0x2DC00, symBinAddr: 0x10002F800, symSize: 0x200 }
  - { offsetInCU: 0x205524, offset: 0x205524, size: 0x8, addend: 0x0, symName: __ZN49WithHandshakeArgs9_VnTpChosenVersionMismatch_Test8TestBodyEv, symObjAddr: 0xD240, symBinAddr: 0x10000F240, symSize: 0x160 }
  - { offsetInCU: 0x205D8A, offset: 0x205D8A, size: 0x8, addend: 0x0, symName: __ZN45WithHandshakeArgs9_VnTpChosenVersionZero_Test13AddToRegistryEv, symObjAddr: 0xD3A0, symBinAddr: 0x10000F3A0, symSize: 0x1F0 }
  - { offsetInCU: 0x206C71, offset: 0x206C71, size: 0x8, addend: 0x0, symName: __ZN45WithHandshakeArgs9_VnTpChosenVersionZero_Test8TestBodyEv, symObjAddr: 0xD590, symBinAddr: 0x10000F590, symSize: 0x160 }
  - { offsetInCU: 0x2074D7, offset: 0x2074D7, size: 0x8, addend: 0x0, symName: __ZN44WithHandshakeArgs9_VnTpOtherVersionZero_Test13AddToRegistryEv, symObjAddr: 0xD6F0, symBinAddr: 0x10000F6F0, symSize: 0x1F0 }
  - { offsetInCU: 0x2083BE, offset: 0x2083BE, size: 0x8, addend: 0x0, symName: __ZN44WithHandshakeArgs9_VnTpOtherVersionZero_Test8TestBodyEv, symObjAddr: 0xD8E0, symBinAddr: 0x10000F8E0, symSize: 0x160 }
  - { offsetInCU: 0x208C24, offset: 0x208C24, size: 0x8, addend: 0x0, symName: __ZN34WithHandshakeArgs4_RandomLoss_Test13AddToRegistryEv, symObjAddr: 0xDA40, symBinAddr: 0x10000FA40, symSize: 0x1F0 }
  - { offsetInCU: 0x209B0B, offset: 0x209B0B, size: 0x8, addend: 0x0, symName: __ZN7testing8internal30ParameterizedTestSuiteRegistry25GetTestSuitePatternHolderI18WithHandshakeArgs4EEPNS0_26ParameterizedTestSuiteInfoIT_EENSt3__112basic_stringIcNS8_11char_traitsIcEENS8_9allocatorIcEEEENS0_12CodeLocationE, symObjAddr: 0x1B6E0, symBinAddr: 0x10001D6E0, symSize: 0x340 }
  - { offsetInCU: 0x20AA75, offset: 0x20AA75, size: 0x8, addend: 0x0, symName: __ZN7testing8internal26ParameterizedTestSuiteInfoI18WithHandshakeArgs4E14AddTestPatternEPKcS5_PNS0_19TestMetaFactoryBaseI14HandshakeArgs4EENS0_12CodeLocationE, symObjAddr: 0x2E430, symBinAddr: 0x10002FFF0, symSize: 0x200 }
  - { offsetInCU: 0x20B373, offset: 0x20B373, size: 0x8, addend: 0x0, symName: __ZN34WithHandshakeArgs4_RandomLoss_Test8TestBodyEv, symObjAddr: 0xDC30, symBinAddr: 0x10000FC30, symSize: 0x1B0 }
  - { offsetInCU: 0x20BC06, offset: 0x20BC06, size: 0x8, addend: 0x0, symName: __ZN7testing18WithParamInterfaceI14HandshakeArgs4E8GetParamEv, symObjAddr: 0xDDE0, symBinAddr: 0x10000FDE0, symSize: 0xB0 }
  - { offsetInCU: 0x20BCD8, offset: 0x20BCD8, size: 0x8, addend: 0x0, symName: __ZN11TestLoggerTI14HandshakeArgs4EC2EPKcRKS0_, symObjAddr: 0x63990, symBinAddr: 0x100064CE0, symSize: 0x1C0 }
  - { offsetInCU: 0x20C1AC, offset: 0x20C1AC, size: 0x8, addend: 0x0, symName: __ZN40WithHandshakeArgs4_RandomLossResume_Test13AddToRegistryEv, symObjAddr: 0xDE90, symBinAddr: 0x10000FE90, symSize: 0x1F0 }
  - { offsetInCU: 0x20D093, offset: 0x20D093, size: 0x8, addend: 0x0, symName: __ZN40WithHandshakeArgs4_RandomLossResume_Test8TestBodyEv, symObjAddr: 0xE080, symBinAddr: 0x100010080, symSize: 0x1B0 }
  - { offsetInCU: 0x20D975, offset: 0x20D975, size: 0x8, addend: 0x0, symName: __ZN49WithHandshakeArgs4_RandomLossResumeRejection_Test13AddToRegistryEv, symObjAddr: 0xE230, symBinAddr: 0x100010230, symSize: 0x1F0 }
  - { offsetInCU: 0x20E85C, offset: 0x20E85C, size: 0x8, addend: 0x0, symName: __ZN49WithHandshakeArgs4_RandomLossResumeRejection_Test8TestBodyEv, symObjAddr: 0xE420, symBinAddr: 0x100010420, symSize: 0x1B0 }
  - { offsetInCU: 0x20F13E, offset: 0x20F13E, size: 0x8, addend: 0x0, symName: __ZN31WithFamilyArgs_Unreachable_Test13AddToRegistryEv, symObjAddr: 0xE5D0, symBinAddr: 0x1000105D0, symSize: 0x1F0 }
  - { offsetInCU: 0x210036, offset: 0x210036, size: 0x8, addend: 0x0, symName: __ZN31WithFamilyArgs_Unreachable_Test8TestBodyEv, symObjAddr: 0xE7C0, symBinAddr: 0x1000107C0, symSize: 0x220 }
  - { offsetInCU: 0x210A27, offset: 0x210A27, size: 0x8, addend: 0x0, symName: __ZN33HandshakeTest_InvalidAddress_Test8TestBodyEv, symObjAddr: 0xE9E0, symBinAddr: 0x1000109E0, symSize: 0x140 }
  - { offsetInCU: 0x21121A, offset: 0x21121A, size: 0x8, addend: 0x0, symName: __ZN27WithFamilyArgs_BadALPN_Test13AddToRegistryEv, symObjAddr: 0xEB20, symBinAddr: 0x100010B20, symSize: 0x1F0 }
  - { offsetInCU: 0x212101, offset: 0x212101, size: 0x8, addend: 0x0, symName: __ZN27WithFamilyArgs_BadALPN_Test8TestBodyEv, symObjAddr: 0xED10, symBinAddr: 0x100010D10, symSize: 0x160 }
  - { offsetInCU: 0x212967, offset: 0x212967, size: 0x8, addend: 0x0, symName: __ZN26WithFamilyArgs_BadSNI_Test13AddToRegistryEv, symObjAddr: 0xEE70, symBinAddr: 0x100010E70, symSize: 0x1F0 }
  - { offsetInCU: 0x21384E, offset: 0x21384E, size: 0x8, addend: 0x0, symName: __ZN26WithFamilyArgs_BadSNI_Test8TestBodyEv, symObjAddr: 0xF060, symBinAddr: 0x100011060, symSize: 0x160 }
  - { offsetInCU: 0x2140B4, offset: 0x2140B4, size: 0x8, addend: 0x0, symName: __ZN34WithFamilyArgs_ServerRejected_Test13AddToRegistryEv, symObjAddr: 0xF1C0, symBinAddr: 0x1000111C0, symSize: 0x1F0 }
  - { offsetInCU: 0x214F9B, offset: 0x214F9B, size: 0x8, addend: 0x0, symName: __ZN34WithFamilyArgs_ServerRejected_Test8TestBodyEv, symObjAddr: 0xF3B0, symBinAddr: 0x1000113B0, symSize: 0x160 }
  - { offsetInCU: 0x215801, offset: 0x215801, size: 0x8, addend: 0x0, symName: __ZN43WithFamilyArgs_ClientBlockedSourcePort_Test13AddToRegistryEv, symObjAddr: 0xF510, symBinAddr: 0x100011510, symSize: 0x1F0 }
  - { offsetInCU: 0x2166E8, offset: 0x2166E8, size: 0x8, addend: 0x0, symName: __ZN43WithFamilyArgs_ClientBlockedSourcePort_Test8TestBodyEv, symObjAddr: 0xF700, symBinAddr: 0x100011700, symSize: 0x160 }
  - { offsetInCU: 0x216F4E, offset: 0x216F4E, size: 0x8, addend: 0x0, symName: __ZN30WithFamilyArgs_RebindPort_Test13AddToRegistryEv, symObjAddr: 0xF860, symBinAddr: 0x100011860, symSize: 0x1F0 }
  - { offsetInCU: 0x217E35, offset: 0x217E35, size: 0x8, addend: 0x0, symName: __ZN30WithFamilyArgs_RebindPort_Test8TestBodyEv, symObjAddr: 0xFA50, symBinAddr: 0x100011A50, symSize: 0x170 }
  - { offsetInCU: 0x2186B0, offset: 0x2186B0, size: 0x8, addend: 0x0, symName: __ZN43WithRebindPaddingArgs_RebindPortPadded_Test13AddToRegistryEv, symObjAddr: 0xFBC0, symBinAddr: 0x100011BC0, symSize: 0x1F0 }
  - { offsetInCU: 0x219597, offset: 0x219597, size: 0x8, addend: 0x0, symName: __ZN7testing8internal30ParameterizedTestSuiteRegistry25GetTestSuitePatternHolderI21WithRebindPaddingArgsEEPNS0_26ParameterizedTestSuiteInfoIT_EENSt3__112basic_stringIcNS8_11char_traitsIcEENS8_9allocatorIcEEEENS0_12CodeLocationE, symObjAddr: 0x1A010, symBinAddr: 0x10001C010, symSize: 0x340 }
  - { offsetInCU: 0x21A501, offset: 0x21A501, size: 0x8, addend: 0x0, symName: __ZN7testing8internal26ParameterizedTestSuiteInfoI21WithRebindPaddingArgsE14AddTestPatternEPKcS5_PNS0_19TestMetaFactoryBaseI17RebindPaddingArgsEENS0_12CodeLocationE, symObjAddr: 0x2F1D0, symBinAddr: 0x100030D50, symSize: 0x200 }
  - { offsetInCU: 0x21ADFF, offset: 0x21ADFF, size: 0x8, addend: 0x0, symName: __ZN43WithRebindPaddingArgs_RebindPortPadded_Test8TestBodyEv, symObjAddr: 0xFDB0, symBinAddr: 0x100011DB0, symSize: 0x180 }
  - { offsetInCU: 0x21B62F, offset: 0x21B62F, size: 0x8, addend: 0x0, symName: __ZN7testing18WithParamInterfaceI17RebindPaddingArgsE8GetParamEv, symObjAddr: 0xFF30, symBinAddr: 0x100011F30, symSize: 0xB0 }
  - { offsetInCU: 0x21B701, offset: 0x21B701, size: 0x8, addend: 0x0, symName: __ZN11TestLoggerTI17RebindPaddingArgsEC2EPKcRKS0_, symObjAddr: 0x64F80, symBinAddr: 0x1000662D0, symSize: 0x1F0 }
  - { offsetInCU: 0x21BC5A, offset: 0x21BC5A, size: 0x8, addend: 0x0, symName: __ZN30WithFamilyArgs_RebindAddr_Test13AddToRegistryEv, symObjAddr: 0xFFE0, symBinAddr: 0x100011FE0, symSize: 0x1F0 }
  - { offsetInCU: 0x21CB41, offset: 0x21CB41, size: 0x8, addend: 0x0, symName: __ZN30WithFamilyArgs_RebindAddr_Test8TestBodyEv, symObjAddr: 0x101D0, symBinAddr: 0x1000121D0, symSize: 0x170 }
  - { offsetInCU: 0x21D3C6, offset: 0x21D3C6, size: 0x8, addend: 0x0, symName: __ZN38WithFamilyArgs_RebindDatapathAddr_Test13AddToRegistryEv, symObjAddr: 0x10340, symBinAddr: 0x100012340, symSize: 0x1F0 }
  - { offsetInCU: 0x21E2AD, offset: 0x21E2AD, size: 0x8, addend: 0x0, symName: __ZN38WithFamilyArgs_RebindDatapathAddr_Test8TestBodyEv, symObjAddr: 0x10530, symBinAddr: 0x100012530, symSize: 0x60 }
  - { offsetInCU: 0x21E3A3, offset: 0x21E3A3, size: 0x8, addend: 0x0, symName: __ZN43WithRebindPaddingArgs_RebindAddrPadded_Test13AddToRegistryEv, symObjAddr: 0x10590, symBinAddr: 0x100012590, symSize: 0x1F0 }
  - { offsetInCU: 0x21F28A, offset: 0x21F28A, size: 0x8, addend: 0x0, symName: __ZN43WithRebindPaddingArgs_RebindAddrPadded_Test8TestBodyEv, symObjAddr: 0x10780, symBinAddr: 0x100012780, symSize: 0x180 }
  - { offsetInCU: 0x21FB0E, offset: 0x21FB0E, size: 0x8, addend: 0x0, symName: __ZN41WithFamilyArgs_PathValidationTimeout_Test13AddToRegistryEv, symObjAddr: 0x10900, symBinAddr: 0x100012900, symSize: 0x1F0 }
  - { offsetInCU: 0x2209F5, offset: 0x2209F5, size: 0x8, addend: 0x0, symName: __ZN41WithFamilyArgs_PathValidationTimeout_Test8TestBodyEv, symObjAddr: 0x10AF0, symBinAddr: 0x100012AF0, symSize: 0x160 }
  - { offsetInCU: 0x22125B, offset: 0x22125B, size: 0x8, addend: 0x0, symName: __ZN38WithFamilyArgs_ChangeMaxStreamIDs_Test13AddToRegistryEv, symObjAddr: 0x10C50, symBinAddr: 0x100012C50, symSize: 0x1F0 }
  - { offsetInCU: 0x222142, offset: 0x222142, size: 0x8, addend: 0x0, symName: __ZN38WithFamilyArgs_ChangeMaxStreamIDs_Test8TestBodyEv, symObjAddr: 0x10E40, symBinAddr: 0x100012E40, symSize: 0x160 }
  - { offsetInCU: 0x2229A8, offset: 0x2229A8, size: 0x8, addend: 0x0, symName: __ZN32WithFamilyArgs_LoadBalanced_Test13AddToRegistryEv, symObjAddr: 0x10FA0, symBinAddr: 0x100012FA0, symSize: 0x1F0 }
  - { offsetInCU: 0x22388F, offset: 0x22388F, size: 0x8, addend: 0x0, symName: __ZN32WithFamilyArgs_LoadBalanced_Test8TestBodyEv, symObjAddr: 0x11190, symBinAddr: 0x100013190, symSize: 0x160 }
  - { offsetInCU: 0x2240F4, offset: 0x2240F4, size: 0x8, addend: 0x0, symName: __ZN54WithHandshakeArgs10_HandshakeSpecificLossPatterns_Test13AddToRegistryEv, symObjAddr: 0x112F0, symBinAddr: 0x1000132F0, symSize: 0x1F0 }
  - { offsetInCU: 0x224FDB, offset: 0x224FDB, size: 0x8, addend: 0x0, symName: __ZN7testing8internal30ParameterizedTestSuiteRegistry25GetTestSuitePatternHolderI19WithHandshakeArgs10EEPNS0_26ParameterizedTestSuiteInfoIT_EENSt3__112basic_stringIcNS8_11char_traitsIcEENS8_9allocatorIcEEEENS0_12CodeLocationE, symObjAddr: 0x1D5E0, symBinAddr: 0x10001F5E0, symSize: 0x340 }
  - { offsetInCU: 0x225F45, offset: 0x225F45, size: 0x8, addend: 0x0, symName: __ZN7testing8internal26ParameterizedTestSuiteInfoI19WithHandshakeArgs10E14AddTestPatternEPKcS5_PNS0_19TestMetaFactoryBaseI15HandshakeArgs10EENS0_12CodeLocationE, symObjAddr: 0x2FD60, symBinAddr: 0x1000318A0, symSize: 0x200 }
  - { offsetInCU: 0x226843, offset: 0x226843, size: 0x8, addend: 0x0, symName: __ZN54WithHandshakeArgs10_HandshakeSpecificLossPatterns_Test8TestBodyEv, symObjAddr: 0x114E0, symBinAddr: 0x1000134E0, symSize: 0x170 }
  - { offsetInCU: 0x227073, offset: 0x227073, size: 0x8, addend: 0x0, symName: __ZN7testing18WithParamInterfaceI15HandshakeArgs10E8GetParamEv, symObjAddr: 0x11650, symBinAddr: 0x100013650, symSize: 0xB0 }
  - { offsetInCU: 0x227145, offset: 0x227145, size: 0x8, addend: 0x0, symName: __ZN11TestLoggerTI15HandshakeArgs10EC2EPKcRKS0_, symObjAddr: 0x665C0, symBinAddr: 0x100067910, symSize: 0x210 }
  - { offsetInCU: 0x22771B, offset: 0x22771B, size: 0x8, addend: 0x0, symName: __ZN48WithHandshakeArgs11_ShutdownDuringHandshake_Test13AddToRegistryEv, symObjAddr: 0x11700, symBinAddr: 0x100013700, symSize: 0x1F0 }
  - { offsetInCU: 0x228602, offset: 0x228602, size: 0x8, addend: 0x0, symName: __ZN7testing8internal30ParameterizedTestSuiteRegistry25GetTestSuitePatternHolderI19WithHandshakeArgs11EEPNS0_26ParameterizedTestSuiteInfoIT_EENSt3__112basic_stringIcNS8_11char_traitsIcEENS8_9allocatorIcEEEENS0_12CodeLocationE, symObjAddr: 0x1DA70, symBinAddr: 0x10001FA70, symSize: 0x340 }
  - { offsetInCU: 0x22956C, offset: 0x22956C, size: 0x8, addend: 0x0, symName: __ZN7testing8internal26ParameterizedTestSuiteInfoI19WithHandshakeArgs11E14AddTestPatternEPKcS5_PNS0_19TestMetaFactoryBaseI15HandshakeArgs11EENS0_12CodeLocationE, symObjAddr: 0x30410, symBinAddr: 0x100031F10, symSize: 0x200 }
  - { offsetInCU: 0x229E6A, offset: 0x229E6A, size: 0x8, addend: 0x0, symName: __ZN48WithHandshakeArgs11_ShutdownDuringHandshake_Test8TestBodyEv, symObjAddr: 0x118F0, symBinAddr: 0x1000138F0, symSize: 0x160 }
  - { offsetInCU: 0x22A673, offset: 0x22A673, size: 0x8, addend: 0x0, symName: __ZN7testing18WithParamInterfaceI15HandshakeArgs11E8GetParamEv, symObjAddr: 0x11A50, symBinAddr: 0x100013A50, symSize: 0xB0 }
  - { offsetInCU: 0x22A745, offset: 0x22A745, size: 0x8, addend: 0x0, symName: __ZN11TestLoggerTI15HandshakeArgs11EC2EPKcRKS0_, symObjAddr: 0x67BE0, symBinAddr: 0x100068F30, symSize: 0x1D0 }
  - { offsetInCU: 0x22AC72, offset: 0x22AC72, size: 0x8, addend: 0x0, symName: __ZN23WithSendArgs1_Send_Test13AddToRegistryEv, symObjAddr: 0x11B00, symBinAddr: 0x100013B00, symSize: 0x1F0 }
  - { offsetInCU: 0x22BB59, offset: 0x22BB59, size: 0x8, addend: 0x0, symName: __ZN7testing8internal30ParameterizedTestSuiteRegistry25GetTestSuitePatternHolderI13WithSendArgs1EEPNS0_26ParameterizedTestSuiteInfoIT_EENSt3__112basic_stringIcNS8_11char_traitsIcEENS8_9allocatorIcEEEENS0_12CodeLocationE, symObjAddr: 0x1DF00, symBinAddr: 0x10001FF00, symSize: 0x340 }
  - { offsetInCU: 0x22CAC3, offset: 0x22CAC3, size: 0x8, addend: 0x0, symName: __ZN7testing8internal26ParameterizedTestSuiteInfoI13WithSendArgs1E14AddTestPatternEPKcS5_PNS0_19TestMetaFactoryBaseI9SendArgs1EENS0_12CodeLocationE, symObjAddr: 0x30AC0, symBinAddr: 0x100032580, symSize: 0x200 }
  - { offsetInCU: 0x22D3C1, offset: 0x22D3C1, size: 0x8, addend: 0x0, symName: __ZN23WithSendArgs1_Send_Test8TestBodyEv, symObjAddr: 0x11CF0, symBinAddr: 0x100013CF0, symSize: 0x220 }
  - { offsetInCU: 0x22DCAD, offset: 0x22DCAD, size: 0x8, addend: 0x0, symName: __ZN7testing18WithParamInterfaceI9SendArgs1E8GetParamEv, symObjAddr: 0x11F10, symBinAddr: 0x100013F10, symSize: 0xB0 }
  - { offsetInCU: 0x22DD7F, offset: 0x22DD7F, size: 0x8, addend: 0x0, symName: __ZN11TestLoggerTI9SendArgs1EC2EPKcRKS0_, symObjAddr: 0x691B0, symBinAddr: 0x10006A500, symSize: 0x1C0 }
  - { offsetInCU: 0x22E2A2, offset: 0x22E2A2, size: 0x8, addend: 0x0, symName: __ZN28WithSendArgs2_SendLarge_Test13AddToRegistryEv, symObjAddr: 0x11FC0, symBinAddr: 0x100013FC0, symSize: 0x1F0 }
  - { offsetInCU: 0x22F189, offset: 0x22F189, size: 0x8, addend: 0x0, symName: __ZN7testing8internal30ParameterizedTestSuiteRegistry25GetTestSuitePatternHolderI13WithSendArgs2EEPNS0_26ParameterizedTestSuiteInfoIT_EENSt3__112basic_stringIcNS8_11char_traitsIcEENS8_9allocatorIcEEEENS0_12CodeLocationE, symObjAddr: 0x1E390, symBinAddr: 0x100020390, symSize: 0x340 }
  - { offsetInCU: 0x2300F3, offset: 0x2300F3, size: 0x8, addend: 0x0, symName: __ZN7testing8internal26ParameterizedTestSuiteInfoI13WithSendArgs2E14AddTestPatternEPKcS5_PNS0_19TestMetaFactoryBaseI9SendArgs2EENS0_12CodeLocationE, symObjAddr: 0x31170, symBinAddr: 0x100032BF0, symSize: 0x200 }
  - { offsetInCU: 0x2309F1, offset: 0x2309F1, size: 0x8, addend: 0x0, symName: __ZN28WithSendArgs2_SendLarge_Test8TestBodyEv, symObjAddr: 0x121B0, symBinAddr: 0x1000141B0, symSize: 0x1E0 }
  - { offsetInCU: 0x23126D, offset: 0x23126D, size: 0x8, addend: 0x0, symName: __ZN7testing18WithParamInterfaceI9SendArgs2E8GetParamEv, symObjAddr: 0x12390, symBinAddr: 0x100014390, symSize: 0xB0 }
  - { offsetInCU: 0x23133F, offset: 0x23133F, size: 0x8, addend: 0x0, symName: __ZN11TestLoggerTI9SendArgs2EC2EPKcRKS0_, symObjAddr: 0x6A800, symBinAddr: 0x10006BB50, symSize: 0x250 }
  - { offsetInCU: 0x231972, offset: 0x231972, size: 0x8, addend: 0x0, symName: __ZN37WithSendArgs3_SendIntermittently_Test13AddToRegistryEv, symObjAddr: 0x12440, symBinAddr: 0x100014440, symSize: 0x1F0 }
  - { offsetInCU: 0x232859, offset: 0x232859, size: 0x8, addend: 0x0, symName: __ZN7testing8internal30ParameterizedTestSuiteRegistry25GetTestSuitePatternHolderI13WithSendArgs3EEPNS0_26ParameterizedTestSuiteInfoIT_EENSt3__112basic_stringIcNS8_11char_traitsIcEENS8_9allocatorIcEEEENS0_12CodeLocationE, symObjAddr: 0x1E820, symBinAddr: 0x100020820, symSize: 0x340 }
  - { offsetInCU: 0x2337C3, offset: 0x2337C3, size: 0x8, addend: 0x0, symName: __ZN7testing8internal26ParameterizedTestSuiteInfoI13WithSendArgs3E14AddTestPatternEPKcS5_PNS0_19TestMetaFactoryBaseI9SendArgs3EENS0_12CodeLocationE, symObjAddr: 0x31820, symBinAddr: 0x100033260, symSize: 0x200 }
  - { offsetInCU: 0x2340C1, offset: 0x2340C1, size: 0x8, addend: 0x0, symName: __ZN37WithSendArgs3_SendIntermittently_Test8TestBodyEv, symObjAddr: 0x12630, symBinAddr: 0x100014630, symSize: 0x200 }
  - { offsetInCU: 0x234970, offset: 0x234970, size: 0x8, addend: 0x0, symName: __ZN7testing18WithParamInterfaceI9SendArgs3E8GetParamEv, symObjAddr: 0x12830, symBinAddr: 0x100014830, symSize: 0xB0 }
  - { offsetInCU: 0x234A42, offset: 0x234A42, size: 0x8, addend: 0x0, symName: __ZN11TestLoggerTI9SendArgs3EC2EPKcRKS0_, symObjAddr: 0x6BE50, symBinAddr: 0x10006D1A0, symSize: 0x1C0 }
  - { offsetInCU: 0x234F16, offset: 0x234F16, size: 0x8, addend: 0x0, symName: __ZN31WithSend0RttArgs1_Send0Rtt_Test13AddToRegistryEv, symObjAddr: 0x128E0, symBinAddr: 0x1000148E0, symSize: 0x1F0 }
  - { offsetInCU: 0x235DE8, offset: 0x235DE8, size: 0x8, addend: 0x0, symName: __ZN7testing8internal30ParameterizedTestSuiteRegistry25GetTestSuitePatternHolderI17WithSend0RttArgs1EEPNS0_26ParameterizedTestSuiteInfoIT_EENSt3__112basic_stringIcNS8_11char_traitsIcEENS8_9allocatorIcEEEENS0_12CodeLocationE, symObjAddr: 0x1ECB0, symBinAddr: 0x100020CB0, symSize: 0x340 }
  - { offsetInCU: 0x236D52, offset: 0x236D52, size: 0x8, addend: 0x0, symName: __ZN7testing8internal26ParameterizedTestSuiteInfoI17WithSend0RttArgs1E14AddTestPatternEPKcS5_PNS0_19TestMetaFactoryBaseI13Send0RttArgs1EENS0_12CodeLocationE, symObjAddr: 0x31ED0, symBinAddr: 0x1000338D0, symSize: 0x200 }
  - { offsetInCU: 0x237650, offset: 0x237650, size: 0x8, addend: 0x0, symName: __ZN31WithSend0RttArgs1_Send0Rtt_Test8TestBodyEv, symObjAddr: 0x12AD0, symBinAddr: 0x100014AD0, symSize: 0x220 }
  - { offsetInCU: 0x237F20, offset: 0x237F20, size: 0x8, addend: 0x0, symName: __ZN7testing18WithParamInterfaceI13Send0RttArgs1E8GetParamEv, symObjAddr: 0x12CF0, symBinAddr: 0x100014CF0, symSize: 0xB0 }
  - { offsetInCU: 0x237FF2, offset: 0x237FF2, size: 0x8, addend: 0x0, symName: __ZN11TestLoggerTI13Send0RttArgs1EC2EPKcRKS0_, symObjAddr: 0x6D410, symBinAddr: 0x10006E760, symSize: 0x1C0 }
  - { offsetInCU: 0x2384C6, offset: 0x2384C6, size: 0x8, addend: 0x0, symName: __ZN33WithSend0RttArgs2_Reject0Rtt_Test13AddToRegistryEv, symObjAddr: 0x12DA0, symBinAddr: 0x100014DA0, symSize: 0x1F0 }
  - { offsetInCU: 0x239398, offset: 0x239398, size: 0x8, addend: 0x0, symName: __ZN7testing8internal30ParameterizedTestSuiteRegistry25GetTestSuitePatternHolderI17WithSend0RttArgs2EEPNS0_26ParameterizedTestSuiteInfoIT_EENSt3__112basic_stringIcNS8_11char_traitsIcEENS8_9allocatorIcEEEENS0_12CodeLocationE, symObjAddr: 0x1F140, symBinAddr: 0x100021140, symSize: 0x340 }
  - { offsetInCU: 0x23A302, offset: 0x23A302, size: 0x8, addend: 0x0, symName: __ZN7testing8internal26ParameterizedTestSuiteInfoI17WithSend0RttArgs2E14AddTestPatternEPKcS5_PNS0_19TestMetaFactoryBaseI13Send0RttArgs2EENS0_12CodeLocationE, symObjAddr: 0x32580, symBinAddr: 0x100033F40, symSize: 0x200 }
  - { offsetInCU: 0x23AC00, offset: 0x23AC00, size: 0x8, addend: 0x0, symName: __ZN33WithSend0RttArgs2_Reject0Rtt_Test8TestBodyEv, symObjAddr: 0x12F90, symBinAddr: 0x100014F90, symSize: 0x1E0 }
  - { offsetInCU: 0x23B448, offset: 0x23B448, size: 0x8, addend: 0x0, symName: __ZN7testing18WithParamInterfaceI13Send0RttArgs2E8GetParamEv, symObjAddr: 0x13170, symBinAddr: 0x100015170, symSize: 0xB0 }
  - { offsetInCU: 0x23B51A, offset: 0x23B51A, size: 0x8, addend: 0x0, symName: __ZN11TestLoggerTI13Send0RttArgs2EC2EPKcRKS0_, symObjAddr: 0x6EA00, symBinAddr: 0x10006FD50, symSize: 0x1F0 }
  - { offsetInCU: 0x23BA73, offset: 0x23BA73, size: 0x8, addend: 0x0, symName: __ZN25WithBool_IdleTimeout_Test13AddToRegistryEv, symObjAddr: 0x13220, symBinAddr: 0x100015220, symSize: 0x1F0 }
  - { offsetInCU: 0x23C95A, offset: 0x23C95A, size: 0x8, addend: 0x0, symName: __ZN25WithBool_IdleTimeout_Test8TestBodyEv, symObjAddr: 0x13410, symBinAddr: 0x100015410, symSize: 0x160 }
  - { offsetInCU: 0x23D177, offset: 0x23D177, size: 0x8, addend: 0x0, symName: __ZN27Misc_IdleDestCidChange_Test8TestBodyEv, symObjAddr: 0x13570, symBinAddr: 0x100015570, symSize: 0x140 }
  - { offsetInCU: 0x23D91B, offset: 0x23D91B, size: 0x8, addend: 0x0, symName: __ZN26Misc_ServerDisconnect_Test8TestBodyEv, symObjAddr: 0x136B0, symBinAddr: 0x1000156B0, symSize: 0x140 }
  - { offsetInCU: 0x23E0BF, offset: 0x23E0BF, size: 0x8, addend: 0x0, symName: __ZN26Misc_ClientDisconnect_Test8TestBodyEv, symObjAddr: 0x137F0, symBinAddr: 0x1000157F0, symSize: 0x140 }
  - { offsetInCU: 0x23E885, offset: 0x23E885, size: 0x8, addend: 0x0, symName: __ZN27Misc_StatelessResetKey_Test8TestBodyEv, symObjAddr: 0x13930, symBinAddr: 0x100015930, symSize: 0x140 }
  - { offsetInCU: 0x23F078, offset: 0x23F078, size: 0x8, addend: 0x0, symName: __ZN33WithKeyUpdateArgs1_KeyUpdate_Test13AddToRegistryEv, symObjAddr: 0x13A70, symBinAddr: 0x100015A70, symSize: 0x1F0 }
  - { offsetInCU: 0x23FF5F, offset: 0x23FF5F, size: 0x8, addend: 0x0, symName: __ZN7testing8internal30ParameterizedTestSuiteRegistry25GetTestSuitePatternHolderI18WithKeyUpdateArgs1EEPNS0_26ParameterizedTestSuiteInfoIT_EENSt3__112basic_stringIcNS8_11char_traitsIcEENS8_9allocatorIcEEEENS0_12CodeLocationE, symObjAddr: 0x1F5D0, symBinAddr: 0x1000215D0, symSize: 0x340 }
  - { offsetInCU: 0x240EC9, offset: 0x240EC9, size: 0x8, addend: 0x0, symName: __ZN7testing8internal26ParameterizedTestSuiteInfoI18WithKeyUpdateArgs1E14AddTestPatternEPKcS5_PNS0_19TestMetaFactoryBaseI14KeyUpdateArgs1EENS0_12CodeLocationE, symObjAddr: 0x32ED0, symBinAddr: 0x100034850, symSize: 0x200 }
  - { offsetInCU: 0x2417C7, offset: 0x2417C7, size: 0x8, addend: 0x0, symName: __ZN33WithKeyUpdateArgs1_KeyUpdate_Test8TestBodyEv, symObjAddr: 0x13C60, symBinAddr: 0x100015C60, symSize: 0x1D0 }
  - { offsetInCU: 0x242075, offset: 0x242075, size: 0x8, addend: 0x0, symName: __ZN7testing18WithParamInterfaceI14KeyUpdateArgs1E8GetParamEv, symObjAddr: 0x13E30, symBinAddr: 0x100015E30, symSize: 0xB0 }
  - { offsetInCU: 0x242147, offset: 0x242147, size: 0x8, addend: 0x0, symName: __ZN11TestLoggerTI14KeyUpdateArgs1EC2EPKcRKS0_, symObjAddr: 0x70020, symBinAddr: 0x100071370, symSize: 0x1F0 }
  - { offsetInCU: 0x2426C7, offset: 0x2426C7, size: 0x8, addend: 0x0, symName: __ZN34WithKeyUpdateArgs2_RandomLoss_Test13AddToRegistryEv, symObjAddr: 0x13EE0, symBinAddr: 0x100015EE0, symSize: 0x1F0 }
  - { offsetInCU: 0x2435AE, offset: 0x2435AE, size: 0x8, addend: 0x0, symName: __ZN7testing8internal30ParameterizedTestSuiteRegistry25GetTestSuitePatternHolderI18WithKeyUpdateArgs2EEPNS0_26ParameterizedTestSuiteInfoIT_EENSt3__112basic_stringIcNS8_11char_traitsIcEENS8_9allocatorIcEEEENS0_12CodeLocationE, symObjAddr: 0x1FA60, symBinAddr: 0x100021A60, symSize: 0x340 }
  - { offsetInCU: 0x244518, offset: 0x244518, size: 0x8, addend: 0x0, symName: __ZN7testing8internal26ParameterizedTestSuiteInfoI18WithKeyUpdateArgs2E14AddTestPatternEPKcS5_PNS0_19TestMetaFactoryBaseI14KeyUpdateArgs2EENS0_12CodeLocationE, symObjAddr: 0x33580, symBinAddr: 0x100034EC0, symSize: 0x200 }
  - { offsetInCU: 0x244E16, offset: 0x244E16, size: 0x8, addend: 0x0, symName: __ZN34WithKeyUpdateArgs2_RandomLoss_Test8TestBodyEv, symObjAddr: 0x140D0, symBinAddr: 0x1000160D0, symSize: 0x170 }
  - { offsetInCU: 0x245646, offset: 0x245646, size: 0x8, addend: 0x0, symName: __ZN7testing18WithParamInterfaceI14KeyUpdateArgs2E8GetParamEv, symObjAddr: 0x14240, symBinAddr: 0x100016240, symSize: 0xB0 }
  - { offsetInCU: 0x245718, offset: 0x245718, size: 0x8, addend: 0x0, symName: __ZN11TestLoggerTI14KeyUpdateArgs2EC2EPKcRKS0_, symObjAddr: 0x71650, symBinAddr: 0x1000729A0, symSize: 0x200 }
  - { offsetInCU: 0x245CC4, offset: 0x245CC4, size: 0x8, addend: 0x0, symName: __ZN38WithAbortiveArgs_AbortiveShutdown_Test13AddToRegistryEv, symObjAddr: 0x142F0, symBinAddr: 0x1000162F0, symSize: 0x1E0 }
  - { offsetInCU: 0x246BAB, offset: 0x246BAB, size: 0x8, addend: 0x0, symName: __ZN7testing8internal30ParameterizedTestSuiteRegistry25GetTestSuitePatternHolderI16WithAbortiveArgsEEPNS0_26ParameterizedTestSuiteInfoIT_EENSt3__112basic_stringIcNS8_11char_traitsIcEENS8_9allocatorIcEEEENS0_12CodeLocationE, symObjAddr: 0x1FEF0, symBinAddr: 0x100021EF0, symSize: 0x340 }
  - { offsetInCU: 0x247B15, offset: 0x247B15, size: 0x8, addend: 0x0, symName: __ZN7testing8internal26ParameterizedTestSuiteInfoI16WithAbortiveArgsE14AddTestPatternEPKcS5_PNS0_19TestMetaFactoryBaseI12AbortiveArgsEENS0_12CodeLocationE, symObjAddr: 0x33C30, symBinAddr: 0x100035530, symSize: 0x200 }
  - { offsetInCU: 0x248413, offset: 0x248413, size: 0x8, addend: 0x0, symName: __ZN38WithAbortiveArgs_AbortiveShutdown_Test8TestBodyEv, symObjAddr: 0x144D0, symBinAddr: 0x1000164D0, symSize: 0x170 }
  - { offsetInCU: 0x248C43, offset: 0x248C43, size: 0x8, addend: 0x0, symName: __ZN7testing18WithParamInterfaceI12AbortiveArgsE8GetParamEv, symObjAddr: 0x14640, symBinAddr: 0x100016640, symSize: 0xB0 }
  - { offsetInCU: 0x248D15, offset: 0x248D15, size: 0x8, addend: 0x0, symName: __ZN11TestLoggerTI12AbortiveArgsEC2EPKcRKS0_, symObjAddr: 0x72C50, symBinAddr: 0x100073FA0, symSize: 0x1C0 }
  - { offsetInCU: 0x2491FC, offset: 0x2491FC, size: 0x8, addend: 0x0, symName: __ZN42WithCancelOnLossArgs_CancelOnLossSend_Test13AddToRegistryEv, symObjAddr: 0x146F0, symBinAddr: 0x1000166F0, symSize: 0x1F0 }
  - { offsetInCU: 0x24A0E3, offset: 0x24A0E3, size: 0x8, addend: 0x0, symName: __ZN7testing8internal30ParameterizedTestSuiteRegistry25GetTestSuitePatternHolderI20WithCancelOnLossArgsEEPNS0_26ParameterizedTestSuiteInfoIT_EENSt3__112basic_stringIcNS8_11char_traitsIcEENS8_9allocatorIcEEEENS0_12CodeLocationE, symObjAddr: 0x20380, symBinAddr: 0x100022380, symSize: 0x340 }
  - { offsetInCU: 0x24B04D, offset: 0x24B04D, size: 0x8, addend: 0x0, symName: __ZN7testing8internal26ParameterizedTestSuiteInfoI20WithCancelOnLossArgsE14AddTestPatternEPKcS5_PNS0_19TestMetaFactoryBaseI16CancelOnLossArgsEENS0_12CodeLocationE, symObjAddr: 0x342E0, symBinAddr: 0x100035BA0, symSize: 0x200 }
  - { offsetInCU: 0x24B94B, offset: 0x24B94B, size: 0x8, addend: 0x0, symName: __ZN42WithCancelOnLossArgs_CancelOnLossSend_Test8TestBodyEv, symObjAddr: 0x148E0, symBinAddr: 0x1000168E0, symSize: 0x160 }
  - { offsetInCU: 0x24C15A, offset: 0x24C15A, size: 0x8, addend: 0x0, symName: __ZN7testing18WithParamInterfaceI16CancelOnLossArgsE8GetParamEv, symObjAddr: 0x14A40, symBinAddr: 0x100016A40, symSize: 0xB0 }
  - { offsetInCU: 0x24C22C, offset: 0x24C22C, size: 0x8, addend: 0x0, symName: __ZN11TestLoggerTI16CancelOnLossArgsEC2EPKcRKS0_, symObjAddr: 0x74240, symBinAddr: 0x100075590, symSize: 0x1F0 }
  - { offsetInCU: 0x24C7C5, offset: 0x24C7C5, size: 0x8, addend: 0x0, symName: __ZN32WithCidUpdateArgs_CidUpdate_Test13AddToRegistryEv, symObjAddr: 0x14AF0, symBinAddr: 0x100016AF0, symSize: 0x1F0 }
  - { offsetInCU: 0x24D697, offset: 0x24D697, size: 0x8, addend: 0x0, symName: __ZN7testing8internal30ParameterizedTestSuiteRegistry25GetTestSuitePatternHolderI17WithCidUpdateArgsEEPNS0_26ParameterizedTestSuiteInfoIT_EENSt3__112basic_stringIcNS8_11char_traitsIcEENS8_9allocatorIcEEEENS0_12CodeLocationE, symObjAddr: 0x20810, symBinAddr: 0x100022810, symSize: 0x340 }
  - { offsetInCU: 0x24E601, offset: 0x24E601, size: 0x8, addend: 0x0, symName: __ZN7testing8internal26ParameterizedTestSuiteInfoI17WithCidUpdateArgsE14AddTestPatternEPKcS5_PNS0_19TestMetaFactoryBaseI13CidUpdateArgsEENS0_12CodeLocationE, symObjAddr: 0x34990, symBinAddr: 0x100036210, symSize: 0x200 }
  - { offsetInCU: 0x24EEFF, offset: 0x24EEFF, size: 0x8, addend: 0x0, symName: __ZN32WithCidUpdateArgs_CidUpdate_Test8TestBodyEv, symObjAddr: 0x14CE0, symBinAddr: 0x100016CE0, symSize: 0x170 }
  - { offsetInCU: 0x24F72F, offset: 0x24F72F, size: 0x8, addend: 0x0, symName: __ZN7testing18WithParamInterfaceI13CidUpdateArgsE8GetParamEv, symObjAddr: 0x14E50, symBinAddr: 0x100016E50, symSize: 0xB0 }
  - { offsetInCU: 0x24F801, offset: 0x24F801, size: 0x8, addend: 0x0, symName: __ZN11TestLoggerTI13CidUpdateArgsEC2EPKcRKS0_, symObjAddr: 0x75860, symBinAddr: 0x100076BB0, symSize: 0x1F0 }
  - { offsetInCU: 0x24FD6D, offset: 0x24FD6D, size: 0x8, addend: 0x0, symName: __ZN40WithReceiveResumeArgs_ReceiveResume_Test13AddToRegistryEv, symObjAddr: 0x14F00, symBinAddr: 0x100016F00, symSize: 0x1F0 }
  - { offsetInCU: 0x250C54, offset: 0x250C54, size: 0x8, addend: 0x0, symName: __ZN7testing8internal30ParameterizedTestSuiteRegistry25GetTestSuitePatternHolderI21WithReceiveResumeArgsEEPNS0_26ParameterizedTestSuiteInfoIT_EENSt3__112basic_stringIcNS8_11char_traitsIcEENS8_9allocatorIcEEEENS0_12CodeLocationE, symObjAddr: 0x20CA0, symBinAddr: 0x100022CA0, symSize: 0x340 }
  - { offsetInCU: 0x251BBE, offset: 0x251BBE, size: 0x8, addend: 0x0, symName: __ZN7testing8internal26ParameterizedTestSuiteInfoI21WithReceiveResumeArgsE14AddTestPatternEPKcS5_PNS0_19TestMetaFactoryBaseI17ReceiveResumeArgsEENS0_12CodeLocationE, symObjAddr: 0x35040, symBinAddr: 0x100036880, symSize: 0x200 }
  - { offsetInCU: 0x2524BC, offset: 0x2524BC, size: 0x8, addend: 0x0, symName: __ZN40WithReceiveResumeArgs_ReceiveResume_Test8TestBodyEv, symObjAddr: 0x150F0, symBinAddr: 0x1000170F0, symSize: 0x1C0 }
  - { offsetInCU: 0x252D84, offset: 0x252D84, size: 0x8, addend: 0x0, symName: __ZN7testing18WithParamInterfaceI17ReceiveResumeArgsE8GetParamEv, symObjAddr: 0x152B0, symBinAddr: 0x1000172B0, symSize: 0xB0 }
  - { offsetInCU: 0x252E56, offset: 0x252E56, size: 0x8, addend: 0x0, symName: __ZN11TestLoggerTI17ReceiveResumeArgsEC2EPKcRKS0_, symObjAddr: 0x76E50, symBinAddr: 0x1000781A0, symSize: 0x1C0 }
  - { offsetInCU: 0x253351, offset: 0x253351, size: 0x8, addend: 0x0, symName: __ZN52WithReceiveResumeNoDataArgs_ReceiveResumeNoData_Test13AddToRegistryEv, symObjAddr: 0x15360, symBinAddr: 0x100017360, symSize: 0x210 }
  - { offsetInCU: 0x25437B, offset: 0x25437B, size: 0x8, addend: 0x0, symName: __ZN7testing8internal30ParameterizedTestSuiteRegistry25GetTestSuitePatternHolderI27WithReceiveResumeNoDataArgsEEPNS0_26ParameterizedTestSuiteInfoIT_EENSt3__112basic_stringIcNS8_11char_traitsIcEENS8_9allocatorIcEEEENS0_12CodeLocationE, symObjAddr: 0x21130, symBinAddr: 0x100023130, symSize: 0x340 }
  - { offsetInCU: 0x2552E5, offset: 0x2552E5, size: 0x8, addend: 0x0, symName: __ZN7testing8internal26ParameterizedTestSuiteInfoI27WithReceiveResumeNoDataArgsE14AddTestPatternEPKcS5_PNS0_19TestMetaFactoryBaseI23ReceiveResumeNoDataArgsEENS0_12CodeLocationE, symObjAddr: 0x356F0, symBinAddr: 0x100036EF0, symSize: 0x200 }
  - { offsetInCU: 0x255BE3, offset: 0x255BE3, size: 0x8, addend: 0x0, symName: __ZN52WithReceiveResumeNoDataArgs_ReceiveResumeNoData_Test8TestBodyEv, symObjAddr: 0x15570, symBinAddr: 0x100017570, symSize: 0x170 }
  - { offsetInCU: 0x256417, offset: 0x256417, size: 0x8, addend: 0x0, symName: __ZN7testing18WithParamInterfaceI23ReceiveResumeNoDataArgsE8GetParamEv, symObjAddr: 0x156E0, symBinAddr: 0x1000176E0, symSize: 0xB0 }
  - { offsetInCU: 0x2564E9, offset: 0x2564E9, size: 0x8, addend: 0x0, symName: __ZN11TestLoggerTI23ReceiveResumeNoDataArgsEC2EPKcRKS0_, symObjAddr: 0x78470, symBinAddr: 0x1000797C0, symSize: 0x230 }
  - { offsetInCU: 0x256AD0, offset: 0x256AD0, size: 0x8, addend: 0x0, symName: __ZN32WithFamilyArgs_AckSendDelay_Test13AddToRegistryEv, symObjAddr: 0x15790, symBinAddr: 0x100017790, symSize: 0x1F0 }
  - { offsetInCU: 0x2579B7, offset: 0x2579B7, size: 0x8, addend: 0x0, symName: __ZN32WithFamilyArgs_AckSendDelay_Test8TestBodyEv, symObjAddr: 0x15980, symBinAddr: 0x100017980, symSize: 0x150 }
  - { offsetInCU: 0x25817A, offset: 0x25817A, size: 0x8, addend: 0x0, symName: __ZN28Misc_AbortPausedReceive_Test8TestBodyEv, symObjAddr: 0x15AD0, symBinAddr: 0x100017AD0, symSize: 0x140 }
  - { offsetInCU: 0x25894C, offset: 0x25894C, size: 0x8, addend: 0x0, symName: __ZN29Misc_AbortPendingReceive_Test8TestBodyEv, symObjAddr: 0x15C10, symBinAddr: 0x100017C10, symSize: 0x140 }
  - { offsetInCU: 0x259104, offset: 0x259104, size: 0x8, addend: 0x0, symName: __ZN32Misc_AbortIncompleteReceive_Test8TestBodyEv, symObjAddr: 0x15D50, symBinAddr: 0x100017D50, symSize: 0x140 }
  - { offsetInCU: 0x2598BC, offset: 0x2598BC, size: 0x8, addend: 0x0, symName: __ZN21Misc_SlowReceive_Test8TestBodyEv, symObjAddr: 0x15E90, symBinAddr: 0x100017E90, symSize: 0x140 }
  - { offsetInCU: 0x25A060, offset: 0x25A060, size: 0x8, addend: 0x0, symName: __ZN23Misc_NthPacketDrop_Test8TestBodyEv, symObjAddr: 0x15FD0, symBinAddr: 0x100017FD0, symSize: 0x140 }
  - { offsetInCU: 0x25A804, offset: 0x25A804, size: 0x8, addend: 0x0, symName: __ZN24Misc_StreamPriority_Test8TestBodyEv, symObjAddr: 0x16110, symBinAddr: 0x100018110, symSize: 0x140 }
  - { offsetInCU: 0x25AFA8, offset: 0x25AFA8, size: 0x8, addend: 0x0, symName: __ZN36Misc_StreamPriorityInfiniteLoop_Test8TestBodyEv, symObjAddr: 0x16250, symBinAddr: 0x100018250, symSize: 0x140 }
  - { offsetInCU: 0x25B74C, offset: 0x25B74C, size: 0x8, addend: 0x0, symName: __ZN36Misc_StreamDifferentAbortErrors_Test8TestBodyEv, symObjAddr: 0x16390, symBinAddr: 0x100018390, symSize: 0x140 }
  - { offsetInCU: 0x25BEF0, offset: 0x25BEF0, size: 0x8, addend: 0x0, symName: __ZN32Misc_StreamAbortRecvFinRace_Test8TestBodyEv, symObjAddr: 0x164D0, symBinAddr: 0x1000184D0, symSize: 0x140 }
  - { offsetInCU: 0x25C694, offset: 0x25C694, size: 0x8, addend: 0x0, symName: __ZN47Misc_StreamBlockUnblockBidiConnFlowControl_Test8TestBodyEv, symObjAddr: 0x16610, symBinAddr: 0x100018610, symSize: 0x140 }
  - { offsetInCU: 0x25CE43, offset: 0x25CE43, size: 0x8, addend: 0x0, symName: __ZN29Misc_StreamReliableReset_Test8TestBodyEv, symObjAddr: 0x16750, symBinAddr: 0x100018750, symSize: 0x140 }
  - { offsetInCU: 0x25D5E7, offset: 0x25D5E7, size: 0x8, addend: 0x0, symName: __ZN42Misc_StreamReliableResetMultipleSends_Test8TestBodyEv, symObjAddr: 0x16890, symBinAddr: 0x100018890, symSize: 0x140 }
  - { offsetInCU: 0x25DD8B, offset: 0x25DD8B, size: 0x8, addend: 0x0, symName: __ZN48Misc_StreamBlockUnblockUnidiConnFlowControl_Test8TestBodyEv, symObjAddr: 0x169D0, symBinAddr: 0x1000189D0, symSize: 0x140 }
  - { offsetInCU: 0x25E52C, offset: 0x25E52C, size: 0x8, addend: 0x0, symName: __ZN36Misc_StreamAbortConnFlowControl_Test8TestBodyEv, symObjAddr: 0x16B10, symBinAddr: 0x100018B10, symSize: 0x140 }
  - { offsetInCU: 0x25ECD0, offset: 0x25ECD0, size: 0x8, addend: 0x0, symName: __ZN24Drill_VarIntEncoder_Test8TestBodyEv, symObjAddr: 0x16C50, symBinAddr: 0x100018C50, symSize: 0x140 }
  - { offsetInCU: 0x25F4C3, offset: 0x25F4C3, size: 0x8, addend: 0x0, symName: __ZN57WithDrillInitialPacketCidArgs_DrillInitialPacketCids_Test13AddToRegistryEv, symObjAddr: 0x16D90, symBinAddr: 0x100018D90, symSize: 0x210 }
  - { offsetInCU: 0x2604ED, offset: 0x2604ED, size: 0x8, addend: 0x0, symName: __ZN7testing8internal30ParameterizedTestSuiteRegistry25GetTestSuitePatternHolderI29WithDrillInitialPacketCidArgsEEPNS0_26ParameterizedTestSuiteInfoIT_EENSt3__112basic_stringIcNS8_11char_traitsIcEENS8_9allocatorIcEEEENS0_12CodeLocationE, symObjAddr: 0x21A50, symBinAddr: 0x100023A50, symSize: 0x340 }
  - { offsetInCU: 0x261457, offset: 0x261457, size: 0x8, addend: 0x0, symName: __ZN7testing8internal26ParameterizedTestSuiteInfoI29WithDrillInitialPacketCidArgsE14AddTestPatternEPKcS5_PNS0_19TestMetaFactoryBaseI25DrillInitialPacketCidArgsEENS0_12CodeLocationE, symObjAddr: 0x36500, symBinAddr: 0x100037CC0, symSize: 0x200 }
  - { offsetInCU: 0x261D55, offset: 0x261D55, size: 0x8, addend: 0x0, symName: __ZN57WithDrillInitialPacketCidArgs_DrillInitialPacketCids_Test8TestBodyEv, symObjAddr: 0x16FA0, symBinAddr: 0x100018FA0, symSize: 0x1B0 }
  - { offsetInCU: 0x2625F6, offset: 0x2625F6, size: 0x8, addend: 0x0, symName: __ZN7testing18WithParamInterfaceI25DrillInitialPacketCidArgsE8GetParamEv, symObjAddr: 0x17150, symBinAddr: 0x100019150, symSize: 0xB0 }
  - { offsetInCU: 0x2626C8, offset: 0x2626C8, size: 0x8, addend: 0x0, symName: __ZN11TestLoggerTI25DrillInitialPacketCidArgsEC2EPKcRKS0_, symObjAddr: 0x79AA0, symBinAddr: 0x10007ADF0, symSize: 0x1C0 }
  - { offsetInCU: 0x262BBE, offset: 0x262BBE, size: 0x8, addend: 0x0, symName: __ZN60WithDrillInitialPacketTokenArgs_DrillInitialPacketToken_Test13AddToRegistryEv, symObjAddr: 0x17200, symBinAddr: 0x100019200, symSize: 0x210 }
  - { offsetInCU: 0x263BE8, offset: 0x263BE8, size: 0x8, addend: 0x0, symName: __ZN7testing8internal30ParameterizedTestSuiteRegistry25GetTestSuitePatternHolderI31WithDrillInitialPacketTokenArgsEEPNS0_26ParameterizedTestSuiteInfoIT_EENSt3__112basic_stringIcNS8_11char_traitsIcEENS8_9allocatorIcEEEENS0_12CodeLocationE, symObjAddr: 0x21EE0, symBinAddr: 0x100023EE0, symSize: 0x340 }
  - { offsetInCU: 0x264B52, offset: 0x264B52, size: 0x8, addend: 0x0, symName: __ZN7testing8internal26ParameterizedTestSuiteInfoI31WithDrillInitialPacketTokenArgsE14AddTestPatternEPKcS5_PNS0_19TestMetaFactoryBaseI27DrillInitialPacketTokenArgsEENS0_12CodeLocationE, symObjAddr: 0x36BF0, symBinAddr: 0x100038330, symSize: 0x200 }
  - { offsetInCU: 0x265450, offset: 0x265450, size: 0x8, addend: 0x0, symName: __ZN60WithDrillInitialPacketTokenArgs_DrillInitialPacketToken_Test8TestBodyEv, symObjAddr: 0x17410, symBinAddr: 0x100019410, symSize: 0x160 }
  - { offsetInCU: 0x265C59, offset: 0x265C59, size: 0x8, addend: 0x0, symName: __ZN7testing18WithParamInterfaceI27DrillInitialPacketTokenArgsE8GetParamEv, symObjAddr: 0x17570, symBinAddr: 0x100019570, symSize: 0xB0 }
  - { offsetInCU: 0x265D2B, offset: 0x265D2B, size: 0x8, addend: 0x0, symName: __ZN11TestLoggerTI27DrillInitialPacketTokenArgsEC2EPKcRKS0_, symObjAddr: 0x7B070, symBinAddr: 0x10007C3C0, symSize: 0x1D0 }
  - { offsetInCU: 0x266258, offset: 0x266258, size: 0x8, addend: 0x0, symName: __ZN64WithDrillInitialPacketTokenArgs_QuicDrillTestServerVNPacket_Test13AddToRegistryEv, symObjAddr: 0x17620, symBinAddr: 0x100019620, symSize: 0x210 }
  - { offsetInCU: 0x267282, offset: 0x267282, size: 0x8, addend: 0x0, symName: __ZN64WithDrillInitialPacketTokenArgs_QuicDrillTestServerVNPacket_Test8TestBodyEv, symObjAddr: 0x17830, symBinAddr: 0x100019830, symSize: 0x160 }
  - { offsetInCU: 0x267AE8, offset: 0x267AE8, size: 0x8, addend: 0x0, symName: __ZN52WithDatagramNegotiationArgs_DatagramNegotiation_Test13AddToRegistryEv, symObjAddr: 0x17990, symBinAddr: 0x100019990, symSize: 0x210 }
  - { offsetInCU: 0x268B12, offset: 0x268B12, size: 0x8, addend: 0x0, symName: __ZN7testing8internal30ParameterizedTestSuiteRegistry25GetTestSuitePatternHolderI27WithDatagramNegotiationArgsEEPNS0_26ParameterizedTestSuiteInfoIT_EENSt3__112basic_stringIcNS8_11char_traitsIcEENS8_9allocatorIcEEEENS0_12CodeLocationE, symObjAddr: 0x215C0, symBinAddr: 0x1000235C0, symSize: 0x340 }
  - { offsetInCU: 0x269A7C, offset: 0x269A7C, size: 0x8, addend: 0x0, symName: __ZN7testing8internal26ParameterizedTestSuiteInfoI27WithDatagramNegotiationArgsE14AddTestPatternEPKcS5_PNS0_19TestMetaFactoryBaseI23DatagramNegotiationArgsEENS0_12CodeLocationE, symObjAddr: 0x37370, symBinAddr: 0x100038A70, symSize: 0x200 }
  - { offsetInCU: 0x26A37A, offset: 0x26A37A, size: 0x8, addend: 0x0, symName: __ZN52WithDatagramNegotiationArgs_DatagramNegotiation_Test8TestBodyEv, symObjAddr: 0x17BA0, symBinAddr: 0x100019BA0, symSize: 0x170 }
  - { offsetInCU: 0x26ABAA, offset: 0x26ABAA, size: 0x8, addend: 0x0, symName: __ZN7testing18WithParamInterfaceI23DatagramNegotiationArgsE8GetParamEv, symObjAddr: 0x17D10, symBinAddr: 0x100019D10, symSize: 0xB0 }
  - { offsetInCU: 0x26AC7C, offset: 0x26AC7C, size: 0x8, addend: 0x0, symName: __ZN11TestLoggerTI23DatagramNegotiationArgsEC2EPKcRKS0_, symObjAddr: 0x7C690, symBinAddr: 0x10007D9E0, symSize: 0x210 }
  - { offsetInCU: 0x26B252, offset: 0x26B252, size: 0x8, addend: 0x0, symName: __ZN32WithFamilyArgs_DatagramSend_Test13AddToRegistryEv, symObjAddr: 0x17DC0, symBinAddr: 0x100019DC0, symSize: 0x1F0 }
  - { offsetInCU: 0x26C139, offset: 0x26C139, size: 0x8, addend: 0x0, symName: __ZN32WithFamilyArgs_DatagramSend_Test8TestBodyEv, symObjAddr: 0x17FB0, symBinAddr: 0x100019FB0, symSize: 0x160 }
  - { offsetInCU: 0x26D081, offset: 0x26D081, size: 0x8, addend: 0x0, symName: __ZNSt3__112__hash_tableINS_17__hash_value_typeINS_12basic_stringIcNS_11char_traitsIcEENS_9allocatorIcEEEEmEENS_22__unordered_map_hasherIS7_S8_NS_4hashIS7_EENS_8equal_toIS7_EELb1EEENS_21__unordered_map_equalIS7_S8_SD_SB_Lb1EEENS5_IS8_EEE4findIS7_EENS_15__hash_iteratorIPNS_11__hash_nodeIS8_PvEEEERKT_, symObjAddr: 0x49F30, symBinAddr: 0x10004B280, symSize: 0x230 }
  - { offsetInCU: 0x26D34C, offset: 0x26D34C, size: 0x8, addend: 0x0, symName: __ZNSt3__112__hash_tableINS_17__hash_value_typeINS_12basic_stringIcNS_11char_traitsIcEENS_9allocatorIcEEEEmEENS_22__unordered_map_hasherIS7_S8_NS_4hashIS7_EENS_8equal_toIS7_EELb1EEENS_21__unordered_map_equalIS7_S8_SD_SB_Lb1EEENS5_IS8_EEE25__emplace_unique_key_argsIS7_JS7_mEEENS_4pairINS_15__hash_iteratorIPNS_11__hash_nodeIS8_PvEEEEbEERKT_DpOT0_, symObjAddr: 0x4BE50, symBinAddr: 0x10004D1A0, symSize: 0x410 }
  - { offsetInCU: 0x26DBA2, offset: 0x26DBA2, size: 0x8, addend: 0x0, symName: __ZNKSt3__16vectorIPN7testing8internal30ParameterizedTestSuiteInfoBaseENS_9allocatorIS4_EEE20__throw_length_errorB8ue170006Ev, symObjAddr: 0x4C5A0, symBinAddr: 0x10004D8F0, symSize: 0x10 }
  - { offsetInCU: 0x26DBCB, offset: 0x26DBCB, size: 0x8, addend: 0x0, symName: __ZN11TestLoggerTIbEC2EPKcRKb, symObjAddr: 0x4C5B0, symBinAddr: 0x10004D900, symSize: 0x1C0 }
  - { offsetInCU: 0x26DBD6, offset: 0x26DBD6, size: 0x8, addend: 0x0, symName: __ZNKSt3__112basic_stringIcNS_11char_traitsIcEENS_9allocatorIcEEE20__throw_length_errorB8ue170006Ev, symObjAddr: 0x49E70, symBinAddr: 0x10004B1C0, symSize: 0x10 }
  - { offsetInCU: 0x26DBFF, offset: 0x26DBFF, size: 0x8, addend: 0x0, symName: __ZN7testing8internal5posix5AbortEv, symObjAddr: 0x49E80, symBinAddr: 0x10004B1D0, symSize: 0x10 }
  - { offsetInCU: 0x26DC0A, offset: 0x26DC0A, size: 0x8, addend: 0x0, symName: __ZL48gtest_ParameterValidationWithBool_EvalGenerator_v, symObjAddr: 0x18450, symBinAddr: 0x10001A450, symSize: 0x30 }
  - { offsetInCU: 0x26DC4A, offset: 0x26DC4A, size: 0x8, addend: 0x0, symName: __ZNK7testing8internal10ValueArrayIJbbEEcvNS0_14ParamGeneratorIT_EEIbEEv, symObjAddr: 0x37AF0, symBinAddr: 0x1000391B0, symSize: 0xE0 }
  - { offsetInCU: 0x26E0F3, offset: 0x26E0F3, size: 0x8, addend: 0x0, symName: __ZL51gtest_ParameterValidationWithBool_EvalGenerateName_RKN7testing13TestParamInfoIbEE, symObjAddr: 0x18480, symBinAddr: 0x10001A480, symSize: 0x30 }
  - { offsetInCU: 0x26E33E, offset: 0x26E33E, size: 0x8, addend: 0x0, symName: __ZL71gtest_ParameterValidationWithValidateConnectionEventArgs_EvalGenerator_v, symObjAddr: 0x187F0, symBinAddr: 0x10001A7F0, symSize: 0x60 }
  - { offsetInCU: 0x26E695, offset: 0x26E695, size: 0x8, addend: 0x0, symName: __ZN27ValidateConnectionEventArgs8GenerateEv, symObjAddr: 0x382C0, symBinAddr: 0x100039980, symSize: 0x180 }
  - { offsetInCU: 0x26F145, offset: 0x26F145, size: 0x8, addend: 0x0, symName: __ZL74gtest_ParameterValidationWithValidateConnectionEventArgs_EvalGenerateName_RKN7testing13TestParamInfoI27ValidateConnectionEventArgsEE, symObjAddr: 0x18850, symBinAddr: 0x10001A850, symSize: 0xF0 }
  - { offsetInCU: 0x26FA2E, offset: 0x26FA2E, size: 0x8, addend: 0x0, symName: __ZL73gtest_ParameterValidationWithValidateNetStatsConnEventArgs_EvalGenerator_v, symObjAddr: 0x18C80, symBinAddr: 0x10001AC80, symSize: 0x60 }
  - { offsetInCU: 0x26FD85, offset: 0x26FD85, size: 0x8, addend: 0x0, symName: __ZN29ValidateNetStatsConnEventArgs8GenerateEv, symObjAddr: 0x389E0, symBinAddr: 0x10003A0A0, symSize: 0x180 }
  - { offsetInCU: 0x2707D8, offset: 0x2707D8, size: 0x8, addend: 0x0, symName: __ZL76gtest_ParameterValidationWithValidateNetStatsConnEventArgs_EvalGenerateName_RKN7testing13TestParamInfoI29ValidateNetStatsConnEventArgsEE, symObjAddr: 0x18CE0, symBinAddr: 0x10001ACE0, symSize: 0xF0 }
  - { offsetInCU: 0x2710C1, offset: 0x2710C1, size: 0x8, addend: 0x0, symName: __ZL67gtest_ParameterValidationWithValidateStreamEventArgs_EvalGenerator_v, symObjAddr: 0x19110, symBinAddr: 0x10001B110, symSize: 0x60 }
  - { offsetInCU: 0x271418, offset: 0x271418, size: 0x8, addend: 0x0, symName: __ZN23ValidateStreamEventArgs8GenerateEv, symObjAddr: 0x39100, symBinAddr: 0x10003A7C0, symSize: 0x180 }
  - { offsetInCU: 0x271E6B, offset: 0x271E6B, size: 0x8, addend: 0x0, symName: __ZL70gtest_ParameterValidationWithValidateStreamEventArgs_EvalGenerateName_RKN7testing13TestParamInfoI23ValidateStreamEventArgsEE, symObjAddr: 0x19170, symBinAddr: 0x10001B170, symSize: 0xF0 }
  - { offsetInCU: 0x272754, offset: 0x272754, size: 0x8, addend: 0x0, symName: __ZL65gtest_ParameterValidationWithValidateTlsConfigArgs_EvalGenerator_v, symObjAddr: 0x195A0, symBinAddr: 0x10001B5A0, symSize: 0x60 }
  - { offsetInCU: 0x272AAB, offset: 0x272AAB, size: 0x8, addend: 0x0, symName: __ZN13TlsConfigArgs8GenerateEv, symObjAddr: 0x39820, symBinAddr: 0x10003AEE0, symSize: 0x210 }
  - { offsetInCU: 0x2735A9, offset: 0x2735A9, size: 0x8, addend: 0x0, symName: __ZL68gtest_ParameterValidationWithValidateTlsConfigArgs_EvalGenerateName_RKN7testing13TestParamInfoI13TlsConfigArgsEE, symObjAddr: 0x19600, symBinAddr: 0x10001B600, symSize: 0xF0 }
  - { offsetInCU: 0x273E92, offset: 0x273E92, size: 0x8, addend: 0x0, symName: __ZL40gtest_BasicWithFamilyArgs_EvalGenerator_v, symObjAddr: 0x19A30, symBinAddr: 0x10001BA30, symSize: 0x60 }
  - { offsetInCU: 0x2741E9, offset: 0x2741E9, size: 0x8, addend: 0x0, symName: __ZN10FamilyArgs8GenerateEv, symObjAddr: 0x39FD0, symBinAddr: 0x10003B690, symSize: 0x1C0 }
  - { offsetInCU: 0x274C63, offset: 0x274C63, size: 0x8, addend: 0x0, symName: __ZL43gtest_BasicWithFamilyArgs_EvalGenerateName_RKN7testing13TestParamInfoI10FamilyArgsEE, symObjAddr: 0x19A90, symBinAddr: 0x10001BA90, symSize: 0xF0 }
  - { offsetInCU: 0x27554C, offset: 0x27554C, size: 0x8, addend: 0x0, symName: __ZL35gtest_MtuWithMtuArgs_EvalGenerator_v, symObjAddr: 0x19EC0, symBinAddr: 0x10001BEC0, symSize: 0x60 }
  - { offsetInCU: 0x2758A3, offset: 0x2758A3, size: 0x8, addend: 0x0, symName: __ZN7MtuArgs8GenerateEv, symObjAddr: 0x3A730, symBinAddr: 0x10003BDF0, symSize: 0x280 }
  - { offsetInCU: 0x2763E5, offset: 0x2763E5, size: 0x8, addend: 0x0, symName: __ZL38gtest_MtuWithMtuArgs_EvalGenerateName_RKN7testing13TestParamInfoI7MtuArgsEE, symObjAddr: 0x19F20, symBinAddr: 0x10001BF20, symSize: 0xF0 }
  - { offsetInCU: 0x276CCE, offset: 0x276CCE, size: 0x8, addend: 0x0, symName: __ZL47gtest_BasicWithRebindPaddingArgs_EvalGenerator_v, symObjAddr: 0x1A350, symBinAddr: 0x10001C350, symSize: 0x60 }
  - { offsetInCU: 0x277025, offset: 0x277025, size: 0x8, addend: 0x0, symName: __ZN17RebindPaddingArgs8GenerateEv, symObjAddr: 0x3AF70, symBinAddr: 0x10003C630, symSize: 0x1F0 }
  - { offsetInCU: 0x277AE9, offset: 0x277AE9, size: 0x8, addend: 0x0, symName: __ZL50gtest_BasicWithRebindPaddingArgs_EvalGenerateName_RKN7testing13TestParamInfoI17RebindPaddingArgsEE, symObjAddr: 0x1A3B0, symBinAddr: 0x10001C3B0, symSize: 0xF0 }
  - { offsetInCU: 0x2783D2, offset: 0x2783D2, size: 0x8, addend: 0x0, symName: __ZL55gtest_BasicWithVersionNegotiationExtArgs_EvalGenerator_v, symObjAddr: 0x1A7E0, symBinAddr: 0x10001C7E0, symSize: 0x60 }
  - { offsetInCU: 0x278729, offset: 0x278729, size: 0x8, addend: 0x0, symName: __ZN25VersionNegotiationExtArgs8GenerateEv, symObjAddr: 0x3B700, symBinAddr: 0x10003CDC0, symSize: 0x230 }
  - { offsetInCU: 0x27925F, offset: 0x27925F, size: 0x8, addend: 0x0, symName: __ZL58gtest_BasicWithVersionNegotiationExtArgs_EvalGenerateName_RKN7testing13TestParamInfoI25VersionNegotiationExtArgsEE, symObjAddr: 0x1A840, symBinAddr: 0x10001C840, symSize: 0xF0 }
  - { offsetInCU: 0x279B48, offset: 0x279B48, size: 0x8, addend: 0x0, symName: __ZL48gtest_HandshakeWithHandshakeArgs1_EvalGenerator_v, symObjAddr: 0x1AC70, symBinAddr: 0x10001CC70, symSize: 0x60 }
  - { offsetInCU: 0x279E9F, offset: 0x279E9F, size: 0x8, addend: 0x0, symName: __ZN14HandshakeArgs18GenerateEv, symObjAddr: 0x3BED0, symBinAddr: 0x10003D590, symSize: 0x2B0 }
  - { offsetInCU: 0x27AA51, offset: 0x27AA51, size: 0x8, addend: 0x0, symName: __ZL51gtest_HandshakeWithHandshakeArgs1_EvalGenerateName_RKN7testing13TestParamInfoI14HandshakeArgs1EE, symObjAddr: 0x1ACD0, symBinAddr: 0x10001CCD0, symSize: 0xF0 }
  - { offsetInCU: 0x27B33A, offset: 0x27B33A, size: 0x8, addend: 0x0, symName: __ZL48gtest_HandshakeWithHandshakeArgs2_EvalGenerator_v, symObjAddr: 0x1B100, symBinAddr: 0x10001D100, symSize: 0x60 }
  - { offsetInCU: 0x27B691, offset: 0x27B691, size: 0x8, addend: 0x0, symName: __ZN14HandshakeArgs28GenerateEv, symObjAddr: 0x3C720, symBinAddr: 0x10003DDE0, symSize: 0x200 }
  - { offsetInCU: 0x27C189, offset: 0x27C189, size: 0x8, addend: 0x0, symName: __ZL51gtest_HandshakeWithHandshakeArgs2_EvalGenerateName_RKN7testing13TestParamInfoI14HandshakeArgs2EE, symObjAddr: 0x1B160, symBinAddr: 0x10001D160, symSize: 0xF0 }
  - { offsetInCU: 0x27CA72, offset: 0x27CA72, size: 0x8, addend: 0x0, symName: __ZL48gtest_HandshakeWithHandshakeArgs3_EvalGenerator_v, symObjAddr: 0x1B590, symBinAddr: 0x10001D590, symSize: 0x60 }
  - { offsetInCU: 0x27CDC9, offset: 0x27CDC9, size: 0x8, addend: 0x0, symName: __ZN14HandshakeArgs38GenerateEv, symObjAddr: 0x3CEC0, symBinAddr: 0x10003E580, symSize: 0x260 }
  - { offsetInCU: 0x27D93D, offset: 0x27D93D, size: 0x8, addend: 0x0, symName: __ZL51gtest_HandshakeWithHandshakeArgs3_EvalGenerateName_RKN7testing13TestParamInfoI14HandshakeArgs3EE, symObjAddr: 0x1B5F0, symBinAddr: 0x10001D5F0, symSize: 0xF0 }
  - { offsetInCU: 0x27E226, offset: 0x27E226, size: 0x8, addend: 0x0, symName: __ZL48gtest_HandshakeWithHandshakeArgs4_EvalGenerator_v, symObjAddr: 0x1BA20, symBinAddr: 0x10001DA20, symSize: 0x60 }
  - { offsetInCU: 0x27E57D, offset: 0x27E57D, size: 0x8, addend: 0x0, symName: __ZN14HandshakeArgs48GenerateEv, symObjAddr: 0x3D6C0, symBinAddr: 0x10003ED80, symSize: 0x280 }
  - { offsetInCU: 0x27F0D9, offset: 0x27F0D9, size: 0x8, addend: 0x0, symName: __ZL51gtest_HandshakeWithHandshakeArgs4_EvalGenerateName_RKN7testing13TestParamInfoI14HandshakeArgs4EE, symObjAddr: 0x1BA80, symBinAddr: 0x10001DA80, symSize: 0xF0 }
  - { offsetInCU: 0x27F9C2, offset: 0x27F9C2, size: 0x8, addend: 0x0, symName: __ZL48gtest_HandshakeWithHandshakeArgs5_EvalGenerator_v, symObjAddr: 0x1BEB0, symBinAddr: 0x10001DEB0, symSize: 0x60 }
  - { offsetInCU: 0x27FD19, offset: 0x27FD19, size: 0x8, addend: 0x0, symName: __ZN14HandshakeArgs58GenerateEv, symObjAddr: 0x3DEE0, symBinAddr: 0x10003F5A0, symSize: 0x1B0 }
  - { offsetInCU: 0x2807FF, offset: 0x2807FF, size: 0x8, addend: 0x0, symName: __ZL51gtest_HandshakeWithHandshakeArgs5_EvalGenerateName_RKN7testing13TestParamInfoI14HandshakeArgs5EE, symObjAddr: 0x1BF10, symBinAddr: 0x10001DF10, symSize: 0xF0 }
  - { offsetInCU: 0x2810E8, offset: 0x2810E8, size: 0x8, addend: 0x0, symName: __ZL48gtest_HandshakeWithHandshakeArgs6_EvalGenerator_v, symObjAddr: 0x1C340, symBinAddr: 0x10001E340, symSize: 0x60 }
  - { offsetInCU: 0x28143F, offset: 0x28143F, size: 0x8, addend: 0x0, symName: __ZN14HandshakeArgs68GenerateEv, symObjAddr: 0x3E630, symBinAddr: 0x10003FCF0, symSize: 0x200 }
  - { offsetInCU: 0x281F37, offset: 0x281F37, size: 0x8, addend: 0x0, symName: __ZL51gtest_HandshakeWithHandshakeArgs6_EvalGenerateName_RKN7testing13TestParamInfoI14HandshakeArgs6EE, symObjAddr: 0x1C3A0, symBinAddr: 0x10001E3A0, symSize: 0xF0 }
  - { offsetInCU: 0x282820, offset: 0x282820, size: 0x8, addend: 0x0, symName: __ZL48gtest_HandshakeWithHandshakeArgs7_EvalGenerator_v, symObjAddr: 0x1C7D0, symBinAddr: 0x10001E7D0, symSize: 0x60 }
  - { offsetInCU: 0x282B77, offset: 0x282B77, size: 0x8, addend: 0x0, symName: __ZN14HandshakeArgs78GenerateEv, symObjAddr: 0x3EDD0, symBinAddr: 0x100040490, symSize: 0x200 }
  - { offsetInCU: 0x28365D, offset: 0x28365D, size: 0x8, addend: 0x0, symName: __ZL51gtest_HandshakeWithHandshakeArgs7_EvalGenerateName_RKN7testing13TestParamInfoI14HandshakeArgs7EE, symObjAddr: 0x1C830, symBinAddr: 0x10001E830, symSize: 0xF0 }
  - { offsetInCU: 0x283F46, offset: 0x283F46, size: 0x8, addend: 0x0, symName: __ZL52gtest_HandshakeWithFeatureSupportArgs_EvalGenerator_v, symObjAddr: 0x1CC60, symBinAddr: 0x10001EC60, symSize: 0x60 }
  - { offsetInCU: 0x28429D, offset: 0x28429D, size: 0x8, addend: 0x0, symName: __ZN18FeatureSupportArgs8GenerateEv, symObjAddr: 0x3F570, symBinAddr: 0x100040C30, symSize: 0x230 }
  - { offsetInCU: 0x284DDA, offset: 0x284DDA, size: 0x8, addend: 0x0, symName: __ZL55gtest_HandshakeWithFeatureSupportArgs_EvalGenerateName_RKN7testing13TestParamInfoI18FeatureSupportArgsEE, symObjAddr: 0x1CCC0, symBinAddr: 0x10001ECC0, symSize: 0xF0 }
  - { offsetInCU: 0x2856C3, offset: 0x2856C3, size: 0x8, addend: 0x0, symName: __ZL48gtest_HandshakeWithHandshakeArgs8_EvalGenerator_v, symObjAddr: 0x1D0F0, symBinAddr: 0x10001F0F0, symSize: 0x60 }
  - { offsetInCU: 0x285A1A, offset: 0x285A1A, size: 0x8, addend: 0x0, symName: __ZN14HandshakeArgs88GenerateEv, symObjAddr: 0x3FD40, symBinAddr: 0x100041400, symSize: 0x1D0 }
  - { offsetInCU: 0x28651C, offset: 0x28651C, size: 0x8, addend: 0x0, symName: __ZL51gtest_HandshakeWithHandshakeArgs8_EvalGenerateName_RKN7testing13TestParamInfoI14HandshakeArgs8EE, symObjAddr: 0x1D150, symBinAddr: 0x10001F150, symSize: 0xF0 }
  - { offsetInCU: 0x286CDA, offset: 0x286CDA, size: 0x8, addend: 0x0, symName: __ZL48gtest_HandshakeWithHandshakeArgs9_EvalGenerator_v, symObjAddr: 0x1D580, symBinAddr: 0x10001F580, symSize: 0x30 }
  - { offsetInCU: 0x286D15, offset: 0x286D15, size: 0x8, addend: 0x0, symName: __ZL51gtest_HandshakeWithHandshakeArgs9_EvalGenerateName_RKN7testing13TestParamInfoIbEE, symObjAddr: 0x1D5B0, symBinAddr: 0x10001F5B0, symSize: 0x30 }
  - { offsetInCU: 0x286F60, offset: 0x286F60, size: 0x8, addend: 0x0, symName: __ZL49gtest_HandshakeWithHandshakeArgs10_EvalGenerator_v, symObjAddr: 0x1D920, symBinAddr: 0x10001F920, symSize: 0x60 }
  - { offsetInCU: 0x2872B7, offset: 0x2872B7, size: 0x8, addend: 0x0, symName: __ZN15HandshakeArgs108GenerateEv, symObjAddr: 0x404B0, symBinAddr: 0x100041B70, symSize: 0x1F0 }
  - { offsetInCU: 0x287DB5, offset: 0x287DB5, size: 0x8, addend: 0x0, symName: __ZL52gtest_HandshakeWithHandshakeArgs10_EvalGenerateName_RKN7testing13TestParamInfoI15HandshakeArgs10EE, symObjAddr: 0x1D980, symBinAddr: 0x10001F980, symSize: 0xF0 }
  - { offsetInCU: 0x28869E, offset: 0x28869E, size: 0x8, addend: 0x0, symName: __ZL49gtest_HandshakeWithHandshakeArgs11_EvalGenerator_v, symObjAddr: 0x1DDB0, symBinAddr: 0x10001FDB0, symSize: 0x60 }
  - { offsetInCU: 0x2889F5, offset: 0x2889F5, size: 0x8, addend: 0x0, symName: __ZN15HandshakeArgs118GenerateEv, symObjAddr: 0x40C40, symBinAddr: 0x100042300, symSize: 0x170 }
  - { offsetInCU: 0x289426, offset: 0x289426, size: 0x8, addend: 0x0, symName: __ZL52gtest_HandshakeWithHandshakeArgs11_EvalGenerateName_RKN7testing13TestParamInfoI15HandshakeArgs11EE, symObjAddr: 0x1DE10, symBinAddr: 0x10001FE10, symSize: 0xF0 }
  - { offsetInCU: 0x289D0F, offset: 0x289D0F, size: 0x8, addend: 0x0, symName: __ZL41gtest_AppDataWithSendArgs1_EvalGenerator_v, symObjAddr: 0x1E240, symBinAddr: 0x100020240, symSize: 0x60 }
  - { offsetInCU: 0x28A066, offset: 0x28A066, size: 0x8, addend: 0x0, symName: __ZN9SendArgs18GenerateEv, symObjAddr: 0x41340, symBinAddr: 0x100042A00, symSize: 0x390 }
  - { offsetInCU: 0x28ACB3, offset: 0x28ACB3, size: 0x8, addend: 0x0, symName: __ZL44gtest_AppDataWithSendArgs1_EvalGenerateName_RKN7testing13TestParamInfoI9SendArgs1EE, symObjAddr: 0x1E2A0, symBinAddr: 0x1000202A0, symSize: 0xF0 }
  - { offsetInCU: 0x28B59C, offset: 0x28B59C, size: 0x8, addend: 0x0, symName: __ZL41gtest_AppDataWithSendArgs2_EvalGenerator_v, symObjAddr: 0x1E6D0, symBinAddr: 0x1000206D0, symSize: 0x60 }
  - { offsetInCU: 0x28B8F3, offset: 0x28B8F3, size: 0x8, addend: 0x0, symName: __ZN9SendArgs28GenerateEv, symObjAddr: 0x41C70, symBinAddr: 0x100043330, symSize: 0x240 }
  - { offsetInCU: 0x28C434, offset: 0x28C434, size: 0x8, addend: 0x0, symName: __ZL44gtest_AppDataWithSendArgs2_EvalGenerateName_RKN7testing13TestParamInfoI9SendArgs2EE, symObjAddr: 0x1E730, symBinAddr: 0x100020730, symSize: 0xF0 }
  - { offsetInCU: 0x28CD1D, offset: 0x28CD1D, size: 0x8, addend: 0x0, symName: __ZL41gtest_AppDataWithSendArgs3_EvalGenerator_v, symObjAddr: 0x1EB60, symBinAddr: 0x100020B60, symSize: 0x60 }
  - { offsetInCU: 0x28D074, offset: 0x28D074, size: 0x8, addend: 0x0, symName: __ZN9SendArgs38GenerateEv, symObjAddr: 0x42450, symBinAddr: 0x100043B10, symSize: 0x300 }
  - { offsetInCU: 0x28DC3B, offset: 0x28DC3B, size: 0x8, addend: 0x0, symName: __ZL44gtest_AppDataWithSendArgs3_EvalGenerateName_RKN7testing13TestParamInfoI9SendArgs3EE, symObjAddr: 0x1EBC0, symBinAddr: 0x100020BC0, symSize: 0xF0 }
  - { offsetInCU: 0x28E524, offset: 0x28E524, size: 0x8, addend: 0x0, symName: __ZL45gtest_AppDataWithSend0RttArgs1_EvalGenerator_v, symObjAddr: 0x1EFF0, symBinAddr: 0x100020FF0, symSize: 0x60 }
  - { offsetInCU: 0x28E87B, offset: 0x28E87B, size: 0x8, addend: 0x0, symName: __ZN13Send0RttArgs18GenerateEv, symObjAddr: 0x42CF0, symBinAddr: 0x1000443B0, symSize: 0x350 }
  - { offsetInCU: 0x28F485, offset: 0x28F485, size: 0x8, addend: 0x0, symName: __ZL48gtest_AppDataWithSend0RttArgs1_EvalGenerateName_RKN7testing13TestParamInfoI13Send0RttArgs1EE, symObjAddr: 0x1F050, symBinAddr: 0x100021050, symSize: 0xF0 }
  - { offsetInCU: 0x28FD6E, offset: 0x28FD6E, size: 0x8, addend: 0x0, symName: __ZL45gtest_AppDataWithSend0RttArgs2_EvalGenerator_v, symObjAddr: 0x1F480, symBinAddr: 0x100021480, symSize: 0x60 }
  - { offsetInCU: 0x2900C5, offset: 0x2900C5, size: 0x8, addend: 0x0, symName: __ZN13Send0RttArgs28GenerateEv, symObjAddr: 0x435E0, symBinAddr: 0x100044CA0, symSize: 0x200 }
  - { offsetInCU: 0x290BCB, offset: 0x290BCB, size: 0x8, addend: 0x0, symName: __ZL48gtest_AppDataWithSend0RttArgs2_EvalGenerateName_RKN7testing13TestParamInfoI13Send0RttArgs2EE, symObjAddr: 0x1F4E0, symBinAddr: 0x1000214E0, symSize: 0xF0 }
  - { offsetInCU: 0x2914B4, offset: 0x2914B4, size: 0x8, addend: 0x0, symName: __ZL43gtest_MiscWithKeyUpdateArgs1_EvalGenerator_v, symObjAddr: 0x1F910, symBinAddr: 0x100021910, symSize: 0x60 }
  - { offsetInCU: 0x29180B, offset: 0x29180B, size: 0x8, addend: 0x0, symName: __ZN14KeyUpdateArgs18GenerateEv, symObjAddr: 0x43D80, symBinAddr: 0x100045440, symSize: 0x1F0 }
  - { offsetInCU: 0x292309, offset: 0x292309, size: 0x8, addend: 0x0, symName: __ZL46gtest_MiscWithKeyUpdateArgs1_EvalGenerateName_RKN7testing13TestParamInfoI14KeyUpdateArgs1EE, symObjAddr: 0x1F970, symBinAddr: 0x100021970, symSize: 0xF0 }
  - { offsetInCU: 0x292BF2, offset: 0x292BF2, size: 0x8, addend: 0x0, symName: __ZL43gtest_MiscWithKeyUpdateArgs2_EvalGenerator_v, symObjAddr: 0x1FDA0, symBinAddr: 0x100021DA0, symSize: 0x60 }
  - { offsetInCU: 0x292F49, offset: 0x292F49, size: 0x8, addend: 0x0, symName: __ZN14KeyUpdateArgs28GenerateEv, symObjAddr: 0x44510, symBinAddr: 0x100045BD0, symSize: 0x210 }
  - { offsetInCU: 0x293A2F, offset: 0x293A2F, size: 0x8, addend: 0x0, symName: __ZL46gtest_MiscWithKeyUpdateArgs2_EvalGenerateName_RKN7testing13TestParamInfoI14KeyUpdateArgs2EE, symObjAddr: 0x1FE00, symBinAddr: 0x100021E00, symSize: 0xF0 }
  - { offsetInCU: 0x294318, offset: 0x294318, size: 0x8, addend: 0x0, symName: __ZL41gtest_MiscWithAbortiveArgs_EvalGenerator_v, symObjAddr: 0x20230, symBinAddr: 0x100022230, symSize: 0x60 }
  - { offsetInCU: 0x29466F, offset: 0x29466F, size: 0x8, addend: 0x0, symName: __ZN12AbortiveArgs8GenerateEv, symObjAddr: 0x44CC0, symBinAddr: 0x100046380, symSize: 0x420 }
  - { offsetInCU: 0x295305, offset: 0x295305, size: 0x8, addend: 0x0, symName: __ZL44gtest_MiscWithAbortiveArgs_EvalGenerateName_RKN7testing13TestParamInfoI12AbortiveArgsEE, symObjAddr: 0x20290, symBinAddr: 0x100022290, symSize: 0xF0 }
  - { offsetInCU: 0x295BEE, offset: 0x295BEE, size: 0x8, addend: 0x0, symName: __ZL45gtest_MiscWithCancelOnLossArgs_EvalGenerator_v, symObjAddr: 0x206C0, symBinAddr: 0x1000226C0, symSize: 0x60 }
  - { offsetInCU: 0x295F45, offset: 0x295F45, size: 0x8, addend: 0x0, symName: __ZN16CancelOnLossArgs8GenerateEv, symObjAddr: 0x45680, symBinAddr: 0x100046D40, symSize: 0x170 }
  - { offsetInCU: 0x296976, offset: 0x296976, size: 0x8, addend: 0x0, symName: __ZL48gtest_MiscWithCancelOnLossArgs_EvalGenerateName_RKN7testing13TestParamInfoI16CancelOnLossArgsEE, symObjAddr: 0x20720, symBinAddr: 0x100022720, symSize: 0xF0 }
  - { offsetInCU: 0x29725F, offset: 0x29725F, size: 0x8, addend: 0x0, symName: __ZL42gtest_MiscWithCidUpdateArgs_EvalGenerator_v, symObjAddr: 0x20B50, symBinAddr: 0x100022B50, symSize: 0x60 }
  - { offsetInCU: 0x2975B6, offset: 0x2975B6, size: 0x8, addend: 0x0, symName: __ZN13CidUpdateArgs8GenerateEv, symObjAddr: 0x45D80, symBinAddr: 0x100047440, symSize: 0x210 }
  - { offsetInCU: 0x29809C, offset: 0x29809C, size: 0x8, addend: 0x0, symName: __ZL45gtest_MiscWithCidUpdateArgs_EvalGenerateName_RKN7testing13TestParamInfoI13CidUpdateArgsEE, symObjAddr: 0x20BB0, symBinAddr: 0x100022BB0, symSize: 0xF0 }
  - { offsetInCU: 0x298985, offset: 0x298985, size: 0x8, addend: 0x0, symName: __ZL46gtest_MiscWithReceiveResumeArgs_EvalGenerator_v, symObjAddr: 0x20FE0, symBinAddr: 0x100022FE0, symSize: 0x60 }
  - { offsetInCU: 0x298CDC, offset: 0x298CDC, size: 0x8, addend: 0x0, symName: __ZN17ReceiveResumeArgs8GenerateEv, symObjAddr: 0x46530, symBinAddr: 0x100047BF0, symSize: 0x340 }
  - { offsetInCU: 0x2998E6, offset: 0x2998E6, size: 0x8, addend: 0x0, symName: __ZL49gtest_MiscWithReceiveResumeArgs_EvalGenerateName_RKN7testing13TestParamInfoI17ReceiveResumeArgsEE, symObjAddr: 0x21040, symBinAddr: 0x100023040, symSize: 0xF0 }
  - { offsetInCU: 0x29A1CF, offset: 0x29A1CF, size: 0x8, addend: 0x0, symName: __ZL52gtest_MiscWithReceiveResumeNoDataArgs_EvalGenerator_v, symObjAddr: 0x21470, symBinAddr: 0x100023470, symSize: 0x60 }
  - { offsetInCU: 0x29A526, offset: 0x29A526, size: 0x8, addend: 0x0, symName: __ZN23ReceiveResumeNoDataArgs8GenerateEv, symObjAddr: 0x46E30, symBinAddr: 0x1000484F0, symSize: 0x1F0 }
  - { offsetInCU: 0x29B024, offset: 0x29B024, size: 0x8, addend: 0x0, symName: __ZL55gtest_MiscWithReceiveResumeNoDataArgs_EvalGenerateName_RKN7testing13TestParamInfoI23ReceiveResumeNoDataArgsEE, symObjAddr: 0x214D0, symBinAddr: 0x1000234D0, symSize: 0xF0 }
  - { offsetInCU: 0x29B90D, offset: 0x29B90D, size: 0x8, addend: 0x0, symName: __ZL52gtest_MiscWithDatagramNegotiationArgs_EvalGenerator_v, symObjAddr: 0x21900, symBinAddr: 0x100023900, symSize: 0x60 }
  - { offsetInCU: 0x29BC64, offset: 0x29BC64, size: 0x8, addend: 0x0, symName: __ZN23DatagramNegotiationArgs8GenerateEv, symObjAddr: 0x475C0, symBinAddr: 0x100048C80, symSize: 0x200 }
  - { offsetInCU: 0x29C762, offset: 0x29C762, size: 0x8, addend: 0x0, symName: __ZL55gtest_MiscWithDatagramNegotiationArgs_EvalGenerateName_RKN7testing13TestParamInfoI23DatagramNegotiationArgsEE, symObjAddr: 0x21960, symBinAddr: 0x100023960, symSize: 0xF0 }
  - { offsetInCU: 0x29D04B, offset: 0x29D04B, size: 0x8, addend: 0x0, symName: __ZL55gtest_DrillWithDrillInitialPacketCidArgs_EvalGenerator_v, symObjAddr: 0x21D90, symBinAddr: 0x100023D90, symSize: 0x60 }
  - { offsetInCU: 0x29D3A2, offset: 0x29D3A2, size: 0x8, addend: 0x0, symName: __ZN25DrillInitialPacketCidArgs8GenerateEv, symObjAddr: 0x47D60, symBinAddr: 0x100049420, symSize: 0x2B0 }
  - { offsetInCU: 0x29DF5D, offset: 0x29DF5D, size: 0x8, addend: 0x0, symName: __ZL58gtest_DrillWithDrillInitialPacketCidArgs_EvalGenerateName_RKN7testing13TestParamInfoI25DrillInitialPacketCidArgsEE, symObjAddr: 0x21DF0, symBinAddr: 0x100023DF0, symSize: 0xF0 }
  - { offsetInCU: 0x29E846, offset: 0x29E846, size: 0x8, addend: 0x0, symName: __ZL57gtest_DrillWithDrillInitialPacketTokenArgs_EvalGenerator_v, symObjAddr: 0x22220, symBinAddr: 0x100024220, symSize: 0x60 }
  - { offsetInCU: 0x29EB9D, offset: 0x29EB9D, size: 0x8, addend: 0x0, symName: __ZN27DrillInitialPacketTokenArgs8GenerateEv, symObjAddr: 0x485B0, symBinAddr: 0x100049C70, symSize: 0x1C0 }
  - { offsetInCU: 0x29F61C, offset: 0x29F61C, size: 0x8, addend: 0x0, symName: __ZL60gtest_DrillWithDrillInitialPacketTokenArgs_EvalGenerateName_RKN7testing13TestParamInfoI27DrillInitialPacketTokenArgsEE, symObjAddr: 0x22280, symBinAddr: 0x100024280, symSize: 0xF0 }
  - { offsetInCU: 0x29FEBB, offset: 0x29FEBB, size: 0x8, addend: 0x0, symName: _main, symObjAddr: 0x22370, symBinAddr: 0x100024370, symSize: 0x190 }
  - { offsetInCU: 0x29FFF6, offset: 0x29FFF6, size: 0x8, addend: 0x0, symName: __ZN36ParameterValidation_ValidateApi_TestD1Ev, symObjAddr: 0x22500, symBinAddr: 0x100024500, symSize: 0x10 }
  - { offsetInCU: 0x2A004C, offset: 0x2A004C, size: 0x8, addend: 0x0, symName: __ZN36ParameterValidation_ValidateApi_TestD0Ev, symObjAddr: 0x22510, symBinAddr: 0x100024510, symSize: 0x20 }
  - { offsetInCU: 0x2A00AF, offset: 0x2A00AF, size: 0x8, addend: 0x0, symName: __ZN7testing4Test5SetupEv, symObjAddr: 0x22530, symBinAddr: 0x100024530, symSize: 0x10 }
  - { offsetInCU: 0x2A00F3, offset: 0x2A00F3, size: 0x8, addend: 0x0, symName: __ZN45ParameterValidation_ValidateRegistration_TestD1Ev, symObjAddr: 0x22540, symBinAddr: 0x100024540, symSize: 0x10 }
  - { offsetInCU: 0x2A0149, offset: 0x2A0149, size: 0x8, addend: 0x0, symName: __ZN45ParameterValidation_ValidateRegistration_TestD0Ev, symObjAddr: 0x22550, symBinAddr: 0x100024550, symSize: 0x20 }
  - { offsetInCU: 0x2A01CB, offset: 0x2A01CB, size: 0x8, addend: 0x0, symName: __ZN44ParameterValidation_ValidateGlobalParam_TestD1Ev, symObjAddr: 0x22570, symBinAddr: 0x100024570, symSize: 0x10 }
  - { offsetInCU: 0x2A0221, offset: 0x2A0221, size: 0x8, addend: 0x0, symName: __ZN44ParameterValidation_ValidateGlobalParam_TestD0Ev, symObjAddr: 0x22580, symBinAddr: 0x100024580, symSize: 0x20 }
  - { offsetInCU: 0x2A02A3, offset: 0x2A02A3, size: 0x8, addend: 0x0, symName: __ZN44ParameterValidation_ValidateCommonParam_TestD1Ev, symObjAddr: 0x225A0, symBinAddr: 0x1000245A0, symSize: 0x10 }
  - { offsetInCU: 0x2A02F9, offset: 0x2A02F9, size: 0x8, addend: 0x0, symName: __ZN44ParameterValidation_ValidateCommonParam_TestD0Ev, symObjAddr: 0x225B0, symBinAddr: 0x1000245B0, symSize: 0x20 }
  - { offsetInCU: 0x2A037B, offset: 0x2A037B, size: 0x8, addend: 0x0, symName: __ZN50ParameterValidation_ValidateRegistrationParam_TestD1Ev, symObjAddr: 0x225D0, symBinAddr: 0x1000245D0, symSize: 0x10 }
  - { offsetInCU: 0x2A03D1, offset: 0x2A03D1, size: 0x8, addend: 0x0, symName: __ZN50ParameterValidation_ValidateRegistrationParam_TestD0Ev, symObjAddr: 0x225E0, symBinAddr: 0x1000245E0, symSize: 0x20 }
  - { offsetInCU: 0x2A0453, offset: 0x2A0453, size: 0x8, addend: 0x0, symName: __ZN51ParameterValidation_ValidateConfigurationParam_TestD1Ev, symObjAddr: 0x22600, symBinAddr: 0x100024600, symSize: 0x10 }
  - { offsetInCU: 0x2A04A9, offset: 0x2A04A9, size: 0x8, addend: 0x0, symName: __ZN51ParameterValidation_ValidateConfigurationParam_TestD0Ev, symObjAddr: 0x22610, symBinAddr: 0x100024610, symSize: 0x20 }
  - { offsetInCU: 0x2A052B, offset: 0x2A052B, size: 0x8, addend: 0x0, symName: __ZN46ParameterValidation_ValidateListenerParam_TestD1Ev, symObjAddr: 0x22630, symBinAddr: 0x100024630, symSize: 0x10 }
  - { offsetInCU: 0x2A0582, offset: 0x2A0582, size: 0x8, addend: 0x0, symName: __ZN46ParameterValidation_ValidateListenerParam_TestD0Ev, symObjAddr: 0x22640, symBinAddr: 0x100024640, symSize: 0x20 }
  - { offsetInCU: 0x2A0606, offset: 0x2A0606, size: 0x8, addend: 0x0, symName: __ZN48ParameterValidation_ValidateConnectionParam_TestD1Ev, symObjAddr: 0x22660, symBinAddr: 0x100024660, symSize: 0x10 }
  - { offsetInCU: 0x2A065D, offset: 0x2A065D, size: 0x8, addend: 0x0, symName: __ZN48ParameterValidation_ValidateConnectionParam_TestD0Ev, symObjAddr: 0x22670, symBinAddr: 0x100024670, symSize: 0x20 }
  - { offsetInCU: 0x2A06E1, offset: 0x2A06E1, size: 0x8, addend: 0x0, symName: __ZN41ParameterValidation_ValidateTlsParam_TestD1Ev, symObjAddr: 0x22690, symBinAddr: 0x100024690, symSize: 0x10 }
  - { offsetInCU: 0x2A0738, offset: 0x2A0738, size: 0x8, addend: 0x0, symName: __ZN41ParameterValidation_ValidateTlsParam_TestD0Ev, symObjAddr: 0x226A0, symBinAddr: 0x1000246A0, symSize: 0x20 }
  - { offsetInCU: 0x2A07BC, offset: 0x2A07BC, size: 0x8, addend: 0x0, symName: __ZN44ParameterValidation_ValidateStreamParam_TestD1Ev, symObjAddr: 0x226C0, symBinAddr: 0x1000246C0, symSize: 0x10 }
  - { offsetInCU: 0x2A0813, offset: 0x2A0813, size: 0x8, addend: 0x0, symName: __ZN44ParameterValidation_ValidateStreamParam_TestD0Ev, symObjAddr: 0x226D0, symBinAddr: 0x1000246D0, symSize: 0x20 }
  - { offsetInCU: 0x2A0897, offset: 0x2A0897, size: 0x8, addend: 0x0, symName: __ZN48ParameterValidation_ValidateGetPerfCounters_TestD1Ev, symObjAddr: 0x226F0, symBinAddr: 0x1000246F0, symSize: 0x10 }
  - { offsetInCU: 0x2A08EE, offset: 0x2A08EE, size: 0x8, addend: 0x0, symName: __ZN48ParameterValidation_ValidateGetPerfCounters_TestD0Ev, symObjAddr: 0x22700, symBinAddr: 0x100024700, symSize: 0x20 }
  - { offsetInCU: 0x2A0972, offset: 0x2A0972, size: 0x8, addend: 0x0, symName: __ZN46ParameterValidation_ValidateConfiguration_TestD1Ev, symObjAddr: 0x22720, symBinAddr: 0x100024720, symSize: 0x10 }
  - { offsetInCU: 0x2A09C9, offset: 0x2A09C9, size: 0x8, addend: 0x0, symName: __ZN46ParameterValidation_ValidateConfiguration_TestD0Ev, symObjAddr: 0x22730, symBinAddr: 0x100024730, symSize: 0x20 }
  - { offsetInCU: 0x2A0A4D, offset: 0x2A0A4D, size: 0x8, addend: 0x0, symName: __ZN41ParameterValidation_ValidateListener_TestD1Ev, symObjAddr: 0x22750, symBinAddr: 0x100024750, symSize: 0x10 }
  - { offsetInCU: 0x2A0AA4, offset: 0x2A0AA4, size: 0x8, addend: 0x0, symName: __ZN41ParameterValidation_ValidateListener_TestD0Ev, symObjAddr: 0x22760, symBinAddr: 0x100024760, symSize: 0x20 }
  - { offsetInCU: 0x2A0B28, offset: 0x2A0B28, size: 0x8, addend: 0x0, symName: __ZN43ParameterValidation_ValidateConnection_TestD1Ev, symObjAddr: 0x22780, symBinAddr: 0x100024780, symSize: 0x10 }
  - { offsetInCU: 0x2A0B7F, offset: 0x2A0B7F, size: 0x8, addend: 0x0, symName: __ZN43ParameterValidation_ValidateConnection_TestD0Ev, symObjAddr: 0x22790, symBinAddr: 0x100024790, symSize: 0x20 }
  - { offsetInCU: 0x2A0C03, offset: 0x2A0C03, size: 0x8, addend: 0x0, symName: __ZN59OwnershipValidation_RegistrationShutdownBeforeConnOpen_TestD1Ev, symObjAddr: 0x227B0, symBinAddr: 0x1000247B0, symSize: 0x10 }
  - { offsetInCU: 0x2A0C5A, offset: 0x2A0C5A, size: 0x8, addend: 0x0, symName: __ZN59OwnershipValidation_RegistrationShutdownBeforeConnOpen_TestD0Ev, symObjAddr: 0x227C0, symBinAddr: 0x1000247C0, symSize: 0x20 }
  - { offsetInCU: 0x2A0CDE, offset: 0x2A0CDE, size: 0x8, addend: 0x0, symName: __ZN58OwnershipValidation_RegistrationShutdownAfterConnOpen_TestD1Ev, symObjAddr: 0x227E0, symBinAddr: 0x1000247E0, symSize: 0x10 }
  - { offsetInCU: 0x2A0D35, offset: 0x2A0D35, size: 0x8, addend: 0x0, symName: __ZN58OwnershipValidation_RegistrationShutdownAfterConnOpen_TestD0Ev, symObjAddr: 0x227F0, symBinAddr: 0x1000247F0, symSize: 0x20 }
  - { offsetInCU: 0x2A0DB9, offset: 0x2A0DB9, size: 0x8, addend: 0x0, symName: __ZN69OwnershipValidation_RegistrationShutdownAfterConnOpenBeforeStart_TestD1Ev, symObjAddr: 0x22810, symBinAddr: 0x100024810, symSize: 0x10 }
  - { offsetInCU: 0x2A0E10, offset: 0x2A0E10, size: 0x8, addend: 0x0, symName: __ZN69OwnershipValidation_RegistrationShutdownAfterConnOpenBeforeStart_TestD0Ev, symObjAddr: 0x22820, symBinAddr: 0x100024820, symSize: 0x20 }
  - { offsetInCU: 0x2A0E94, offset: 0x2A0E94, size: 0x8, addend: 0x0, symName: __ZN66OwnershipValidation_RegistrationShutdownAfterConnOpenAndStart_TestD1Ev, symObjAddr: 0x22840, symBinAddr: 0x100024840, symSize: 0x10 }
  - { offsetInCU: 0x2A0EEB, offset: 0x2A0EEB, size: 0x8, addend: 0x0, symName: __ZN66OwnershipValidation_RegistrationShutdownAfterConnOpenAndStart_TestD0Ev, symObjAddr: 0x22850, symBinAddr: 0x100024850, symSize: 0x20 }
  - { offsetInCU: 0x2A0F6F, offset: 0x2A0F6F, size: 0x8, addend: 0x0, symName: __ZN57OwnershipValidation_ConnectionCloseBeforeStreamClose_TestD1Ev, symObjAddr: 0x22870, symBinAddr: 0x100024870, symSize: 0x10 }
  - { offsetInCU: 0x2A0FC6, offset: 0x2A0FC6, size: 0x8, addend: 0x0, symName: __ZN57OwnershipValidation_ConnectionCloseBeforeStreamClose_TestD0Ev, symObjAddr: 0x22880, symBinAddr: 0x100024880, symSize: 0x20 }
  - { offsetInCU: 0x2A1073, offset: 0x2A1073, size: 0x8, addend: 0x0, symName: __ZN28WithBool_ValidateStream_TestD1Ev, symObjAddr: 0x228A0, symBinAddr: 0x1000248A0, symSize: 0x10 }
  - { offsetInCU: 0x2A10EA, offset: 0x2A10EA, size: 0x8, addend: 0x0, symName: __ZN28WithBool_ValidateStream_TestD0Ev, symObjAddr: 0x228B0, symBinAddr: 0x1000248B0, symSize: 0x20 }
  - { offsetInCU: 0x2A1163, offset: 0x2A1163, size: 0x8, addend: 0x0, symName: __ZThn16_N28WithBool_ValidateStream_TestD1Ev, symObjAddr: 0x228D0, symBinAddr: 0x1000248D0, symSize: 0x10 }
  - { offsetInCU: 0x2A11EE, offset: 0x2A11EE, size: 0x8, addend: 0x0, symName: __ZThn16_N28WithBool_ValidateStream_TestD0Ev, symObjAddr: 0x228E0, symBinAddr: 0x1000248E0, symSize: 0x30 }
  - { offsetInCU: 0x2A129A, offset: 0x2A129A, size: 0x8, addend: 0x0, symName: __ZN51ParameterValidation_CloseConnBeforeStreamFlush_TestD1Ev, symObjAddr: 0x22910, symBinAddr: 0x100024910, symSize: 0x10 }
  - { offsetInCU: 0x2A12F1, offset: 0x2A12F1, size: 0x8, addend: 0x0, symName: __ZN51ParameterValidation_CloseConnBeforeStreamFlush_TestD0Ev, symObjAddr: 0x22920, symBinAddr: 0x100024920, symSize: 0x20 }
  - { offsetInCU: 0x2A139F, offset: 0x2A139F, size: 0x8, addend: 0x0, symName: __ZN61WithValidateConnectionEventArgs_ValidateConnectionEvents_TestD1Ev, symObjAddr: 0x22940, symBinAddr: 0x100024940, symSize: 0x10 }
  - { offsetInCU: 0x2A1416, offset: 0x2A1416, size: 0x8, addend: 0x0, symName: __ZN61WithValidateConnectionEventArgs_ValidateConnectionEvents_TestD0Ev, symObjAddr: 0x22950, symBinAddr: 0x100024950, symSize: 0x20 }
  - { offsetInCU: 0x2A148F, offset: 0x2A148F, size: 0x8, addend: 0x0, symName: __ZThn16_N61WithValidateConnectionEventArgs_ValidateConnectionEvents_TestD1Ev, symObjAddr: 0x22970, symBinAddr: 0x100024970, symSize: 0x10 }
  - { offsetInCU: 0x2A151A, offset: 0x2A151A, size: 0x8, addend: 0x0, symName: __ZThn16_N61WithValidateConnectionEventArgs_ValidateConnectionEvents_TestD0Ev, symObjAddr: 0x22980, symBinAddr: 0x100024980, symSize: 0x30 }
  - { offsetInCU: 0x2A15F0, offset: 0x2A15F0, size: 0x8, addend: 0x0, symName: __ZN63WithValidateNetStatsConnEventArgs_ValidateNetStatConnEvent_TestD1Ev, symObjAddr: 0x229B0, symBinAddr: 0x1000249B0, symSize: 0x10 }
  - { offsetInCU: 0x2A1667, offset: 0x2A1667, size: 0x8, addend: 0x0, symName: __ZN63WithValidateNetStatsConnEventArgs_ValidateNetStatConnEvent_TestD0Ev, symObjAddr: 0x229C0, symBinAddr: 0x1000249C0, symSize: 0x20 }
  - { offsetInCU: 0x2A16E0, offset: 0x2A16E0, size: 0x8, addend: 0x0, symName: __ZThn16_N63WithValidateNetStatsConnEventArgs_ValidateNetStatConnEvent_TestD1Ev, symObjAddr: 0x229E0, symBinAddr: 0x1000249E0, symSize: 0x10 }
  - { offsetInCU: 0x2A176B, offset: 0x2A176B, size: 0x8, addend: 0x0, symName: __ZThn16_N63WithValidateNetStatsConnEventArgs_ValidateNetStatConnEvent_TestD0Ev, symObjAddr: 0x229F0, symBinAddr: 0x1000249F0, symSize: 0x30 }
  - { offsetInCU: 0x2A1841, offset: 0x2A1841, size: 0x8, addend: 0x0, symName: __ZN53WithValidateStreamEventArgs_ValidateStreamEvents_TestD1Ev, symObjAddr: 0x22A20, symBinAddr: 0x100024A20, symSize: 0x10 }
  - { offsetInCU: 0x2A18B8, offset: 0x2A18B8, size: 0x8, addend: 0x0, symName: __ZN53WithValidateStreamEventArgs_ValidateStreamEvents_TestD0Ev, symObjAddr: 0x22A30, symBinAddr: 0x100024A30, symSize: 0x20 }
  - { offsetInCU: 0x2A1931, offset: 0x2A1931, size: 0x8, addend: 0x0, symName: __ZThn16_N53WithValidateStreamEventArgs_ValidateStreamEvents_TestD1Ev, symObjAddr: 0x22A50, symBinAddr: 0x100024A50, symSize: 0x10 }
  - { offsetInCU: 0x2A19BC, offset: 0x2A19BC, size: 0x8, addend: 0x0, symName: __ZThn16_N53WithValidateStreamEventArgs_ValidateStreamEvents_TestD0Ev, symObjAddr: 0x22A60, symBinAddr: 0x100024A60, symSize: 0x30 }
  - { offsetInCU: 0x2A1A68, offset: 0x2A1A68, size: 0x8, addend: 0x0, symName: __ZN48ParameterValidation_ValidateVersionSettings_TestD1Ev, symObjAddr: 0x22A90, symBinAddr: 0x100024A90, symSize: 0x10 }
  - { offsetInCU: 0x2A1ABF, offset: 0x2A1ABF, size: 0x8, addend: 0x0, symName: __ZN48ParameterValidation_ValidateVersionSettings_TestD0Ev, symObjAddr: 0x22AA0, symBinAddr: 0x100024AA0, symSize: 0x20 }
  - { offsetInCU: 0x2A1B43, offset: 0x2A1B43, size: 0x8, addend: 0x0, symName: __ZN41ParameterValidation_ValidateParamApi_TestD1Ev, symObjAddr: 0x22AC0, symBinAddr: 0x100024AC0, symSize: 0x10 }
  - { offsetInCU: 0x2A1B9A, offset: 0x2A1B9A, size: 0x8, addend: 0x0, symName: __ZN41ParameterValidation_ValidateParamApi_TestD0Ev, symObjAddr: 0x22AD0, symBinAddr: 0x100024AD0, symSize: 0x20 }
  - { offsetInCU: 0x2A1C48, offset: 0x2A1C48, size: 0x8, addend: 0x0, symName: __ZN48WithValidateTlsConfigArgs_ValidateTlsConfig_TestD1Ev, symObjAddr: 0x22AF0, symBinAddr: 0x100024AF0, symSize: 0x10 }
  - { offsetInCU: 0x2A1CBF, offset: 0x2A1CBF, size: 0x8, addend: 0x0, symName: __ZN48WithValidateTlsConfigArgs_ValidateTlsConfig_TestD0Ev, symObjAddr: 0x22B00, symBinAddr: 0x100024B00, symSize: 0x20 }
  - { offsetInCU: 0x2A1D38, offset: 0x2A1D38, size: 0x8, addend: 0x0, symName: __ZThn16_N48WithValidateTlsConfigArgs_ValidateTlsConfig_TestD1Ev, symObjAddr: 0x22B20, symBinAddr: 0x100024B20, symSize: 0x10 }
  - { offsetInCU: 0x2A1DC3, offset: 0x2A1DC3, size: 0x8, addend: 0x0, symName: __ZThn16_N48WithValidateTlsConfigArgs_ValidateTlsConfig_TestD0Ev, symObjAddr: 0x22B30, symBinAddr: 0x100024B30, symSize: 0x30 }
  - { offsetInCU: 0x2A1E6F, offset: 0x2A1E6F, size: 0x8, addend: 0x0, symName: __ZN25Basic_CreateListener_TestD1Ev, symObjAddr: 0x22B60, symBinAddr: 0x100024B60, symSize: 0x10 }
  - { offsetInCU: 0x2A1EC6, offset: 0x2A1EC6, size: 0x8, addend: 0x0, symName: __ZN25Basic_CreateListener_TestD0Ev, symObjAddr: 0x22B70, symBinAddr: 0x100024B70, symSize: 0x20 }
  - { offsetInCU: 0x2A1F4A, offset: 0x2A1F4A, size: 0x8, addend: 0x0, symName: __ZN24Basic_StartListener_TestD1Ev, symObjAddr: 0x22B90, symBinAddr: 0x100024B90, symSize: 0x10 }
  - { offsetInCU: 0x2A1FA1, offset: 0x2A1FA1, size: 0x8, addend: 0x0, symName: __ZN24Basic_StartListener_TestD0Ev, symObjAddr: 0x22BA0, symBinAddr: 0x100024BA0, symSize: 0x20 }
  - { offsetInCU: 0x2A2025, offset: 0x2A2025, size: 0x8, addend: 0x0, symName: __ZN34Basic_StartListenerMultiAlpns_TestD1Ev, symObjAddr: 0x22BC0, symBinAddr: 0x100024BC0, symSize: 0x10 }
  - { offsetInCU: 0x2A207C, offset: 0x2A207C, size: 0x8, addend: 0x0, symName: __ZN34Basic_StartListenerMultiAlpns_TestD0Ev, symObjAddr: 0x22BD0, symBinAddr: 0x100024BD0, symSize: 0x20 }
  - { offsetInCU: 0x2A2129, offset: 0x2A2129, size: 0x8, addend: 0x0, symName: __ZN41WithFamilyArgs_StartListenerImplicit_TestD1Ev, symObjAddr: 0x22BF0, symBinAddr: 0x100024BF0, symSize: 0x10 }
  - { offsetInCU: 0x2A21A0, offset: 0x2A21A0, size: 0x8, addend: 0x0, symName: __ZN41WithFamilyArgs_StartListenerImplicit_TestD0Ev, symObjAddr: 0x22C00, symBinAddr: 0x100024C00, symSize: 0x20 }
  - { offsetInCU: 0x2A2219, offset: 0x2A2219, size: 0x8, addend: 0x0, symName: __ZThn16_N41WithFamilyArgs_StartListenerImplicit_TestD1Ev, symObjAddr: 0x22C20, symBinAddr: 0x100024C20, symSize: 0x10 }
  - { offsetInCU: 0x2A22A4, offset: 0x2A22A4, size: 0x8, addend: 0x0, symName: __ZThn16_N41WithFamilyArgs_StartListenerImplicit_TestD0Ev, symObjAddr: 0x22C30, symBinAddr: 0x100024C30, symSize: 0x30 }
  - { offsetInCU: 0x2A2350, offset: 0x2A2350, size: 0x8, addend: 0x0, symName: __ZN28Basic_StartTwoListeners_TestD1Ev, symObjAddr: 0x22C60, symBinAddr: 0x100024C60, symSize: 0x10 }
  - { offsetInCU: 0x2A23A7, offset: 0x2A23A7, size: 0x8, addend: 0x0, symName: __ZN28Basic_StartTwoListeners_TestD0Ev, symObjAddr: 0x22C70, symBinAddr: 0x100024C70, symSize: 0x20 }
  - { offsetInCU: 0x2A242B, offset: 0x2A242B, size: 0x8, addend: 0x0, symName: __ZN36Basic_StartTwoListenersSameALPN_TestD1Ev, symObjAddr: 0x22C90, symBinAddr: 0x100024C90, symSize: 0x10 }
  - { offsetInCU: 0x2A2482, offset: 0x2A2482, size: 0x8, addend: 0x0, symName: __ZN36Basic_StartTwoListenersSameALPN_TestD0Ev, symObjAddr: 0x22CA0, symBinAddr: 0x100024CA0, symSize: 0x20 }
  - { offsetInCU: 0x2A2509, offset: 0x2A2509, size: 0x8, addend: 0x0, symName: __ZN41WithFamilyArgs_StartListenerExplicit_TestD1Ev, symObjAddr: 0x22CC0, symBinAddr: 0x100024CC0, symSize: 0x10 }
  - { offsetInCU: 0x2A2580, offset: 0x2A2580, size: 0x8, addend: 0x0, symName: __ZN41WithFamilyArgs_StartListenerExplicit_TestD0Ev, symObjAddr: 0x22CD0, symBinAddr: 0x100024CD0, symSize: 0x20 }
  - { offsetInCU: 0x2A25F9, offset: 0x2A25F9, size: 0x8, addend: 0x0, symName: __ZThn16_N41WithFamilyArgs_StartListenerExplicit_TestD1Ev, symObjAddr: 0x22CF0, symBinAddr: 0x100024CF0, symSize: 0x10 }
  - { offsetInCU: 0x2A2684, offset: 0x2A2684, size: 0x8, addend: 0x0, symName: __ZThn16_N41WithFamilyArgs_StartListenerExplicit_TestD0Ev, symObjAddr: 0x22D00, symBinAddr: 0x100024D00, symSize: 0x30 }
  - { offsetInCU: 0x2A2730, offset: 0x2A2730, size: 0x8, addend: 0x0, symName: __ZN27Basic_CreateConnection_TestD1Ev, symObjAddr: 0x22D30, symBinAddr: 0x100024D30, symSize: 0x10 }
  - { offsetInCU: 0x2A2787, offset: 0x2A2787, size: 0x8, addend: 0x0, symName: __ZN27Basic_CreateConnection_TestD0Ev, symObjAddr: 0x22D40, symBinAddr: 0x100024D40, symSize: 0x20 }
  - { offsetInCU: 0x2A280B, offset: 0x2A280B, size: 0x8, addend: 0x0, symName: __ZN38Basic_ConnectionCloseFromCallback_TestD1Ev, symObjAddr: 0x22D60, symBinAddr: 0x100024D60, symSize: 0x10 }
  - { offsetInCU: 0x2A2862, offset: 0x2A2862, size: 0x8, addend: 0x0, symName: __ZN38Basic_ConnectionCloseFromCallback_TestD0Ev, symObjAddr: 0x22D70, symBinAddr: 0x100024D70, symSize: 0x20 }
  - { offsetInCU: 0x2A28E9, offset: 0x2A28E9, size: 0x8, addend: 0x0, symName: __ZN30WithBool_RejectConnection_TestD1Ev, symObjAddr: 0x22D90, symBinAddr: 0x100024D90, symSize: 0x10 }
  - { offsetInCU: 0x2A2960, offset: 0x2A2960, size: 0x8, addend: 0x0, symName: __ZN30WithBool_RejectConnection_TestD0Ev, symObjAddr: 0x22DA0, symBinAddr: 0x100024DA0, symSize: 0x20 }
  - { offsetInCU: 0x2A29D9, offset: 0x2A29D9, size: 0x8, addend: 0x0, symName: __ZThn16_N30WithBool_RejectConnection_TestD1Ev, symObjAddr: 0x22DC0, symBinAddr: 0x100024DC0, symSize: 0x10 }
  - { offsetInCU: 0x2A2A64, offset: 0x2A2A64, size: 0x8, addend: 0x0, symName: __ZThn16_N30WithBool_RejectConnection_TestD0Ev, symObjAddr: 0x22DD0, symBinAddr: 0x100024DD0, symSize: 0x30 }
  - { offsetInCU: 0x2A2B13, offset: 0x2A2B13, size: 0x8, addend: 0x0, symName: __ZN23WithFamilyArgs_Ecn_TestD1Ev, symObjAddr: 0x22E00, symBinAddr: 0x100024E00, symSize: 0x10 }
  - { offsetInCU: 0x2A2B8A, offset: 0x2A2B8A, size: 0x8, addend: 0x0, symName: __ZN23WithFamilyArgs_Ecn_TestD0Ev, symObjAddr: 0x22E10, symBinAddr: 0x100024E10, symSize: 0x20 }
  - { offsetInCU: 0x2A2C03, offset: 0x2A2C03, size: 0x8, addend: 0x0, symName: __ZThn16_N23WithFamilyArgs_Ecn_TestD1Ev, symObjAddr: 0x22E30, symBinAddr: 0x100024E30, symSize: 0x10 }
  - { offsetInCU: 0x2A2C8E, offset: 0x2A2C8E, size: 0x8, addend: 0x0, symName: __ZThn16_N23WithFamilyArgs_Ecn_TestD0Ev, symObjAddr: 0x22E40, symBinAddr: 0x100024E40, symSize: 0x30 }
  - { offsetInCU: 0x2A2D3D, offset: 0x2A2D3D, size: 0x8, addend: 0x0, symName: __ZN36WithFamilyArgs_LocalPathChanges_TestD1Ev, symObjAddr: 0x22E70, symBinAddr: 0x100024E70, symSize: 0x10 }
  - { offsetInCU: 0x2A2DB4, offset: 0x2A2DB4, size: 0x8, addend: 0x0, symName: __ZN36WithFamilyArgs_LocalPathChanges_TestD0Ev, symObjAddr: 0x22E80, symBinAddr: 0x100024E80, symSize: 0x20 }
  - { offsetInCU: 0x2A2E2D, offset: 0x2A2E2D, size: 0x8, addend: 0x0, symName: __ZThn16_N36WithFamilyArgs_LocalPathChanges_TestD1Ev, symObjAddr: 0x22EA0, symBinAddr: 0x100024EA0, symSize: 0x10 }
  - { offsetInCU: 0x2A2EB8, offset: 0x2A2EB8, size: 0x8, addend: 0x0, symName: __ZThn16_N36WithFamilyArgs_LocalPathChanges_TestD0Ev, symObjAddr: 0x22EB0, symBinAddr: 0x100024EB0, symSize: 0x30 }
  - { offsetInCU: 0x2A2F64, offset: 0x2A2F64, size: 0x8, addend: 0x0, symName: __ZN17Mtu_Settings_TestD1Ev, symObjAddr: 0x22EE0, symBinAddr: 0x100024EE0, symSize: 0x10 }
  - { offsetInCU: 0x2A2FBB, offset: 0x2A2FBB, size: 0x8, addend: 0x0, symName: __ZN17Mtu_Settings_TestD0Ev, symObjAddr: 0x22EF0, symBinAddr: 0x100024EF0, symSize: 0x20 }
  - { offsetInCU: 0x2A3068, offset: 0x2A3068, size: 0x8, addend: 0x0, symName: __ZN29WithMtuArgs_MtuDiscovery_TestD1Ev, symObjAddr: 0x22F10, symBinAddr: 0x100024F10, symSize: 0x10 }
  - { offsetInCU: 0x2A30DF, offset: 0x2A30DF, size: 0x8, addend: 0x0, symName: __ZN29WithMtuArgs_MtuDiscovery_TestD0Ev, symObjAddr: 0x22F20, symBinAddr: 0x100024F20, symSize: 0x20 }
  - { offsetInCU: 0x2A3158, offset: 0x2A3158, size: 0x8, addend: 0x0, symName: __ZThn16_N29WithMtuArgs_MtuDiscovery_TestD1Ev, symObjAddr: 0x22F40, symBinAddr: 0x100024F40, symSize: 0x10 }
  - { offsetInCU: 0x2A31E3, offset: 0x2A31E3, size: 0x8, addend: 0x0, symName: __ZThn16_N29WithMtuArgs_MtuDiscovery_TestD0Ev, symObjAddr: 0x22F50, symBinAddr: 0x100024F50, symSize: 0x30 }
  - { offsetInCU: 0x2A328F, offset: 0x2A328F, size: 0x8, addend: 0x0, symName: __ZN26Alpn_ValidAlpnLengths_TestD1Ev, symObjAddr: 0x22F80, symBinAddr: 0x100024F80, symSize: 0x10 }
  - { offsetInCU: 0x2A32E6, offset: 0x2A32E6, size: 0x8, addend: 0x0, symName: __ZN26Alpn_ValidAlpnLengths_TestD0Ev, symObjAddr: 0x22F90, symBinAddr: 0x100024F90, symSize: 0x20 }
  - { offsetInCU: 0x2A336A, offset: 0x2A336A, size: 0x8, addend: 0x0, symName: __ZN28Alpn_InvalidAlpnLengths_TestD1Ev, symObjAddr: 0x22FB0, symBinAddr: 0x100024FB0, symSize: 0x10 }
  - { offsetInCU: 0x2A33C1, offset: 0x2A33C1, size: 0x8, addend: 0x0, symName: __ZN28Alpn_InvalidAlpnLengths_TestD0Ev, symObjAddr: 0x22FC0, symBinAddr: 0x100024FC0, symSize: 0x20 }
  - { offsetInCU: 0x2A3445, offset: 0x2A3445, size: 0x8, addend: 0x0, symName: __ZN20Alpn_ChangeAlpn_TestD1Ev, symObjAddr: 0x22FE0, symBinAddr: 0x100024FE0, symSize: 0x10 }
  - { offsetInCU: 0x2A349C, offset: 0x2A349C, size: 0x8, addend: 0x0, symName: __ZN20Alpn_ChangeAlpn_TestD0Ev, symObjAddr: 0x22FF0, symBinAddr: 0x100024FF0, symSize: 0x20 }
  - { offsetInCU: 0x2A3523, offset: 0x2A3523, size: 0x8, addend: 0x0, symName: __ZN42WithFamilyArgs_BindConnectionImplicit_TestD1Ev, symObjAddr: 0x23010, symBinAddr: 0x100025010, symSize: 0x10 }
  - { offsetInCU: 0x2A359A, offset: 0x2A359A, size: 0x8, addend: 0x0, symName: __ZN42WithFamilyArgs_BindConnectionImplicit_TestD0Ev, symObjAddr: 0x23020, symBinAddr: 0x100025020, symSize: 0x20 }
  - { offsetInCU: 0x2A3613, offset: 0x2A3613, size: 0x8, addend: 0x0, symName: __ZThn16_N42WithFamilyArgs_BindConnectionImplicit_TestD1Ev, symObjAddr: 0x23040, symBinAddr: 0x100025040, symSize: 0x10 }
  - { offsetInCU: 0x2A369E, offset: 0x2A369E, size: 0x8, addend: 0x0, symName: __ZThn16_N42WithFamilyArgs_BindConnectionImplicit_TestD0Ev, symObjAddr: 0x23050, symBinAddr: 0x100025050, symSize: 0x30 }
  - { offsetInCU: 0x2A374D, offset: 0x2A374D, size: 0x8, addend: 0x0, symName: __ZN42WithFamilyArgs_BindConnectionExplicit_TestD1Ev, symObjAddr: 0x23080, symBinAddr: 0x100025080, symSize: 0x10 }
  - { offsetInCU: 0x2A37C4, offset: 0x2A37C4, size: 0x8, addend: 0x0, symName: __ZN42WithFamilyArgs_BindConnectionExplicit_TestD0Ev, symObjAddr: 0x23090, symBinAddr: 0x100025090, symSize: 0x20 }
  - { offsetInCU: 0x2A383D, offset: 0x2A383D, size: 0x8, addend: 0x0, symName: __ZThn16_N42WithFamilyArgs_BindConnectionExplicit_TestD1Ev, symObjAddr: 0x230B0, symBinAddr: 0x1000250B0, symSize: 0x10 }
  - { offsetInCU: 0x2A38C8, offset: 0x2A38C8, size: 0x8, addend: 0x0, symName: __ZThn16_N42WithFamilyArgs_BindConnectionExplicit_TestD0Ev, symObjAddr: 0x230C0, symBinAddr: 0x1000250C0, symSize: 0x30 }
  - { offsetInCU: 0x2A399D, offset: 0x2A399D, size: 0x8, addend: 0x0, symName: __ZN31WithHandshakeArgs1_Connect_TestD1Ev, symObjAddr: 0x230F0, symBinAddr: 0x1000250F0, symSize: 0x10 }
  - { offsetInCU: 0x2A3A14, offset: 0x2A3A14, size: 0x8, addend: 0x0, symName: __ZN31WithHandshakeArgs1_Connect_TestD0Ev, symObjAddr: 0x23100, symBinAddr: 0x100025100, symSize: 0x20 }
  - { offsetInCU: 0x2A3A8D, offset: 0x2A3A8D, size: 0x8, addend: 0x0, symName: __ZThn16_N31WithHandshakeArgs1_Connect_TestD1Ev, symObjAddr: 0x23120, symBinAddr: 0x100025120, symSize: 0x10 }
  - { offsetInCU: 0x2A3B18, offset: 0x2A3B18, size: 0x8, addend: 0x0, symName: __ZThn16_N31WithHandshakeArgs1_Connect_TestD0Ev, symObjAddr: 0x23130, symBinAddr: 0x100025130, symSize: 0x30 }
  - { offsetInCU: 0x2A3BC7, offset: 0x2A3BC7, size: 0x8, addend: 0x0, symName: __ZN30WithHandshakeArgs1_Resume_TestD1Ev, symObjAddr: 0x23160, symBinAddr: 0x100025160, symSize: 0x10 }
  - { offsetInCU: 0x2A3C3E, offset: 0x2A3C3E, size: 0x8, addend: 0x0, symName: __ZN30WithHandshakeArgs1_Resume_TestD0Ev, symObjAddr: 0x23170, symBinAddr: 0x100025170, symSize: 0x20 }
  - { offsetInCU: 0x2A3CB7, offset: 0x2A3CB7, size: 0x8, addend: 0x0, symName: __ZThn16_N30WithHandshakeArgs1_Resume_TestD1Ev, symObjAddr: 0x23190, symBinAddr: 0x100025190, symSize: 0x10 }
  - { offsetInCU: 0x2A3D42, offset: 0x2A3D42, size: 0x8, addend: 0x0, symName: __ZThn16_N30WithHandshakeArgs1_Resume_TestD0Ev, symObjAddr: 0x231A0, symBinAddr: 0x1000251A0, symSize: 0x30 }
  - { offsetInCU: 0x2A3DF1, offset: 0x2A3DF1, size: 0x8, addend: 0x0, symName: __ZN35WithHandshakeArgs1_ResumeAsync_TestD1Ev, symObjAddr: 0x231D0, symBinAddr: 0x1000251D0, symSize: 0x10 }
  - { offsetInCU: 0x2A3E68, offset: 0x2A3E68, size: 0x8, addend: 0x0, symName: __ZN35WithHandshakeArgs1_ResumeAsync_TestD0Ev, symObjAddr: 0x231E0, symBinAddr: 0x1000251E0, symSize: 0x20 }
  - { offsetInCU: 0x2A3EE1, offset: 0x2A3EE1, size: 0x8, addend: 0x0, symName: __ZThn16_N35WithHandshakeArgs1_ResumeAsync_TestD1Ev, symObjAddr: 0x23200, symBinAddr: 0x100025200, symSize: 0x10 }
  - { offsetInCU: 0x2A3F6C, offset: 0x2A3F6C, size: 0x8, addend: 0x0, symName: __ZThn16_N35WithHandshakeArgs1_ResumeAsync_TestD0Ev, symObjAddr: 0x23210, symBinAddr: 0x100025210, symSize: 0x30 }
  - { offsetInCU: 0x2A401B, offset: 0x2A401B, size: 0x8, addend: 0x0, symName: __ZN39WithHandshakeArgs1_ResumeRejection_TestD1Ev, symObjAddr: 0x23240, symBinAddr: 0x100025240, symSize: 0x10 }
  - { offsetInCU: 0x2A4092, offset: 0x2A4092, size: 0x8, addend: 0x0, symName: __ZN39WithHandshakeArgs1_ResumeRejection_TestD0Ev, symObjAddr: 0x23250, symBinAddr: 0x100025250, symSize: 0x20 }
  - { offsetInCU: 0x2A410B, offset: 0x2A410B, size: 0x8, addend: 0x0, symName: __ZThn16_N39WithHandshakeArgs1_ResumeRejection_TestD1Ev, symObjAddr: 0x23270, symBinAddr: 0x100025270, symSize: 0x10 }
  - { offsetInCU: 0x2A4196, offset: 0x2A4196, size: 0x8, addend: 0x0, symName: __ZThn16_N39WithHandshakeArgs1_ResumeRejection_TestD0Ev, symObjAddr: 0x23280, symBinAddr: 0x100025280, symSize: 0x30 }
  - { offsetInCU: 0x2A4245, offset: 0x2A4245, size: 0x8, addend: 0x0, symName: __ZN50WithHandshakeArgs1_ResumeRejectionByServerApp_TestD1Ev, symObjAddr: 0x232B0, symBinAddr: 0x1000252B0, symSize: 0x10 }
  - { offsetInCU: 0x2A42BC, offset: 0x2A42BC, size: 0x8, addend: 0x0, symName: __ZN50WithHandshakeArgs1_ResumeRejectionByServerApp_TestD0Ev, symObjAddr: 0x232C0, symBinAddr: 0x1000252C0, symSize: 0x20 }
  - { offsetInCU: 0x2A4335, offset: 0x2A4335, size: 0x8, addend: 0x0, symName: __ZThn16_N50WithHandshakeArgs1_ResumeRejectionByServerApp_TestD1Ev, symObjAddr: 0x232E0, symBinAddr: 0x1000252E0, symSize: 0x10 }
  - { offsetInCU: 0x2A43C0, offset: 0x2A43C0, size: 0x8, addend: 0x0, symName: __ZThn16_N50WithHandshakeArgs1_ResumeRejectionByServerApp_TestD0Ev, symObjAddr: 0x232F0, symBinAddr: 0x1000252F0, symSize: 0x30 }
  - { offsetInCU: 0x2A446F, offset: 0x2A446F, size: 0x8, addend: 0x0, symName: __ZN55WithHandshakeArgs1_ResumeRejectionByServerAppAsync_TestD1Ev, symObjAddr: 0x23320, symBinAddr: 0x100025320, symSize: 0x10 }
  - { offsetInCU: 0x2A44E6, offset: 0x2A44E6, size: 0x8, addend: 0x0, symName: __ZN55WithHandshakeArgs1_ResumeRejectionByServerAppAsync_TestD0Ev, symObjAddr: 0x23330, symBinAddr: 0x100025330, symSize: 0x20 }
  - { offsetInCU: 0x2A455F, offset: 0x2A455F, size: 0x8, addend: 0x0, symName: __ZThn16_N55WithHandshakeArgs1_ResumeRejectionByServerAppAsync_TestD1Ev, symObjAddr: 0x23350, symBinAddr: 0x100025350, symSize: 0x10 }
  - { offsetInCU: 0x2A45EA, offset: 0x2A45EA, size: 0x8, addend: 0x0, symName: __ZThn16_N55WithHandshakeArgs1_ResumeRejectionByServerAppAsync_TestD0Ev, symObjAddr: 0x23360, symBinAddr: 0x100025360, symSize: 0x30 }
  - { offsetInCU: 0x2A4699, offset: 0x2A4699, size: 0x8, addend: 0x0, symName: __ZN36WithFamilyArgs_InterfaceBinding_TestD1Ev, symObjAddr: 0x23390, symBinAddr: 0x100025390, symSize: 0x10 }
  - { offsetInCU: 0x2A4710, offset: 0x2A4710, size: 0x8, addend: 0x0, symName: __ZN36WithFamilyArgs_InterfaceBinding_TestD0Ev, symObjAddr: 0x233A0, symBinAddr: 0x1000253A0, symSize: 0x20 }
  - { offsetInCU: 0x2A4789, offset: 0x2A4789, size: 0x8, addend: 0x0, symName: __ZThn16_N36WithFamilyArgs_InterfaceBinding_TestD1Ev, symObjAddr: 0x233C0, symBinAddr: 0x1000253C0, symSize: 0x10 }
  - { offsetInCU: 0x2A4814, offset: 0x2A4814, size: 0x8, addend: 0x0, symName: __ZThn16_N36WithFamilyArgs_InterfaceBinding_TestD0Ev, symObjAddr: 0x233D0, symBinAddr: 0x1000253D0, symSize: 0x30 }
  - { offsetInCU: 0x2A48E9, offset: 0x2A48E9, size: 0x8, addend: 0x0, symName: __ZN34WithHandshakeArgs2_OldVersion_TestD1Ev, symObjAddr: 0x23400, symBinAddr: 0x100025400, symSize: 0x10 }
  - { offsetInCU: 0x2A4960, offset: 0x2A4960, size: 0x8, addend: 0x0, symName: __ZN34WithHandshakeArgs2_OldVersion_TestD0Ev, symObjAddr: 0x23410, symBinAddr: 0x100025410, symSize: 0x20 }
  - { offsetInCU: 0x2A49D9, offset: 0x2A49D9, size: 0x8, addend: 0x0, symName: __ZThn16_N34WithHandshakeArgs2_OldVersion_TestD1Ev, symObjAddr: 0x23430, symBinAddr: 0x100025430, symSize: 0x10 }
  - { offsetInCU: 0x2A4A64, offset: 0x2A4A64, size: 0x8, addend: 0x0, symName: __ZThn16_N34WithHandshakeArgs2_OldVersion_TestD0Ev, symObjAddr: 0x23440, symBinAddr: 0x100025440, symSize: 0x30 }
  - { offsetInCU: 0x2A4B39, offset: 0x2A4B39, size: 0x8, addend: 0x0, symName: __ZN43WithHandshakeArgs3_AsyncSecurityConfig_TestD1Ev, symObjAddr: 0x23470, symBinAddr: 0x100025470, symSize: 0x10 }
  - { offsetInCU: 0x2A4BB0, offset: 0x2A4BB0, size: 0x8, addend: 0x0, symName: __ZN43WithHandshakeArgs3_AsyncSecurityConfig_TestD0Ev, symObjAddr: 0x23480, symBinAddr: 0x100025480, symSize: 0x20 }
  - { offsetInCU: 0x2A4C29, offset: 0x2A4C29, size: 0x8, addend: 0x0, symName: __ZThn16_N43WithHandshakeArgs3_AsyncSecurityConfig_TestD1Ev, symObjAddr: 0x234A0, symBinAddr: 0x1000254A0, symSize: 0x10 }
  - { offsetInCU: 0x2A4CB4, offset: 0x2A4CB4, size: 0x8, addend: 0x0, symName: __ZThn16_N43WithHandshakeArgs3_AsyncSecurityConfig_TestD0Ev, symObjAddr: 0x234B0, symBinAddr: 0x1000254B0, symSize: 0x30 }
  - { offsetInCU: 0x2A4D63, offset: 0x2A4D63, size: 0x8, addend: 0x0, symName: __ZN38WithFamilyArgs_VersionNegotiation_TestD1Ev, symObjAddr: 0x234E0, symBinAddr: 0x1000254E0, symSize: 0x10 }
  - { offsetInCU: 0x2A4DDA, offset: 0x2A4DDA, size: 0x8, addend: 0x0, symName: __ZN38WithFamilyArgs_VersionNegotiation_TestD0Ev, symObjAddr: 0x234F0, symBinAddr: 0x1000254F0, symSize: 0x20 }
  - { offsetInCU: 0x2A4E53, offset: 0x2A4E53, size: 0x8, addend: 0x0, symName: __ZThn16_N38WithFamilyArgs_VersionNegotiation_TestD1Ev, symObjAddr: 0x23510, symBinAddr: 0x100025510, symSize: 0x10 }
  - { offsetInCU: 0x2A4EDE, offset: 0x2A4EDE, size: 0x8, addend: 0x0, symName: __ZThn16_N38WithFamilyArgs_VersionNegotiation_TestD0Ev, symObjAddr: 0x23520, symBinAddr: 0x100025520, symSize: 0x30 }
  - { offsetInCU: 0x2A4F8D, offset: 0x2A4F8D, size: 0x8, addend: 0x0, symName: __ZN43WithFamilyArgs_VersionNegotiationRetry_TestD1Ev, symObjAddr: 0x23550, symBinAddr: 0x100025550, symSize: 0x10 }
  - { offsetInCU: 0x2A5004, offset: 0x2A5004, size: 0x8, addend: 0x0, symName: __ZN43WithFamilyArgs_VersionNegotiationRetry_TestD0Ev, symObjAddr: 0x23560, symBinAddr: 0x100025560, symSize: 0x20 }
  - { offsetInCU: 0x2A507D, offset: 0x2A507D, size: 0x8, addend: 0x0, symName: __ZThn16_N43WithFamilyArgs_VersionNegotiationRetry_TestD1Ev, symObjAddr: 0x23580, symBinAddr: 0x100025580, symSize: 0x10 }
  - { offsetInCU: 0x2A5108, offset: 0x2A5108, size: 0x8, addend: 0x0, symName: __ZThn16_N43WithFamilyArgs_VersionNegotiationRetry_TestD0Ev, symObjAddr: 0x23590, symBinAddr: 0x100025590, symSize: 0x30 }
  - { offsetInCU: 0x2A51B7, offset: 0x2A51B7, size: 0x8, addend: 0x0, symName: __ZN53WithFamilyArgs_CompatibleVersionNegotiationRetry_TestD1Ev, symObjAddr: 0x235C0, symBinAddr: 0x1000255C0, symSize: 0x10 }
  - { offsetInCU: 0x2A522E, offset: 0x2A522E, size: 0x8, addend: 0x0, symName: __ZN53WithFamilyArgs_CompatibleVersionNegotiationRetry_TestD0Ev, symObjAddr: 0x235D0, symBinAddr: 0x1000255D0, symSize: 0x20 }
  - { offsetInCU: 0x2A52A7, offset: 0x2A52A7, size: 0x8, addend: 0x0, symName: __ZThn16_N53WithFamilyArgs_CompatibleVersionNegotiationRetry_TestD1Ev, symObjAddr: 0x235F0, symBinAddr: 0x1000255F0, symSize: 0x10 }
  - { offsetInCU: 0x2A5332, offset: 0x2A5332, size: 0x8, addend: 0x0, symName: __ZThn16_N53WithFamilyArgs_CompatibleVersionNegotiationRetry_TestD0Ev, symObjAddr: 0x23600, symBinAddr: 0x100025600, symSize: 0x30 }
  - { offsetInCU: 0x2A5407, offset: 0x2A5407, size: 0x8, addend: 0x0, symName: __ZN63WithVersionNegotiationExtArgs_CompatibleVersionNegotiation_TestD1Ev, symObjAddr: 0x23630, symBinAddr: 0x100025630, symSize: 0x10 }
  - { offsetInCU: 0x2A547E, offset: 0x2A547E, size: 0x8, addend: 0x0, symName: __ZN63WithVersionNegotiationExtArgs_CompatibleVersionNegotiation_TestD0Ev, symObjAddr: 0x23640, symBinAddr: 0x100025640, symSize: 0x20 }
  - { offsetInCU: 0x2A54F7, offset: 0x2A54F7, size: 0x8, addend: 0x0, symName: __ZThn16_N63WithVersionNegotiationExtArgs_CompatibleVersionNegotiation_TestD1Ev, symObjAddr: 0x23660, symBinAddr: 0x100025660, symSize: 0x10 }
  - { offsetInCU: 0x2A5582, offset: 0x2A5582, size: 0x8, addend: 0x0, symName: __ZThn16_N63WithVersionNegotiationExtArgs_CompatibleVersionNegotiation_TestD0Ev, symObjAddr: 0x23670, symBinAddr: 0x100025670, symSize: 0x30 }
  - { offsetInCU: 0x2A5631, offset: 0x2A5631, size: 0x8, addend: 0x0, symName: __ZN76WithVersionNegotiationExtArgs_CompatibleVersionNegotiationDefaultServer_TestD1Ev, symObjAddr: 0x236A0, symBinAddr: 0x1000256A0, symSize: 0x10 }
  - { offsetInCU: 0x2A56A8, offset: 0x2A56A8, size: 0x8, addend: 0x0, symName: __ZN76WithVersionNegotiationExtArgs_CompatibleVersionNegotiationDefaultServer_TestD0Ev, symObjAddr: 0x236B0, symBinAddr: 0x1000256B0, symSize: 0x20 }
  - { offsetInCU: 0x2A5721, offset: 0x2A5721, size: 0x8, addend: 0x0, symName: __ZThn16_N76WithVersionNegotiationExtArgs_CompatibleVersionNegotiationDefaultServer_TestD1Ev, symObjAddr: 0x236D0, symBinAddr: 0x1000256D0, symSize: 0x10 }
  - { offsetInCU: 0x2A57AC, offset: 0x2A57AC, size: 0x8, addend: 0x0, symName: __ZThn16_N76WithVersionNegotiationExtArgs_CompatibleVersionNegotiationDefaultServer_TestD0Ev, symObjAddr: 0x236E0, symBinAddr: 0x1000256E0, symSize: 0x30 }
  - { offsetInCU: 0x2A585B, offset: 0x2A585B, size: 0x8, addend: 0x0, symName: __ZN76WithVersionNegotiationExtArgs_CompatibleVersionNegotiationDefaultClient_TestD1Ev, symObjAddr: 0x23710, symBinAddr: 0x100025710, symSize: 0x10 }
  - { offsetInCU: 0x2A58D2, offset: 0x2A58D2, size: 0x8, addend: 0x0, symName: __ZN76WithVersionNegotiationExtArgs_CompatibleVersionNegotiationDefaultClient_TestD0Ev, symObjAddr: 0x23720, symBinAddr: 0x100025720, symSize: 0x20 }
  - { offsetInCU: 0x2A594B, offset: 0x2A594B, size: 0x8, addend: 0x0, symName: __ZThn16_N76WithVersionNegotiationExtArgs_CompatibleVersionNegotiationDefaultClient_TestD1Ev, symObjAddr: 0x23740, symBinAddr: 0x100025740, symSize: 0x10 }
  - { offsetInCU: 0x2A59D6, offset: 0x2A59D6, size: 0x8, addend: 0x0, symName: __ZThn16_N76WithVersionNegotiationExtArgs_CompatibleVersionNegotiationDefaultClient_TestD0Ev, symObjAddr: 0x23750, symBinAddr: 0x100025750, symSize: 0x30 }
  - { offsetInCU: 0x2A5A85, offset: 0x2A5A85, size: 0x8, addend: 0x0, symName: __ZN50WithFamilyArgs_IncompatibleVersionNegotiation_TestD1Ev, symObjAddr: 0x23780, symBinAddr: 0x100025780, symSize: 0x10 }
  - { offsetInCU: 0x2A5AFC, offset: 0x2A5AFC, size: 0x8, addend: 0x0, symName: __ZN50WithFamilyArgs_IncompatibleVersionNegotiation_TestD0Ev, symObjAddr: 0x23790, symBinAddr: 0x100025790, symSize: 0x20 }
  - { offsetInCU: 0x2A5B75, offset: 0x2A5B75, size: 0x8, addend: 0x0, symName: __ZThn16_N50WithFamilyArgs_IncompatibleVersionNegotiation_TestD1Ev, symObjAddr: 0x237B0, symBinAddr: 0x1000257B0, symSize: 0x10 }
  - { offsetInCU: 0x2A5C00, offset: 0x2A5C00, size: 0x8, addend: 0x0, symName: __ZThn16_N50WithFamilyArgs_IncompatibleVersionNegotiation_TestD0Ev, symObjAddr: 0x237C0, symBinAddr: 0x1000257C0, symSize: 0x30 }
  - { offsetInCU: 0x2A5CAF, offset: 0x2A5CAF, size: 0x8, addend: 0x0, symName: __ZN44WithFamilyArgs_FailedVersionNegotiation_TestD1Ev, symObjAddr: 0x237F0, symBinAddr: 0x1000257F0, symSize: 0x10 }
  - { offsetInCU: 0x2A5D26, offset: 0x2A5D26, size: 0x8, addend: 0x0, symName: __ZN44WithFamilyArgs_FailedVersionNegotiation_TestD0Ev, symObjAddr: 0x23800, symBinAddr: 0x100025800, symSize: 0x20 }
  - { offsetInCU: 0x2A5D9F, offset: 0x2A5D9F, size: 0x8, addend: 0x0, symName: __ZThn16_N44WithFamilyArgs_FailedVersionNegotiation_TestD1Ev, symObjAddr: 0x23820, symBinAddr: 0x100025820, symSize: 0x10 }
  - { offsetInCU: 0x2A5E2A, offset: 0x2A5E2A, size: 0x8, addend: 0x0, symName: __ZThn16_N44WithFamilyArgs_FailedVersionNegotiation_TestD0Ev, symObjAddr: 0x23830, symBinAddr: 0x100025830, symSize: 0x30 }
  - { offsetInCU: 0x2A5F00, offset: 0x2A5F00, size: 0x8, addend: 0x0, symName: __ZN52WithFeatureSupportArgs_ReliableResetNegotiation_TestD1Ev, symObjAddr: 0x23860, symBinAddr: 0x100025860, symSize: 0x10 }
  - { offsetInCU: 0x2A5F77, offset: 0x2A5F77, size: 0x8, addend: 0x0, symName: __ZN52WithFeatureSupportArgs_ReliableResetNegotiation_TestD0Ev, symObjAddr: 0x23870, symBinAddr: 0x100025870, symSize: 0x20 }
  - { offsetInCU: 0x2A5FF0, offset: 0x2A5FF0, size: 0x8, addend: 0x0, symName: __ZThn16_N52WithFeatureSupportArgs_ReliableResetNegotiation_TestD1Ev, symObjAddr: 0x23890, symBinAddr: 0x100025890, symSize: 0x10 }
  - { offsetInCU: 0x2A607B, offset: 0x2A607B, size: 0x8, addend: 0x0, symName: __ZThn16_N52WithFeatureSupportArgs_ReliableResetNegotiation_TestD0Ev, symObjAddr: 0x238A0, symBinAddr: 0x1000258A0, symSize: 0x30 }
  - { offsetInCU: 0x2A612A, offset: 0x2A612A, size: 0x8, addend: 0x0, symName: __ZN50WithFeatureSupportArgs_OneWayDelayNegotiation_TestD1Ev, symObjAddr: 0x238D0, symBinAddr: 0x1000258D0, symSize: 0x10 }
  - { offsetInCU: 0x2A61A1, offset: 0x2A61A1, size: 0x8, addend: 0x0, symName: __ZN50WithFeatureSupportArgs_OneWayDelayNegotiation_TestD0Ev, symObjAddr: 0x238E0, symBinAddr: 0x1000258E0, symSize: 0x20 }
  - { offsetInCU: 0x2A621A, offset: 0x2A621A, size: 0x8, addend: 0x0, symName: __ZThn16_N50WithFeatureSupportArgs_OneWayDelayNegotiation_TestD1Ev, symObjAddr: 0x23900, symBinAddr: 0x100025900, symSize: 0x10 }
  - { offsetInCU: 0x2A62A5, offset: 0x2A62A5, size: 0x8, addend: 0x0, symName: __ZThn16_N50WithFeatureSupportArgs_OneWayDelayNegotiation_TestD0Ev, symObjAddr: 0x23910, symBinAddr: 0x100025910, symSize: 0x30 }
  - { offsetInCU: 0x2A637A, offset: 0x2A637A, size: 0x8, addend: 0x0, symName: __ZN57WithHandshakeArgs5_CustomServerCertificateValidation_TestD1Ev, symObjAddr: 0x23940, symBinAddr: 0x100025940, symSize: 0x10 }
  - { offsetInCU: 0x2A63F1, offset: 0x2A63F1, size: 0x8, addend: 0x0, symName: __ZN57WithHandshakeArgs5_CustomServerCertificateValidation_TestD0Ev, symObjAddr: 0x23950, symBinAddr: 0x100025950, symSize: 0x20 }
  - { offsetInCU: 0x2A646A, offset: 0x2A646A, size: 0x8, addend: 0x0, symName: __ZThn16_N57WithHandshakeArgs5_CustomServerCertificateValidation_TestD1Ev, symObjAddr: 0x23970, symBinAddr: 0x100025970, symSize: 0x10 }
  - { offsetInCU: 0x2A64F5, offset: 0x2A64F5, size: 0x8, addend: 0x0, symName: __ZThn16_N57WithHandshakeArgs5_CustomServerCertificateValidation_TestD0Ev, symObjAddr: 0x23980, symBinAddr: 0x100025980, symSize: 0x30 }
  - { offsetInCU: 0x2A65A4, offset: 0x2A65A4, size: 0x8, addend: 0x0, symName: __ZN57WithHandshakeArgs5_CustomClientCertificateValidation_TestD1Ev, symObjAddr: 0x239B0, symBinAddr: 0x1000259B0, symSize: 0x10 }
  - { offsetInCU: 0x2A661B, offset: 0x2A661B, size: 0x8, addend: 0x0, symName: __ZN57WithHandshakeArgs5_CustomClientCertificateValidation_TestD0Ev, symObjAddr: 0x239C0, symBinAddr: 0x1000259C0, symSize: 0x20 }
  - { offsetInCU: 0x2A6694, offset: 0x2A6694, size: 0x8, addend: 0x0, symName: __ZThn16_N57WithHandshakeArgs5_CustomClientCertificateValidation_TestD1Ev, symObjAddr: 0x239E0, symBinAddr: 0x1000259E0, symSize: 0x10 }
  - { offsetInCU: 0x2A671F, offset: 0x2A671F, size: 0x8, addend: 0x0, symName: __ZThn16_N57WithHandshakeArgs5_CustomClientCertificateValidation_TestD0Ev, symObjAddr: 0x239F0, symBinAddr: 0x1000259F0, symSize: 0x30 }
  - { offsetInCU: 0x2A67F4, offset: 0x2A67F4, size: 0x8, addend: 0x0, symName: __ZN48WithHandshakeArgs6_ConnectClientCertificate_TestD1Ev, symObjAddr: 0x23A20, symBinAddr: 0x100025A20, symSize: 0x10 }
  - { offsetInCU: 0x2A686B, offset: 0x2A686B, size: 0x8, addend: 0x0, symName: __ZN48WithHandshakeArgs6_ConnectClientCertificate_TestD0Ev, symObjAddr: 0x23A30, symBinAddr: 0x100025A30, symSize: 0x20 }
  - { offsetInCU: 0x2A68E4, offset: 0x2A68E4, size: 0x8, addend: 0x0, symName: __ZThn16_N48WithHandshakeArgs6_ConnectClientCertificate_TestD1Ev, symObjAddr: 0x23A50, symBinAddr: 0x100025A50, symSize: 0x10 }
  - { offsetInCU: 0x2A696F, offset: 0x2A696F, size: 0x8, addend: 0x0, symName: __ZThn16_N48WithHandshakeArgs6_ConnectClientCertificate_TestD0Ev, symObjAddr: 0x23A60, symBinAddr: 0x100025A60, symSize: 0x30 }
  - { offsetInCU: 0x2A6A45, offset: 0x2A6A45, size: 0x8, addend: 0x0, symName: __ZN38WithHandshakeArgs7_CibirExtension_TestD1Ev, symObjAddr: 0x23A90, symBinAddr: 0x100025A90, symSize: 0x10 }
  - { offsetInCU: 0x2A6ABC, offset: 0x2A6ABC, size: 0x8, addend: 0x0, symName: __ZN38WithHandshakeArgs7_CibirExtension_TestD0Ev, symObjAddr: 0x23AA0, symBinAddr: 0x100025AA0, symSize: 0x20 }
  - { offsetInCU: 0x2A6B35, offset: 0x2A6B35, size: 0x8, addend: 0x0, symName: __ZThn16_N38WithHandshakeArgs7_CibirExtension_TestD1Ev, symObjAddr: 0x23AC0, symBinAddr: 0x100025AC0, symSize: 0x10 }
  - { offsetInCU: 0x2A6BC0, offset: 0x2A6BC0, size: 0x8, addend: 0x0, symName: __ZThn16_N38WithHandshakeArgs7_CibirExtension_TestD0Ev, symObjAddr: 0x23AD0, symBinAddr: 0x100025AD0, symSize: 0x30 }
  - { offsetInCU: 0x2A6C96, offset: 0x2A6C96, size: 0x8, addend: 0x0, symName: __ZN35WithHandshakeArgs8_OddSizeVnTp_TestD1Ev, symObjAddr: 0x23B00, symBinAddr: 0x100025B00, symSize: 0x10 }
  - { offsetInCU: 0x2A6D0D, offset: 0x2A6D0D, size: 0x8, addend: 0x0, symName: __ZN35WithHandshakeArgs8_OddSizeVnTp_TestD0Ev, symObjAddr: 0x23B10, symBinAddr: 0x100025B10, symSize: 0x20 }
  - { offsetInCU: 0x2A6D86, offset: 0x2A6D86, size: 0x8, addend: 0x0, symName: __ZThn16_N35WithHandshakeArgs8_OddSizeVnTp_TestD1Ev, symObjAddr: 0x23B30, symBinAddr: 0x100025B30, symSize: 0x10 }
  - { offsetInCU: 0x2A6E11, offset: 0x2A6E11, size: 0x8, addend: 0x0, symName: __ZThn16_N35WithHandshakeArgs8_OddSizeVnTp_TestD0Ev, symObjAddr: 0x23B40, symBinAddr: 0x100025B40, symSize: 0x30 }
  - { offsetInCU: 0x2A6EE7, offset: 0x2A6EE7, size: 0x8, addend: 0x0, symName: __ZN49WithHandshakeArgs9_VnTpChosenVersionMismatch_TestD1Ev, symObjAddr: 0x23B70, symBinAddr: 0x100025B70, symSize: 0x10 }
  - { offsetInCU: 0x2A6F5E, offset: 0x2A6F5E, size: 0x8, addend: 0x0, symName: __ZN49WithHandshakeArgs9_VnTpChosenVersionMismatch_TestD0Ev, symObjAddr: 0x23B80, symBinAddr: 0x100025B80, symSize: 0x20 }
  - { offsetInCU: 0x2A6FD7, offset: 0x2A6FD7, size: 0x8, addend: 0x0, symName: __ZThn16_N49WithHandshakeArgs9_VnTpChosenVersionMismatch_TestD1Ev, symObjAddr: 0x23BA0, symBinAddr: 0x100025BA0, symSize: 0x10 }
  - { offsetInCU: 0x2A7062, offset: 0x2A7062, size: 0x8, addend: 0x0, symName: __ZThn16_N49WithHandshakeArgs9_VnTpChosenVersionMismatch_TestD0Ev, symObjAddr: 0x23BB0, symBinAddr: 0x100025BB0, symSize: 0x30 }
  - { offsetInCU: 0x2A7111, offset: 0x2A7111, size: 0x8, addend: 0x0, symName: __ZN45WithHandshakeArgs9_VnTpChosenVersionZero_TestD1Ev, symObjAddr: 0x23BE0, symBinAddr: 0x100025BE0, symSize: 0x10 }
  - { offsetInCU: 0x2A7188, offset: 0x2A7188, size: 0x8, addend: 0x0, symName: __ZN45WithHandshakeArgs9_VnTpChosenVersionZero_TestD0Ev, symObjAddr: 0x23BF0, symBinAddr: 0x100025BF0, symSize: 0x20 }
  - { offsetInCU: 0x2A7201, offset: 0x2A7201, size: 0x8, addend: 0x0, symName: __ZThn16_N45WithHandshakeArgs9_VnTpChosenVersionZero_TestD1Ev, symObjAddr: 0x23C10, symBinAddr: 0x100025C10, symSize: 0x10 }
  - { offsetInCU: 0x2A728C, offset: 0x2A728C, size: 0x8, addend: 0x0, symName: __ZThn16_N45WithHandshakeArgs9_VnTpChosenVersionZero_TestD0Ev, symObjAddr: 0x23C20, symBinAddr: 0x100025C20, symSize: 0x30 }
  - { offsetInCU: 0x2A733B, offset: 0x2A733B, size: 0x8, addend: 0x0, symName: __ZN44WithHandshakeArgs9_VnTpOtherVersionZero_TestD1Ev, symObjAddr: 0x23C50, symBinAddr: 0x100025C50, symSize: 0x10 }
  - { offsetInCU: 0x2A73B2, offset: 0x2A73B2, size: 0x8, addend: 0x0, symName: __ZN44WithHandshakeArgs9_VnTpOtherVersionZero_TestD0Ev, symObjAddr: 0x23C60, symBinAddr: 0x100025C60, symSize: 0x20 }
  - { offsetInCU: 0x2A742B, offset: 0x2A742B, size: 0x8, addend: 0x0, symName: __ZThn16_N44WithHandshakeArgs9_VnTpOtherVersionZero_TestD1Ev, symObjAddr: 0x23C80, symBinAddr: 0x100025C80, symSize: 0x10 }
  - { offsetInCU: 0x2A74B6, offset: 0x2A74B6, size: 0x8, addend: 0x0, symName: __ZThn16_N44WithHandshakeArgs9_VnTpOtherVersionZero_TestD0Ev, symObjAddr: 0x23C90, symBinAddr: 0x100025C90, symSize: 0x30 }
  - { offsetInCU: 0x2A758B, offset: 0x2A758B, size: 0x8, addend: 0x0, symName: __ZN34WithHandshakeArgs4_RandomLoss_TestD1Ev, symObjAddr: 0x23CC0, symBinAddr: 0x100025CC0, symSize: 0x10 }
  - { offsetInCU: 0x2A7602, offset: 0x2A7602, size: 0x8, addend: 0x0, symName: __ZN34WithHandshakeArgs4_RandomLoss_TestD0Ev, symObjAddr: 0x23CD0, symBinAddr: 0x100025CD0, symSize: 0x20 }
  - { offsetInCU: 0x2A767B, offset: 0x2A767B, size: 0x8, addend: 0x0, symName: __ZThn16_N34WithHandshakeArgs4_RandomLoss_TestD1Ev, symObjAddr: 0x23CF0, symBinAddr: 0x100025CF0, symSize: 0x10 }
  - { offsetInCU: 0x2A7706, offset: 0x2A7706, size: 0x8, addend: 0x0, symName: __ZThn16_N34WithHandshakeArgs4_RandomLoss_TestD0Ev, symObjAddr: 0x23D00, symBinAddr: 0x100025D00, symSize: 0x30 }
  - { offsetInCU: 0x2A77B5, offset: 0x2A77B5, size: 0x8, addend: 0x0, symName: __ZN40WithHandshakeArgs4_RandomLossResume_TestD1Ev, symObjAddr: 0x23D30, symBinAddr: 0x100025D30, symSize: 0x10 }
  - { offsetInCU: 0x2A782C, offset: 0x2A782C, size: 0x8, addend: 0x0, symName: __ZN40WithHandshakeArgs4_RandomLossResume_TestD0Ev, symObjAddr: 0x23D40, symBinAddr: 0x100025D40, symSize: 0x20 }
  - { offsetInCU: 0x2A78A5, offset: 0x2A78A5, size: 0x8, addend: 0x0, symName: __ZThn16_N40WithHandshakeArgs4_RandomLossResume_TestD1Ev, symObjAddr: 0x23D60, symBinAddr: 0x100025D60, symSize: 0x10 }
  - { offsetInCU: 0x2A7930, offset: 0x2A7930, size: 0x8, addend: 0x0, symName: __ZThn16_N40WithHandshakeArgs4_RandomLossResume_TestD0Ev, symObjAddr: 0x23D70, symBinAddr: 0x100025D70, symSize: 0x30 }
  - { offsetInCU: 0x2A79DF, offset: 0x2A79DF, size: 0x8, addend: 0x0, symName: __ZN49WithHandshakeArgs4_RandomLossResumeRejection_TestD1Ev, symObjAddr: 0x23DA0, symBinAddr: 0x100025DA0, symSize: 0x10 }
  - { offsetInCU: 0x2A7A56, offset: 0x2A7A56, size: 0x8, addend: 0x0, symName: __ZN49WithHandshakeArgs4_RandomLossResumeRejection_TestD0Ev, symObjAddr: 0x23DB0, symBinAddr: 0x100025DB0, symSize: 0x20 }
  - { offsetInCU: 0x2A7ACF, offset: 0x2A7ACF, size: 0x8, addend: 0x0, symName: __ZThn16_N49WithHandshakeArgs4_RandomLossResumeRejection_TestD1Ev, symObjAddr: 0x23DD0, symBinAddr: 0x100025DD0, symSize: 0x10 }
  - { offsetInCU: 0x2A7B5A, offset: 0x2A7B5A, size: 0x8, addend: 0x0, symName: __ZThn16_N49WithHandshakeArgs4_RandomLossResumeRejection_TestD0Ev, symObjAddr: 0x23DE0, symBinAddr: 0x100025DE0, symSize: 0x30 }
  - { offsetInCU: 0x2A7C09, offset: 0x2A7C09, size: 0x8, addend: 0x0, symName: __ZN31WithFamilyArgs_Unreachable_TestD1Ev, symObjAddr: 0x23E10, symBinAddr: 0x100025E10, symSize: 0x10 }
  - { offsetInCU: 0x2A7C80, offset: 0x2A7C80, size: 0x8, addend: 0x0, symName: __ZN31WithFamilyArgs_Unreachable_TestD0Ev, symObjAddr: 0x23E20, symBinAddr: 0x100025E20, symSize: 0x20 }
  - { offsetInCU: 0x2A7CF9, offset: 0x2A7CF9, size: 0x8, addend: 0x0, symName: __ZThn16_N31WithFamilyArgs_Unreachable_TestD1Ev, symObjAddr: 0x23E40, symBinAddr: 0x100025E40, symSize: 0x10 }
  - { offsetInCU: 0x2A7D84, offset: 0x2A7D84, size: 0x8, addend: 0x0, symName: __ZThn16_N31WithFamilyArgs_Unreachable_TestD0Ev, symObjAddr: 0x23E50, symBinAddr: 0x100025E50, symSize: 0x30 }
  - { offsetInCU: 0x2A7E30, offset: 0x2A7E30, size: 0x8, addend: 0x0, symName: __ZN33HandshakeTest_InvalidAddress_TestD1Ev, symObjAddr: 0x23E80, symBinAddr: 0x100025E80, symSize: 0x10 }
  - { offsetInCU: 0x2A7E87, offset: 0x2A7E87, size: 0x8, addend: 0x0, symName: __ZN33HandshakeTest_InvalidAddress_TestD0Ev, symObjAddr: 0x23E90, symBinAddr: 0x100025E90, symSize: 0x20 }
  - { offsetInCU: 0x2A7F0E, offset: 0x2A7F0E, size: 0x8, addend: 0x0, symName: __ZN27WithFamilyArgs_BadALPN_TestD1Ev, symObjAddr: 0x23EB0, symBinAddr: 0x100025EB0, symSize: 0x10 }
  - { offsetInCU: 0x2A7F85, offset: 0x2A7F85, size: 0x8, addend: 0x0, symName: __ZN27WithFamilyArgs_BadALPN_TestD0Ev, symObjAddr: 0x23EC0, symBinAddr: 0x100025EC0, symSize: 0x20 }
  - { offsetInCU: 0x2A7FFE, offset: 0x2A7FFE, size: 0x8, addend: 0x0, symName: __ZThn16_N27WithFamilyArgs_BadALPN_TestD1Ev, symObjAddr: 0x23EE0, symBinAddr: 0x100025EE0, symSize: 0x10 }
  - { offsetInCU: 0x2A8089, offset: 0x2A8089, size: 0x8, addend: 0x0, symName: __ZThn16_N27WithFamilyArgs_BadALPN_TestD0Ev, symObjAddr: 0x23EF0, symBinAddr: 0x100025EF0, symSize: 0x30 }
  - { offsetInCU: 0x2A8138, offset: 0x2A8138, size: 0x8, addend: 0x0, symName: __ZN26WithFamilyArgs_BadSNI_TestD1Ev, symObjAddr: 0x23F20, symBinAddr: 0x100025F20, symSize: 0x10 }
  - { offsetInCU: 0x2A81AF, offset: 0x2A81AF, size: 0x8, addend: 0x0, symName: __ZN26WithFamilyArgs_BadSNI_TestD0Ev, symObjAddr: 0x23F30, symBinAddr: 0x100025F30, symSize: 0x20 }
  - { offsetInCU: 0x2A8228, offset: 0x2A8228, size: 0x8, addend: 0x0, symName: __ZThn16_N26WithFamilyArgs_BadSNI_TestD1Ev, symObjAddr: 0x23F50, symBinAddr: 0x100025F50, symSize: 0x10 }
  - { offsetInCU: 0x2A82B3, offset: 0x2A82B3, size: 0x8, addend: 0x0, symName: __ZThn16_N26WithFamilyArgs_BadSNI_TestD0Ev, symObjAddr: 0x23F60, symBinAddr: 0x100025F60, symSize: 0x30 }
  - { offsetInCU: 0x2A8362, offset: 0x2A8362, size: 0x8, addend: 0x0, symName: __ZN34WithFamilyArgs_ServerRejected_TestD1Ev, symObjAddr: 0x23F90, symBinAddr: 0x100025F90, symSize: 0x10 }
  - { offsetInCU: 0x2A83D9, offset: 0x2A83D9, size: 0x8, addend: 0x0, symName: __ZN34WithFamilyArgs_ServerRejected_TestD0Ev, symObjAddr: 0x23FA0, symBinAddr: 0x100025FA0, symSize: 0x20 }
  - { offsetInCU: 0x2A8452, offset: 0x2A8452, size: 0x8, addend: 0x0, symName: __ZThn16_N34WithFamilyArgs_ServerRejected_TestD1Ev, symObjAddr: 0x23FC0, symBinAddr: 0x100025FC0, symSize: 0x10 }
  - { offsetInCU: 0x2A84DD, offset: 0x2A84DD, size: 0x8, addend: 0x0, symName: __ZThn16_N34WithFamilyArgs_ServerRejected_TestD0Ev, symObjAddr: 0x23FD0, symBinAddr: 0x100025FD0, symSize: 0x30 }
  - { offsetInCU: 0x2A858C, offset: 0x2A858C, size: 0x8, addend: 0x0, symName: __ZN43WithFamilyArgs_ClientBlockedSourcePort_TestD1Ev, symObjAddr: 0x24000, symBinAddr: 0x100026000, symSize: 0x10 }
  - { offsetInCU: 0x2A8603, offset: 0x2A8603, size: 0x8, addend: 0x0, symName: __ZN43WithFamilyArgs_ClientBlockedSourcePort_TestD0Ev, symObjAddr: 0x24010, symBinAddr: 0x100026010, symSize: 0x20 }
  - { offsetInCU: 0x2A867C, offset: 0x2A867C, size: 0x8, addend: 0x0, symName: __ZThn16_N43WithFamilyArgs_ClientBlockedSourcePort_TestD1Ev, symObjAddr: 0x24030, symBinAddr: 0x100026030, symSize: 0x10 }
  - { offsetInCU: 0x2A8707, offset: 0x2A8707, size: 0x8, addend: 0x0, symName: __ZThn16_N43WithFamilyArgs_ClientBlockedSourcePort_TestD0Ev, symObjAddr: 0x24040, symBinAddr: 0x100026040, symSize: 0x30 }
  - { offsetInCU: 0x2A87B6, offset: 0x2A87B6, size: 0x8, addend: 0x0, symName: __ZN30WithFamilyArgs_RebindPort_TestD1Ev, symObjAddr: 0x24070, symBinAddr: 0x100026070, symSize: 0x10 }
  - { offsetInCU: 0x2A882D, offset: 0x2A882D, size: 0x8, addend: 0x0, symName: __ZN30WithFamilyArgs_RebindPort_TestD0Ev, symObjAddr: 0x24080, symBinAddr: 0x100026080, symSize: 0x20 }
  - { offsetInCU: 0x2A88A6, offset: 0x2A88A6, size: 0x8, addend: 0x0, symName: __ZThn16_N30WithFamilyArgs_RebindPort_TestD1Ev, symObjAddr: 0x240A0, symBinAddr: 0x1000260A0, symSize: 0x10 }
  - { offsetInCU: 0x2A8931, offset: 0x2A8931, size: 0x8, addend: 0x0, symName: __ZThn16_N30WithFamilyArgs_RebindPort_TestD0Ev, symObjAddr: 0x240B0, symBinAddr: 0x1000260B0, symSize: 0x30 }
  - { offsetInCU: 0x2A8A07, offset: 0x2A8A07, size: 0x8, addend: 0x0, symName: __ZN43WithRebindPaddingArgs_RebindPortPadded_TestD1Ev, symObjAddr: 0x240E0, symBinAddr: 0x1000260E0, symSize: 0x10 }
  - { offsetInCU: 0x2A8A7E, offset: 0x2A8A7E, size: 0x8, addend: 0x0, symName: __ZN43WithRebindPaddingArgs_RebindPortPadded_TestD0Ev, symObjAddr: 0x240F0, symBinAddr: 0x1000260F0, symSize: 0x20 }
  - { offsetInCU: 0x2A8AF7, offset: 0x2A8AF7, size: 0x8, addend: 0x0, symName: __ZThn16_N43WithRebindPaddingArgs_RebindPortPadded_TestD1Ev, symObjAddr: 0x24110, symBinAddr: 0x100026110, symSize: 0x10 }
  - { offsetInCU: 0x2A8B82, offset: 0x2A8B82, size: 0x8, addend: 0x0, symName: __ZThn16_N43WithRebindPaddingArgs_RebindPortPadded_TestD0Ev, symObjAddr: 0x24120, symBinAddr: 0x100026120, symSize: 0x30 }
  - { offsetInCU: 0x2A8C31, offset: 0x2A8C31, size: 0x8, addend: 0x0, symName: __ZN30WithFamilyArgs_RebindAddr_TestD1Ev, symObjAddr: 0x24150, symBinAddr: 0x100026150, symSize: 0x10 }
  - { offsetInCU: 0x2A8CA8, offset: 0x2A8CA8, size: 0x8, addend: 0x0, symName: __ZN30WithFamilyArgs_RebindAddr_TestD0Ev, symObjAddr: 0x24160, symBinAddr: 0x100026160, symSize: 0x20 }
  - { offsetInCU: 0x2A8D21, offset: 0x2A8D21, size: 0x8, addend: 0x0, symName: __ZThn16_N30WithFamilyArgs_RebindAddr_TestD1Ev, symObjAddr: 0x24180, symBinAddr: 0x100026180, symSize: 0x10 }
  - { offsetInCU: 0x2A8DAC, offset: 0x2A8DAC, size: 0x8, addend: 0x0, symName: __ZThn16_N30WithFamilyArgs_RebindAddr_TestD0Ev, symObjAddr: 0x24190, symBinAddr: 0x100026190, symSize: 0x30 }
  - { offsetInCU: 0x2A8E5B, offset: 0x2A8E5B, size: 0x8, addend: 0x0, symName: __ZN38WithFamilyArgs_RebindDatapathAddr_TestD1Ev, symObjAddr: 0x241C0, symBinAddr: 0x1000261C0, symSize: 0x10 }
  - { offsetInCU: 0x2A8ED2, offset: 0x2A8ED2, size: 0x8, addend: 0x0, symName: __ZN38WithFamilyArgs_RebindDatapathAddr_TestD0Ev, symObjAddr: 0x241D0, symBinAddr: 0x1000261D0, symSize: 0x20 }
  - { offsetInCU: 0x2A8F4B, offset: 0x2A8F4B, size: 0x8, addend: 0x0, symName: __ZThn16_N38WithFamilyArgs_RebindDatapathAddr_TestD1Ev, symObjAddr: 0x241F0, symBinAddr: 0x1000261F0, symSize: 0x10 }
  - { offsetInCU: 0x2A8FD6, offset: 0x2A8FD6, size: 0x8, addend: 0x0, symName: __ZThn16_N38WithFamilyArgs_RebindDatapathAddr_TestD0Ev, symObjAddr: 0x24200, symBinAddr: 0x100026200, symSize: 0x30 }
  - { offsetInCU: 0x2A9085, offset: 0x2A9085, size: 0x8, addend: 0x0, symName: __ZN43WithRebindPaddingArgs_RebindAddrPadded_TestD1Ev, symObjAddr: 0x24230, symBinAddr: 0x100026230, symSize: 0x10 }
  - { offsetInCU: 0x2A90FC, offset: 0x2A90FC, size: 0x8, addend: 0x0, symName: __ZN43WithRebindPaddingArgs_RebindAddrPadded_TestD0Ev, symObjAddr: 0x24240, symBinAddr: 0x100026240, symSize: 0x20 }
  - { offsetInCU: 0x2A9175, offset: 0x2A9175, size: 0x8, addend: 0x0, symName: __ZThn16_N43WithRebindPaddingArgs_RebindAddrPadded_TestD1Ev, symObjAddr: 0x24260, symBinAddr: 0x100026260, symSize: 0x10 }
  - { offsetInCU: 0x2A9200, offset: 0x2A9200, size: 0x8, addend: 0x0, symName: __ZThn16_N43WithRebindPaddingArgs_RebindAddrPadded_TestD0Ev, symObjAddr: 0x24270, symBinAddr: 0x100026270, symSize: 0x30 }
  - { offsetInCU: 0x2A92AF, offset: 0x2A92AF, size: 0x8, addend: 0x0, symName: __ZN41WithFamilyArgs_PathValidationTimeout_TestD1Ev, symObjAddr: 0x242A0, symBinAddr: 0x1000262A0, symSize: 0x10 }
  - { offsetInCU: 0x2A9326, offset: 0x2A9326, size: 0x8, addend: 0x0, symName: __ZN41WithFamilyArgs_PathValidationTimeout_TestD0Ev, symObjAddr: 0x242B0, symBinAddr: 0x1000262B0, symSize: 0x20 }
  - { offsetInCU: 0x2A939F, offset: 0x2A939F, size: 0x8, addend: 0x0, symName: __ZThn16_N41WithFamilyArgs_PathValidationTimeout_TestD1Ev, symObjAddr: 0x242D0, symBinAddr: 0x1000262D0, symSize: 0x10 }
  - { offsetInCU: 0x2A942A, offset: 0x2A942A, size: 0x8, addend: 0x0, symName: __ZThn16_N41WithFamilyArgs_PathValidationTimeout_TestD0Ev, symObjAddr: 0x242E0, symBinAddr: 0x1000262E0, symSize: 0x30 }
  - { offsetInCU: 0x2A94D9, offset: 0x2A94D9, size: 0x8, addend: 0x0, symName: __ZN38WithFamilyArgs_ChangeMaxStreamIDs_TestD1Ev, symObjAddr: 0x24310, symBinAddr: 0x100026310, symSize: 0x10 }
  - { offsetInCU: 0x2A9550, offset: 0x2A9550, size: 0x8, addend: 0x0, symName: __ZN38WithFamilyArgs_ChangeMaxStreamIDs_TestD0Ev, symObjAddr: 0x24320, symBinAddr: 0x100026320, symSize: 0x20 }
  - { offsetInCU: 0x2A95C9, offset: 0x2A95C9, size: 0x8, addend: 0x0, symName: __ZThn16_N38WithFamilyArgs_ChangeMaxStreamIDs_TestD1Ev, symObjAddr: 0x24340, symBinAddr: 0x100026340, symSize: 0x10 }
  - { offsetInCU: 0x2A9654, offset: 0x2A9654, size: 0x8, addend: 0x0, symName: __ZThn16_N38WithFamilyArgs_ChangeMaxStreamIDs_TestD0Ev, symObjAddr: 0x24350, symBinAddr: 0x100026350, symSize: 0x30 }
  - { offsetInCU: 0x2A9703, offset: 0x2A9703, size: 0x8, addend: 0x0, symName: __ZN32WithFamilyArgs_LoadBalanced_TestD1Ev, symObjAddr: 0x24380, symBinAddr: 0x100026380, symSize: 0x10 }
  - { offsetInCU: 0x2A977A, offset: 0x2A977A, size: 0x8, addend: 0x0, symName: __ZN32WithFamilyArgs_LoadBalanced_TestD0Ev, symObjAddr: 0x24390, symBinAddr: 0x100026390, symSize: 0x20 }
  - { offsetInCU: 0x2A97F3, offset: 0x2A97F3, size: 0x8, addend: 0x0, symName: __ZThn16_N32WithFamilyArgs_LoadBalanced_TestD1Ev, symObjAddr: 0x243B0, symBinAddr: 0x1000263B0, symSize: 0x10 }
  - { offsetInCU: 0x2A987E, offset: 0x2A987E, size: 0x8, addend: 0x0, symName: __ZThn16_N32WithFamilyArgs_LoadBalanced_TestD0Ev, symObjAddr: 0x243C0, symBinAddr: 0x1000263C0, symSize: 0x30 }
  - { offsetInCU: 0x2A9954, offset: 0x2A9954, size: 0x8, addend: 0x0, symName: __ZN54WithHandshakeArgs10_HandshakeSpecificLossPatterns_TestD1Ev, symObjAddr: 0x243F0, symBinAddr: 0x1000263F0, symSize: 0x10 }
  - { offsetInCU: 0x2A99CB, offset: 0x2A99CB, size: 0x8, addend: 0x0, symName: __ZN54WithHandshakeArgs10_HandshakeSpecificLossPatterns_TestD0Ev, symObjAddr: 0x24400, symBinAddr: 0x100026400, symSize: 0x20 }
  - { offsetInCU: 0x2A9A44, offset: 0x2A9A44, size: 0x8, addend: 0x0, symName: __ZThn16_N54WithHandshakeArgs10_HandshakeSpecificLossPatterns_TestD1Ev, symObjAddr: 0x24420, symBinAddr: 0x100026420, symSize: 0x10 }
  - { offsetInCU: 0x2A9ACF, offset: 0x2A9ACF, size: 0x8, addend: 0x0, symName: __ZThn16_N54WithHandshakeArgs10_HandshakeSpecificLossPatterns_TestD0Ev, symObjAddr: 0x24430, symBinAddr: 0x100026430, symSize: 0x30 }
  - { offsetInCU: 0x2A9BA5, offset: 0x2A9BA5, size: 0x8, addend: 0x0, symName: __ZN48WithHandshakeArgs11_ShutdownDuringHandshake_TestD1Ev, symObjAddr: 0x24460, symBinAddr: 0x100026460, symSize: 0x10 }
  - { offsetInCU: 0x2A9C1C, offset: 0x2A9C1C, size: 0x8, addend: 0x0, symName: __ZN48WithHandshakeArgs11_ShutdownDuringHandshake_TestD0Ev, symObjAddr: 0x24470, symBinAddr: 0x100026470, symSize: 0x20 }
  - { offsetInCU: 0x2A9C95, offset: 0x2A9C95, size: 0x8, addend: 0x0, symName: __ZThn16_N48WithHandshakeArgs11_ShutdownDuringHandshake_TestD1Ev, symObjAddr: 0x24490, symBinAddr: 0x100026490, symSize: 0x10 }
  - { offsetInCU: 0x2A9D20, offset: 0x2A9D20, size: 0x8, addend: 0x0, symName: __ZThn16_N48WithHandshakeArgs11_ShutdownDuringHandshake_TestD0Ev, symObjAddr: 0x244A0, symBinAddr: 0x1000264A0, symSize: 0x30 }
  - { offsetInCU: 0x2A9DF6, offset: 0x2A9DF6, size: 0x8, addend: 0x0, symName: __ZN23WithSendArgs1_Send_TestD1Ev, symObjAddr: 0x244D0, symBinAddr: 0x1000264D0, symSize: 0x10 }
  - { offsetInCU: 0x2A9E6D, offset: 0x2A9E6D, size: 0x8, addend: 0x0, symName: __ZN23WithSendArgs1_Send_TestD0Ev, symObjAddr: 0x244E0, symBinAddr: 0x1000264E0, symSize: 0x20 }
  - { offsetInCU: 0x2A9EE6, offset: 0x2A9EE6, size: 0x8, addend: 0x0, symName: __ZThn16_N23WithSendArgs1_Send_TestD1Ev, symObjAddr: 0x24500, symBinAddr: 0x100026500, symSize: 0x10 }
  - { offsetInCU: 0x2A9F71, offset: 0x2A9F71, size: 0x8, addend: 0x0, symName: __ZThn16_N23WithSendArgs1_Send_TestD0Ev, symObjAddr: 0x24510, symBinAddr: 0x100026510, symSize: 0x30 }
  - { offsetInCU: 0x2AA047, offset: 0x2AA047, size: 0x8, addend: 0x0, symName: __ZN28WithSendArgs2_SendLarge_TestD1Ev, symObjAddr: 0x24540, symBinAddr: 0x100026540, symSize: 0x10 }
  - { offsetInCU: 0x2AA0BE, offset: 0x2AA0BE, size: 0x8, addend: 0x0, symName: __ZN28WithSendArgs2_SendLarge_TestD0Ev, symObjAddr: 0x24550, symBinAddr: 0x100026550, symSize: 0x20 }
  - { offsetInCU: 0x2AA137, offset: 0x2AA137, size: 0x8, addend: 0x0, symName: __ZThn16_N28WithSendArgs2_SendLarge_TestD1Ev, symObjAddr: 0x24570, symBinAddr: 0x100026570, symSize: 0x10 }
  - { offsetInCU: 0x2AA1C2, offset: 0x2AA1C2, size: 0x8, addend: 0x0, symName: __ZThn16_N28WithSendArgs2_SendLarge_TestD0Ev, symObjAddr: 0x24580, symBinAddr: 0x100026580, symSize: 0x30 }
  - { offsetInCU: 0x2AA298, offset: 0x2AA298, size: 0x8, addend: 0x0, symName: __ZN37WithSendArgs3_SendIntermittently_TestD1Ev, symObjAddr: 0x245B0, symBinAddr: 0x1000265B0, symSize: 0x10 }
  - { offsetInCU: 0x2AA30F, offset: 0x2AA30F, size: 0x8, addend: 0x0, symName: __ZN37WithSendArgs3_SendIntermittently_TestD0Ev, symObjAddr: 0x245C0, symBinAddr: 0x1000265C0, symSize: 0x20 }
  - { offsetInCU: 0x2AA388, offset: 0x2AA388, size: 0x8, addend: 0x0, symName: __ZThn16_N37WithSendArgs3_SendIntermittently_TestD1Ev, symObjAddr: 0x245E0, symBinAddr: 0x1000265E0, symSize: 0x10 }
  - { offsetInCU: 0x2AA413, offset: 0x2AA413, size: 0x8, addend: 0x0, symName: __ZThn16_N37WithSendArgs3_SendIntermittently_TestD0Ev, symObjAddr: 0x245F0, symBinAddr: 0x1000265F0, symSize: 0x30 }
  - { offsetInCU: 0x2AA4E9, offset: 0x2AA4E9, size: 0x8, addend: 0x0, symName: __ZN31WithSend0RttArgs1_Send0Rtt_TestD1Ev, symObjAddr: 0x24620, symBinAddr: 0x100026620, symSize: 0x10 }
  - { offsetInCU: 0x2AA560, offset: 0x2AA560, size: 0x8, addend: 0x0, symName: __ZN31WithSend0RttArgs1_Send0Rtt_TestD0Ev, symObjAddr: 0x24630, symBinAddr: 0x100026630, symSize: 0x20 }
  - { offsetInCU: 0x2AA5D9, offset: 0x2AA5D9, size: 0x8, addend: 0x0, symName: __ZThn16_N31WithSend0RttArgs1_Send0Rtt_TestD1Ev, symObjAddr: 0x24650, symBinAddr: 0x100026650, symSize: 0x10 }
  - { offsetInCU: 0x2AA664, offset: 0x2AA664, size: 0x8, addend: 0x0, symName: __ZThn16_N31WithSend0RttArgs1_Send0Rtt_TestD0Ev, symObjAddr: 0x24660, symBinAddr: 0x100026660, symSize: 0x30 }
  - { offsetInCU: 0x2AA73A, offset: 0x2AA73A, size: 0x8, addend: 0x0, symName: __ZN33WithSend0RttArgs2_Reject0Rtt_TestD1Ev, symObjAddr: 0x24690, symBinAddr: 0x100026690, symSize: 0x10 }
  - { offsetInCU: 0x2AA7B1, offset: 0x2AA7B1, size: 0x8, addend: 0x0, symName: __ZN33WithSend0RttArgs2_Reject0Rtt_TestD0Ev, symObjAddr: 0x246A0, symBinAddr: 0x1000266A0, symSize: 0x20 }
  - { offsetInCU: 0x2AA82A, offset: 0x2AA82A, size: 0x8, addend: 0x0, symName: __ZThn16_N33WithSend0RttArgs2_Reject0Rtt_TestD1Ev, symObjAddr: 0x246C0, symBinAddr: 0x1000266C0, symSize: 0x10 }
  - { offsetInCU: 0x2AA8B5, offset: 0x2AA8B5, size: 0x8, addend: 0x0, symName: __ZThn16_N33WithSend0RttArgs2_Reject0Rtt_TestD0Ev, symObjAddr: 0x246D0, symBinAddr: 0x1000266D0, symSize: 0x30 }
  - { offsetInCU: 0x2AA964, offset: 0x2AA964, size: 0x8, addend: 0x0, symName: __ZN25WithBool_IdleTimeout_TestD1Ev, symObjAddr: 0x24700, symBinAddr: 0x100026700, symSize: 0x10 }
  - { offsetInCU: 0x2AA9DB, offset: 0x2AA9DB, size: 0x8, addend: 0x0, symName: __ZN25WithBool_IdleTimeout_TestD0Ev, symObjAddr: 0x24710, symBinAddr: 0x100026710, symSize: 0x20 }
  - { offsetInCU: 0x2AAA54, offset: 0x2AAA54, size: 0x8, addend: 0x0, symName: __ZThn16_N25WithBool_IdleTimeout_TestD1Ev, symObjAddr: 0x24730, symBinAddr: 0x100026730, symSize: 0x10 }
  - { offsetInCU: 0x2AAADF, offset: 0x2AAADF, size: 0x8, addend: 0x0, symName: __ZThn16_N25WithBool_IdleTimeout_TestD0Ev, symObjAddr: 0x24740, symBinAddr: 0x100026740, symSize: 0x30 }
  - { offsetInCU: 0x2AAB8B, offset: 0x2AAB8B, size: 0x8, addend: 0x0, symName: __ZN27Misc_IdleDestCidChange_TestD1Ev, symObjAddr: 0x24770, symBinAddr: 0x100026770, symSize: 0x10 }
  - { offsetInCU: 0x2AABE2, offset: 0x2AABE2, size: 0x8, addend: 0x0, symName: __ZN27Misc_IdleDestCidChange_TestD0Ev, symObjAddr: 0x24780, symBinAddr: 0x100026780, symSize: 0x20 }
  - { offsetInCU: 0x2AAC66, offset: 0x2AAC66, size: 0x8, addend: 0x0, symName: __ZN26Misc_ServerDisconnect_TestD1Ev, symObjAddr: 0x247A0, symBinAddr: 0x1000267A0, symSize: 0x10 }
  - { offsetInCU: 0x2AACBD, offset: 0x2AACBD, size: 0x8, addend: 0x0, symName: __ZN26Misc_ServerDisconnect_TestD0Ev, symObjAddr: 0x247B0, symBinAddr: 0x1000267B0, symSize: 0x20 }
  - { offsetInCU: 0x2AAD41, offset: 0x2AAD41, size: 0x8, addend: 0x0, symName: __ZN26Misc_ClientDisconnect_TestD1Ev, symObjAddr: 0x247D0, symBinAddr: 0x1000267D0, symSize: 0x10 }
  - { offsetInCU: 0x2AAD98, offset: 0x2AAD98, size: 0x8, addend: 0x0, symName: __ZN26Misc_ClientDisconnect_TestD0Ev, symObjAddr: 0x247E0, symBinAddr: 0x1000267E0, symSize: 0x20 }
  - { offsetInCU: 0x2AAE1C, offset: 0x2AAE1C, size: 0x8, addend: 0x0, symName: __ZN27Misc_StatelessResetKey_TestD1Ev, symObjAddr: 0x24800, symBinAddr: 0x100026800, symSize: 0x10 }
  - { offsetInCU: 0x2AAE73, offset: 0x2AAE73, size: 0x8, addend: 0x0, symName: __ZN27Misc_StatelessResetKey_TestD0Ev, symObjAddr: 0x24810, symBinAddr: 0x100026810, symSize: 0x20 }
  - { offsetInCU: 0x2AAF21, offset: 0x2AAF21, size: 0x8, addend: 0x0, symName: __ZN33WithKeyUpdateArgs1_KeyUpdate_TestD1Ev, symObjAddr: 0x24830, symBinAddr: 0x100026830, symSize: 0x10 }
  - { offsetInCU: 0x2AAF98, offset: 0x2AAF98, size: 0x8, addend: 0x0, symName: __ZN33WithKeyUpdateArgs1_KeyUpdate_TestD0Ev, symObjAddr: 0x24840, symBinAddr: 0x100026840, symSize: 0x20 }
  - { offsetInCU: 0x2AB011, offset: 0x2AB011, size: 0x8, addend: 0x0, symName: __ZThn16_N33WithKeyUpdateArgs1_KeyUpdate_TestD1Ev, symObjAddr: 0x24860, symBinAddr: 0x100026860, symSize: 0x10 }
  - { offsetInCU: 0x2AB09C, offset: 0x2AB09C, size: 0x8, addend: 0x0, symName: __ZThn16_N33WithKeyUpdateArgs1_KeyUpdate_TestD0Ev, symObjAddr: 0x24870, symBinAddr: 0x100026870, symSize: 0x30 }
  - { offsetInCU: 0x2AB172, offset: 0x2AB172, size: 0x8, addend: 0x0, symName: __ZN34WithKeyUpdateArgs2_RandomLoss_TestD1Ev, symObjAddr: 0x248A0, symBinAddr: 0x1000268A0, symSize: 0x10 }
  - { offsetInCU: 0x2AB1E9, offset: 0x2AB1E9, size: 0x8, addend: 0x0, symName: __ZN34WithKeyUpdateArgs2_RandomLoss_TestD0Ev, symObjAddr: 0x248B0, symBinAddr: 0x1000268B0, symSize: 0x20 }
  - { offsetInCU: 0x2AB262, offset: 0x2AB262, size: 0x8, addend: 0x0, symName: __ZThn16_N34WithKeyUpdateArgs2_RandomLoss_TestD1Ev, symObjAddr: 0x248D0, symBinAddr: 0x1000268D0, symSize: 0x10 }
  - { offsetInCU: 0x2AB2ED, offset: 0x2AB2ED, size: 0x8, addend: 0x0, symName: __ZThn16_N34WithKeyUpdateArgs2_RandomLoss_TestD0Ev, symObjAddr: 0x248E0, symBinAddr: 0x1000268E0, symSize: 0x30 }
  - { offsetInCU: 0x2AB3C3, offset: 0x2AB3C3, size: 0x8, addend: 0x0, symName: __ZN38WithAbortiveArgs_AbortiveShutdown_TestD1Ev, symObjAddr: 0x24910, symBinAddr: 0x100026910, symSize: 0x10 }
  - { offsetInCU: 0x2AB43A, offset: 0x2AB43A, size: 0x8, addend: 0x0, symName: __ZN38WithAbortiveArgs_AbortiveShutdown_TestD0Ev, symObjAddr: 0x24920, symBinAddr: 0x100026920, symSize: 0x20 }
  - { offsetInCU: 0x2AB4B3, offset: 0x2AB4B3, size: 0x8, addend: 0x0, symName: __ZThn16_N38WithAbortiveArgs_AbortiveShutdown_TestD1Ev, symObjAddr: 0x24940, symBinAddr: 0x100026940, symSize: 0x10 }
  - { offsetInCU: 0x2AB53E, offset: 0x2AB53E, size: 0x8, addend: 0x0, symName: __ZThn16_N38WithAbortiveArgs_AbortiveShutdown_TestD0Ev, symObjAddr: 0x24950, symBinAddr: 0x100026950, symSize: 0x30 }
  - { offsetInCU: 0x2AB614, offset: 0x2AB614, size: 0x8, addend: 0x0, symName: __ZN42WithCancelOnLossArgs_CancelOnLossSend_TestD1Ev, symObjAddr: 0x24980, symBinAddr: 0x100026980, symSize: 0x10 }
  - { offsetInCU: 0x2AB68B, offset: 0x2AB68B, size: 0x8, addend: 0x0, symName: __ZN42WithCancelOnLossArgs_CancelOnLossSend_TestD0Ev, symObjAddr: 0x24990, symBinAddr: 0x100026990, symSize: 0x20 }
  - { offsetInCU: 0x2AB704, offset: 0x2AB704, size: 0x8, addend: 0x0, symName: __ZThn16_N42WithCancelOnLossArgs_CancelOnLossSend_TestD1Ev, symObjAddr: 0x249B0, symBinAddr: 0x1000269B0, symSize: 0x10 }
  - { offsetInCU: 0x2AB78F, offset: 0x2AB78F, size: 0x8, addend: 0x0, symName: __ZThn16_N42WithCancelOnLossArgs_CancelOnLossSend_TestD0Ev, symObjAddr: 0x249C0, symBinAddr: 0x1000269C0, symSize: 0x30 }
  - { offsetInCU: 0x2AB865, offset: 0x2AB865, size: 0x8, addend: 0x0, symName: __ZN32WithCidUpdateArgs_CidUpdate_TestD1Ev, symObjAddr: 0x249F0, symBinAddr: 0x1000269F0, symSize: 0x10 }
  - { offsetInCU: 0x2AB8DC, offset: 0x2AB8DC, size: 0x8, addend: 0x0, symName: __ZN32WithCidUpdateArgs_CidUpdate_TestD0Ev, symObjAddr: 0x24A00, symBinAddr: 0x100026A00, symSize: 0x20 }
  - { offsetInCU: 0x2AB955, offset: 0x2AB955, size: 0x8, addend: 0x0, symName: __ZThn16_N32WithCidUpdateArgs_CidUpdate_TestD1Ev, symObjAddr: 0x24A20, symBinAddr: 0x100026A20, symSize: 0x10 }
  - { offsetInCU: 0x2AB9E0, offset: 0x2AB9E0, size: 0x8, addend: 0x0, symName: __ZThn16_N32WithCidUpdateArgs_CidUpdate_TestD0Ev, symObjAddr: 0x24A30, symBinAddr: 0x100026A30, symSize: 0x30 }
  - { offsetInCU: 0x2ABAB6, offset: 0x2ABAB6, size: 0x8, addend: 0x0, symName: __ZN40WithReceiveResumeArgs_ReceiveResume_TestD1Ev, symObjAddr: 0x24A60, symBinAddr: 0x100026A60, symSize: 0x10 }
  - { offsetInCU: 0x2ABB2D, offset: 0x2ABB2D, size: 0x8, addend: 0x0, symName: __ZN40WithReceiveResumeArgs_ReceiveResume_TestD0Ev, symObjAddr: 0x24A70, symBinAddr: 0x100026A70, symSize: 0x20 }
  - { offsetInCU: 0x2ABBA6, offset: 0x2ABBA6, size: 0x8, addend: 0x0, symName: __ZThn16_N40WithReceiveResumeArgs_ReceiveResume_TestD1Ev, symObjAddr: 0x24A90, symBinAddr: 0x100026A90, symSize: 0x10 }
  - { offsetInCU: 0x2ABC31, offset: 0x2ABC31, size: 0x8, addend: 0x0, symName: __ZThn16_N40WithReceiveResumeArgs_ReceiveResume_TestD0Ev, symObjAddr: 0x24AA0, symBinAddr: 0x100026AA0, symSize: 0x30 }
  - { offsetInCU: 0x2ABD07, offset: 0x2ABD07, size: 0x8, addend: 0x0, symName: __ZN52WithReceiveResumeNoDataArgs_ReceiveResumeNoData_TestD1Ev, symObjAddr: 0x24AD0, symBinAddr: 0x100026AD0, symSize: 0x10 }
  - { offsetInCU: 0x2ABD7E, offset: 0x2ABD7E, size: 0x8, addend: 0x0, symName: __ZN52WithReceiveResumeNoDataArgs_ReceiveResumeNoData_TestD0Ev, symObjAddr: 0x24AE0, symBinAddr: 0x100026AE0, symSize: 0x20 }
  - { offsetInCU: 0x2ABDF7, offset: 0x2ABDF7, size: 0x8, addend: 0x0, symName: __ZThn16_N52WithReceiveResumeNoDataArgs_ReceiveResumeNoData_TestD1Ev, symObjAddr: 0x24B00, symBinAddr: 0x100026B00, symSize: 0x10 }
  - { offsetInCU: 0x2ABE82, offset: 0x2ABE82, size: 0x8, addend: 0x0, symName: __ZThn16_N52WithReceiveResumeNoDataArgs_ReceiveResumeNoData_TestD0Ev, symObjAddr: 0x24B10, symBinAddr: 0x100026B10, symSize: 0x30 }
  - { offsetInCU: 0x2ABF31, offset: 0x2ABF31, size: 0x8, addend: 0x0, symName: __ZN32WithFamilyArgs_AckSendDelay_TestD1Ev, symObjAddr: 0x24B40, symBinAddr: 0x100026B40, symSize: 0x10 }
  - { offsetInCU: 0x2ABFA8, offset: 0x2ABFA8, size: 0x8, addend: 0x0, symName: __ZN32WithFamilyArgs_AckSendDelay_TestD0Ev, symObjAddr: 0x24B50, symBinAddr: 0x100026B50, symSize: 0x20 }
  - { offsetInCU: 0x2AC021, offset: 0x2AC021, size: 0x8, addend: 0x0, symName: __ZThn16_N32WithFamilyArgs_AckSendDelay_TestD1Ev, symObjAddr: 0x24B70, symBinAddr: 0x100026B70, symSize: 0x10 }
  - { offsetInCU: 0x2AC0AC, offset: 0x2AC0AC, size: 0x8, addend: 0x0, symName: __ZThn16_N32WithFamilyArgs_AckSendDelay_TestD0Ev, symObjAddr: 0x24B80, symBinAddr: 0x100026B80, symSize: 0x30 }
  - { offsetInCU: 0x2AC158, offset: 0x2AC158, size: 0x8, addend: 0x0, symName: __ZN28Misc_AbortPausedReceive_TestD1Ev, symObjAddr: 0x24BB0, symBinAddr: 0x100026BB0, symSize: 0x10 }
  - { offsetInCU: 0x2AC1AF, offset: 0x2AC1AF, size: 0x8, addend: 0x0, symName: __ZN28Misc_AbortPausedReceive_TestD0Ev, symObjAddr: 0x24BC0, symBinAddr: 0x100026BC0, symSize: 0x20 }
  - { offsetInCU: 0x2AC233, offset: 0x2AC233, size: 0x8, addend: 0x0, symName: __ZN29Misc_AbortPendingReceive_TestD1Ev, symObjAddr: 0x24BE0, symBinAddr: 0x100026BE0, symSize: 0x10 }
  - { offsetInCU: 0x2AC28A, offset: 0x2AC28A, size: 0x8, addend: 0x0, symName: __ZN29Misc_AbortPendingReceive_TestD0Ev, symObjAddr: 0x24BF0, symBinAddr: 0x100026BF0, symSize: 0x20 }
  - { offsetInCU: 0x2AC30E, offset: 0x2AC30E, size: 0x8, addend: 0x0, symName: __ZN32Misc_AbortIncompleteReceive_TestD1Ev, symObjAddr: 0x24C10, symBinAddr: 0x100026C10, symSize: 0x10 }
  - { offsetInCU: 0x2AC365, offset: 0x2AC365, size: 0x8, addend: 0x0, symName: __ZN32Misc_AbortIncompleteReceive_TestD0Ev, symObjAddr: 0x24C20, symBinAddr: 0x100026C20, symSize: 0x20 }
  - { offsetInCU: 0x2AC3E9, offset: 0x2AC3E9, size: 0x8, addend: 0x0, symName: __ZN21Misc_SlowReceive_TestD1Ev, symObjAddr: 0x24C40, symBinAddr: 0x100026C40, symSize: 0x10 }
  - { offsetInCU: 0x2AC440, offset: 0x2AC440, size: 0x8, addend: 0x0, symName: __ZN21Misc_SlowReceive_TestD0Ev, symObjAddr: 0x24C50, symBinAddr: 0x100026C50, symSize: 0x20 }
  - { offsetInCU: 0x2AC4C4, offset: 0x2AC4C4, size: 0x8, addend: 0x0, symName: __ZN23Misc_NthPacketDrop_TestD1Ev, symObjAddr: 0x24C70, symBinAddr: 0x100026C70, symSize: 0x10 }
  - { offsetInCU: 0x2AC51B, offset: 0x2AC51B, size: 0x8, addend: 0x0, symName: __ZN23Misc_NthPacketDrop_TestD0Ev, symObjAddr: 0x24C80, symBinAddr: 0x100026C80, symSize: 0x20 }
  - { offsetInCU: 0x2AC59F, offset: 0x2AC59F, size: 0x8, addend: 0x0, symName: __ZN24Misc_StreamPriority_TestD1Ev, symObjAddr: 0x24CA0, symBinAddr: 0x100026CA0, symSize: 0x10 }
  - { offsetInCU: 0x2AC5F6, offset: 0x2AC5F6, size: 0x8, addend: 0x0, symName: __ZN24Misc_StreamPriority_TestD0Ev, symObjAddr: 0x24CB0, symBinAddr: 0x100026CB0, symSize: 0x20 }
  - { offsetInCU: 0x2AC67A, offset: 0x2AC67A, size: 0x8, addend: 0x0, symName: __ZN36Misc_StreamPriorityInfiniteLoop_TestD1Ev, symObjAddr: 0x24CD0, symBinAddr: 0x100026CD0, symSize: 0x10 }
  - { offsetInCU: 0x2AC6D1, offset: 0x2AC6D1, size: 0x8, addend: 0x0, symName: __ZN36Misc_StreamPriorityInfiniteLoop_TestD0Ev, symObjAddr: 0x24CE0, symBinAddr: 0x100026CE0, symSize: 0x20 }
  - { offsetInCU: 0x2AC755, offset: 0x2AC755, size: 0x8, addend: 0x0, symName: __ZN36Misc_StreamDifferentAbortErrors_TestD1Ev, symObjAddr: 0x24D00, symBinAddr: 0x100026D00, symSize: 0x10 }
  - { offsetInCU: 0x2AC7AC, offset: 0x2AC7AC, size: 0x8, addend: 0x0, symName: __ZN36Misc_StreamDifferentAbortErrors_TestD0Ev, symObjAddr: 0x24D10, symBinAddr: 0x100026D10, symSize: 0x20 }
  - { offsetInCU: 0x2AC830, offset: 0x2AC830, size: 0x8, addend: 0x0, symName: __ZN32Misc_StreamAbortRecvFinRace_TestD1Ev, symObjAddr: 0x24D30, symBinAddr: 0x100026D30, symSize: 0x10 }
  - { offsetInCU: 0x2AC887, offset: 0x2AC887, size: 0x8, addend: 0x0, symName: __ZN32Misc_StreamAbortRecvFinRace_TestD0Ev, symObjAddr: 0x24D40, symBinAddr: 0x100026D40, symSize: 0x20 }
  - { offsetInCU: 0x2AC90B, offset: 0x2AC90B, size: 0x8, addend: 0x0, symName: __ZN47Misc_StreamBlockUnblockBidiConnFlowControl_TestD1Ev, symObjAddr: 0x24D60, symBinAddr: 0x100026D60, symSize: 0x10 }
  - { offsetInCU: 0x2AC962, offset: 0x2AC962, size: 0x8, addend: 0x0, symName: __ZN47Misc_StreamBlockUnblockBidiConnFlowControl_TestD0Ev, symObjAddr: 0x24D70, symBinAddr: 0x100026D70, symSize: 0x20 }
  - { offsetInCU: 0x2AC9E6, offset: 0x2AC9E6, size: 0x8, addend: 0x0, symName: __ZN29Misc_StreamReliableReset_TestD1Ev, symObjAddr: 0x24D90, symBinAddr: 0x100026D90, symSize: 0x10 }
  - { offsetInCU: 0x2ACA3D, offset: 0x2ACA3D, size: 0x8, addend: 0x0, symName: __ZN29Misc_StreamReliableReset_TestD0Ev, symObjAddr: 0x24DA0, symBinAddr: 0x100026DA0, symSize: 0x20 }
  - { offsetInCU: 0x2ACAC1, offset: 0x2ACAC1, size: 0x8, addend: 0x0, symName: __ZN42Misc_StreamReliableResetMultipleSends_TestD1Ev, symObjAddr: 0x24DC0, symBinAddr: 0x100026DC0, symSize: 0x10 }
  - { offsetInCU: 0x2ACB18, offset: 0x2ACB18, size: 0x8, addend: 0x0, symName: __ZN42Misc_StreamReliableResetMultipleSends_TestD0Ev, symObjAddr: 0x24DD0, symBinAddr: 0x100026DD0, symSize: 0x20 }
  - { offsetInCU: 0x2ACB9C, offset: 0x2ACB9C, size: 0x8, addend: 0x0, symName: __ZN48Misc_StreamBlockUnblockUnidiConnFlowControl_TestD1Ev, symObjAddr: 0x24DF0, symBinAddr: 0x100026DF0, symSize: 0x10 }
  - { offsetInCU: 0x2ACBF3, offset: 0x2ACBF3, size: 0x8, addend: 0x0, symName: __ZN48Misc_StreamBlockUnblockUnidiConnFlowControl_TestD0Ev, symObjAddr: 0x24E00, symBinAddr: 0x100026E00, symSize: 0x20 }
  - { offsetInCU: 0x2ACC77, offset: 0x2ACC77, size: 0x8, addend: 0x0, symName: __ZN36Misc_StreamAbortConnFlowControl_TestD1Ev, symObjAddr: 0x24E20, symBinAddr: 0x100026E20, symSize: 0x10 }
  - { offsetInCU: 0x2ACCCE, offset: 0x2ACCCE, size: 0x8, addend: 0x0, symName: __ZN36Misc_StreamAbortConnFlowControl_TestD0Ev, symObjAddr: 0x24E30, symBinAddr: 0x100026E30, symSize: 0x20 }
  - { offsetInCU: 0x2ACD52, offset: 0x2ACD52, size: 0x8, addend: 0x0, symName: __ZN24Drill_VarIntEncoder_TestD1Ev, symObjAddr: 0x24E50, symBinAddr: 0x100026E50, symSize: 0x10 }
  - { offsetInCU: 0x2ACDA9, offset: 0x2ACDA9, size: 0x8, addend: 0x0, symName: __ZN24Drill_VarIntEncoder_TestD0Ev, symObjAddr: 0x24E60, symBinAddr: 0x100026E60, symSize: 0x20 }
  - { offsetInCU: 0x2ACE7E, offset: 0x2ACE7E, size: 0x8, addend: 0x0, symName: __ZN57WithDrillInitialPacketCidArgs_DrillInitialPacketCids_TestD1Ev, symObjAddr: 0x24E80, symBinAddr: 0x100026E80, symSize: 0x10 }
  - { offsetInCU: 0x2ACF12, offset: 0x2ACF12, size: 0x8, addend: 0x0, symName: __ZN57WithDrillInitialPacketCidArgs_DrillInitialPacketCids_TestD0Ev, symObjAddr: 0x24E90, symBinAddr: 0x100026E90, symSize: 0x20 }
  - { offsetInCU: 0x2ACFA8, offset: 0x2ACFA8, size: 0x8, addend: 0x0, symName: __ZThn16_N57WithDrillInitialPacketCidArgs_DrillInitialPacketCids_TestD1Ev, symObjAddr: 0x24EB0, symBinAddr: 0x100026EB0, symSize: 0x10 }
  - { offsetInCU: 0x2AD050, offset: 0x2AD050, size: 0x8, addend: 0x0, symName: __ZThn16_N57WithDrillInitialPacketCidArgs_DrillInitialPacketCids_TestD0Ev, symObjAddr: 0x24EC0, symBinAddr: 0x100026EC0, symSize: 0x30 }
  - { offsetInCU: 0x2AD143, offset: 0x2AD143, size: 0x8, addend: 0x0, symName: __ZN60WithDrillInitialPacketTokenArgs_DrillInitialPacketToken_TestD1Ev, symObjAddr: 0x24EF0, symBinAddr: 0x100026EF0, symSize: 0x10 }
  - { offsetInCU: 0x2AD1BA, offset: 0x2AD1BA, size: 0x8, addend: 0x0, symName: __ZN60WithDrillInitialPacketTokenArgs_DrillInitialPacketToken_TestD0Ev, symObjAddr: 0x24F00, symBinAddr: 0x100026F00, symSize: 0x20 }
  - { offsetInCU: 0x2AD233, offset: 0x2AD233, size: 0x8, addend: 0x0, symName: __ZThn16_N60WithDrillInitialPacketTokenArgs_DrillInitialPacketToken_TestD1Ev, symObjAddr: 0x24F20, symBinAddr: 0x100026F20, symSize: 0x10 }
  - { offsetInCU: 0x2AD2BE, offset: 0x2AD2BE, size: 0x8, addend: 0x0, symName: __ZThn16_N60WithDrillInitialPacketTokenArgs_DrillInitialPacketToken_TestD0Ev, symObjAddr: 0x24F30, symBinAddr: 0x100026F30, symSize: 0x30 }
  - { offsetInCU: 0x2AD36D, offset: 0x2AD36D, size: 0x8, addend: 0x0, symName: __ZN64WithDrillInitialPacketTokenArgs_QuicDrillTestServerVNPacket_TestD1Ev, symObjAddr: 0x24F60, symBinAddr: 0x100026F60, symSize: 0x10 }
  - { offsetInCU: 0x2AD3E4, offset: 0x2AD3E4, size: 0x8, addend: 0x0, symName: __ZN64WithDrillInitialPacketTokenArgs_QuicDrillTestServerVNPacket_TestD0Ev, symObjAddr: 0x24F70, symBinAddr: 0x100026F70, symSize: 0x20 }
  - { offsetInCU: 0x2AD45D, offset: 0x2AD45D, size: 0x8, addend: 0x0, symName: __ZThn16_N64WithDrillInitialPacketTokenArgs_QuicDrillTestServerVNPacket_TestD1Ev, symObjAddr: 0x24F90, symBinAddr: 0x100026F90, symSize: 0x10 }
  - { offsetInCU: 0x2AD4E8, offset: 0x2AD4E8, size: 0x8, addend: 0x0, symName: __ZThn16_N64WithDrillInitialPacketTokenArgs_QuicDrillTestServerVNPacket_TestD0Ev, symObjAddr: 0x24FA0, symBinAddr: 0x100026FA0, symSize: 0x30 }
  - { offsetInCU: 0x2AD5BE, offset: 0x2AD5BE, size: 0x8, addend: 0x0, symName: __ZN52WithDatagramNegotiationArgs_DatagramNegotiation_TestD1Ev, symObjAddr: 0x24FD0, symBinAddr: 0x100026FD0, symSize: 0x10 }
  - { offsetInCU: 0x2AD635, offset: 0x2AD635, size: 0x8, addend: 0x0, symName: __ZN52WithDatagramNegotiationArgs_DatagramNegotiation_TestD0Ev, symObjAddr: 0x24FE0, symBinAddr: 0x100026FE0, symSize: 0x20 }
  - { offsetInCU: 0x2AD6AE, offset: 0x2AD6AE, size: 0x8, addend: 0x0, symName: __ZThn16_N52WithDatagramNegotiationArgs_DatagramNegotiation_TestD1Ev, symObjAddr: 0x25000, symBinAddr: 0x100027000, symSize: 0x10 }
  - { offsetInCU: 0x2AD739, offset: 0x2AD739, size: 0x8, addend: 0x0, symName: __ZThn16_N52WithDatagramNegotiationArgs_DatagramNegotiation_TestD0Ev, symObjAddr: 0x25010, symBinAddr: 0x100027010, symSize: 0x30 }
  - { offsetInCU: 0x2AD7E8, offset: 0x2AD7E8, size: 0x8, addend: 0x0, symName: __ZN32WithFamilyArgs_DatagramSend_TestD1Ev, symObjAddr: 0x25040, symBinAddr: 0x100027040, symSize: 0x10 }
  - { offsetInCU: 0x2AD85F, offset: 0x2AD85F, size: 0x8, addend: 0x0, symName: __ZN32WithFamilyArgs_DatagramSend_TestD0Ev, symObjAddr: 0x25050, symBinAddr: 0x100027050, symSize: 0x20 }
  - { offsetInCU: 0x2AD8D8, offset: 0x2AD8D8, size: 0x8, addend: 0x0, symName: __ZThn16_N32WithFamilyArgs_DatagramSend_TestD1Ev, symObjAddr: 0x25070, symBinAddr: 0x100027070, symSize: 0x10 }
  - { offsetInCU: 0x2AD963, offset: 0x2AD963, size: 0x8, addend: 0x0, symName: __ZThn16_N32WithFamilyArgs_DatagramSend_TestD0Ev, symObjAddr: 0x25080, symBinAddr: 0x100027080, symSize: 0x30 }
  - { offsetInCU: 0x2AD9F5, offset: 0x2AD9F5, size: 0x8, addend: 0x0, symName: __ZN7testing8internal15TestFactoryImplI36ParameterValidation_ValidateApi_TestED1Ev, symObjAddr: 0x250C0, symBinAddr: 0x1000270C0, symSize: 0x10 }
  - { offsetInCU: 0x2ADA21, offset: 0x2ADA21, size: 0x8, addend: 0x0, symName: __ZN7testing8internal15TestFactoryImplI36ParameterValidation_ValidateApi_TestED0Ev, symObjAddr: 0x250D0, symBinAddr: 0x1000270D0, symSize: 0x10 }
  - { offsetInCU: 0x2ADA81, offset: 0x2ADA81, size: 0x8, addend: 0x0, symName: __ZN7testing8internal15TestFactoryImplI36ParameterValidation_ValidateApi_TestE10CreateTestEv, symObjAddr: 0x250E0, symBinAddr: 0x1000270E0, symSize: 0x50 }
  - { offsetInCU: 0x2ADAE6, offset: 0x2ADAE6, size: 0x8, addend: 0x0, symName: __ZN7testing8internal15TestFactoryImplI45ParameterValidation_ValidateRegistration_TestED1Ev, symObjAddr: 0x25130, symBinAddr: 0x100027130, symSize: 0x10 }
  - { offsetInCU: 0x2ADB12, offset: 0x2ADB12, size: 0x8, addend: 0x0, symName: __ZN7testing8internal15TestFactoryImplI45ParameterValidation_ValidateRegistration_TestED0Ev, symObjAddr: 0x25140, symBinAddr: 0x100027140, symSize: 0x10 }
  - { offsetInCU: 0x2ADB72, offset: 0x2ADB72, size: 0x8, addend: 0x0, symName: __ZN7testing8internal15TestFactoryImplI45ParameterValidation_ValidateRegistration_TestE10CreateTestEv, symObjAddr: 0x25150, symBinAddr: 0x100027150, symSize: 0x50 }
  - { offsetInCU: 0x2ADBD7, offset: 0x2ADBD7, size: 0x8, addend: 0x0, symName: __ZN7testing8internal15TestFactoryImplI44ParameterValidation_ValidateGlobalParam_TestED1Ev, symObjAddr: 0x251A0, symBinAddr: 0x1000271A0, symSize: 0x10 }
  - { offsetInCU: 0x2ADC03, offset: 0x2ADC03, size: 0x8, addend: 0x0, symName: __ZN7testing8internal15TestFactoryImplI44ParameterValidation_ValidateGlobalParam_TestED0Ev, symObjAddr: 0x251B0, symBinAddr: 0x1000271B0, symSize: 0x10 }
  - { offsetInCU: 0x2ADC63, offset: 0x2ADC63, size: 0x8, addend: 0x0, symName: __ZN7testing8internal15TestFactoryImplI44ParameterValidation_ValidateGlobalParam_TestE10CreateTestEv, symObjAddr: 0x251C0, symBinAddr: 0x1000271C0, symSize: 0x50 }
  - { offsetInCU: 0x2ADCC8, offset: 0x2ADCC8, size: 0x8, addend: 0x0, symName: __ZN7testing8internal15TestFactoryImplI44ParameterValidation_ValidateCommonParam_TestED1Ev, symObjAddr: 0x25210, symBinAddr: 0x100027210, symSize: 0x10 }
  - { offsetInCU: 0x2ADCF4, offset: 0x2ADCF4, size: 0x8, addend: 0x0, symName: __ZN7testing8internal15TestFactoryImplI44ParameterValidation_ValidateCommonParam_TestED0Ev, symObjAddr: 0x25220, symBinAddr: 0x100027220, symSize: 0x10 }
  - { offsetInCU: 0x2ADD54, offset: 0x2ADD54, size: 0x8, addend: 0x0, symName: __ZN7testing8internal15TestFactoryImplI44ParameterValidation_ValidateCommonParam_TestE10CreateTestEv, symObjAddr: 0x25230, symBinAddr: 0x100027230, symSize: 0x50 }
  - { offsetInCU: 0x2ADDB9, offset: 0x2ADDB9, size: 0x8, addend: 0x0, symName: __ZN7testing8internal15TestFactoryImplI50ParameterValidation_ValidateRegistrationParam_TestED1Ev, symObjAddr: 0x25280, symBinAddr: 0x100027280, symSize: 0x10 }
  - { offsetInCU: 0x2ADDE5, offset: 0x2ADDE5, size: 0x8, addend: 0x0, symName: __ZN7testing8internal15TestFactoryImplI50ParameterValidation_ValidateRegistrationParam_TestED0Ev, symObjAddr: 0x25290, symBinAddr: 0x100027290, symSize: 0x10 }
  - { offsetInCU: 0x2ADE45, offset: 0x2ADE45, size: 0x8, addend: 0x0, symName: __ZN7testing8internal15TestFactoryImplI50ParameterValidation_ValidateRegistrationParam_TestE10CreateTestEv, symObjAddr: 0x252A0, symBinAddr: 0x1000272A0, symSize: 0x50 }
  - { offsetInCU: 0x2ADEAA, offset: 0x2ADEAA, size: 0x8, addend: 0x0, symName: __ZN7testing8internal15TestFactoryImplI51ParameterValidation_ValidateConfigurationParam_TestED1Ev, symObjAddr: 0x252F0, symBinAddr: 0x1000272F0, symSize: 0x10 }
  - { offsetInCU: 0x2ADED6, offset: 0x2ADED6, size: 0x8, addend: 0x0, symName: __ZN7testing8internal15TestFactoryImplI51ParameterValidation_ValidateConfigurationParam_TestED0Ev, symObjAddr: 0x25300, symBinAddr: 0x100027300, symSize: 0x10 }
  - { offsetInCU: 0x2ADF36, offset: 0x2ADF36, size: 0x8, addend: 0x0, symName: __ZN7testing8internal15TestFactoryImplI51ParameterValidation_ValidateConfigurationParam_TestE10CreateTestEv, symObjAddr: 0x25310, symBinAddr: 0x100027310, symSize: 0x50 }
  - { offsetInCU: 0x2ADF9B, offset: 0x2ADF9B, size: 0x8, addend: 0x0, symName: __ZN7testing8internal15TestFactoryImplI46ParameterValidation_ValidateListenerParam_TestED1Ev, symObjAddr: 0x25360, symBinAddr: 0x100027360, symSize: 0x10 }
  - { offsetInCU: 0x2ADFC7, offset: 0x2ADFC7, size: 0x8, addend: 0x0, symName: __ZN7testing8internal15TestFactoryImplI46ParameterValidation_ValidateListenerParam_TestED0Ev, symObjAddr: 0x25370, symBinAddr: 0x100027370, symSize: 0x10 }
  - { offsetInCU: 0x2AE027, offset: 0x2AE027, size: 0x8, addend: 0x0, symName: __ZN7testing8internal15TestFactoryImplI46ParameterValidation_ValidateListenerParam_TestE10CreateTestEv, symObjAddr: 0x25380, symBinAddr: 0x100027380, symSize: 0x50 }
  - { offsetInCU: 0x2AE08D, offset: 0x2AE08D, size: 0x8, addend: 0x0, symName: __ZN7testing8internal15TestFactoryImplI48ParameterValidation_ValidateConnectionParam_TestED1Ev, symObjAddr: 0x253D0, symBinAddr: 0x1000273D0, symSize: 0x10 }
  - { offsetInCU: 0x2AE0B9, offset: 0x2AE0B9, size: 0x8, addend: 0x0, symName: __ZN7testing8internal15TestFactoryImplI48ParameterValidation_ValidateConnectionParam_TestED0Ev, symObjAddr: 0x253E0, symBinAddr: 0x1000273E0, symSize: 0x10 }
  - { offsetInCU: 0x2AE119, offset: 0x2AE119, size: 0x8, addend: 0x0, symName: __ZN7testing8internal15TestFactoryImplI48ParameterValidation_ValidateConnectionParam_TestE10CreateTestEv, symObjAddr: 0x253F0, symBinAddr: 0x1000273F0, symSize: 0x50 }
  - { offsetInCU: 0x2AE17F, offset: 0x2AE17F, size: 0x8, addend: 0x0, symName: __ZN7testing8internal15TestFactoryImplI41ParameterValidation_ValidateTlsParam_TestED1Ev, symObjAddr: 0x25440, symBinAddr: 0x100027440, symSize: 0x10 }
  - { offsetInCU: 0x2AE1AB, offset: 0x2AE1AB, size: 0x8, addend: 0x0, symName: __ZN7testing8internal15TestFactoryImplI41ParameterValidation_ValidateTlsParam_TestED0Ev, symObjAddr: 0x25450, symBinAddr: 0x100027450, symSize: 0x10 }
  - { offsetInCU: 0x2AE20B, offset: 0x2AE20B, size: 0x8, addend: 0x0, symName: __ZN7testing8internal15TestFactoryImplI41ParameterValidation_ValidateTlsParam_TestE10CreateTestEv, symObjAddr: 0x25460, symBinAddr: 0x100027460, symSize: 0x50 }
  - { offsetInCU: 0x2AE271, offset: 0x2AE271, size: 0x8, addend: 0x0, symName: __ZN7testing8internal15TestFactoryImplI44ParameterValidation_ValidateStreamParam_TestED1Ev, symObjAddr: 0x254B0, symBinAddr: 0x1000274B0, symSize: 0x10 }
  - { offsetInCU: 0x2AE29D, offset: 0x2AE29D, size: 0x8, addend: 0x0, symName: __ZN7testing8internal15TestFactoryImplI44ParameterValidation_ValidateStreamParam_TestED0Ev, symObjAddr: 0x254C0, symBinAddr: 0x1000274C0, symSize: 0x10 }
  - { offsetInCU: 0x2AE2FD, offset: 0x2AE2FD, size: 0x8, addend: 0x0, symName: __ZN7testing8internal15TestFactoryImplI44ParameterValidation_ValidateStreamParam_TestE10CreateTestEv, symObjAddr: 0x254D0, symBinAddr: 0x1000274D0, symSize: 0x50 }
  - { offsetInCU: 0x2AE363, offset: 0x2AE363, size: 0x8, addend: 0x0, symName: __ZN7testing8internal15TestFactoryImplI48ParameterValidation_ValidateGetPerfCounters_TestED1Ev, symObjAddr: 0x25520, symBinAddr: 0x100027520, symSize: 0x10 }
  - { offsetInCU: 0x2AE38F, offset: 0x2AE38F, size: 0x8, addend: 0x0, symName: __ZN7testing8internal15TestFactoryImplI48ParameterValidation_ValidateGetPerfCounters_TestED0Ev, symObjAddr: 0x25530, symBinAddr: 0x100027530, symSize: 0x10 }
  - { offsetInCU: 0x2AE3EF, offset: 0x2AE3EF, size: 0x8, addend: 0x0, symName: __ZN7testing8internal15TestFactoryImplI48ParameterValidation_ValidateGetPerfCounters_TestE10CreateTestEv, symObjAddr: 0x25540, symBinAddr: 0x100027540, symSize: 0x50 }
  - { offsetInCU: 0x2AE455, offset: 0x2AE455, size: 0x8, addend: 0x0, symName: __ZN7testing8internal15TestFactoryImplI46ParameterValidation_ValidateConfiguration_TestED1Ev, symObjAddr: 0x25590, symBinAddr: 0x100027590, symSize: 0x10 }
  - { offsetInCU: 0x2AE481, offset: 0x2AE481, size: 0x8, addend: 0x0, symName: __ZN7testing8internal15TestFactoryImplI46ParameterValidation_ValidateConfiguration_TestED0Ev, symObjAddr: 0x255A0, symBinAddr: 0x1000275A0, symSize: 0x10 }
  - { offsetInCU: 0x2AE4E1, offset: 0x2AE4E1, size: 0x8, addend: 0x0, symName: __ZN7testing8internal15TestFactoryImplI46ParameterValidation_ValidateConfiguration_TestE10CreateTestEv, symObjAddr: 0x255B0, symBinAddr: 0x1000275B0, symSize: 0x50 }
  - { offsetInCU: 0x2AE547, offset: 0x2AE547, size: 0x8, addend: 0x0, symName: __ZN7testing8internal15TestFactoryImplI41ParameterValidation_ValidateListener_TestED1Ev, symObjAddr: 0x25600, symBinAddr: 0x100027600, symSize: 0x10 }
  - { offsetInCU: 0x2AE573, offset: 0x2AE573, size: 0x8, addend: 0x0, symName: __ZN7testing8internal15TestFactoryImplI41ParameterValidation_ValidateListener_TestED0Ev, symObjAddr: 0x25610, symBinAddr: 0x100027610, symSize: 0x10 }
  - { offsetInCU: 0x2AE5D3, offset: 0x2AE5D3, size: 0x8, addend: 0x0, symName: __ZN7testing8internal15TestFactoryImplI41ParameterValidation_ValidateListener_TestE10CreateTestEv, symObjAddr: 0x25620, symBinAddr: 0x100027620, symSize: 0x50 }
  - { offsetInCU: 0x2AE639, offset: 0x2AE639, size: 0x8, addend: 0x0, symName: __ZN7testing8internal15TestFactoryImplI43ParameterValidation_ValidateConnection_TestED1Ev, symObjAddr: 0x25670, symBinAddr: 0x100027670, symSize: 0x10 }
  - { offsetInCU: 0x2AE665, offset: 0x2AE665, size: 0x8, addend: 0x0, symName: __ZN7testing8internal15TestFactoryImplI43ParameterValidation_ValidateConnection_TestED0Ev, symObjAddr: 0x25680, symBinAddr: 0x100027680, symSize: 0x10 }
  - { offsetInCU: 0x2AE6C5, offset: 0x2AE6C5, size: 0x8, addend: 0x0, symName: __ZN7testing8internal15TestFactoryImplI43ParameterValidation_ValidateConnection_TestE10CreateTestEv, symObjAddr: 0x25690, symBinAddr: 0x100027690, symSize: 0x50 }
  - { offsetInCU: 0x2AE72B, offset: 0x2AE72B, size: 0x8, addend: 0x0, symName: __ZN7testing8internal15TestFactoryImplI59OwnershipValidation_RegistrationShutdownBeforeConnOpen_TestED1Ev, symObjAddr: 0x256E0, symBinAddr: 0x1000276E0, symSize: 0x10 }
  - { offsetInCU: 0x2AE757, offset: 0x2AE757, size: 0x8, addend: 0x0, symName: __ZN7testing8internal15TestFactoryImplI59OwnershipValidation_RegistrationShutdownBeforeConnOpen_TestED0Ev, symObjAddr: 0x256F0, symBinAddr: 0x1000276F0, symSize: 0x10 }
  - { offsetInCU: 0x2AE7B7, offset: 0x2AE7B7, size: 0x8, addend: 0x0, symName: __ZN7testing8internal15TestFactoryImplI59OwnershipValidation_RegistrationShutdownBeforeConnOpen_TestE10CreateTestEv, symObjAddr: 0x25700, symBinAddr: 0x100027700, symSize: 0x50 }
  - { offsetInCU: 0x2AE81D, offset: 0x2AE81D, size: 0x8, addend: 0x0, symName: __ZN7testing8internal15TestFactoryImplI58OwnershipValidation_RegistrationShutdownAfterConnOpen_TestED1Ev, symObjAddr: 0x25750, symBinAddr: 0x100027750, symSize: 0x10 }
  - { offsetInCU: 0x2AE849, offset: 0x2AE849, size: 0x8, addend: 0x0, symName: __ZN7testing8internal15TestFactoryImplI58OwnershipValidation_RegistrationShutdownAfterConnOpen_TestED0Ev, symObjAddr: 0x25760, symBinAddr: 0x100027760, symSize: 0x10 }
  - { offsetInCU: 0x2AE8A9, offset: 0x2AE8A9, size: 0x8, addend: 0x0, symName: __ZN7testing8internal15TestFactoryImplI58OwnershipValidation_RegistrationShutdownAfterConnOpen_TestE10CreateTestEv, symObjAddr: 0x25770, symBinAddr: 0x100027770, symSize: 0x50 }
  - { offsetInCU: 0x2AE90F, offset: 0x2AE90F, size: 0x8, addend: 0x0, symName: __ZN7testing8internal15TestFactoryImplI69OwnershipValidation_RegistrationShutdownAfterConnOpenBeforeStart_TestED1Ev, symObjAddr: 0x257C0, symBinAddr: 0x1000277C0, symSize: 0x10 }
  - { offsetInCU: 0x2AE93B, offset: 0x2AE93B, size: 0x8, addend: 0x0, symName: __ZN7testing8internal15TestFactoryImplI69OwnershipValidation_RegistrationShutdownAfterConnOpenBeforeStart_TestED0Ev, symObjAddr: 0x257D0, symBinAddr: 0x1000277D0, symSize: 0x10 }
  - { offsetInCU: 0x2AE99B, offset: 0x2AE99B, size: 0x8, addend: 0x0, symName: __ZN7testing8internal15TestFactoryImplI69OwnershipValidation_RegistrationShutdownAfterConnOpenBeforeStart_TestE10CreateTestEv, symObjAddr: 0x257E0, symBinAddr: 0x1000277E0, symSize: 0x50 }
  - { offsetInCU: 0x2AEA01, offset: 0x2AEA01, size: 0x8, addend: 0x0, symName: __ZN7testing8internal15TestFactoryImplI66OwnershipValidation_RegistrationShutdownAfterConnOpenAndStart_TestED1Ev, symObjAddr: 0x25830, symBinAddr: 0x100027830, symSize: 0x10 }
  - { offsetInCU: 0x2AEA2D, offset: 0x2AEA2D, size: 0x8, addend: 0x0, symName: __ZN7testing8internal15TestFactoryImplI66OwnershipValidation_RegistrationShutdownAfterConnOpenAndStart_TestED0Ev, symObjAddr: 0x25840, symBinAddr: 0x100027840, symSize: 0x10 }
  - { offsetInCU: 0x2AEA8D, offset: 0x2AEA8D, size: 0x8, addend: 0x0, symName: __ZN7testing8internal15TestFactoryImplI66OwnershipValidation_RegistrationShutdownAfterConnOpenAndStart_TestE10CreateTestEv, symObjAddr: 0x25850, symBinAddr: 0x100027850, symSize: 0x50 }
  - { offsetInCU: 0x2AEAF3, offset: 0x2AEAF3, size: 0x8, addend: 0x0, symName: __ZN7testing8internal15TestFactoryImplI57OwnershipValidation_ConnectionCloseBeforeStreamClose_TestED1Ev, symObjAddr: 0x258A0, symBinAddr: 0x1000278A0, symSize: 0x10 }
  - { offsetInCU: 0x2AEB1F, offset: 0x2AEB1F, size: 0x8, addend: 0x0, symName: __ZN7testing8internal15TestFactoryImplI57OwnershipValidation_ConnectionCloseBeforeStreamClose_TestED0Ev, symObjAddr: 0x258B0, symBinAddr: 0x1000278B0, symSize: 0x10 }
  - { offsetInCU: 0x2AEB7F, offset: 0x2AEB7F, size: 0x8, addend: 0x0, symName: __ZN7testing8internal15TestFactoryImplI57OwnershipValidation_ConnectionCloseBeforeStreamClose_TestE10CreateTestEv, symObjAddr: 0x258C0, symBinAddr: 0x1000278C0, symSize: 0x50 }
  - { offsetInCU: 0x2AEEC7, offset: 0x2AEEC7, size: 0x8, addend: 0x0, symName: __ZNSt3__110shared_ptrIN7testing8internal26ParameterizedTestSuiteInfoI8WithBoolE8TestInfoEEC1B8ue170006IS6_vEEPT_, symObjAddr: 0x25CE0, symBinAddr: 0x100027CE0, symSize: 0x60 }
  - { offsetInCU: 0x2AF0A0, offset: 0x2AF0A0, size: 0x8, addend: 0x0, symName: __ZNSt3__16vectorINS_10shared_ptrIN7testing8internal26ParameterizedTestSuiteInfoI8WithBoolE8TestInfoEEENS_9allocatorIS8_EEE24__emplace_back_slow_pathIJPS7_EEEvDpOT_, symObjAddr: 0x25B10, symBinAddr: 0x100027B10, symSize: 0x1D0 }
  - { offsetInCU: 0x2AFC21, offset: 0x2AFC21, size: 0x8, addend: 0x0, symName: __ZNKSt3__16vectorINS_10shared_ptrIN7testing8internal26ParameterizedTestSuiteInfoI8WithBoolE8TestInfoEEENS_9allocatorIS8_EEE20__throw_length_errorB8ue170006Ev, symObjAddr: 0x25E80, symBinAddr: 0x100027E80, symSize: 0x10 }
  - { offsetInCU: 0x2AFC4A, offset: 0x2AFC4A, size: 0x8, addend: 0x0, symName: __ZNSt3__120__throw_length_errorB8ue170006EPKc, symObjAddr: 0x25E90, symBinAddr: 0x100027E90, symSize: 0x50 }
  - { offsetInCU: 0x2AFC55, offset: 0x2AFC55, size: 0x8, addend: 0x0, symName: __ZNSt3__114__split_bufferINS_10shared_ptrIN7testing8internal26ParameterizedTestSuiteInfoI8WithBoolE8TestInfoEEERNS_9allocatorIS8_EEED1Ev, symObjAddr: 0x25E00, symBinAddr: 0x100027E00, symSize: 0x80 }
  - { offsetInCU: 0x2B0213, offset: 0x2B0213, size: 0x8, addend: 0x0, symName: __ZNSt3__110shared_ptrIN7testing8internal26ParameterizedTestSuiteInfoI8WithBoolE8TestInfoEEC1B8ue170006IS6_vEEPT_.cold.1, symObjAddr: 0x819A0, symBinAddr: 0x1004077D0, symSize: 0x50 }
  - { offsetInCU: 0x2B0577, offset: 0x2B0577, size: 0x8, addend: 0x0, symName: __ZNSt3__120__shared_ptr_pointerIPN7testing8internal26ParameterizedTestSuiteInfoI8WithBoolE8TestInfoENS_10shared_ptrIS6_E27__shared_ptr_default_deleteIS6_S6_EENS_9allocatorIS6_EEED1Ev, symObjAddr: 0x25D40, symBinAddr: 0x100027D40, symSize: 0x10 }
  - { offsetInCU: 0x2B05CF, offset: 0x2B05CF, size: 0x8, addend: 0x0, symName: __ZNSt3__120__shared_ptr_pointerIPN7testing8internal26ParameterizedTestSuiteInfoI8WithBoolE8TestInfoENS_10shared_ptrIS6_E27__shared_ptr_default_deleteIS6_S6_EENS_9allocatorIS6_EEED0Ev, symObjAddr: 0x25D50, symBinAddr: 0x100027D50, symSize: 0x20 }
  - { offsetInCU: 0x2B06F7, offset: 0x2B06F7, size: 0x8, addend: 0x0, symName: __ZNSt3__120__shared_ptr_pointerIPN7testing8internal26ParameterizedTestSuiteInfoI8WithBoolE8TestInfoENS_10shared_ptrIS6_E27__shared_ptr_default_deleteIS6_S6_EENS_9allocatorIS6_EEE16__on_zero_sharedEv, symObjAddr: 0x25D70, symBinAddr: 0x100027D70, symSize: 0x60 }
  - { offsetInCU: 0x2B0AC8, offset: 0x2B0AC8, size: 0x8, addend: 0x0, symName: __ZNKSt3__120__shared_ptr_pointerIPN7testing8internal26ParameterizedTestSuiteInfoI8WithBoolE8TestInfoENS_10shared_ptrIS6_E27__shared_ptr_default_deleteIS6_S6_EENS_9allocatorIS6_EEE13__get_deleterERKSt9type_info, symObjAddr: 0x25DD0, symBinAddr: 0x100027DD0, symSize: 0x20 }
  - { offsetInCU: 0x2B0B8B, offset: 0x2B0B8B, size: 0x8, addend: 0x0, symName: __ZNSt3__120__shared_ptr_pointerIPN7testing8internal26ParameterizedTestSuiteInfoI8WithBoolE8TestInfoENS_10shared_ptrIS6_E27__shared_ptr_default_deleteIS6_S6_EENS_9allocatorIS6_EEE21__on_zero_shared_weakEv, symObjAddr: 0x25DF0, symBinAddr: 0x100027DF0, symSize: 0x10 }
  - { offsetInCU: 0x2B0C5E, offset: 0x2B0C5E, size: 0x8, addend: 0x0, symName: __ZNSt12length_errorC1B8ue170006EPKc, symObjAddr: 0x25EE0, symBinAddr: 0x100027EE0, symSize: 0x30 }
  - { offsetInCU: 0x2B0CEA, offset: 0x2B0CEA, size: 0x8, addend: 0x0, symName: __ZN7testing8internal15TestMetaFactoryI28WithBool_ValidateStream_TestED1Ev, symObjAddr: 0x25F50, symBinAddr: 0x100027F50, symSize: 0x10 }
  - { offsetInCU: 0x2B0D16, offset: 0x2B0D16, size: 0x8, addend: 0x0, symName: __ZN7testing8internal15TestMetaFactoryI28WithBool_ValidateStream_TestED0Ev, symObjAddr: 0x25F60, symBinAddr: 0x100027F60, symSize: 0x10 }
  - { offsetInCU: 0x2B0DAE, offset: 0x2B0DAE, size: 0x8, addend: 0x0, symName: __ZN7testing8internal15TestMetaFactoryI28WithBool_ValidateStream_TestE17CreateTestFactoryEb, symObjAddr: 0x25F70, symBinAddr: 0x100027F70, symSize: 0x30 }
  - { offsetInCU: 0x2B0E26, offset: 0x2B0E26, size: 0x8, addend: 0x0, symName: __ZN7testing8internal24ParameterizedTestFactoryI28WithBool_ValidateStream_TestED1Ev, symObjAddr: 0x25FA0, symBinAddr: 0x100027FA0, symSize: 0x10 }
  - { offsetInCU: 0x2B0E52, offset: 0x2B0E52, size: 0x8, addend: 0x0, symName: __ZN7testing8internal24ParameterizedTestFactoryI28WithBool_ValidateStream_TestED0Ev, symObjAddr: 0x25FB0, symBinAddr: 0x100027FB0, symSize: 0x10 }
  - { offsetInCU: 0x2B0EE2, offset: 0x2B0EE2, size: 0x8, addend: 0x0, symName: __ZN7testing8internal24ParameterizedTestFactoryI28WithBool_ValidateStream_TestE10CreateTestEv, symObjAddr: 0x25FC0, symBinAddr: 0x100027FC0, symSize: 0x60 }
  - { offsetInCU: 0x2B0F7D, offset: 0x2B0F7D, size: 0x8, addend: 0x0, symName: __ZN8WithBoolD1Ev, symObjAddr: 0x26020, symBinAddr: 0x100406E90, symSize: 0x10 }
  - { offsetInCU: 0x2B0F9D, offset: 0x2B0F9D, size: 0x8, addend: 0x0, symName: __ZN8WithBoolD0Ev, symObjAddr: 0x26030, symBinAddr: 0x100406EA0, symSize: 0x10 }
  - { offsetInCU: 0x2B0FD9, offset: 0x2B0FD9, size: 0x8, addend: 0x0, symName: __ZThn16_N8WithBoolD1Ev, symObjAddr: 0x26040, symBinAddr: 0x100406EB0, symSize: 0x10 }
  - { offsetInCU: 0x2B102A, offset: 0x2B102A, size: 0x8, addend: 0x0, symName: __ZThn16_N8WithBoolD0Ev, symObjAddr: 0x26050, symBinAddr: 0x100406EC0, symSize: 0x10 }
  - { offsetInCU: 0x2B105F, offset: 0x2B105F, size: 0x8, addend: 0x0, symName: __ZN7testing18WithParamInterfaceIbED1Ev, symObjAddr: 0x26060, symBinAddr: 0x100028020, symSize: 0x10 }
  - { offsetInCU: 0x2B1088, offset: 0x2B1088, size: 0x8, addend: 0x0, symName: __ZN7testing18WithParamInterfaceIbED0Ev, symObjAddr: 0x26070, symBinAddr: 0x100028030, symSize: 0x10 }
  - { offsetInCU: 0x2B10B6, offset: 0x2B10B6, size: 0x8, addend: 0x0, symName: __ZN7testing8internal15TestFactoryImplI51ParameterValidation_CloseConnBeforeStreamFlush_TestED1Ev, symObjAddr: 0x26080, symBinAddr: 0x100028040, symSize: 0x10 }
  - { offsetInCU: 0x2B10E2, offset: 0x2B10E2, size: 0x8, addend: 0x0, symName: __ZN7testing8internal15TestFactoryImplI51ParameterValidation_CloseConnBeforeStreamFlush_TestED0Ev, symObjAddr: 0x26090, symBinAddr: 0x100028050, symSize: 0x10 }
  - { offsetInCU: 0x2B1142, offset: 0x2B1142, size: 0x8, addend: 0x0, symName: __ZN7testing8internal15TestFactoryImplI51ParameterValidation_CloseConnBeforeStreamFlush_TestE10CreateTestEv, symObjAddr: 0x260A0, symBinAddr: 0x100028060, symSize: 0x50 }
  - { offsetInCU: 0x2B148A, offset: 0x2B148A, size: 0x8, addend: 0x0, symName: __ZNSt3__110shared_ptrIN7testing8internal26ParameterizedTestSuiteInfoI31WithValidateConnectionEventArgsE8TestInfoEEC1B8ue170006IS6_vEEPT_, symObjAddr: 0x264C0, symBinAddr: 0x100028480, symSize: 0x60 }
  - { offsetInCU: 0x2B1663, offset: 0x2B1663, size: 0x8, addend: 0x0, symName: __ZNSt3__16vectorINS_10shared_ptrIN7testing8internal26ParameterizedTestSuiteInfoI31WithValidateConnectionEventArgsE8TestInfoEEENS_9allocatorIS8_EEE24__emplace_back_slow_pathIJPS7_EEEvDpOT_, symObjAddr: 0x262F0, symBinAddr: 0x1000282B0, symSize: 0x1D0 }
  - { offsetInCU: 0x2B21DE, offset: 0x2B21DE, size: 0x8, addend: 0x0, symName: __ZNKSt3__16vectorINS_10shared_ptrIN7testing8internal26ParameterizedTestSuiteInfoI31WithValidateConnectionEventArgsE8TestInfoEEENS_9allocatorIS8_EEE20__throw_length_errorB8ue170006Ev, symObjAddr: 0x26660, symBinAddr: 0x100028620, symSize: 0x10 }
  - { offsetInCU: 0x2B2207, offset: 0x2B2207, size: 0x8, addend: 0x0, symName: __ZN7testing8internal15TestMetaFactoryI61WithValidateConnectionEventArgs_ValidateConnectionEvents_TestED1Ev, symObjAddr: 0x26670, symBinAddr: 0x100028630, symSize: 0x10 }
  - { offsetInCU: 0x2B2212, offset: 0x2B2212, size: 0x8, addend: 0x0, symName: __ZNSt3__114__split_bufferINS_10shared_ptrIN7testing8internal26ParameterizedTestSuiteInfoI31WithValidateConnectionEventArgsE8TestInfoEEERNS_9allocatorIS8_EEED1Ev, symObjAddr: 0x265E0, symBinAddr: 0x1000285A0, symSize: 0x80 }
  - { offsetInCU: 0x2B2786, offset: 0x2B2786, size: 0x8, addend: 0x0, symName: __ZNSt3__110shared_ptrIN7testing8internal26ParameterizedTestSuiteInfoI31WithValidateConnectionEventArgsE8TestInfoEEC1B8ue170006IS6_vEEPT_.cold.1, symObjAddr: 0x819F0, symBinAddr: 0x100407820, symSize: 0x50 }
  - { offsetInCU: 0x2B2AEA, offset: 0x2B2AEA, size: 0x8, addend: 0x0, symName: __ZNSt3__120__shared_ptr_pointerIPN7testing8internal26ParameterizedTestSuiteInfoI31WithValidateConnectionEventArgsE8TestInfoENS_10shared_ptrIS6_E27__shared_ptr_default_deleteIS6_S6_EENS_9allocatorIS6_EEED1Ev, symObjAddr: 0x26520, symBinAddr: 0x1000284E0, symSize: 0x10 }
  - { offsetInCU: 0x2B2B42, offset: 0x2B2B42, size: 0x8, addend: 0x0, symName: __ZNSt3__120__shared_ptr_pointerIPN7testing8internal26ParameterizedTestSuiteInfoI31WithValidateConnectionEventArgsE8TestInfoENS_10shared_ptrIS6_E27__shared_ptr_default_deleteIS6_S6_EENS_9allocatorIS6_EEED0Ev, symObjAddr: 0x26530, symBinAddr: 0x1000284F0, symSize: 0x20 }
  - { offsetInCU: 0x2B2C6A, offset: 0x2B2C6A, size: 0x8, addend: 0x0, symName: __ZNSt3__120__shared_ptr_pointerIPN7testing8internal26ParameterizedTestSuiteInfoI31WithValidateConnectionEventArgsE8TestInfoENS_10shared_ptrIS6_E27__shared_ptr_default_deleteIS6_S6_EENS_9allocatorIS6_EEE16__on_zero_sharedEv, symObjAddr: 0x26550, symBinAddr: 0x100028510, symSize: 0x60 }
  - { offsetInCU: 0x2B2FF6, offset: 0x2B2FF6, size: 0x8, addend: 0x0, symName: __ZNKSt3__120__shared_ptr_pointerIPN7testing8internal26ParameterizedTestSuiteInfoI31WithValidateConnectionEventArgsE8TestInfoENS_10shared_ptrIS6_E27__shared_ptr_default_deleteIS6_S6_EENS_9allocatorIS6_EEE13__get_deleterERKSt9type_info, symObjAddr: 0x265B0, symBinAddr: 0x100028570, symSize: 0x20 }
  - { offsetInCU: 0x2B30B9, offset: 0x2B30B9, size: 0x8, addend: 0x0, symName: __ZNSt3__120__shared_ptr_pointerIPN7testing8internal26ParameterizedTestSuiteInfoI31WithValidateConnectionEventArgsE8TestInfoENS_10shared_ptrIS6_E27__shared_ptr_default_deleteIS6_S6_EENS_9allocatorIS6_EEE21__on_zero_shared_weakEv, symObjAddr: 0x265D0, symBinAddr: 0x100028590, symSize: 0x10 }
  - { offsetInCU: 0x2B318C, offset: 0x2B318C, size: 0x8, addend: 0x0, symName: __ZN7testing8internal15TestMetaFactoryI61WithValidateConnectionEventArgs_ValidateConnectionEvents_TestED1Ev, symObjAddr: 0x26670, symBinAddr: 0x100028630, symSize: 0x10 }
  - { offsetInCU: 0x2B31B8, offset: 0x2B31B8, size: 0x8, addend: 0x0, symName: __ZN7testing8internal15TestMetaFactoryI61WithValidateConnectionEventArgs_ValidateConnectionEvents_TestED0Ev, symObjAddr: 0x26680, symBinAddr: 0x100028640, symSize: 0x10 }
  - { offsetInCU: 0x2B3250, offset: 0x2B3250, size: 0x8, addend: 0x0, symName: __ZN7testing8internal15TestMetaFactoryI61WithValidateConnectionEventArgs_ValidateConnectionEvents_TestE17CreateTestFactoryE27ValidateConnectionEventArgs, symObjAddr: 0x26690, symBinAddr: 0x100028650, symSize: 0x30 }
  - { offsetInCU: 0x2B32CF, offset: 0x2B32CF, size: 0x8, addend: 0x0, symName: __ZN7testing8internal24ParameterizedTestFactoryI61WithValidateConnectionEventArgs_ValidateConnectionEvents_TestED1Ev, symObjAddr: 0x266C0, symBinAddr: 0x100028680, symSize: 0x10 }
  - { offsetInCU: 0x2B32FB, offset: 0x2B32FB, size: 0x8, addend: 0x0, symName: __ZN7testing8internal24ParameterizedTestFactoryI61WithValidateConnectionEventArgs_ValidateConnectionEvents_TestED0Ev, symObjAddr: 0x266D0, symBinAddr: 0x100028690, symSize: 0x10 }
  - { offsetInCU: 0x2B338C, offset: 0x2B338C, size: 0x8, addend: 0x0, symName: __ZN7testing8internal24ParameterizedTestFactoryI61WithValidateConnectionEventArgs_ValidateConnectionEvents_TestE10CreateTestEv, symObjAddr: 0x266E0, symBinAddr: 0x1000286A0, symSize: 0x60 }
  - { offsetInCU: 0x2B3427, offset: 0x2B3427, size: 0x8, addend: 0x0, symName: __ZN31WithValidateConnectionEventArgsD1Ev, symObjAddr: 0x26740, symBinAddr: 0x100406ED0, symSize: 0x10 }
  - { offsetInCU: 0x2B3447, offset: 0x2B3447, size: 0x8, addend: 0x0, symName: __ZN31WithValidateConnectionEventArgsD0Ev, symObjAddr: 0x26750, symBinAddr: 0x100406EE0, symSize: 0x10 }
  - { offsetInCU: 0x2B3484, offset: 0x2B3484, size: 0x8, addend: 0x0, symName: __ZThn16_N31WithValidateConnectionEventArgsD1Ev, symObjAddr: 0x26760, symBinAddr: 0x100406EF0, symSize: 0x10 }
  - { offsetInCU: 0x2B34D7, offset: 0x2B34D7, size: 0x8, addend: 0x0, symName: __ZThn16_N31WithValidateConnectionEventArgsD0Ev, symObjAddr: 0x26770, symBinAddr: 0x100406F00, symSize: 0x10 }
  - { offsetInCU: 0x2B350D, offset: 0x2B350D, size: 0x8, addend: 0x0, symName: __ZN7testing18WithParamInterfaceI27ValidateConnectionEventArgsED1Ev, symObjAddr: 0x26780, symBinAddr: 0x100028700, symSize: 0x10 }
  - { offsetInCU: 0x2B3536, offset: 0x2B3536, size: 0x8, addend: 0x0, symName: __ZN7testing18WithParamInterfaceI27ValidateConnectionEventArgsED0Ev, symObjAddr: 0x26790, symBinAddr: 0x100028710, symSize: 0x10 }
  - { offsetInCU: 0x2B3846, offset: 0x2B3846, size: 0x8, addend: 0x0, symName: __ZNSt3__110shared_ptrIN7testing8internal26ParameterizedTestSuiteInfoI33WithValidateNetStatsConnEventArgsE8TestInfoEEC1B8ue170006IS6_vEEPT_, symObjAddr: 0x26B70, symBinAddr: 0x100028AF0, symSize: 0x60 }
  - { offsetInCU: 0x2B3A1F, offset: 0x2B3A1F, size: 0x8, addend: 0x0, symName: __ZNSt3__16vectorINS_10shared_ptrIN7testing8internal26ParameterizedTestSuiteInfoI33WithValidateNetStatsConnEventArgsE8TestInfoEEENS_9allocatorIS8_EEE24__emplace_back_slow_pathIJPS7_EEEvDpOT_, symObjAddr: 0x269A0, symBinAddr: 0x100028920, symSize: 0x1D0 }
  - { offsetInCU: 0x2B459A, offset: 0x2B459A, size: 0x8, addend: 0x0, symName: __ZNKSt3__16vectorINS_10shared_ptrIN7testing8internal26ParameterizedTestSuiteInfoI33WithValidateNetStatsConnEventArgsE8TestInfoEEENS_9allocatorIS8_EEE20__throw_length_errorB8ue170006Ev, symObjAddr: 0x26D10, symBinAddr: 0x100028C90, symSize: 0x10 }
  - { offsetInCU: 0x2B45C3, offset: 0x2B45C3, size: 0x8, addend: 0x0, symName: __ZN7testing8internal15TestMetaFactoryI63WithValidateNetStatsConnEventArgs_ValidateNetStatConnEvent_TestED1Ev, symObjAddr: 0x26D20, symBinAddr: 0x100028CA0, symSize: 0x10 }
  - { offsetInCU: 0x2B45CE, offset: 0x2B45CE, size: 0x8, addend: 0x0, symName: __ZNSt3__114__split_bufferINS_10shared_ptrIN7testing8internal26ParameterizedTestSuiteInfoI33WithValidateNetStatsConnEventArgsE8TestInfoEEERNS_9allocatorIS8_EEED1Ev, symObjAddr: 0x26C90, symBinAddr: 0x100028C10, symSize: 0x80 }
  - { offsetInCU: 0x2B4B42, offset: 0x2B4B42, size: 0x8, addend: 0x0, symName: __ZNSt3__110shared_ptrIN7testing8internal26ParameterizedTestSuiteInfoI33WithValidateNetStatsConnEventArgsE8TestInfoEEC1B8ue170006IS6_vEEPT_.cold.1, symObjAddr: 0x81A40, symBinAddr: 0x100407870, symSize: 0x50 }
  - { offsetInCU: 0x2B4EA6, offset: 0x2B4EA6, size: 0x8, addend: 0x0, symName: __ZNSt3__120__shared_ptr_pointerIPN7testing8internal26ParameterizedTestSuiteInfoI33WithValidateNetStatsConnEventArgsE8TestInfoENS_10shared_ptrIS6_E27__shared_ptr_default_deleteIS6_S6_EENS_9allocatorIS6_EEED1Ev, symObjAddr: 0x26BD0, symBinAddr: 0x100028B50, symSize: 0x10 }
  - { offsetInCU: 0x2B4EFE, offset: 0x2B4EFE, size: 0x8, addend: 0x0, symName: __ZNSt3__120__shared_ptr_pointerIPN7testing8internal26ParameterizedTestSuiteInfoI33WithValidateNetStatsConnEventArgsE8TestInfoENS_10shared_ptrIS6_E27__shared_ptr_default_deleteIS6_S6_EENS_9allocatorIS6_EEED0Ev, symObjAddr: 0x26BE0, symBinAddr: 0x100028B60, symSize: 0x20 }
  - { offsetInCU: 0x2B5026, offset: 0x2B5026, size: 0x8, addend: 0x0, symName: __ZNSt3__120__shared_ptr_pointerIPN7testing8internal26ParameterizedTestSuiteInfoI33WithValidateNetStatsConnEventArgsE8TestInfoENS_10shared_ptrIS6_E27__shared_ptr_default_deleteIS6_S6_EENS_9allocatorIS6_EEE16__on_zero_sharedEv, symObjAddr: 0x26C00, symBinAddr: 0x100028B80, symSize: 0x60 }
  - { offsetInCU: 0x2B53B2, offset: 0x2B53B2, size: 0x8, addend: 0x0, symName: __ZNKSt3__120__shared_ptr_pointerIPN7testing8internal26ParameterizedTestSuiteInfoI33WithValidateNetStatsConnEventArgsE8TestInfoENS_10shared_ptrIS6_E27__shared_ptr_default_deleteIS6_S6_EENS_9allocatorIS6_EEE13__get_deleterERKSt9type_info, symObjAddr: 0x26C60, symBinAddr: 0x100028BE0, symSize: 0x20 }
  - { offsetInCU: 0x2B5475, offset: 0x2B5475, size: 0x8, addend: 0x0, symName: __ZNSt3__120__shared_ptr_pointerIPN7testing8internal26ParameterizedTestSuiteInfoI33WithValidateNetStatsConnEventArgsE8TestInfoENS_10shared_ptrIS6_E27__shared_ptr_default_deleteIS6_S6_EENS_9allocatorIS6_EEE21__on_zero_shared_weakEv, symObjAddr: 0x26C80, symBinAddr: 0x100028C00, symSize: 0x10 }
  - { offsetInCU: 0x2B5548, offset: 0x2B5548, size: 0x8, addend: 0x0, symName: __ZN7testing8internal15TestMetaFactoryI63WithValidateNetStatsConnEventArgs_ValidateNetStatConnEvent_TestED1Ev, symObjAddr: 0x26D20, symBinAddr: 0x100028CA0, symSize: 0x10 }
  - { offsetInCU: 0x2B5574, offset: 0x2B5574, size: 0x8, addend: 0x0, symName: __ZN7testing8internal15TestMetaFactoryI63WithValidateNetStatsConnEventArgs_ValidateNetStatConnEvent_TestED0Ev, symObjAddr: 0x26D30, symBinAddr: 0x100028CB0, symSize: 0x10 }
  - { offsetInCU: 0x2B560C, offset: 0x2B560C, size: 0x8, addend: 0x0, symName: __ZN7testing8internal15TestMetaFactoryI63WithValidateNetStatsConnEventArgs_ValidateNetStatConnEvent_TestE17CreateTestFactoryE29ValidateNetStatsConnEventArgs, symObjAddr: 0x26D40, symBinAddr: 0x100028CC0, symSize: 0x30 }
  - { offsetInCU: 0x2B568B, offset: 0x2B568B, size: 0x8, addend: 0x0, symName: __ZN7testing8internal24ParameterizedTestFactoryI63WithValidateNetStatsConnEventArgs_ValidateNetStatConnEvent_TestED1Ev, symObjAddr: 0x26D70, symBinAddr: 0x100028CF0, symSize: 0x10 }
  - { offsetInCU: 0x2B56B7, offset: 0x2B56B7, size: 0x8, addend: 0x0, symName: __ZN7testing8internal24ParameterizedTestFactoryI63WithValidateNetStatsConnEventArgs_ValidateNetStatConnEvent_TestED0Ev, symObjAddr: 0x26D80, symBinAddr: 0x100028D00, symSize: 0x10 }
  - { offsetInCU: 0x2B5748, offset: 0x2B5748, size: 0x8, addend: 0x0, symName: __ZN7testing8internal24ParameterizedTestFactoryI63WithValidateNetStatsConnEventArgs_ValidateNetStatConnEvent_TestE10CreateTestEv, symObjAddr: 0x26D90, symBinAddr: 0x100028D10, symSize: 0x60 }
  - { offsetInCU: 0x2B57E3, offset: 0x2B57E3, size: 0x8, addend: 0x0, symName: __ZN33WithValidateNetStatsConnEventArgsD1Ev, symObjAddr: 0x26DF0, symBinAddr: 0x100406F10, symSize: 0x10 }
  - { offsetInCU: 0x2B5803, offset: 0x2B5803, size: 0x8, addend: 0x0, symName: __ZN33WithValidateNetStatsConnEventArgsD0Ev, symObjAddr: 0x26E00, symBinAddr: 0x100406F20, symSize: 0x10 }
  - { offsetInCU: 0x2B5840, offset: 0x2B5840, size: 0x8, addend: 0x0, symName: __ZThn16_N33WithValidateNetStatsConnEventArgsD1Ev, symObjAddr: 0x26E10, symBinAddr: 0x100406F30, symSize: 0x10 }
  - { offsetInCU: 0x2B5893, offset: 0x2B5893, size: 0x8, addend: 0x0, symName: __ZThn16_N33WithValidateNetStatsConnEventArgsD0Ev, symObjAddr: 0x26E20, symBinAddr: 0x100406F40, symSize: 0x10 }
  - { offsetInCU: 0x2B58C9, offset: 0x2B58C9, size: 0x8, addend: 0x0, symName: __ZN7testing18WithParamInterfaceI29ValidateNetStatsConnEventArgsED1Ev, symObjAddr: 0x26E30, symBinAddr: 0x100028D70, symSize: 0x10 }
  - { offsetInCU: 0x2B58F2, offset: 0x2B58F2, size: 0x8, addend: 0x0, symName: __ZN7testing18WithParamInterfaceI29ValidateNetStatsConnEventArgsED0Ev, symObjAddr: 0x26E40, symBinAddr: 0x100028D80, symSize: 0x10 }
  - { offsetInCU: 0x2B5C02, offset: 0x2B5C02, size: 0x8, addend: 0x0, symName: __ZNSt3__110shared_ptrIN7testing8internal26ParameterizedTestSuiteInfoI27WithValidateStreamEventArgsE8TestInfoEEC1B8ue170006IS6_vEEPT_, symObjAddr: 0x27220, symBinAddr: 0x100029160, symSize: 0x60 }
  - { offsetInCU: 0x2B5DDB, offset: 0x2B5DDB, size: 0x8, addend: 0x0, symName: __ZNSt3__16vectorINS_10shared_ptrIN7testing8internal26ParameterizedTestSuiteInfoI27WithValidateStreamEventArgsE8TestInfoEEENS_9allocatorIS8_EEE24__emplace_back_slow_pathIJPS7_EEEvDpOT_, symObjAddr: 0x27050, symBinAddr: 0x100028F90, symSize: 0x1D0 }
  - { offsetInCU: 0x2B6956, offset: 0x2B6956, size: 0x8, addend: 0x0, symName: __ZNKSt3__16vectorINS_10shared_ptrIN7testing8internal26ParameterizedTestSuiteInfoI27WithValidateStreamEventArgsE8TestInfoEEENS_9allocatorIS8_EEE20__throw_length_errorB8ue170006Ev, symObjAddr: 0x273C0, symBinAddr: 0x100029300, symSize: 0x10 }
  - { offsetInCU: 0x2B697F, offset: 0x2B697F, size: 0x8, addend: 0x0, symName: __ZN7testing8internal15TestMetaFactoryI53WithValidateStreamEventArgs_ValidateStreamEvents_TestED1Ev, symObjAddr: 0x273D0, symBinAddr: 0x100029310, symSize: 0x10 }
  - { offsetInCU: 0x2B698A, offset: 0x2B698A, size: 0x8, addend: 0x0, symName: __ZNSt3__114__split_bufferINS_10shared_ptrIN7testing8internal26ParameterizedTestSuiteInfoI27WithValidateStreamEventArgsE8TestInfoEEERNS_9allocatorIS8_EEED1Ev, symObjAddr: 0x27340, symBinAddr: 0x100029280, symSize: 0x80 }
  - { offsetInCU: 0x2B6EFE, offset: 0x2B6EFE, size: 0x8, addend: 0x0, symName: __ZNSt3__110shared_ptrIN7testing8internal26ParameterizedTestSuiteInfoI27WithValidateStreamEventArgsE8TestInfoEEC1B8ue170006IS6_vEEPT_.cold.1, symObjAddr: 0x81A90, symBinAddr: 0x1004078C0, symSize: 0x50 }
  - { offsetInCU: 0x2B7262, offset: 0x2B7262, size: 0x8, addend: 0x0, symName: __ZNSt3__120__shared_ptr_pointerIPN7testing8internal26ParameterizedTestSuiteInfoI27WithValidateStreamEventArgsE8TestInfoENS_10shared_ptrIS6_E27__shared_ptr_default_deleteIS6_S6_EENS_9allocatorIS6_EEED1Ev, symObjAddr: 0x27280, symBinAddr: 0x1000291C0, symSize: 0x10 }
  - { offsetInCU: 0x2B72BA, offset: 0x2B72BA, size: 0x8, addend: 0x0, symName: __ZNSt3__120__shared_ptr_pointerIPN7testing8internal26ParameterizedTestSuiteInfoI27WithValidateStreamEventArgsE8TestInfoENS_10shared_ptrIS6_E27__shared_ptr_default_deleteIS6_S6_EENS_9allocatorIS6_EEED0Ev, symObjAddr: 0x27290, symBinAddr: 0x1000291D0, symSize: 0x20 }
  - { offsetInCU: 0x2B73E2, offset: 0x2B73E2, size: 0x8, addend: 0x0, symName: __ZNSt3__120__shared_ptr_pointerIPN7testing8internal26ParameterizedTestSuiteInfoI27WithValidateStreamEventArgsE8TestInfoENS_10shared_ptrIS6_E27__shared_ptr_default_deleteIS6_S6_EENS_9allocatorIS6_EEE16__on_zero_sharedEv, symObjAddr: 0x272B0, symBinAddr: 0x1000291F0, symSize: 0x60 }
  - { offsetInCU: 0x2B776E, offset: 0x2B776E, size: 0x8, addend: 0x0, symName: __ZNKSt3__120__shared_ptr_pointerIPN7testing8internal26ParameterizedTestSuiteInfoI27WithValidateStreamEventArgsE8TestInfoENS_10shared_ptrIS6_E27__shared_ptr_default_deleteIS6_S6_EENS_9allocatorIS6_EEE13__get_deleterERKSt9type_info, symObjAddr: 0x27310, symBinAddr: 0x100029250, symSize: 0x20 }
  - { offsetInCU: 0x2B7831, offset: 0x2B7831, size: 0x8, addend: 0x0, symName: __ZNSt3__120__shared_ptr_pointerIPN7testing8internal26ParameterizedTestSuiteInfoI27WithValidateStreamEventArgsE8TestInfoENS_10shared_ptrIS6_E27__shared_ptr_default_deleteIS6_S6_EENS_9allocatorIS6_EEE21__on_zero_shared_weakEv, symObjAddr: 0x27330, symBinAddr: 0x100029270, symSize: 0x10 }
  - { offsetInCU: 0x2B7904, offset: 0x2B7904, size: 0x8, addend: 0x0, symName: __ZN7testing8internal15TestMetaFactoryI53WithValidateStreamEventArgs_ValidateStreamEvents_TestED1Ev, symObjAddr: 0x273D0, symBinAddr: 0x100029310, symSize: 0x10 }
  - { offsetInCU: 0x2B7930, offset: 0x2B7930, size: 0x8, addend: 0x0, symName: __ZN7testing8internal15TestMetaFactoryI53WithValidateStreamEventArgs_ValidateStreamEvents_TestED0Ev, symObjAddr: 0x273E0, symBinAddr: 0x100029320, symSize: 0x10 }
  - { offsetInCU: 0x2B79C8, offset: 0x2B79C8, size: 0x8, addend: 0x0, symName: __ZN7testing8internal15TestMetaFactoryI53WithValidateStreamEventArgs_ValidateStreamEvents_TestE17CreateTestFactoryE23ValidateStreamEventArgs, symObjAddr: 0x273F0, symBinAddr: 0x100029330, symSize: 0x30 }
  - { offsetInCU: 0x2B7A47, offset: 0x2B7A47, size: 0x8, addend: 0x0, symName: __ZN7testing8internal24ParameterizedTestFactoryI53WithValidateStreamEventArgs_ValidateStreamEvents_TestED1Ev, symObjAddr: 0x27420, symBinAddr: 0x100029360, symSize: 0x10 }
  - { offsetInCU: 0x2B7A73, offset: 0x2B7A73, size: 0x8, addend: 0x0, symName: __ZN7testing8internal24ParameterizedTestFactoryI53WithValidateStreamEventArgs_ValidateStreamEvents_TestED0Ev, symObjAddr: 0x27430, symBinAddr: 0x100029370, symSize: 0x10 }
  - { offsetInCU: 0x2B7B04, offset: 0x2B7B04, size: 0x8, addend: 0x0, symName: __ZN7testing8internal24ParameterizedTestFactoryI53WithValidateStreamEventArgs_ValidateStreamEvents_TestE10CreateTestEv, symObjAddr: 0x27440, symBinAddr: 0x100029380, symSize: 0x60 }
  - { offsetInCU: 0x2B7B9F, offset: 0x2B7B9F, size: 0x8, addend: 0x0, symName: __ZN27WithValidateStreamEventArgsD1Ev, symObjAddr: 0x274A0, symBinAddr: 0x100406F50, symSize: 0x10 }
  - { offsetInCU: 0x2B7BBF, offset: 0x2B7BBF, size: 0x8, addend: 0x0, symName: __ZN27WithValidateStreamEventArgsD0Ev, symObjAddr: 0x274B0, symBinAddr: 0x100406F60, symSize: 0x10 }
  - { offsetInCU: 0x2B7BFC, offset: 0x2B7BFC, size: 0x8, addend: 0x0, symName: __ZThn16_N27WithValidateStreamEventArgsD1Ev, symObjAddr: 0x274C0, symBinAddr: 0x100406F70, symSize: 0x10 }
  - { offsetInCU: 0x2B7C4F, offset: 0x2B7C4F, size: 0x8, addend: 0x0, symName: __ZThn16_N27WithValidateStreamEventArgsD0Ev, symObjAddr: 0x274D0, symBinAddr: 0x100406F80, symSize: 0x10 }
  - { offsetInCU: 0x2B7C85, offset: 0x2B7C85, size: 0x8, addend: 0x0, symName: __ZN7testing18WithParamInterfaceI23ValidateStreamEventArgsED1Ev, symObjAddr: 0x274E0, symBinAddr: 0x1000293E0, symSize: 0x10 }
  - { offsetInCU: 0x2B7CAE, offset: 0x2B7CAE, size: 0x8, addend: 0x0, symName: __ZN7testing18WithParamInterfaceI23ValidateStreamEventArgsED0Ev, symObjAddr: 0x274F0, symBinAddr: 0x1000293F0, symSize: 0x10 }
  - { offsetInCU: 0x2B7CDC, offset: 0x2B7CDC, size: 0x8, addend: 0x0, symName: __ZN7testing8internal15TestFactoryImplI48ParameterValidation_ValidateVersionSettings_TestED1Ev, symObjAddr: 0x27500, symBinAddr: 0x100029400, symSize: 0x10 }
  - { offsetInCU: 0x2B7D08, offset: 0x2B7D08, size: 0x8, addend: 0x0, symName: __ZN7testing8internal15TestFactoryImplI48ParameterValidation_ValidateVersionSettings_TestED0Ev, symObjAddr: 0x27510, symBinAddr: 0x100029410, symSize: 0x10 }
  - { offsetInCU: 0x2B7D68, offset: 0x2B7D68, size: 0x8, addend: 0x0, symName: __ZN7testing8internal15TestFactoryImplI48ParameterValidation_ValidateVersionSettings_TestE10CreateTestEv, symObjAddr: 0x27520, symBinAddr: 0x100029420, symSize: 0x50 }
  - { offsetInCU: 0x2B7DCE, offset: 0x2B7DCE, size: 0x8, addend: 0x0, symName: __ZN7testing8internal15TestFactoryImplI41ParameterValidation_ValidateParamApi_TestED1Ev, symObjAddr: 0x27570, symBinAddr: 0x100029470, symSize: 0x10 }
  - { offsetInCU: 0x2B7DFA, offset: 0x2B7DFA, size: 0x8, addend: 0x0, symName: __ZN7testing8internal15TestFactoryImplI41ParameterValidation_ValidateParamApi_TestED0Ev, symObjAddr: 0x27580, symBinAddr: 0x100029480, symSize: 0x10 }
  - { offsetInCU: 0x2B7E5A, offset: 0x2B7E5A, size: 0x8, addend: 0x0, symName: __ZN7testing8internal15TestFactoryImplI41ParameterValidation_ValidateParamApi_TestE10CreateTestEv, symObjAddr: 0x27590, symBinAddr: 0x100029490, symSize: 0x50 }
  - { offsetInCU: 0x2B81A2, offset: 0x2B81A2, size: 0x8, addend: 0x0, symName: __ZNSt3__110shared_ptrIN7testing8internal26ParameterizedTestSuiteInfoI25WithValidateTlsConfigArgsE8TestInfoEEC1B8ue170006IS6_vEEPT_, symObjAddr: 0x279B0, symBinAddr: 0x1000298B0, symSize: 0x60 }
  - { offsetInCU: 0x2B837B, offset: 0x2B837B, size: 0x8, addend: 0x0, symName: __ZNSt3__16vectorINS_10shared_ptrIN7testing8internal26ParameterizedTestSuiteInfoI25WithValidateTlsConfigArgsE8TestInfoEEENS_9allocatorIS8_EEE24__emplace_back_slow_pathIJPS7_EEEvDpOT_, symObjAddr: 0x277E0, symBinAddr: 0x1000296E0, symSize: 0x1D0 }
  - { offsetInCU: 0x2B8EF6, offset: 0x2B8EF6, size: 0x8, addend: 0x0, symName: __ZNKSt3__16vectorINS_10shared_ptrIN7testing8internal26ParameterizedTestSuiteInfoI25WithValidateTlsConfigArgsE8TestInfoEEENS_9allocatorIS8_EEE20__throw_length_errorB8ue170006Ev, symObjAddr: 0x27B50, symBinAddr: 0x100029A50, symSize: 0x10 }
  - { offsetInCU: 0x2B8F1F, offset: 0x2B8F1F, size: 0x8, addend: 0x0, symName: __ZN7testing8internal15TestMetaFactoryI48WithValidateTlsConfigArgs_ValidateTlsConfig_TestED1Ev, symObjAddr: 0x27B60, symBinAddr: 0x100029A60, symSize: 0x10 }
  - { offsetInCU: 0x2B8F2A, offset: 0x2B8F2A, size: 0x8, addend: 0x0, symName: __ZNSt3__114__split_bufferINS_10shared_ptrIN7testing8internal26ParameterizedTestSuiteInfoI25WithValidateTlsConfigArgsE8TestInfoEEERNS_9allocatorIS8_EEED1Ev, symObjAddr: 0x27AD0, symBinAddr: 0x1000299D0, symSize: 0x80 }
  - { offsetInCU: 0x2B949E, offset: 0x2B949E, size: 0x8, addend: 0x0, symName: __ZNSt3__110shared_ptrIN7testing8internal26ParameterizedTestSuiteInfoI25WithValidateTlsConfigArgsE8TestInfoEEC1B8ue170006IS6_vEEPT_.cold.1, symObjAddr: 0x81AE0, symBinAddr: 0x100407910, symSize: 0x50 }
  - { offsetInCU: 0x2B9802, offset: 0x2B9802, size: 0x8, addend: 0x0, symName: __ZNSt3__120__shared_ptr_pointerIPN7testing8internal26ParameterizedTestSuiteInfoI25WithValidateTlsConfigArgsE8TestInfoENS_10shared_ptrIS6_E27__shared_ptr_default_deleteIS6_S6_EENS_9allocatorIS6_EEED1Ev, symObjAddr: 0x27A10, symBinAddr: 0x100029910, symSize: 0x10 }
  - { offsetInCU: 0x2B985A, offset: 0x2B985A, size: 0x8, addend: 0x0, symName: __ZNSt3__120__shared_ptr_pointerIPN7testing8internal26ParameterizedTestSuiteInfoI25WithValidateTlsConfigArgsE8TestInfoENS_10shared_ptrIS6_E27__shared_ptr_default_deleteIS6_S6_EENS_9allocatorIS6_EEED0Ev, symObjAddr: 0x27A20, symBinAddr: 0x100029920, symSize: 0x20 }
  - { offsetInCU: 0x2B9982, offset: 0x2B9982, size: 0x8, addend: 0x0, symName: __ZNSt3__120__shared_ptr_pointerIPN7testing8internal26ParameterizedTestSuiteInfoI25WithValidateTlsConfigArgsE8TestInfoENS_10shared_ptrIS6_E27__shared_ptr_default_deleteIS6_S6_EENS_9allocatorIS6_EEE16__on_zero_sharedEv, symObjAddr: 0x27A40, symBinAddr: 0x100029940, symSize: 0x60 }
  - { offsetInCU: 0x2B9D0E, offset: 0x2B9D0E, size: 0x8, addend: 0x0, symName: __ZNKSt3__120__shared_ptr_pointerIPN7testing8internal26ParameterizedTestSuiteInfoI25WithValidateTlsConfigArgsE8TestInfoENS_10shared_ptrIS6_E27__shared_ptr_default_deleteIS6_S6_EENS_9allocatorIS6_EEE13__get_deleterERKSt9type_info, symObjAddr: 0x27AA0, symBinAddr: 0x1000299A0, symSize: 0x20 }
  - { offsetInCU: 0x2B9DD1, offset: 0x2B9DD1, size: 0x8, addend: 0x0, symName: __ZNSt3__120__shared_ptr_pointerIPN7testing8internal26ParameterizedTestSuiteInfoI25WithValidateTlsConfigArgsE8TestInfoENS_10shared_ptrIS6_E27__shared_ptr_default_deleteIS6_S6_EENS_9allocatorIS6_EEE21__on_zero_shared_weakEv, symObjAddr: 0x27AC0, symBinAddr: 0x1000299C0, symSize: 0x10 }
  - { offsetInCU: 0x2B9EA4, offset: 0x2B9EA4, size: 0x8, addend: 0x0, symName: __ZN7testing8internal15TestMetaFactoryI48WithValidateTlsConfigArgs_ValidateTlsConfig_TestED1Ev, symObjAddr: 0x27B60, symBinAddr: 0x100029A60, symSize: 0x10 }
  - { offsetInCU: 0x2B9ED0, offset: 0x2B9ED0, size: 0x8, addend: 0x0, symName: __ZN7testing8internal15TestMetaFactoryI48WithValidateTlsConfigArgs_ValidateTlsConfig_TestED0Ev, symObjAddr: 0x27B70, symBinAddr: 0x100029A70, symSize: 0x10 }
  - { offsetInCU: 0x2B9F68, offset: 0x2B9F68, size: 0x8, addend: 0x0, symName: __ZN7testing8internal15TestMetaFactoryI48WithValidateTlsConfigArgs_ValidateTlsConfig_TestE17CreateTestFactoryE13TlsConfigArgs, symObjAddr: 0x27B80, symBinAddr: 0x100029A80, symSize: 0x30 }
  - { offsetInCU: 0x2B9FE7, offset: 0x2B9FE7, size: 0x8, addend: 0x0, symName: __ZN7testing8internal24ParameterizedTestFactoryI48WithValidateTlsConfigArgs_ValidateTlsConfig_TestED1Ev, symObjAddr: 0x27BB0, symBinAddr: 0x100029AB0, symSize: 0x10 }
  - { offsetInCU: 0x2BA013, offset: 0x2BA013, size: 0x8, addend: 0x0, symName: __ZN7testing8internal24ParameterizedTestFactoryI48WithValidateTlsConfigArgs_ValidateTlsConfig_TestED0Ev, symObjAddr: 0x27BC0, symBinAddr: 0x100029AC0, symSize: 0x10 }
  - { offsetInCU: 0x2BA0A4, offset: 0x2BA0A4, size: 0x8, addend: 0x0, symName: __ZN7testing8internal24ParameterizedTestFactoryI48WithValidateTlsConfigArgs_ValidateTlsConfig_TestE10CreateTestEv, symObjAddr: 0x27BD0, symBinAddr: 0x100029AD0, symSize: 0x60 }
  - { offsetInCU: 0x2BA13F, offset: 0x2BA13F, size: 0x8, addend: 0x0, symName: __ZN25WithValidateTlsConfigArgsD1Ev, symObjAddr: 0x27C30, symBinAddr: 0x100406F90, symSize: 0x10 }
  - { offsetInCU: 0x2BA15F, offset: 0x2BA15F, size: 0x8, addend: 0x0, symName: __ZN25WithValidateTlsConfigArgsD0Ev, symObjAddr: 0x27C40, symBinAddr: 0x100406FA0, symSize: 0x10 }
  - { offsetInCU: 0x2BA19C, offset: 0x2BA19C, size: 0x8, addend: 0x0, symName: __ZThn16_N25WithValidateTlsConfigArgsD1Ev, symObjAddr: 0x27C50, symBinAddr: 0x100406FB0, symSize: 0x10 }
  - { offsetInCU: 0x2BA1EF, offset: 0x2BA1EF, size: 0x8, addend: 0x0, symName: __ZThn16_N25WithValidateTlsConfigArgsD0Ev, symObjAddr: 0x27C60, symBinAddr: 0x100406FC0, symSize: 0x10 }
  - { offsetInCU: 0x2BA225, offset: 0x2BA225, size: 0x8, addend: 0x0, symName: __ZN7testing18WithParamInterfaceI13TlsConfigArgsED1Ev, symObjAddr: 0x27C70, symBinAddr: 0x100029B30, symSize: 0x10 }
  - { offsetInCU: 0x2BA24E, offset: 0x2BA24E, size: 0x8, addend: 0x0, symName: __ZN7testing18WithParamInterfaceI13TlsConfigArgsED0Ev, symObjAddr: 0x27C80, symBinAddr: 0x100029B40, symSize: 0x10 }
  - { offsetInCU: 0x2BA27C, offset: 0x2BA27C, size: 0x8, addend: 0x0, symName: __ZN7testing8internal15TestFactoryImplI25Basic_CreateListener_TestED1Ev, symObjAddr: 0x27C90, symBinAddr: 0x100029B50, symSize: 0x10 }
  - { offsetInCU: 0x2BA2A8, offset: 0x2BA2A8, size: 0x8, addend: 0x0, symName: __ZN7testing8internal15TestFactoryImplI25Basic_CreateListener_TestED0Ev, symObjAddr: 0x27CA0, symBinAddr: 0x100029B60, symSize: 0x10 }
  - { offsetInCU: 0x2BA308, offset: 0x2BA308, size: 0x8, addend: 0x0, symName: __ZN7testing8internal15TestFactoryImplI25Basic_CreateListener_TestE10CreateTestEv, symObjAddr: 0x27CB0, symBinAddr: 0x100029B70, symSize: 0x50 }
  - { offsetInCU: 0x2BA36E, offset: 0x2BA36E, size: 0x8, addend: 0x0, symName: __ZN7testing8internal15TestFactoryImplI24Basic_StartListener_TestED1Ev, symObjAddr: 0x27D00, symBinAddr: 0x100029BC0, symSize: 0x10 }
  - { offsetInCU: 0x2BA39A, offset: 0x2BA39A, size: 0x8, addend: 0x0, symName: __ZN7testing8internal15TestFactoryImplI24Basic_StartListener_TestED0Ev, symObjAddr: 0x27D10, symBinAddr: 0x100029BD0, symSize: 0x10 }
  - { offsetInCU: 0x2BA3FA, offset: 0x2BA3FA, size: 0x8, addend: 0x0, symName: __ZN7testing8internal15TestFactoryImplI24Basic_StartListener_TestE10CreateTestEv, symObjAddr: 0x27D20, symBinAddr: 0x100029BE0, symSize: 0x50 }
  - { offsetInCU: 0x2BA460, offset: 0x2BA460, size: 0x8, addend: 0x0, symName: __ZN7testing8internal15TestFactoryImplI34Basic_StartListenerMultiAlpns_TestED1Ev, symObjAddr: 0x27D70, symBinAddr: 0x100029C30, symSize: 0x10 }
  - { offsetInCU: 0x2BA48C, offset: 0x2BA48C, size: 0x8, addend: 0x0, symName: __ZN7testing8internal15TestFactoryImplI34Basic_StartListenerMultiAlpns_TestED0Ev, symObjAddr: 0x27D80, symBinAddr: 0x100029C40, symSize: 0x10 }
  - { offsetInCU: 0x2BA4EC, offset: 0x2BA4EC, size: 0x8, addend: 0x0, symName: __ZN7testing8internal15TestFactoryImplI34Basic_StartListenerMultiAlpns_TestE10CreateTestEv, symObjAddr: 0x27D90, symBinAddr: 0x100029C50, symSize: 0x50 }
  - { offsetInCU: 0x2BA834, offset: 0x2BA834, size: 0x8, addend: 0x0, symName: __ZNSt3__110shared_ptrIN7testing8internal26ParameterizedTestSuiteInfoI14WithFamilyArgsE8TestInfoEEC1B8ue170006IS6_vEEPT_, symObjAddr: 0x281B0, symBinAddr: 0x10002A070, symSize: 0x60 }
  - { offsetInCU: 0x2BAA0D, offset: 0x2BAA0D, size: 0x8, addend: 0x0, symName: __ZNSt3__16vectorINS_10shared_ptrIN7testing8internal26ParameterizedTestSuiteInfoI14WithFamilyArgsE8TestInfoEEENS_9allocatorIS8_EEE24__emplace_back_slow_pathIJPS7_EEEvDpOT_, symObjAddr: 0x27FE0, symBinAddr: 0x100029EA0, symSize: 0x1D0 }
  - { offsetInCU: 0x2BB588, offset: 0x2BB588, size: 0x8, addend: 0x0, symName: __ZNKSt3__16vectorINS_10shared_ptrIN7testing8internal26ParameterizedTestSuiteInfoI14WithFamilyArgsE8TestInfoEEENS_9allocatorIS8_EEE20__throw_length_errorB8ue170006Ev, symObjAddr: 0x28350, symBinAddr: 0x10002A210, symSize: 0x10 }
  - { offsetInCU: 0x2BB5B1, offset: 0x2BB5B1, size: 0x8, addend: 0x0, symName: __ZN7testing8internal15TestMetaFactoryI41WithFamilyArgs_StartListenerImplicit_TestED1Ev, symObjAddr: 0x28360, symBinAddr: 0x10002A220, symSize: 0x10 }
  - { offsetInCU: 0x2BB5BC, offset: 0x2BB5BC, size: 0x8, addend: 0x0, symName: __ZNSt3__114__split_bufferINS_10shared_ptrIN7testing8internal26ParameterizedTestSuiteInfoI14WithFamilyArgsE8TestInfoEEERNS_9allocatorIS8_EEED1Ev, symObjAddr: 0x282D0, symBinAddr: 0x10002A190, symSize: 0x80 }
  - { offsetInCU: 0x2BBB30, offset: 0x2BBB30, size: 0x8, addend: 0x0, symName: __ZNSt3__110shared_ptrIN7testing8internal26ParameterizedTestSuiteInfoI14WithFamilyArgsE8TestInfoEEC1B8ue170006IS6_vEEPT_.cold.1, symObjAddr: 0x81B30, symBinAddr: 0x100407960, symSize: 0x50 }
  - { offsetInCU: 0x2BBE94, offset: 0x2BBE94, size: 0x8, addend: 0x0, symName: __ZNSt3__120__shared_ptr_pointerIPN7testing8internal26ParameterizedTestSuiteInfoI14WithFamilyArgsE8TestInfoENS_10shared_ptrIS6_E27__shared_ptr_default_deleteIS6_S6_EENS_9allocatorIS6_EEED1Ev, symObjAddr: 0x28210, symBinAddr: 0x10002A0D0, symSize: 0x10 }
  - { offsetInCU: 0x2BBEEC, offset: 0x2BBEEC, size: 0x8, addend: 0x0, symName: __ZNSt3__120__shared_ptr_pointerIPN7testing8internal26ParameterizedTestSuiteInfoI14WithFamilyArgsE8TestInfoENS_10shared_ptrIS6_E27__shared_ptr_default_deleteIS6_S6_EENS_9allocatorIS6_EEED0Ev, symObjAddr: 0x28220, symBinAddr: 0x10002A0E0, symSize: 0x20 }
  - { offsetInCU: 0x2BC014, offset: 0x2BC014, size: 0x8, addend: 0x0, symName: __ZNSt3__120__shared_ptr_pointerIPN7testing8internal26ParameterizedTestSuiteInfoI14WithFamilyArgsE8TestInfoENS_10shared_ptrIS6_E27__shared_ptr_default_deleteIS6_S6_EENS_9allocatorIS6_EEE16__on_zero_sharedEv, symObjAddr: 0x28240, symBinAddr: 0x10002A100, symSize: 0x60 }
  - { offsetInCU: 0x2BC3A0, offset: 0x2BC3A0, size: 0x8, addend: 0x0, symName: __ZNKSt3__120__shared_ptr_pointerIPN7testing8internal26ParameterizedTestSuiteInfoI14WithFamilyArgsE8TestInfoENS_10shared_ptrIS6_E27__shared_ptr_default_deleteIS6_S6_EENS_9allocatorIS6_EEE13__get_deleterERKSt9type_info, symObjAddr: 0x282A0, symBinAddr: 0x10002A160, symSize: 0x20 }
  - { offsetInCU: 0x2BC463, offset: 0x2BC463, size: 0x8, addend: 0x0, symName: __ZNSt3__120__shared_ptr_pointerIPN7testing8internal26ParameterizedTestSuiteInfoI14WithFamilyArgsE8TestInfoENS_10shared_ptrIS6_E27__shared_ptr_default_deleteIS6_S6_EENS_9allocatorIS6_EEE21__on_zero_shared_weakEv, symObjAddr: 0x282C0, symBinAddr: 0x10002A180, symSize: 0x10 }
  - { offsetInCU: 0x2BC536, offset: 0x2BC536, size: 0x8, addend: 0x0, symName: __ZN7testing8internal15TestMetaFactoryI41WithFamilyArgs_StartListenerImplicit_TestED1Ev, symObjAddr: 0x28360, symBinAddr: 0x10002A220, symSize: 0x10 }
  - { offsetInCU: 0x2BC562, offset: 0x2BC562, size: 0x8, addend: 0x0, symName: __ZN7testing8internal15TestMetaFactoryI41WithFamilyArgs_StartListenerImplicit_TestED0Ev, symObjAddr: 0x28370, symBinAddr: 0x10002A230, symSize: 0x10 }
  - { offsetInCU: 0x2BC5FA, offset: 0x2BC5FA, size: 0x8, addend: 0x0, symName: __ZN7testing8internal15TestMetaFactoryI41WithFamilyArgs_StartListenerImplicit_TestE17CreateTestFactoryE10FamilyArgs, symObjAddr: 0x28380, symBinAddr: 0x10002A240, symSize: 0x30 }
  - { offsetInCU: 0x2BC679, offset: 0x2BC679, size: 0x8, addend: 0x0, symName: __ZN7testing8internal24ParameterizedTestFactoryI41WithFamilyArgs_StartListenerImplicit_TestED1Ev, symObjAddr: 0x283B0, symBinAddr: 0x10002A270, symSize: 0x10 }
  - { offsetInCU: 0x2BC6A5, offset: 0x2BC6A5, size: 0x8, addend: 0x0, symName: __ZN7testing8internal24ParameterizedTestFactoryI41WithFamilyArgs_StartListenerImplicit_TestED0Ev, symObjAddr: 0x283C0, symBinAddr: 0x10002A280, symSize: 0x10 }
  - { offsetInCU: 0x2BC735, offset: 0x2BC735, size: 0x8, addend: 0x0, symName: __ZN7testing8internal24ParameterizedTestFactoryI41WithFamilyArgs_StartListenerImplicit_TestE10CreateTestEv, symObjAddr: 0x283D0, symBinAddr: 0x10002A290, symSize: 0x60 }
  - { offsetInCU: 0x2BC7D0, offset: 0x2BC7D0, size: 0x8, addend: 0x0, symName: __ZN14WithFamilyArgsD1Ev, symObjAddr: 0x28430, symBinAddr: 0x100406FD0, symSize: 0x10 }
  - { offsetInCU: 0x2BC7F0, offset: 0x2BC7F0, size: 0x8, addend: 0x0, symName: __ZN14WithFamilyArgsD0Ev, symObjAddr: 0x28440, symBinAddr: 0x100406FE0, symSize: 0x10 }
  - { offsetInCU: 0x2BC82C, offset: 0x2BC82C, size: 0x8, addend: 0x0, symName: __ZThn16_N14WithFamilyArgsD1Ev, symObjAddr: 0x28450, symBinAddr: 0x100406FF0, symSize: 0x10 }
  - { offsetInCU: 0x2BC87D, offset: 0x2BC87D, size: 0x8, addend: 0x0, symName: __ZThn16_N14WithFamilyArgsD0Ev, symObjAddr: 0x28460, symBinAddr: 0x100407000, symSize: 0x10 }
  - { offsetInCU: 0x2BC8B2, offset: 0x2BC8B2, size: 0x8, addend: 0x0, symName: __ZN7testing18WithParamInterfaceI10FamilyArgsED1Ev, symObjAddr: 0x28470, symBinAddr: 0x10002A2F0, symSize: 0x10 }
  - { offsetInCU: 0x2BC8DB, offset: 0x2BC8DB, size: 0x8, addend: 0x0, symName: __ZN7testing18WithParamInterfaceI10FamilyArgsED0Ev, symObjAddr: 0x28480, symBinAddr: 0x10002A300, symSize: 0x10 }
  - { offsetInCU: 0x2BC909, offset: 0x2BC909, size: 0x8, addend: 0x0, symName: __ZN7testing8internal15TestFactoryImplI28Basic_StartTwoListeners_TestED1Ev, symObjAddr: 0x28490, symBinAddr: 0x10002A310, symSize: 0x10 }
  - { offsetInCU: 0x2BC935, offset: 0x2BC935, size: 0x8, addend: 0x0, symName: __ZN7testing8internal15TestFactoryImplI28Basic_StartTwoListeners_TestED0Ev, symObjAddr: 0x284A0, symBinAddr: 0x10002A320, symSize: 0x10 }
  - { offsetInCU: 0x2BC995, offset: 0x2BC995, size: 0x8, addend: 0x0, symName: __ZN7testing8internal15TestFactoryImplI28Basic_StartTwoListeners_TestE10CreateTestEv, symObjAddr: 0x284B0, symBinAddr: 0x10002A330, symSize: 0x50 }
  - { offsetInCU: 0x2BC9FB, offset: 0x2BC9FB, size: 0x8, addend: 0x0, symName: __ZN7testing8internal15TestFactoryImplI36Basic_StartTwoListenersSameALPN_TestED1Ev, symObjAddr: 0x28500, symBinAddr: 0x10002A380, symSize: 0x10 }
  - { offsetInCU: 0x2BCA27, offset: 0x2BCA27, size: 0x8, addend: 0x0, symName: __ZN7testing8internal15TestFactoryImplI36Basic_StartTwoListenersSameALPN_TestED0Ev, symObjAddr: 0x28510, symBinAddr: 0x10002A390, symSize: 0x10 }
  - { offsetInCU: 0x2BCA87, offset: 0x2BCA87, size: 0x8, addend: 0x0, symName: __ZN7testing8internal15TestFactoryImplI36Basic_StartTwoListenersSameALPN_TestE10CreateTestEv, symObjAddr: 0x28520, symBinAddr: 0x10002A3A0, symSize: 0x50 }
  - { offsetInCU: 0x2BCAE8, offset: 0x2BCAE8, size: 0x8, addend: 0x0, symName: __ZN7testing8internal15TestMetaFactoryI41WithFamilyArgs_StartListenerExplicit_TestED1Ev, symObjAddr: 0x28570, symBinAddr: 0x10002A3F0, symSize: 0x10 }
  - { offsetInCU: 0x2BCB14, offset: 0x2BCB14, size: 0x8, addend: 0x0, symName: __ZN7testing8internal15TestMetaFactoryI41WithFamilyArgs_StartListenerExplicit_TestED0Ev, symObjAddr: 0x28580, symBinAddr: 0x10002A400, symSize: 0x10 }
  - { offsetInCU: 0x2BCBAC, offset: 0x2BCBAC, size: 0x8, addend: 0x0, symName: __ZN7testing8internal15TestMetaFactoryI41WithFamilyArgs_StartListenerExplicit_TestE17CreateTestFactoryE10FamilyArgs, symObjAddr: 0x28590, symBinAddr: 0x10002A410, symSize: 0x30 }
  - { offsetInCU: 0x2BCC2B, offset: 0x2BCC2B, size: 0x8, addend: 0x0, symName: __ZN7testing8internal24ParameterizedTestFactoryI41WithFamilyArgs_StartListenerExplicit_TestED1Ev, symObjAddr: 0x285C0, symBinAddr: 0x10002A440, symSize: 0x10 }
  - { offsetInCU: 0x2BCC57, offset: 0x2BCC57, size: 0x8, addend: 0x0, symName: __ZN7testing8internal24ParameterizedTestFactoryI41WithFamilyArgs_StartListenerExplicit_TestED0Ev, symObjAddr: 0x285D0, symBinAddr: 0x10002A450, symSize: 0x10 }
  - { offsetInCU: 0x2BCCB7, offset: 0x2BCCB7, size: 0x8, addend: 0x0, symName: __ZN7testing8internal24ParameterizedTestFactoryI41WithFamilyArgs_StartListenerExplicit_TestE10CreateTestEv, symObjAddr: 0x285E0, symBinAddr: 0x10002A460, symSize: 0x60 }
  - { offsetInCU: 0x2BCD57, offset: 0x2BCD57, size: 0x8, addend: 0x0, symName: __ZN7testing8internal15TestFactoryImplI27Basic_CreateConnection_TestED1Ev, symObjAddr: 0x28640, symBinAddr: 0x10002A4C0, symSize: 0x10 }
  - { offsetInCU: 0x2BCD83, offset: 0x2BCD83, size: 0x8, addend: 0x0, symName: __ZN7testing8internal15TestFactoryImplI27Basic_CreateConnection_TestED0Ev, symObjAddr: 0x28650, symBinAddr: 0x10002A4D0, symSize: 0x10 }
  - { offsetInCU: 0x2BCDE3, offset: 0x2BCDE3, size: 0x8, addend: 0x0, symName: __ZN7testing8internal15TestFactoryImplI27Basic_CreateConnection_TestE10CreateTestEv, symObjAddr: 0x28660, symBinAddr: 0x10002A4E0, symSize: 0x50 }
  - { offsetInCU: 0x2BCE49, offset: 0x2BCE49, size: 0x8, addend: 0x0, symName: __ZN7testing8internal15TestFactoryImplI38Basic_ConnectionCloseFromCallback_TestED1Ev, symObjAddr: 0x286B0, symBinAddr: 0x10002A530, symSize: 0x10 }
  - { offsetInCU: 0x2BCE75, offset: 0x2BCE75, size: 0x8, addend: 0x0, symName: __ZN7testing8internal15TestFactoryImplI38Basic_ConnectionCloseFromCallback_TestED0Ev, symObjAddr: 0x286C0, symBinAddr: 0x10002A540, symSize: 0x10 }
  - { offsetInCU: 0x2BCED5, offset: 0x2BCED5, size: 0x8, addend: 0x0, symName: __ZN7testing8internal15TestFactoryImplI38Basic_ConnectionCloseFromCallback_TestE10CreateTestEv, symObjAddr: 0x286D0, symBinAddr: 0x10002A550, symSize: 0x50 }
  - { offsetInCU: 0x2BCF36, offset: 0x2BCF36, size: 0x8, addend: 0x0, symName: __ZN7testing8internal15TestMetaFactoryI30WithBool_RejectConnection_TestED1Ev, symObjAddr: 0x28720, symBinAddr: 0x10002A5A0, symSize: 0x10 }
  - { offsetInCU: 0x2BCF62, offset: 0x2BCF62, size: 0x8, addend: 0x0, symName: __ZN7testing8internal15TestMetaFactoryI30WithBool_RejectConnection_TestED0Ev, symObjAddr: 0x28730, symBinAddr: 0x10002A5B0, symSize: 0x10 }
  - { offsetInCU: 0x2BCFFA, offset: 0x2BCFFA, size: 0x8, addend: 0x0, symName: __ZN7testing8internal15TestMetaFactoryI30WithBool_RejectConnection_TestE17CreateTestFactoryEb, symObjAddr: 0x28740, symBinAddr: 0x10002A5C0, symSize: 0x30 }
  - { offsetInCU: 0x2BD072, offset: 0x2BD072, size: 0x8, addend: 0x0, symName: __ZN7testing8internal24ParameterizedTestFactoryI30WithBool_RejectConnection_TestED1Ev, symObjAddr: 0x28770, symBinAddr: 0x10002A5F0, symSize: 0x10 }
  - { offsetInCU: 0x2BD09E, offset: 0x2BD09E, size: 0x8, addend: 0x0, symName: __ZN7testing8internal24ParameterizedTestFactoryI30WithBool_RejectConnection_TestED0Ev, symObjAddr: 0x28780, symBinAddr: 0x10002A600, symSize: 0x10 }
  - { offsetInCU: 0x2BD0FE, offset: 0x2BD0FE, size: 0x8, addend: 0x0, symName: __ZN7testing8internal24ParameterizedTestFactoryI30WithBool_RejectConnection_TestE10CreateTestEv, symObjAddr: 0x28790, symBinAddr: 0x10002A610, symSize: 0x60 }
  - { offsetInCU: 0x2BD199, offset: 0x2BD199, size: 0x8, addend: 0x0, symName: __ZN7testing8internal15TestMetaFactoryI23WithFamilyArgs_Ecn_TestED1Ev, symObjAddr: 0x287F0, symBinAddr: 0x10002A670, symSize: 0x10 }
  - { offsetInCU: 0x2BD1C5, offset: 0x2BD1C5, size: 0x8, addend: 0x0, symName: __ZN7testing8internal15TestMetaFactoryI23WithFamilyArgs_Ecn_TestED0Ev, symObjAddr: 0x28800, symBinAddr: 0x10002A680, symSize: 0x10 }
  - { offsetInCU: 0x2BD25D, offset: 0x2BD25D, size: 0x8, addend: 0x0, symName: __ZN7testing8internal15TestMetaFactoryI23WithFamilyArgs_Ecn_TestE17CreateTestFactoryE10FamilyArgs, symObjAddr: 0x28810, symBinAddr: 0x10002A690, symSize: 0x30 }
  - { offsetInCU: 0x2BD2DC, offset: 0x2BD2DC, size: 0x8, addend: 0x0, symName: __ZN7testing8internal24ParameterizedTestFactoryI23WithFamilyArgs_Ecn_TestED1Ev, symObjAddr: 0x28840, symBinAddr: 0x10002A6C0, symSize: 0x10 }
  - { offsetInCU: 0x2BD308, offset: 0x2BD308, size: 0x8, addend: 0x0, symName: __ZN7testing8internal24ParameterizedTestFactoryI23WithFamilyArgs_Ecn_TestED0Ev, symObjAddr: 0x28850, symBinAddr: 0x10002A6D0, symSize: 0x10 }
  - { offsetInCU: 0x2BD368, offset: 0x2BD368, size: 0x8, addend: 0x0, symName: __ZN7testing8internal24ParameterizedTestFactoryI23WithFamilyArgs_Ecn_TestE10CreateTestEv, symObjAddr: 0x28860, symBinAddr: 0x10002A6E0, symSize: 0x60 }
  - { offsetInCU: 0x2BD403, offset: 0x2BD403, size: 0x8, addend: 0x0, symName: __ZN7testing8internal15TestMetaFactoryI36WithFamilyArgs_LocalPathChanges_TestED1Ev, symObjAddr: 0x288C0, symBinAddr: 0x10002A740, symSize: 0x10 }
  - { offsetInCU: 0x2BD42F, offset: 0x2BD42F, size: 0x8, addend: 0x0, symName: __ZN7testing8internal15TestMetaFactoryI36WithFamilyArgs_LocalPathChanges_TestED0Ev, symObjAddr: 0x288D0, symBinAddr: 0x10002A750, symSize: 0x10 }
  - { offsetInCU: 0x2BD4C7, offset: 0x2BD4C7, size: 0x8, addend: 0x0, symName: __ZN7testing8internal15TestMetaFactoryI36WithFamilyArgs_LocalPathChanges_TestE17CreateTestFactoryE10FamilyArgs, symObjAddr: 0x288E0, symBinAddr: 0x10002A760, symSize: 0x30 }
  - { offsetInCU: 0x2BD546, offset: 0x2BD546, size: 0x8, addend: 0x0, symName: __ZN7testing8internal24ParameterizedTestFactoryI36WithFamilyArgs_LocalPathChanges_TestED1Ev, symObjAddr: 0x28910, symBinAddr: 0x10002A790, symSize: 0x10 }
  - { offsetInCU: 0x2BD572, offset: 0x2BD572, size: 0x8, addend: 0x0, symName: __ZN7testing8internal24ParameterizedTestFactoryI36WithFamilyArgs_LocalPathChanges_TestED0Ev, symObjAddr: 0x28920, symBinAddr: 0x10002A7A0, symSize: 0x10 }
  - { offsetInCU: 0x2BD5D2, offset: 0x2BD5D2, size: 0x8, addend: 0x0, symName: __ZN7testing8internal24ParameterizedTestFactoryI36WithFamilyArgs_LocalPathChanges_TestE10CreateTestEv, symObjAddr: 0x28930, symBinAddr: 0x10002A7B0, symSize: 0x60 }
  - { offsetInCU: 0x2BD672, offset: 0x2BD672, size: 0x8, addend: 0x0, symName: __ZN7testing8internal15TestFactoryImplI17Mtu_Settings_TestED1Ev, symObjAddr: 0x28990, symBinAddr: 0x10002A810, symSize: 0x10 }
  - { offsetInCU: 0x2BD69E, offset: 0x2BD69E, size: 0x8, addend: 0x0, symName: __ZN7testing8internal15TestFactoryImplI17Mtu_Settings_TestED0Ev, symObjAddr: 0x289A0, symBinAddr: 0x10002A820, symSize: 0x10 }
  - { offsetInCU: 0x2BD6FE, offset: 0x2BD6FE, size: 0x8, addend: 0x0, symName: __ZN7testing8internal15TestFactoryImplI17Mtu_Settings_TestE10CreateTestEv, symObjAddr: 0x289B0, symBinAddr: 0x10002A830, symSize: 0x50 }
  - { offsetInCU: 0x2BDA46, offset: 0x2BDA46, size: 0x8, addend: 0x0, symName: __ZNSt3__110shared_ptrIN7testing8internal26ParameterizedTestSuiteInfoI11WithMtuArgsE8TestInfoEEC1B8ue170006IS6_vEEPT_, symObjAddr: 0x28DD0, symBinAddr: 0x10002AC50, symSize: 0x60 }
  - { offsetInCU: 0x2BDC1F, offset: 0x2BDC1F, size: 0x8, addend: 0x0, symName: __ZNSt3__16vectorINS_10shared_ptrIN7testing8internal26ParameterizedTestSuiteInfoI11WithMtuArgsE8TestInfoEEENS_9allocatorIS8_EEE24__emplace_back_slow_pathIJPS7_EEEvDpOT_, symObjAddr: 0x28C00, symBinAddr: 0x10002AA80, symSize: 0x1D0 }
  - { offsetInCU: 0x2BE79A, offset: 0x2BE79A, size: 0x8, addend: 0x0, symName: __ZNKSt3__16vectorINS_10shared_ptrIN7testing8internal26ParameterizedTestSuiteInfoI11WithMtuArgsE8TestInfoEEENS_9allocatorIS8_EEE20__throw_length_errorB8ue170006Ev, symObjAddr: 0x28F70, symBinAddr: 0x10002ADF0, symSize: 0x10 }
  - { offsetInCU: 0x2BE7C3, offset: 0x2BE7C3, size: 0x8, addend: 0x0, symName: __ZN7testing8internal15TestMetaFactoryI29WithMtuArgs_MtuDiscovery_TestED1Ev, symObjAddr: 0x28F80, symBinAddr: 0x10002AE00, symSize: 0x10 }
  - { offsetInCU: 0x2BE7CE, offset: 0x2BE7CE, size: 0x8, addend: 0x0, symName: __ZNSt3__114__split_bufferINS_10shared_ptrIN7testing8internal26ParameterizedTestSuiteInfoI11WithMtuArgsE8TestInfoEEERNS_9allocatorIS8_EEED1Ev, symObjAddr: 0x28EF0, symBinAddr: 0x10002AD70, symSize: 0x80 }
  - { offsetInCU: 0x2BED42, offset: 0x2BED42, size: 0x8, addend: 0x0, symName: __ZNSt3__110shared_ptrIN7testing8internal26ParameterizedTestSuiteInfoI11WithMtuArgsE8TestInfoEEC1B8ue170006IS6_vEEPT_.cold.1, symObjAddr: 0x81B80, symBinAddr: 0x1004079B0, symSize: 0x50 }
  - { offsetInCU: 0x2BF0A6, offset: 0x2BF0A6, size: 0x8, addend: 0x0, symName: __ZNSt3__120__shared_ptr_pointerIPN7testing8internal26ParameterizedTestSuiteInfoI11WithMtuArgsE8TestInfoENS_10shared_ptrIS6_E27__shared_ptr_default_deleteIS6_S6_EENS_9allocatorIS6_EEED1Ev, symObjAddr: 0x28E30, symBinAddr: 0x10002ACB0, symSize: 0x10 }
  - { offsetInCU: 0x2BF0FE, offset: 0x2BF0FE, size: 0x8, addend: 0x0, symName: __ZNSt3__120__shared_ptr_pointerIPN7testing8internal26ParameterizedTestSuiteInfoI11WithMtuArgsE8TestInfoENS_10shared_ptrIS6_E27__shared_ptr_default_deleteIS6_S6_EENS_9allocatorIS6_EEED0Ev, symObjAddr: 0x28E40, symBinAddr: 0x10002ACC0, symSize: 0x20 }
  - { offsetInCU: 0x2BF226, offset: 0x2BF226, size: 0x8, addend: 0x0, symName: __ZNSt3__120__shared_ptr_pointerIPN7testing8internal26ParameterizedTestSuiteInfoI11WithMtuArgsE8TestInfoENS_10shared_ptrIS6_E27__shared_ptr_default_deleteIS6_S6_EENS_9allocatorIS6_EEE16__on_zero_sharedEv, symObjAddr: 0x28E60, symBinAddr: 0x10002ACE0, symSize: 0x60 }
  - { offsetInCU: 0x2BF5B2, offset: 0x2BF5B2, size: 0x8, addend: 0x0, symName: __ZNKSt3__120__shared_ptr_pointerIPN7testing8internal26ParameterizedTestSuiteInfoI11WithMtuArgsE8TestInfoENS_10shared_ptrIS6_E27__shared_ptr_default_deleteIS6_S6_EENS_9allocatorIS6_EEE13__get_deleterERKSt9type_info, symObjAddr: 0x28EC0, symBinAddr: 0x10002AD40, symSize: 0x20 }
  - { offsetInCU: 0x2BF675, offset: 0x2BF675, size: 0x8, addend: 0x0, symName: __ZNSt3__120__shared_ptr_pointerIPN7testing8internal26ParameterizedTestSuiteInfoI11WithMtuArgsE8TestInfoENS_10shared_ptrIS6_E27__shared_ptr_default_deleteIS6_S6_EENS_9allocatorIS6_EEE21__on_zero_shared_weakEv, symObjAddr: 0x28EE0, symBinAddr: 0x10002AD60, symSize: 0x10 }
  - { offsetInCU: 0x2BF748, offset: 0x2BF748, size: 0x8, addend: 0x0, symName: __ZN7testing8internal15TestMetaFactoryI29WithMtuArgs_MtuDiscovery_TestED1Ev, symObjAddr: 0x28F80, symBinAddr: 0x10002AE00, symSize: 0x10 }
  - { offsetInCU: 0x2BF774, offset: 0x2BF774, size: 0x8, addend: 0x0, symName: __ZN7testing8internal15TestMetaFactoryI29WithMtuArgs_MtuDiscovery_TestED0Ev, symObjAddr: 0x28F90, symBinAddr: 0x10002AE10, symSize: 0x10 }
  - { offsetInCU: 0x2BF80C, offset: 0x2BF80C, size: 0x8, addend: 0x0, symName: __ZN7testing8internal15TestMetaFactoryI29WithMtuArgs_MtuDiscovery_TestE17CreateTestFactoryE7MtuArgs, symObjAddr: 0x28FA0, symBinAddr: 0x10002AE20, symSize: 0x30 }
  - { offsetInCU: 0x2BF88F, offset: 0x2BF88F, size: 0x8, addend: 0x0, symName: __ZN7testing8internal24ParameterizedTestFactoryI29WithMtuArgs_MtuDiscovery_TestED1Ev, symObjAddr: 0x28FD0, symBinAddr: 0x10002AE50, symSize: 0x10 }
  - { offsetInCU: 0x2BF8BB, offset: 0x2BF8BB, size: 0x8, addend: 0x0, symName: __ZN7testing8internal24ParameterizedTestFactoryI29WithMtuArgs_MtuDiscovery_TestED0Ev, symObjAddr: 0x28FE0, symBinAddr: 0x10002AE60, symSize: 0x10 }
  - { offsetInCU: 0x2BF94B, offset: 0x2BF94B, size: 0x8, addend: 0x0, symName: __ZN7testing8internal24ParameterizedTestFactoryI29WithMtuArgs_MtuDiscovery_TestE10CreateTestEv, symObjAddr: 0x28FF0, symBinAddr: 0x10002AE70, symSize: 0x60 }
  - { offsetInCU: 0x2BF9E6, offset: 0x2BF9E6, size: 0x8, addend: 0x0, symName: __ZN11WithMtuArgsD1Ev, symObjAddr: 0x29050, symBinAddr: 0x100407010, symSize: 0x10 }
  - { offsetInCU: 0x2BFA06, offset: 0x2BFA06, size: 0x8, addend: 0x0, symName: __ZN11WithMtuArgsD0Ev, symObjAddr: 0x29060, symBinAddr: 0x100407020, symSize: 0x10 }
  - { offsetInCU: 0x2BFA42, offset: 0x2BFA42, size: 0x8, addend: 0x0, symName: __ZThn16_N11WithMtuArgsD1Ev, symObjAddr: 0x29070, symBinAddr: 0x100407030, symSize: 0x10 }
  - { offsetInCU: 0x2BFA93, offset: 0x2BFA93, size: 0x8, addend: 0x0, symName: __ZThn16_N11WithMtuArgsD0Ev, symObjAddr: 0x29080, symBinAddr: 0x100407040, symSize: 0x10 }
  - { offsetInCU: 0x2BFAC8, offset: 0x2BFAC8, size: 0x8, addend: 0x0, symName: __ZN7testing18WithParamInterfaceI7MtuArgsED1Ev, symObjAddr: 0x29090, symBinAddr: 0x10002AED0, symSize: 0x10 }
  - { offsetInCU: 0x2BFAF1, offset: 0x2BFAF1, size: 0x8, addend: 0x0, symName: __ZN7testing18WithParamInterfaceI7MtuArgsED0Ev, symObjAddr: 0x290A0, symBinAddr: 0x10002AEE0, symSize: 0x10 }
  - { offsetInCU: 0x2BFB1F, offset: 0x2BFB1F, size: 0x8, addend: 0x0, symName: __ZN7testing8internal15TestFactoryImplI26Alpn_ValidAlpnLengths_TestED1Ev, symObjAddr: 0x290B0, symBinAddr: 0x10002AEF0, symSize: 0x10 }
  - { offsetInCU: 0x2BFB4B, offset: 0x2BFB4B, size: 0x8, addend: 0x0, symName: __ZN7testing8internal15TestFactoryImplI26Alpn_ValidAlpnLengths_TestED0Ev, symObjAddr: 0x290C0, symBinAddr: 0x10002AF00, symSize: 0x10 }
  - { offsetInCU: 0x2BFBAB, offset: 0x2BFBAB, size: 0x8, addend: 0x0, symName: __ZN7testing8internal15TestFactoryImplI26Alpn_ValidAlpnLengths_TestE10CreateTestEv, symObjAddr: 0x290D0, symBinAddr: 0x10002AF10, symSize: 0x50 }
  - { offsetInCU: 0x2BFC11, offset: 0x2BFC11, size: 0x8, addend: 0x0, symName: __ZN7testing8internal15TestFactoryImplI28Alpn_InvalidAlpnLengths_TestED1Ev, symObjAddr: 0x29120, symBinAddr: 0x10002AF60, symSize: 0x10 }
  - { offsetInCU: 0x2BFC3D, offset: 0x2BFC3D, size: 0x8, addend: 0x0, symName: __ZN7testing8internal15TestFactoryImplI28Alpn_InvalidAlpnLengths_TestED0Ev, symObjAddr: 0x29130, symBinAddr: 0x10002AF70, symSize: 0x10 }
  - { offsetInCU: 0x2BFC9D, offset: 0x2BFC9D, size: 0x8, addend: 0x0, symName: __ZN7testing8internal15TestFactoryImplI28Alpn_InvalidAlpnLengths_TestE10CreateTestEv, symObjAddr: 0x29140, symBinAddr: 0x10002AF80, symSize: 0x50 }
  - { offsetInCU: 0x2BFD03, offset: 0x2BFD03, size: 0x8, addend: 0x0, symName: __ZN7testing8internal15TestFactoryImplI20Alpn_ChangeAlpn_TestED1Ev, symObjAddr: 0x29190, symBinAddr: 0x10002AFD0, symSize: 0x10 }
  - { offsetInCU: 0x2BFD2F, offset: 0x2BFD2F, size: 0x8, addend: 0x0, symName: __ZN7testing8internal15TestFactoryImplI20Alpn_ChangeAlpn_TestED0Ev, symObjAddr: 0x291A0, symBinAddr: 0x10002AFE0, symSize: 0x10 }
  - { offsetInCU: 0x2BFD8F, offset: 0x2BFD8F, size: 0x8, addend: 0x0, symName: __ZN7testing8internal15TestFactoryImplI20Alpn_ChangeAlpn_TestE10CreateTestEv, symObjAddr: 0x291B0, symBinAddr: 0x10002AFF0, symSize: 0x50 }
  - { offsetInCU: 0x2BFDF0, offset: 0x2BFDF0, size: 0x8, addend: 0x0, symName: __ZN7testing8internal15TestMetaFactoryI42WithFamilyArgs_BindConnectionImplicit_TestED1Ev, symObjAddr: 0x29200, symBinAddr: 0x10002B040, symSize: 0x10 }
  - { offsetInCU: 0x2BFE1C, offset: 0x2BFE1C, size: 0x8, addend: 0x0, symName: __ZN7testing8internal15TestMetaFactoryI42WithFamilyArgs_BindConnectionImplicit_TestED0Ev, symObjAddr: 0x29210, symBinAddr: 0x10002B050, symSize: 0x10 }
  - { offsetInCU: 0x2BFEB4, offset: 0x2BFEB4, size: 0x8, addend: 0x0, symName: __ZN7testing8internal15TestMetaFactoryI42WithFamilyArgs_BindConnectionImplicit_TestE17CreateTestFactoryE10FamilyArgs, symObjAddr: 0x29220, symBinAddr: 0x10002B060, symSize: 0x30 }
  - { offsetInCU: 0x2BFF33, offset: 0x2BFF33, size: 0x8, addend: 0x0, symName: __ZN7testing8internal24ParameterizedTestFactoryI42WithFamilyArgs_BindConnectionImplicit_TestED1Ev, symObjAddr: 0x29250, symBinAddr: 0x10002B090, symSize: 0x10 }
  - { offsetInCU: 0x2BFF5F, offset: 0x2BFF5F, size: 0x8, addend: 0x0, symName: __ZN7testing8internal24ParameterizedTestFactoryI42WithFamilyArgs_BindConnectionImplicit_TestED0Ev, symObjAddr: 0x29260, symBinAddr: 0x10002B0A0, symSize: 0x10 }
  - { offsetInCU: 0x2BFFBF, offset: 0x2BFFBF, size: 0x8, addend: 0x0, symName: __ZN7testing8internal24ParameterizedTestFactoryI42WithFamilyArgs_BindConnectionImplicit_TestE10CreateTestEv, symObjAddr: 0x29270, symBinAddr: 0x10002B0B0, symSize: 0x60 }
  - { offsetInCU: 0x2C005A, offset: 0x2C005A, size: 0x8, addend: 0x0, symName: __ZN7testing8internal15TestMetaFactoryI42WithFamilyArgs_BindConnectionExplicit_TestED1Ev, symObjAddr: 0x292D0, symBinAddr: 0x10002B110, symSize: 0x10 }
  - { offsetInCU: 0x2C0086, offset: 0x2C0086, size: 0x8, addend: 0x0, symName: __ZN7testing8internal15TestMetaFactoryI42WithFamilyArgs_BindConnectionExplicit_TestED0Ev, symObjAddr: 0x292E0, symBinAddr: 0x10002B120, symSize: 0x10 }
  - { offsetInCU: 0x2C011E, offset: 0x2C011E, size: 0x8, addend: 0x0, symName: __ZN7testing8internal15TestMetaFactoryI42WithFamilyArgs_BindConnectionExplicit_TestE17CreateTestFactoryE10FamilyArgs, symObjAddr: 0x292F0, symBinAddr: 0x10002B130, symSize: 0x30 }
  - { offsetInCU: 0x2C019D, offset: 0x2C019D, size: 0x8, addend: 0x0, symName: __ZN7testing8internal24ParameterizedTestFactoryI42WithFamilyArgs_BindConnectionExplicit_TestED1Ev, symObjAddr: 0x29320, symBinAddr: 0x10002B160, symSize: 0x10 }
  - { offsetInCU: 0x2C01C9, offset: 0x2C01C9, size: 0x8, addend: 0x0, symName: __ZN7testing8internal24ParameterizedTestFactoryI42WithFamilyArgs_BindConnectionExplicit_TestED0Ev, symObjAddr: 0x29330, symBinAddr: 0x10002B170, symSize: 0x10 }
  - { offsetInCU: 0x2C0229, offset: 0x2C0229, size: 0x8, addend: 0x0, symName: __ZN7testing8internal24ParameterizedTestFactoryI42WithFamilyArgs_BindConnectionExplicit_TestE10CreateTestEv, symObjAddr: 0x29340, symBinAddr: 0x10002B180, symSize: 0x60 }
  - { offsetInCU: 0x2C05AB, offset: 0x2C05AB, size: 0x8, addend: 0x0, symName: __ZNSt3__110shared_ptrIN7testing8internal26ParameterizedTestSuiteInfoI18WithHandshakeArgs1E8TestInfoEEC1B8ue170006IS6_vEEPT_, symObjAddr: 0x29770, symBinAddr: 0x10002B5B0, symSize: 0x60 }
  - { offsetInCU: 0x2C0784, offset: 0x2C0784, size: 0x8, addend: 0x0, symName: __ZNSt3__16vectorINS_10shared_ptrIN7testing8internal26ParameterizedTestSuiteInfoI18WithHandshakeArgs1E8TestInfoEEENS_9allocatorIS8_EEE24__emplace_back_slow_pathIJPS7_EEEvDpOT_, symObjAddr: 0x295A0, symBinAddr: 0x10002B3E0, symSize: 0x1D0 }
  - { offsetInCU: 0x2C12FF, offset: 0x2C12FF, size: 0x8, addend: 0x0, symName: __ZNKSt3__16vectorINS_10shared_ptrIN7testing8internal26ParameterizedTestSuiteInfoI18WithHandshakeArgs1E8TestInfoEEENS_9allocatorIS8_EEE20__throw_length_errorB8ue170006Ev, symObjAddr: 0x29910, symBinAddr: 0x10002B750, symSize: 0x10 }
  - { offsetInCU: 0x2C1328, offset: 0x2C1328, size: 0x8, addend: 0x0, symName: __ZN7testing8internal15TestMetaFactoryI31WithHandshakeArgs1_Connect_TestED1Ev, symObjAddr: 0x29920, symBinAddr: 0x10002B760, symSize: 0x10 }
  - { offsetInCU: 0x2C1333, offset: 0x2C1333, size: 0x8, addend: 0x0, symName: __ZNSt3__114__split_bufferINS_10shared_ptrIN7testing8internal26ParameterizedTestSuiteInfoI18WithHandshakeArgs1E8TestInfoEEERNS_9allocatorIS8_EEED1Ev, symObjAddr: 0x29890, symBinAddr: 0x10002B6D0, symSize: 0x80 }
  - { offsetInCU: 0x2C18A7, offset: 0x2C18A7, size: 0x8, addend: 0x0, symName: __ZNSt3__110shared_ptrIN7testing8internal26ParameterizedTestSuiteInfoI18WithHandshakeArgs1E8TestInfoEEC1B8ue170006IS6_vEEPT_.cold.1, symObjAddr: 0x81BD0, symBinAddr: 0x100407A00, symSize: 0x50 }
  - { offsetInCU: 0x2C1C0B, offset: 0x2C1C0B, size: 0x8, addend: 0x0, symName: __ZNSt3__120__shared_ptr_pointerIPN7testing8internal26ParameterizedTestSuiteInfoI18WithHandshakeArgs1E8TestInfoENS_10shared_ptrIS6_E27__shared_ptr_default_deleteIS6_S6_EENS_9allocatorIS6_EEED1Ev, symObjAddr: 0x297D0, symBinAddr: 0x10002B610, symSize: 0x10 }
  - { offsetInCU: 0x2C1C63, offset: 0x2C1C63, size: 0x8, addend: 0x0, symName: __ZNSt3__120__shared_ptr_pointerIPN7testing8internal26ParameterizedTestSuiteInfoI18WithHandshakeArgs1E8TestInfoENS_10shared_ptrIS6_E27__shared_ptr_default_deleteIS6_S6_EENS_9allocatorIS6_EEED0Ev, symObjAddr: 0x297E0, symBinAddr: 0x10002B620, symSize: 0x20 }
  - { offsetInCU: 0x2C1D8B, offset: 0x2C1D8B, size: 0x8, addend: 0x0, symName: __ZNSt3__120__shared_ptr_pointerIPN7testing8internal26ParameterizedTestSuiteInfoI18WithHandshakeArgs1E8TestInfoENS_10shared_ptrIS6_E27__shared_ptr_default_deleteIS6_S6_EENS_9allocatorIS6_EEE16__on_zero_sharedEv, symObjAddr: 0x29800, symBinAddr: 0x10002B640, symSize: 0x60 }
  - { offsetInCU: 0x2C2117, offset: 0x2C2117, size: 0x8, addend: 0x0, symName: __ZNKSt3__120__shared_ptr_pointerIPN7testing8internal26ParameterizedTestSuiteInfoI18WithHandshakeArgs1E8TestInfoENS_10shared_ptrIS6_E27__shared_ptr_default_deleteIS6_S6_EENS_9allocatorIS6_EEE13__get_deleterERKSt9type_info, symObjAddr: 0x29860, symBinAddr: 0x10002B6A0, symSize: 0x20 }
  - { offsetInCU: 0x2C21DA, offset: 0x2C21DA, size: 0x8, addend: 0x0, symName: __ZNSt3__120__shared_ptr_pointerIPN7testing8internal26ParameterizedTestSuiteInfoI18WithHandshakeArgs1E8TestInfoENS_10shared_ptrIS6_E27__shared_ptr_default_deleteIS6_S6_EENS_9allocatorIS6_EEE21__on_zero_shared_weakEv, symObjAddr: 0x29880, symBinAddr: 0x10002B6C0, symSize: 0x10 }
  - { offsetInCU: 0x2C22AD, offset: 0x2C22AD, size: 0x8, addend: 0x0, symName: __ZN7testing8internal15TestMetaFactoryI31WithHandshakeArgs1_Connect_TestED1Ev, symObjAddr: 0x29920, symBinAddr: 0x10002B760, symSize: 0x10 }
  - { offsetInCU: 0x2C22D9, offset: 0x2C22D9, size: 0x8, addend: 0x0, symName: __ZN7testing8internal15TestMetaFactoryI31WithHandshakeArgs1_Connect_TestED0Ev, symObjAddr: 0x29930, symBinAddr: 0x10002B770, symSize: 0x10 }
  - { offsetInCU: 0x2C2371, offset: 0x2C2371, size: 0x8, addend: 0x0, symName: __ZN7testing8internal15TestMetaFactoryI31WithHandshakeArgs1_Connect_TestE17CreateTestFactoryE14HandshakeArgs1, symObjAddr: 0x29940, symBinAddr: 0x10002B780, symSize: 0x30 }
  - { offsetInCU: 0x2C23F0, offset: 0x2C23F0, size: 0x8, addend: 0x0, symName: __ZN7testing8internal24ParameterizedTestFactoryI31WithHandshakeArgs1_Connect_TestED1Ev, symObjAddr: 0x29970, symBinAddr: 0x10002B7B0, symSize: 0x10 }
  - { offsetInCU: 0x2C241C, offset: 0x2C241C, size: 0x8, addend: 0x0, symName: __ZN7testing8internal24ParameterizedTestFactoryI31WithHandshakeArgs1_Connect_TestED0Ev, symObjAddr: 0x29980, symBinAddr: 0x10002B7C0, symSize: 0x10 }
  - { offsetInCU: 0x2C24AC, offset: 0x2C24AC, size: 0x8, addend: 0x0, symName: __ZN7testing8internal24ParameterizedTestFactoryI31WithHandshakeArgs1_Connect_TestE10CreateTestEv, symObjAddr: 0x29990, symBinAddr: 0x10002B7D0, symSize: 0x60 }
  - { offsetInCU: 0x2C2547, offset: 0x2C2547, size: 0x8, addend: 0x0, symName: __ZN18WithHandshakeArgs1D1Ev, symObjAddr: 0x299F0, symBinAddr: 0x100407050, symSize: 0x10 }
  - { offsetInCU: 0x2C2567, offset: 0x2C2567, size: 0x8, addend: 0x0, symName: __ZN18WithHandshakeArgs1D0Ev, symObjAddr: 0x29A00, symBinAddr: 0x100407060, symSize: 0x10 }
  - { offsetInCU: 0x2C25A3, offset: 0x2C25A3, size: 0x8, addend: 0x0, symName: __ZThn16_N18WithHandshakeArgs1D1Ev, symObjAddr: 0x29A10, symBinAddr: 0x100407070, symSize: 0x10 }
  - { offsetInCU: 0x2C25F4, offset: 0x2C25F4, size: 0x8, addend: 0x0, symName: __ZThn16_N18WithHandshakeArgs1D0Ev, symObjAddr: 0x29A20, symBinAddr: 0x100407080, symSize: 0x10 }
  - { offsetInCU: 0x2C2629, offset: 0x2C2629, size: 0x8, addend: 0x0, symName: __ZN7testing18WithParamInterfaceI14HandshakeArgs1ED1Ev, symObjAddr: 0x29A30, symBinAddr: 0x10002B830, symSize: 0x10 }
  - { offsetInCU: 0x2C2652, offset: 0x2C2652, size: 0x8, addend: 0x0, symName: __ZN7testing18WithParamInterfaceI14HandshakeArgs1ED0Ev, symObjAddr: 0x29A40, symBinAddr: 0x10002B840, symSize: 0x10 }
  - { offsetInCU: 0x2C267B, offset: 0x2C267B, size: 0x8, addend: 0x0, symName: __ZN7testing8internal15TestMetaFactoryI30WithHandshakeArgs1_Resume_TestED1Ev, symObjAddr: 0x29A50, symBinAddr: 0x10002B850, symSize: 0x10 }
  - { offsetInCU: 0x2C26A7, offset: 0x2C26A7, size: 0x8, addend: 0x0, symName: __ZN7testing8internal15TestMetaFactoryI30WithHandshakeArgs1_Resume_TestED0Ev, symObjAddr: 0x29A60, symBinAddr: 0x10002B860, symSize: 0x10 }
  - { offsetInCU: 0x2C273F, offset: 0x2C273F, size: 0x8, addend: 0x0, symName: __ZN7testing8internal15TestMetaFactoryI30WithHandshakeArgs1_Resume_TestE17CreateTestFactoryE14HandshakeArgs1, symObjAddr: 0x29A70, symBinAddr: 0x10002B870, symSize: 0x30 }
  - { offsetInCU: 0x2C27BE, offset: 0x2C27BE, size: 0x8, addend: 0x0, symName: __ZN7testing8internal24ParameterizedTestFactoryI30WithHandshakeArgs1_Resume_TestED1Ev, symObjAddr: 0x29AA0, symBinAddr: 0x10002B8A0, symSize: 0x10 }
  - { offsetInCU: 0x2C27EA, offset: 0x2C27EA, size: 0x8, addend: 0x0, symName: __ZN7testing8internal24ParameterizedTestFactoryI30WithHandshakeArgs1_Resume_TestED0Ev, symObjAddr: 0x29AB0, symBinAddr: 0x10002B8B0, symSize: 0x10 }
  - { offsetInCU: 0x2C284A, offset: 0x2C284A, size: 0x8, addend: 0x0, symName: __ZN7testing8internal24ParameterizedTestFactoryI30WithHandshakeArgs1_Resume_TestE10CreateTestEv, symObjAddr: 0x29AC0, symBinAddr: 0x10002B8C0, symSize: 0x60 }
  - { offsetInCU: 0x2C28E5, offset: 0x2C28E5, size: 0x8, addend: 0x0, symName: __ZN7testing8internal15TestMetaFactoryI35WithHandshakeArgs1_ResumeAsync_TestED1Ev, symObjAddr: 0x29B20, symBinAddr: 0x10002B920, symSize: 0x10 }
  - { offsetInCU: 0x2C2911, offset: 0x2C2911, size: 0x8, addend: 0x0, symName: __ZN7testing8internal15TestMetaFactoryI35WithHandshakeArgs1_ResumeAsync_TestED0Ev, symObjAddr: 0x29B30, symBinAddr: 0x10002B930, symSize: 0x10 }
  - { offsetInCU: 0x2C29A9, offset: 0x2C29A9, size: 0x8, addend: 0x0, symName: __ZN7testing8internal15TestMetaFactoryI35WithHandshakeArgs1_ResumeAsync_TestE17CreateTestFactoryE14HandshakeArgs1, symObjAddr: 0x29B40, symBinAddr: 0x10002B940, symSize: 0x30 }
  - { offsetInCU: 0x2C2A28, offset: 0x2C2A28, size: 0x8, addend: 0x0, symName: __ZN7testing8internal24ParameterizedTestFactoryI35WithHandshakeArgs1_ResumeAsync_TestED1Ev, symObjAddr: 0x29B70, symBinAddr: 0x10002B970, symSize: 0x10 }
  - { offsetInCU: 0x2C2A54, offset: 0x2C2A54, size: 0x8, addend: 0x0, symName: __ZN7testing8internal24ParameterizedTestFactoryI35WithHandshakeArgs1_ResumeAsync_TestED0Ev, symObjAddr: 0x29B80, symBinAddr: 0x10002B980, symSize: 0x10 }
  - { offsetInCU: 0x2C2AB4, offset: 0x2C2AB4, size: 0x8, addend: 0x0, symName: __ZN7testing8internal24ParameterizedTestFactoryI35WithHandshakeArgs1_ResumeAsync_TestE10CreateTestEv, symObjAddr: 0x29B90, symBinAddr: 0x10002B990, symSize: 0x60 }
  - { offsetInCU: 0x2C2B4F, offset: 0x2C2B4F, size: 0x8, addend: 0x0, symName: __ZN7testing8internal15TestMetaFactoryI39WithHandshakeArgs1_ResumeRejection_TestED1Ev, symObjAddr: 0x29BF0, symBinAddr: 0x10002B9F0, symSize: 0x10 }
  - { offsetInCU: 0x2C2B7B, offset: 0x2C2B7B, size: 0x8, addend: 0x0, symName: __ZN7testing8internal15TestMetaFactoryI39WithHandshakeArgs1_ResumeRejection_TestED0Ev, symObjAddr: 0x29C00, symBinAddr: 0x10002BA00, symSize: 0x10 }
  - { offsetInCU: 0x2C2C13, offset: 0x2C2C13, size: 0x8, addend: 0x0, symName: __ZN7testing8internal15TestMetaFactoryI39WithHandshakeArgs1_ResumeRejection_TestE17CreateTestFactoryE14HandshakeArgs1, symObjAddr: 0x29C10, symBinAddr: 0x10002BA10, symSize: 0x30 }
  - { offsetInCU: 0x2C2C92, offset: 0x2C2C92, size: 0x8, addend: 0x0, symName: __ZN7testing8internal24ParameterizedTestFactoryI39WithHandshakeArgs1_ResumeRejection_TestED1Ev, symObjAddr: 0x29C40, symBinAddr: 0x10002BA40, symSize: 0x10 }
  - { offsetInCU: 0x2C2CBE, offset: 0x2C2CBE, size: 0x8, addend: 0x0, symName: __ZN7testing8internal24ParameterizedTestFactoryI39WithHandshakeArgs1_ResumeRejection_TestED0Ev, symObjAddr: 0x29C50, symBinAddr: 0x10002BA50, symSize: 0x10 }
  - { offsetInCU: 0x2C2D1E, offset: 0x2C2D1E, size: 0x8, addend: 0x0, symName: __ZN7testing8internal24ParameterizedTestFactoryI39WithHandshakeArgs1_ResumeRejection_TestE10CreateTestEv, symObjAddr: 0x29C60, symBinAddr: 0x10002BA60, symSize: 0x60 }
  - { offsetInCU: 0x2C2DB9, offset: 0x2C2DB9, size: 0x8, addend: 0x0, symName: __ZN7testing8internal15TestMetaFactoryI50WithHandshakeArgs1_ResumeRejectionByServerApp_TestED1Ev, symObjAddr: 0x29CC0, symBinAddr: 0x10002BAC0, symSize: 0x10 }
  - { offsetInCU: 0x2C2DE5, offset: 0x2C2DE5, size: 0x8, addend: 0x0, symName: __ZN7testing8internal15TestMetaFactoryI50WithHandshakeArgs1_ResumeRejectionByServerApp_TestED0Ev, symObjAddr: 0x29CD0, symBinAddr: 0x10002BAD0, symSize: 0x10 }
  - { offsetInCU: 0x2C2E7D, offset: 0x2C2E7D, size: 0x8, addend: 0x0, symName: __ZN7testing8internal15TestMetaFactoryI50WithHandshakeArgs1_ResumeRejectionByServerApp_TestE17CreateTestFactoryE14HandshakeArgs1, symObjAddr: 0x29CE0, symBinAddr: 0x10002BAE0, symSize: 0x30 }
  - { offsetInCU: 0x2C2EFC, offset: 0x2C2EFC, size: 0x8, addend: 0x0, symName: __ZN7testing8internal24ParameterizedTestFactoryI50WithHandshakeArgs1_ResumeRejectionByServerApp_TestED1Ev, symObjAddr: 0x29D10, symBinAddr: 0x10002BB10, symSize: 0x10 }
  - { offsetInCU: 0x2C2F28, offset: 0x2C2F28, size: 0x8, addend: 0x0, symName: __ZN7testing8internal24ParameterizedTestFactoryI50WithHandshakeArgs1_ResumeRejectionByServerApp_TestED0Ev, symObjAddr: 0x29D20, symBinAddr: 0x10002BB20, symSize: 0x10 }
  - { offsetInCU: 0x2C2F88, offset: 0x2C2F88, size: 0x8, addend: 0x0, symName: __ZN7testing8internal24ParameterizedTestFactoryI50WithHandshakeArgs1_ResumeRejectionByServerApp_TestE10CreateTestEv, symObjAddr: 0x29D30, symBinAddr: 0x10002BB30, symSize: 0x60 }
  - { offsetInCU: 0x2C3023, offset: 0x2C3023, size: 0x8, addend: 0x0, symName: __ZN7testing8internal15TestMetaFactoryI55WithHandshakeArgs1_ResumeRejectionByServerAppAsync_TestED1Ev, symObjAddr: 0x29D90, symBinAddr: 0x10002BB90, symSize: 0x10 }
  - { offsetInCU: 0x2C304F, offset: 0x2C304F, size: 0x8, addend: 0x0, symName: __ZN7testing8internal15TestMetaFactoryI55WithHandshakeArgs1_ResumeRejectionByServerAppAsync_TestED0Ev, symObjAddr: 0x29DA0, symBinAddr: 0x10002BBA0, symSize: 0x10 }
  - { offsetInCU: 0x2C30E7, offset: 0x2C30E7, size: 0x8, addend: 0x0, symName: __ZN7testing8internal15TestMetaFactoryI55WithHandshakeArgs1_ResumeRejectionByServerAppAsync_TestE17CreateTestFactoryE14HandshakeArgs1, symObjAddr: 0x29DB0, symBinAddr: 0x10002BBB0, symSize: 0x30 }
  - { offsetInCU: 0x2C3166, offset: 0x2C3166, size: 0x8, addend: 0x0, symName: __ZN7testing8internal24ParameterizedTestFactoryI55WithHandshakeArgs1_ResumeRejectionByServerAppAsync_TestED1Ev, symObjAddr: 0x29DE0, symBinAddr: 0x10002BBE0, symSize: 0x10 }
  - { offsetInCU: 0x2C3192, offset: 0x2C3192, size: 0x8, addend: 0x0, symName: __ZN7testing8internal24ParameterizedTestFactoryI55WithHandshakeArgs1_ResumeRejectionByServerAppAsync_TestED0Ev, symObjAddr: 0x29DF0, symBinAddr: 0x10002BBF0, symSize: 0x10 }
  - { offsetInCU: 0x2C31F2, offset: 0x2C31F2, size: 0x8, addend: 0x0, symName: __ZN7testing8internal24ParameterizedTestFactoryI55WithHandshakeArgs1_ResumeRejectionByServerAppAsync_TestE10CreateTestEv, symObjAddr: 0x29E00, symBinAddr: 0x10002BC00, symSize: 0x60 }
  - { offsetInCU: 0x2C328D, offset: 0x2C328D, size: 0x8, addend: 0x0, symName: __ZN7testing8internal15TestMetaFactoryI36WithFamilyArgs_InterfaceBinding_TestED1Ev, symObjAddr: 0x29E60, symBinAddr: 0x10002BC60, symSize: 0x10 }
  - { offsetInCU: 0x2C32B9, offset: 0x2C32B9, size: 0x8, addend: 0x0, symName: __ZN7testing8internal15TestMetaFactoryI36WithFamilyArgs_InterfaceBinding_TestED0Ev, symObjAddr: 0x29E70, symBinAddr: 0x10002BC70, symSize: 0x10 }
  - { offsetInCU: 0x2C3351, offset: 0x2C3351, size: 0x8, addend: 0x0, symName: __ZN7testing8internal15TestMetaFactoryI36WithFamilyArgs_InterfaceBinding_TestE17CreateTestFactoryE10FamilyArgs, symObjAddr: 0x29E80, symBinAddr: 0x10002BC80, symSize: 0x30 }
  - { offsetInCU: 0x2C33D0, offset: 0x2C33D0, size: 0x8, addend: 0x0, symName: __ZN7testing8internal24ParameterizedTestFactoryI36WithFamilyArgs_InterfaceBinding_TestED1Ev, symObjAddr: 0x29EB0, symBinAddr: 0x10002BCB0, symSize: 0x10 }
  - { offsetInCU: 0x2C33FC, offset: 0x2C33FC, size: 0x8, addend: 0x0, symName: __ZN7testing8internal24ParameterizedTestFactoryI36WithFamilyArgs_InterfaceBinding_TestED0Ev, symObjAddr: 0x29EC0, symBinAddr: 0x10002BCC0, symSize: 0x10 }
  - { offsetInCU: 0x2C345C, offset: 0x2C345C, size: 0x8, addend: 0x0, symName: __ZN7testing8internal24ParameterizedTestFactoryI36WithFamilyArgs_InterfaceBinding_TestE10CreateTestEv, symObjAddr: 0x29ED0, symBinAddr: 0x10002BCD0, symSize: 0x60 }
  - { offsetInCU: 0x2C37DE, offset: 0x2C37DE, size: 0x8, addend: 0x0, symName: __ZNSt3__110shared_ptrIN7testing8internal26ParameterizedTestSuiteInfoI18WithHandshakeArgs2E8TestInfoEEC1B8ue170006IS6_vEEPT_, symObjAddr: 0x2A300, symBinAddr: 0x10002C100, symSize: 0x60 }
  - { offsetInCU: 0x2C39B7, offset: 0x2C39B7, size: 0x8, addend: 0x0, symName: __ZNSt3__16vectorINS_10shared_ptrIN7testing8internal26ParameterizedTestSuiteInfoI18WithHandshakeArgs2E8TestInfoEEENS_9allocatorIS8_EEE24__emplace_back_slow_pathIJPS7_EEEvDpOT_, symObjAddr: 0x2A130, symBinAddr: 0x10002BF30, symSize: 0x1D0 }
  - { offsetInCU: 0x2C4532, offset: 0x2C4532, size: 0x8, addend: 0x0, symName: __ZNKSt3__16vectorINS_10shared_ptrIN7testing8internal26ParameterizedTestSuiteInfoI18WithHandshakeArgs2E8TestInfoEEENS_9allocatorIS8_EEE20__throw_length_errorB8ue170006Ev, symObjAddr: 0x2A4A0, symBinAddr: 0x10002C2A0, symSize: 0x10 }
  - { offsetInCU: 0x2C455B, offset: 0x2C455B, size: 0x8, addend: 0x0, symName: __ZN7testing8internal15TestMetaFactoryI34WithHandshakeArgs2_OldVersion_TestED1Ev, symObjAddr: 0x2A4B0, symBinAddr: 0x10002C2B0, symSize: 0x10 }
  - { offsetInCU: 0x2C4566, offset: 0x2C4566, size: 0x8, addend: 0x0, symName: __ZNSt3__114__split_bufferINS_10shared_ptrIN7testing8internal26ParameterizedTestSuiteInfoI18WithHandshakeArgs2E8TestInfoEEERNS_9allocatorIS8_EEED1Ev, symObjAddr: 0x2A420, symBinAddr: 0x10002C220, symSize: 0x80 }
  - { offsetInCU: 0x2C4ADA, offset: 0x2C4ADA, size: 0x8, addend: 0x0, symName: __ZNSt3__110shared_ptrIN7testing8internal26ParameterizedTestSuiteInfoI18WithHandshakeArgs2E8TestInfoEEC1B8ue170006IS6_vEEPT_.cold.1, symObjAddr: 0x81C20, symBinAddr: 0x100407A50, symSize: 0x50 }
  - { offsetInCU: 0x2C4E3E, offset: 0x2C4E3E, size: 0x8, addend: 0x0, symName: __ZNSt3__120__shared_ptr_pointerIPN7testing8internal26ParameterizedTestSuiteInfoI18WithHandshakeArgs2E8TestInfoENS_10shared_ptrIS6_E27__shared_ptr_default_deleteIS6_S6_EENS_9allocatorIS6_EEED1Ev, symObjAddr: 0x2A360, symBinAddr: 0x10002C160, symSize: 0x10 }
  - { offsetInCU: 0x2C4E96, offset: 0x2C4E96, size: 0x8, addend: 0x0, symName: __ZNSt3__120__shared_ptr_pointerIPN7testing8internal26ParameterizedTestSuiteInfoI18WithHandshakeArgs2E8TestInfoENS_10shared_ptrIS6_E27__shared_ptr_default_deleteIS6_S6_EENS_9allocatorIS6_EEED0Ev, symObjAddr: 0x2A370, symBinAddr: 0x10002C170, symSize: 0x20 }
  - { offsetInCU: 0x2C4FBE, offset: 0x2C4FBE, size: 0x8, addend: 0x0, symName: __ZNSt3__120__shared_ptr_pointerIPN7testing8internal26ParameterizedTestSuiteInfoI18WithHandshakeArgs2E8TestInfoENS_10shared_ptrIS6_E27__shared_ptr_default_deleteIS6_S6_EENS_9allocatorIS6_EEE16__on_zero_sharedEv, symObjAddr: 0x2A390, symBinAddr: 0x10002C190, symSize: 0x60 }
  - { offsetInCU: 0x2C534A, offset: 0x2C534A, size: 0x8, addend: 0x0, symName: __ZNKSt3__120__shared_ptr_pointerIPN7testing8internal26ParameterizedTestSuiteInfoI18WithHandshakeArgs2E8TestInfoENS_10shared_ptrIS6_E27__shared_ptr_default_deleteIS6_S6_EENS_9allocatorIS6_EEE13__get_deleterERKSt9type_info, symObjAddr: 0x2A3F0, symBinAddr: 0x10002C1F0, symSize: 0x20 }
  - { offsetInCU: 0x2C540D, offset: 0x2C540D, size: 0x8, addend: 0x0, symName: __ZNSt3__120__shared_ptr_pointerIPN7testing8internal26ParameterizedTestSuiteInfoI18WithHandshakeArgs2E8TestInfoENS_10shared_ptrIS6_E27__shared_ptr_default_deleteIS6_S6_EENS_9allocatorIS6_EEE21__on_zero_shared_weakEv, symObjAddr: 0x2A410, symBinAddr: 0x10002C210, symSize: 0x10 }
  - { offsetInCU: 0x2C54E0, offset: 0x2C54E0, size: 0x8, addend: 0x0, symName: __ZN7testing8internal15TestMetaFactoryI34WithHandshakeArgs2_OldVersion_TestED1Ev, symObjAddr: 0x2A4B0, symBinAddr: 0x10002C2B0, symSize: 0x10 }
  - { offsetInCU: 0x2C550C, offset: 0x2C550C, size: 0x8, addend: 0x0, symName: __ZN7testing8internal15TestMetaFactoryI34WithHandshakeArgs2_OldVersion_TestED0Ev, symObjAddr: 0x2A4C0, symBinAddr: 0x10002C2C0, symSize: 0x10 }
  - { offsetInCU: 0x2C55A4, offset: 0x2C55A4, size: 0x8, addend: 0x0, symName: __ZN7testing8internal15TestMetaFactoryI34WithHandshakeArgs2_OldVersion_TestE17CreateTestFactoryE14HandshakeArgs2, symObjAddr: 0x2A4D0, symBinAddr: 0x10002C2D0, symSize: 0x30 }
  - { offsetInCU: 0x2C5623, offset: 0x2C5623, size: 0x8, addend: 0x0, symName: __ZN7testing8internal24ParameterizedTestFactoryI34WithHandshakeArgs2_OldVersion_TestED1Ev, symObjAddr: 0x2A500, symBinAddr: 0x10002C300, symSize: 0x10 }
  - { offsetInCU: 0x2C564F, offset: 0x2C564F, size: 0x8, addend: 0x0, symName: __ZN7testing8internal24ParameterizedTestFactoryI34WithHandshakeArgs2_OldVersion_TestED0Ev, symObjAddr: 0x2A510, symBinAddr: 0x10002C310, symSize: 0x10 }
  - { offsetInCU: 0x2C56DF, offset: 0x2C56DF, size: 0x8, addend: 0x0, symName: __ZN7testing8internal24ParameterizedTestFactoryI34WithHandshakeArgs2_OldVersion_TestE10CreateTestEv, symObjAddr: 0x2A520, symBinAddr: 0x10002C320, symSize: 0x60 }
  - { offsetInCU: 0x2C577A, offset: 0x2C577A, size: 0x8, addend: 0x0, symName: __ZN18WithHandshakeArgs2D1Ev, symObjAddr: 0x2A580, symBinAddr: 0x100407090, symSize: 0x10 }
  - { offsetInCU: 0x2C579A, offset: 0x2C579A, size: 0x8, addend: 0x0, symName: __ZN18WithHandshakeArgs2D0Ev, symObjAddr: 0x2A590, symBinAddr: 0x1004070A0, symSize: 0x10 }
  - { offsetInCU: 0x2C57D6, offset: 0x2C57D6, size: 0x8, addend: 0x0, symName: __ZThn16_N18WithHandshakeArgs2D1Ev, symObjAddr: 0x2A5A0, symBinAddr: 0x1004070B0, symSize: 0x10 }
  - { offsetInCU: 0x2C5827, offset: 0x2C5827, size: 0x8, addend: 0x0, symName: __ZThn16_N18WithHandshakeArgs2D0Ev, symObjAddr: 0x2A5B0, symBinAddr: 0x1004070C0, symSize: 0x10 }
  - { offsetInCU: 0x2C585C, offset: 0x2C585C, size: 0x8, addend: 0x0, symName: __ZN7testing18WithParamInterfaceI14HandshakeArgs2ED1Ev, symObjAddr: 0x2A5C0, symBinAddr: 0x10002C380, symSize: 0x10 }
  - { offsetInCU: 0x2C5885, offset: 0x2C5885, size: 0x8, addend: 0x0, symName: __ZN7testing18WithParamInterfaceI14HandshakeArgs2ED0Ev, symObjAddr: 0x2A5D0, symBinAddr: 0x10002C390, symSize: 0x10 }
  - { offsetInCU: 0x2C5B95, offset: 0x2C5B95, size: 0x8, addend: 0x0, symName: __ZNSt3__110shared_ptrIN7testing8internal26ParameterizedTestSuiteInfoI18WithHandshakeArgs3E8TestInfoEEC1B8ue170006IS6_vEEPT_, symObjAddr: 0x2A9B0, symBinAddr: 0x10002C770, symSize: 0x60 }
  - { offsetInCU: 0x2C5D6E, offset: 0x2C5D6E, size: 0x8, addend: 0x0, symName: __ZNSt3__16vectorINS_10shared_ptrIN7testing8internal26ParameterizedTestSuiteInfoI18WithHandshakeArgs3E8TestInfoEEENS_9allocatorIS8_EEE24__emplace_back_slow_pathIJPS7_EEEvDpOT_, symObjAddr: 0x2A7E0, symBinAddr: 0x10002C5A0, symSize: 0x1D0 }
  - { offsetInCU: 0x2C68E9, offset: 0x2C68E9, size: 0x8, addend: 0x0, symName: __ZNKSt3__16vectorINS_10shared_ptrIN7testing8internal26ParameterizedTestSuiteInfoI18WithHandshakeArgs3E8TestInfoEEENS_9allocatorIS8_EEE20__throw_length_errorB8ue170006Ev, symObjAddr: 0x2AB50, symBinAddr: 0x10002C910, symSize: 0x10 }
  - { offsetInCU: 0x2C6912, offset: 0x2C6912, size: 0x8, addend: 0x0, symName: __ZN7testing8internal15TestMetaFactoryI43WithHandshakeArgs3_AsyncSecurityConfig_TestED1Ev, symObjAddr: 0x2AB60, symBinAddr: 0x10002C920, symSize: 0x10 }
  - { offsetInCU: 0x2C691D, offset: 0x2C691D, size: 0x8, addend: 0x0, symName: __ZNSt3__114__split_bufferINS_10shared_ptrIN7testing8internal26ParameterizedTestSuiteInfoI18WithHandshakeArgs3E8TestInfoEEERNS_9allocatorIS8_EEED1Ev, symObjAddr: 0x2AAD0, symBinAddr: 0x10002C890, symSize: 0x80 }
  - { offsetInCU: 0x2C6E91, offset: 0x2C6E91, size: 0x8, addend: 0x0, symName: __ZNSt3__110shared_ptrIN7testing8internal26ParameterizedTestSuiteInfoI18WithHandshakeArgs3E8TestInfoEEC1B8ue170006IS6_vEEPT_.cold.1, symObjAddr: 0x81C70, symBinAddr: 0x100407AA0, symSize: 0x50 }
  - { offsetInCU: 0x2C71F5, offset: 0x2C71F5, size: 0x8, addend: 0x0, symName: __ZNSt3__120__shared_ptr_pointerIPN7testing8internal26ParameterizedTestSuiteInfoI18WithHandshakeArgs3E8TestInfoENS_10shared_ptrIS6_E27__shared_ptr_default_deleteIS6_S6_EENS_9allocatorIS6_EEED1Ev, symObjAddr: 0x2AA10, symBinAddr: 0x10002C7D0, symSize: 0x10 }
  - { offsetInCU: 0x2C724D, offset: 0x2C724D, size: 0x8, addend: 0x0, symName: __ZNSt3__120__shared_ptr_pointerIPN7testing8internal26ParameterizedTestSuiteInfoI18WithHandshakeArgs3E8TestInfoENS_10shared_ptrIS6_E27__shared_ptr_default_deleteIS6_S6_EENS_9allocatorIS6_EEED0Ev, symObjAddr: 0x2AA20, symBinAddr: 0x10002C7E0, symSize: 0x20 }
  - { offsetInCU: 0x2C7375, offset: 0x2C7375, size: 0x8, addend: 0x0, symName: __ZNSt3__120__shared_ptr_pointerIPN7testing8internal26ParameterizedTestSuiteInfoI18WithHandshakeArgs3E8TestInfoENS_10shared_ptrIS6_E27__shared_ptr_default_deleteIS6_S6_EENS_9allocatorIS6_EEE16__on_zero_sharedEv, symObjAddr: 0x2AA40, symBinAddr: 0x10002C800, symSize: 0x60 }
  - { offsetInCU: 0x2C7701, offset: 0x2C7701, size: 0x8, addend: 0x0, symName: __ZNKSt3__120__shared_ptr_pointerIPN7testing8internal26ParameterizedTestSuiteInfoI18WithHandshakeArgs3E8TestInfoENS_10shared_ptrIS6_E27__shared_ptr_default_deleteIS6_S6_EENS_9allocatorIS6_EEE13__get_deleterERKSt9type_info, symObjAddr: 0x2AAA0, symBinAddr: 0x10002C860, symSize: 0x20 }
  - { offsetInCU: 0x2C77C4, offset: 0x2C77C4, size: 0x8, addend: 0x0, symName: __ZNSt3__120__shared_ptr_pointerIPN7testing8internal26ParameterizedTestSuiteInfoI18WithHandshakeArgs3E8TestInfoENS_10shared_ptrIS6_E27__shared_ptr_default_deleteIS6_S6_EENS_9allocatorIS6_EEE21__on_zero_shared_weakEv, symObjAddr: 0x2AAC0, symBinAddr: 0x10002C880, symSize: 0x10 }
  - { offsetInCU: 0x2C7897, offset: 0x2C7897, size: 0x8, addend: 0x0, symName: __ZN7testing8internal15TestMetaFactoryI43WithHandshakeArgs3_AsyncSecurityConfig_TestED1Ev, symObjAddr: 0x2AB60, symBinAddr: 0x10002C920, symSize: 0x10 }
  - { offsetInCU: 0x2C78C3, offset: 0x2C78C3, size: 0x8, addend: 0x0, symName: __ZN7testing8internal15TestMetaFactoryI43WithHandshakeArgs3_AsyncSecurityConfig_TestED0Ev, symObjAddr: 0x2AB70, symBinAddr: 0x10002C930, symSize: 0x10 }
  - { offsetInCU: 0x2C795B, offset: 0x2C795B, size: 0x8, addend: 0x0, symName: __ZN7testing8internal15TestMetaFactoryI43WithHandshakeArgs3_AsyncSecurityConfig_TestE17CreateTestFactoryE14HandshakeArgs3, symObjAddr: 0x2AB80, symBinAddr: 0x10002C940, symSize: 0x30 }
  - { offsetInCU: 0x2C79DA, offset: 0x2C79DA, size: 0x8, addend: 0x0, symName: __ZN7testing8internal24ParameterizedTestFactoryI43WithHandshakeArgs3_AsyncSecurityConfig_TestED1Ev, symObjAddr: 0x2ABB0, symBinAddr: 0x10002C970, symSize: 0x10 }
  - { offsetInCU: 0x2C7A06, offset: 0x2C7A06, size: 0x8, addend: 0x0, symName: __ZN7testing8internal24ParameterizedTestFactoryI43WithHandshakeArgs3_AsyncSecurityConfig_TestED0Ev, symObjAddr: 0x2ABC0, symBinAddr: 0x10002C980, symSize: 0x10 }
  - { offsetInCU: 0x2C7A96, offset: 0x2C7A96, size: 0x8, addend: 0x0, symName: __ZN7testing8internal24ParameterizedTestFactoryI43WithHandshakeArgs3_AsyncSecurityConfig_TestE10CreateTestEv, symObjAddr: 0x2ABD0, symBinAddr: 0x10002C990, symSize: 0x60 }
  - { offsetInCU: 0x2C7B31, offset: 0x2C7B31, size: 0x8, addend: 0x0, symName: __ZN18WithHandshakeArgs3D1Ev, symObjAddr: 0x2AC30, symBinAddr: 0x1004070D0, symSize: 0x10 }
  - { offsetInCU: 0x2C7B51, offset: 0x2C7B51, size: 0x8, addend: 0x0, symName: __ZN18WithHandshakeArgs3D0Ev, symObjAddr: 0x2AC40, symBinAddr: 0x1004070E0, symSize: 0x10 }
  - { offsetInCU: 0x2C7B8D, offset: 0x2C7B8D, size: 0x8, addend: 0x0, symName: __ZThn16_N18WithHandshakeArgs3D1Ev, symObjAddr: 0x2AC50, symBinAddr: 0x1004070F0, symSize: 0x10 }
  - { offsetInCU: 0x2C7BDE, offset: 0x2C7BDE, size: 0x8, addend: 0x0, symName: __ZThn16_N18WithHandshakeArgs3D0Ev, symObjAddr: 0x2AC60, symBinAddr: 0x100407100, symSize: 0x10 }
  - { offsetInCU: 0x2C7C13, offset: 0x2C7C13, size: 0x8, addend: 0x0, symName: __ZN7testing18WithParamInterfaceI14HandshakeArgs3ED1Ev, symObjAddr: 0x2AC70, symBinAddr: 0x10002C9F0, symSize: 0x10 }
  - { offsetInCU: 0x2C7C3C, offset: 0x2C7C3C, size: 0x8, addend: 0x0, symName: __ZN7testing18WithParamInterfaceI14HandshakeArgs3ED0Ev, symObjAddr: 0x2AC80, symBinAddr: 0x10002CA00, symSize: 0x10 }
  - { offsetInCU: 0x2C7C65, offset: 0x2C7C65, size: 0x8, addend: 0x0, symName: __ZN7testing8internal15TestMetaFactoryI38WithFamilyArgs_VersionNegotiation_TestED1Ev, symObjAddr: 0x2AC90, symBinAddr: 0x10002CA10, symSize: 0x10 }
  - { offsetInCU: 0x2C7C91, offset: 0x2C7C91, size: 0x8, addend: 0x0, symName: __ZN7testing8internal15TestMetaFactoryI38WithFamilyArgs_VersionNegotiation_TestED0Ev, symObjAddr: 0x2ACA0, symBinAddr: 0x10002CA20, symSize: 0x10 }
  - { offsetInCU: 0x2C7D29, offset: 0x2C7D29, size: 0x8, addend: 0x0, symName: __ZN7testing8internal15TestMetaFactoryI38WithFamilyArgs_VersionNegotiation_TestE17CreateTestFactoryE10FamilyArgs, symObjAddr: 0x2ACB0, symBinAddr: 0x10002CA30, symSize: 0x30 }
  - { offsetInCU: 0x2C7DA8, offset: 0x2C7DA8, size: 0x8, addend: 0x0, symName: __ZN7testing8internal24ParameterizedTestFactoryI38WithFamilyArgs_VersionNegotiation_TestED1Ev, symObjAddr: 0x2ACE0, symBinAddr: 0x10002CA60, symSize: 0x10 }
  - { offsetInCU: 0x2C7DD4, offset: 0x2C7DD4, size: 0x8, addend: 0x0, symName: __ZN7testing8internal24ParameterizedTestFactoryI38WithFamilyArgs_VersionNegotiation_TestED0Ev, symObjAddr: 0x2ACF0, symBinAddr: 0x10002CA70, symSize: 0x10 }
  - { offsetInCU: 0x2C7E34, offset: 0x2C7E34, size: 0x8, addend: 0x0, symName: __ZN7testing8internal24ParameterizedTestFactoryI38WithFamilyArgs_VersionNegotiation_TestE10CreateTestEv, symObjAddr: 0x2AD00, symBinAddr: 0x10002CA80, symSize: 0x60 }
  - { offsetInCU: 0x2C7ECF, offset: 0x2C7ECF, size: 0x8, addend: 0x0, symName: __ZN7testing8internal15TestMetaFactoryI43WithFamilyArgs_VersionNegotiationRetry_TestED1Ev, symObjAddr: 0x2AD60, symBinAddr: 0x10002CAE0, symSize: 0x10 }
  - { offsetInCU: 0x2C7EFB, offset: 0x2C7EFB, size: 0x8, addend: 0x0, symName: __ZN7testing8internal15TestMetaFactoryI43WithFamilyArgs_VersionNegotiationRetry_TestED0Ev, symObjAddr: 0x2AD70, symBinAddr: 0x10002CAF0, symSize: 0x10 }
  - { offsetInCU: 0x2C7F93, offset: 0x2C7F93, size: 0x8, addend: 0x0, symName: __ZN7testing8internal15TestMetaFactoryI43WithFamilyArgs_VersionNegotiationRetry_TestE17CreateTestFactoryE10FamilyArgs, symObjAddr: 0x2AD80, symBinAddr: 0x10002CB00, symSize: 0x30 }
  - { offsetInCU: 0x2C8012, offset: 0x2C8012, size: 0x8, addend: 0x0, symName: __ZN7testing8internal24ParameterizedTestFactoryI43WithFamilyArgs_VersionNegotiationRetry_TestED1Ev, symObjAddr: 0x2ADB0, symBinAddr: 0x10002CB30, symSize: 0x10 }
  - { offsetInCU: 0x2C803E, offset: 0x2C803E, size: 0x8, addend: 0x0, symName: __ZN7testing8internal24ParameterizedTestFactoryI43WithFamilyArgs_VersionNegotiationRetry_TestED0Ev, symObjAddr: 0x2ADC0, symBinAddr: 0x10002CB40, symSize: 0x10 }
  - { offsetInCU: 0x2C809E, offset: 0x2C809E, size: 0x8, addend: 0x0, symName: __ZN7testing8internal24ParameterizedTestFactoryI43WithFamilyArgs_VersionNegotiationRetry_TestE10CreateTestEv, symObjAddr: 0x2ADD0, symBinAddr: 0x10002CB50, symSize: 0x60 }
  - { offsetInCU: 0x2C8139, offset: 0x2C8139, size: 0x8, addend: 0x0, symName: __ZN7testing8internal15TestMetaFactoryI53WithFamilyArgs_CompatibleVersionNegotiationRetry_TestED1Ev, symObjAddr: 0x2AE30, symBinAddr: 0x10002CBB0, symSize: 0x10 }
  - { offsetInCU: 0x2C8165, offset: 0x2C8165, size: 0x8, addend: 0x0, symName: __ZN7testing8internal15TestMetaFactoryI53WithFamilyArgs_CompatibleVersionNegotiationRetry_TestED0Ev, symObjAddr: 0x2AE40, symBinAddr: 0x10002CBC0, symSize: 0x10 }
  - { offsetInCU: 0x2C81FD, offset: 0x2C81FD, size: 0x8, addend: 0x0, symName: __ZN7testing8internal15TestMetaFactoryI53WithFamilyArgs_CompatibleVersionNegotiationRetry_TestE17CreateTestFactoryE10FamilyArgs, symObjAddr: 0x2AE50, symBinAddr: 0x10002CBD0, symSize: 0x30 }
  - { offsetInCU: 0x2C827C, offset: 0x2C827C, size: 0x8, addend: 0x0, symName: __ZN7testing8internal24ParameterizedTestFactoryI53WithFamilyArgs_CompatibleVersionNegotiationRetry_TestED1Ev, symObjAddr: 0x2AE80, symBinAddr: 0x10002CC00, symSize: 0x10 }
  - { offsetInCU: 0x2C82A8, offset: 0x2C82A8, size: 0x8, addend: 0x0, symName: __ZN7testing8internal24ParameterizedTestFactoryI53WithFamilyArgs_CompatibleVersionNegotiationRetry_TestED0Ev, symObjAddr: 0x2AE90, symBinAddr: 0x10002CC10, symSize: 0x10 }
  - { offsetInCU: 0x2C8308, offset: 0x2C8308, size: 0x8, addend: 0x0, symName: __ZN7testing8internal24ParameterizedTestFactoryI53WithFamilyArgs_CompatibleVersionNegotiationRetry_TestE10CreateTestEv, symObjAddr: 0x2AEA0, symBinAddr: 0x10002CC20, symSize: 0x60 }
  - { offsetInCU: 0x2C868A, offset: 0x2C868A, size: 0x8, addend: 0x0, symName: __ZNSt3__110shared_ptrIN7testing8internal26ParameterizedTestSuiteInfoI29WithVersionNegotiationExtArgsE8TestInfoEEC1B8ue170006IS6_vEEPT_, symObjAddr: 0x2B2D0, symBinAddr: 0x10002D050, symSize: 0x60 }
  - { offsetInCU: 0x2C8863, offset: 0x2C8863, size: 0x8, addend: 0x0, symName: __ZNSt3__16vectorINS_10shared_ptrIN7testing8internal26ParameterizedTestSuiteInfoI29WithVersionNegotiationExtArgsE8TestInfoEEENS_9allocatorIS8_EEE24__emplace_back_slow_pathIJPS7_EEEvDpOT_, symObjAddr: 0x2B100, symBinAddr: 0x10002CE80, symSize: 0x1D0 }
  - { offsetInCU: 0x2C93DE, offset: 0x2C93DE, size: 0x8, addend: 0x0, symName: __ZNKSt3__16vectorINS_10shared_ptrIN7testing8internal26ParameterizedTestSuiteInfoI29WithVersionNegotiationExtArgsE8TestInfoEEENS_9allocatorIS8_EEE20__throw_length_errorB8ue170006Ev, symObjAddr: 0x2B470, symBinAddr: 0x10002D1F0, symSize: 0x10 }
  - { offsetInCU: 0x2C9407, offset: 0x2C9407, size: 0x8, addend: 0x0, symName: __ZN7testing8internal15TestMetaFactoryI63WithVersionNegotiationExtArgs_CompatibleVersionNegotiation_TestED1Ev, symObjAddr: 0x2B480, symBinAddr: 0x10002D200, symSize: 0x10 }
  - { offsetInCU: 0x2C9412, offset: 0x2C9412, size: 0x8, addend: 0x0, symName: __ZNSt3__114__split_bufferINS_10shared_ptrIN7testing8internal26ParameterizedTestSuiteInfoI29WithVersionNegotiationExtArgsE8TestInfoEEERNS_9allocatorIS8_EEED1Ev, symObjAddr: 0x2B3F0, symBinAddr: 0x10002D170, symSize: 0x80 }
  - { offsetInCU: 0x2C9986, offset: 0x2C9986, size: 0x8, addend: 0x0, symName: __ZNSt3__110shared_ptrIN7testing8internal26ParameterizedTestSuiteInfoI29WithVersionNegotiationExtArgsE8TestInfoEEC1B8ue170006IS6_vEEPT_.cold.1, symObjAddr: 0x81CC0, symBinAddr: 0x100407AF0, symSize: 0x50 }
  - { offsetInCU: 0x2C9CEA, offset: 0x2C9CEA, size: 0x8, addend: 0x0, symName: __ZNSt3__120__shared_ptr_pointerIPN7testing8internal26ParameterizedTestSuiteInfoI29WithVersionNegotiationExtArgsE8TestInfoENS_10shared_ptrIS6_E27__shared_ptr_default_deleteIS6_S6_EENS_9allocatorIS6_EEED1Ev, symObjAddr: 0x2B330, symBinAddr: 0x10002D0B0, symSize: 0x10 }
  - { offsetInCU: 0x2C9D42, offset: 0x2C9D42, size: 0x8, addend: 0x0, symName: __ZNSt3__120__shared_ptr_pointerIPN7testing8internal26ParameterizedTestSuiteInfoI29WithVersionNegotiationExtArgsE8TestInfoENS_10shared_ptrIS6_E27__shared_ptr_default_deleteIS6_S6_EENS_9allocatorIS6_EEED0Ev, symObjAddr: 0x2B340, symBinAddr: 0x10002D0C0, symSize: 0x20 }
  - { offsetInCU: 0x2C9E6A, offset: 0x2C9E6A, size: 0x8, addend: 0x0, symName: __ZNSt3__120__shared_ptr_pointerIPN7testing8internal26ParameterizedTestSuiteInfoI29WithVersionNegotiationExtArgsE8TestInfoENS_10shared_ptrIS6_E27__shared_ptr_default_deleteIS6_S6_EENS_9allocatorIS6_EEE16__on_zero_sharedEv, symObjAddr: 0x2B360, symBinAddr: 0x10002D0E0, symSize: 0x60 }
  - { offsetInCU: 0x2CA1F6, offset: 0x2CA1F6, size: 0x8, addend: 0x0, symName: __ZNKSt3__120__shared_ptr_pointerIPN7testing8internal26ParameterizedTestSuiteInfoI29WithVersionNegotiationExtArgsE8TestInfoENS_10shared_ptrIS6_E27__shared_ptr_default_deleteIS6_S6_EENS_9allocatorIS6_EEE13__get_deleterERKSt9type_info, symObjAddr: 0x2B3C0, symBinAddr: 0x10002D140, symSize: 0x20 }
  - { offsetInCU: 0x2CA2B9, offset: 0x2CA2B9, size: 0x8, addend: 0x0, symName: __ZNSt3__120__shared_ptr_pointerIPN7testing8internal26ParameterizedTestSuiteInfoI29WithVersionNegotiationExtArgsE8TestInfoENS_10shared_ptrIS6_E27__shared_ptr_default_deleteIS6_S6_EENS_9allocatorIS6_EEE21__on_zero_shared_weakEv, symObjAddr: 0x2B3E0, symBinAddr: 0x10002D160, symSize: 0x10 }
  - { offsetInCU: 0x2CA38C, offset: 0x2CA38C, size: 0x8, addend: 0x0, symName: __ZN7testing8internal15TestMetaFactoryI63WithVersionNegotiationExtArgs_CompatibleVersionNegotiation_TestED1Ev, symObjAddr: 0x2B480, symBinAddr: 0x10002D200, symSize: 0x10 }
  - { offsetInCU: 0x2CA3B8, offset: 0x2CA3B8, size: 0x8, addend: 0x0, symName: __ZN7testing8internal15TestMetaFactoryI63WithVersionNegotiationExtArgs_CompatibleVersionNegotiation_TestED0Ev, symObjAddr: 0x2B490, symBinAddr: 0x10002D210, symSize: 0x10 }
  - { offsetInCU: 0x2CA450, offset: 0x2CA450, size: 0x8, addend: 0x0, symName: __ZN7testing8internal15TestMetaFactoryI63WithVersionNegotiationExtArgs_CompatibleVersionNegotiation_TestE17CreateTestFactoryE25VersionNegotiationExtArgs, symObjAddr: 0x2B4A0, symBinAddr: 0x10002D220, symSize: 0x30 }
  - { offsetInCU: 0x2CA4CF, offset: 0x2CA4CF, size: 0x8, addend: 0x0, symName: __ZN7testing8internal24ParameterizedTestFactoryI63WithVersionNegotiationExtArgs_CompatibleVersionNegotiation_TestED1Ev, symObjAddr: 0x2B4D0, symBinAddr: 0x10002D250, symSize: 0x10 }
  - { offsetInCU: 0x2CA4FB, offset: 0x2CA4FB, size: 0x8, addend: 0x0, symName: __ZN7testing8internal24ParameterizedTestFactoryI63WithVersionNegotiationExtArgs_CompatibleVersionNegotiation_TestED0Ev, symObjAddr: 0x2B4E0, symBinAddr: 0x10002D260, symSize: 0x10 }
  - { offsetInCU: 0x2CA58B, offset: 0x2CA58B, size: 0x8, addend: 0x0, symName: __ZN7testing8internal24ParameterizedTestFactoryI63WithVersionNegotiationExtArgs_CompatibleVersionNegotiation_TestE10CreateTestEv, symObjAddr: 0x2B4F0, symBinAddr: 0x10002D270, symSize: 0x60 }
  - { offsetInCU: 0x2CA626, offset: 0x2CA626, size: 0x8, addend: 0x0, symName: __ZN29WithVersionNegotiationExtArgsD1Ev, symObjAddr: 0x2B550, symBinAddr: 0x100407110, symSize: 0x10 }
  - { offsetInCU: 0x2CA646, offset: 0x2CA646, size: 0x8, addend: 0x0, symName: __ZN29WithVersionNegotiationExtArgsD0Ev, symObjAddr: 0x2B560, symBinAddr: 0x100407120, symSize: 0x10 }
  - { offsetInCU: 0x2CA682, offset: 0x2CA682, size: 0x8, addend: 0x0, symName: __ZThn16_N29WithVersionNegotiationExtArgsD1Ev, symObjAddr: 0x2B570, symBinAddr: 0x100407130, symSize: 0x10 }
  - { offsetInCU: 0x2CA6D3, offset: 0x2CA6D3, size: 0x8, addend: 0x0, symName: __ZThn16_N29WithVersionNegotiationExtArgsD0Ev, symObjAddr: 0x2B580, symBinAddr: 0x100407140, symSize: 0x10 }
  - { offsetInCU: 0x2CA708, offset: 0x2CA708, size: 0x8, addend: 0x0, symName: __ZN7testing18WithParamInterfaceI25VersionNegotiationExtArgsED1Ev, symObjAddr: 0x2B590, symBinAddr: 0x10002D2D0, symSize: 0x10 }
  - { offsetInCU: 0x2CA731, offset: 0x2CA731, size: 0x8, addend: 0x0, symName: __ZN7testing18WithParamInterfaceI25VersionNegotiationExtArgsED0Ev, symObjAddr: 0x2B5A0, symBinAddr: 0x10002D2E0, symSize: 0x10 }
  - { offsetInCU: 0x2CA75A, offset: 0x2CA75A, size: 0x8, addend: 0x0, symName: __ZN7testing8internal15TestMetaFactoryI76WithVersionNegotiationExtArgs_CompatibleVersionNegotiationDefaultServer_TestED1Ev, symObjAddr: 0x2B5B0, symBinAddr: 0x10002D2F0, symSize: 0x10 }
  - { offsetInCU: 0x2CA786, offset: 0x2CA786, size: 0x8, addend: 0x0, symName: __ZN7testing8internal15TestMetaFactoryI76WithVersionNegotiationExtArgs_CompatibleVersionNegotiationDefaultServer_TestED0Ev, symObjAddr: 0x2B5C0, symBinAddr: 0x10002D300, symSize: 0x10 }
  - { offsetInCU: 0x2CA81E, offset: 0x2CA81E, size: 0x8, addend: 0x0, symName: __ZN7testing8internal15TestMetaFactoryI76WithVersionNegotiationExtArgs_CompatibleVersionNegotiationDefaultServer_TestE17CreateTestFactoryE25VersionNegotiationExtArgs, symObjAddr: 0x2B5D0, symBinAddr: 0x10002D310, symSize: 0x30 }
  - { offsetInCU: 0x2CA89D, offset: 0x2CA89D, size: 0x8, addend: 0x0, symName: __ZN7testing8internal24ParameterizedTestFactoryI76WithVersionNegotiationExtArgs_CompatibleVersionNegotiationDefaultServer_TestED1Ev, symObjAddr: 0x2B600, symBinAddr: 0x10002D340, symSize: 0x10 }
  - { offsetInCU: 0x2CA8C9, offset: 0x2CA8C9, size: 0x8, addend: 0x0, symName: __ZN7testing8internal24ParameterizedTestFactoryI76WithVersionNegotiationExtArgs_CompatibleVersionNegotiationDefaultServer_TestED0Ev, symObjAddr: 0x2B610, symBinAddr: 0x10002D350, symSize: 0x10 }
  - { offsetInCU: 0x2CA929, offset: 0x2CA929, size: 0x8, addend: 0x0, symName: __ZN7testing8internal24ParameterizedTestFactoryI76WithVersionNegotiationExtArgs_CompatibleVersionNegotiationDefaultServer_TestE10CreateTestEv, symObjAddr: 0x2B620, symBinAddr: 0x10002D360, symSize: 0x60 }
  - { offsetInCU: 0x2CA9C4, offset: 0x2CA9C4, size: 0x8, addend: 0x0, symName: __ZN7testing8internal15TestMetaFactoryI76WithVersionNegotiationExtArgs_CompatibleVersionNegotiationDefaultClient_TestED1Ev, symObjAddr: 0x2B680, symBinAddr: 0x10002D3C0, symSize: 0x10 }
  - { offsetInCU: 0x2CA9F0, offset: 0x2CA9F0, size: 0x8, addend: 0x0, symName: __ZN7testing8internal15TestMetaFactoryI76WithVersionNegotiationExtArgs_CompatibleVersionNegotiationDefaultClient_TestED0Ev, symObjAddr: 0x2B690, symBinAddr: 0x10002D3D0, symSize: 0x10 }
  - { offsetInCU: 0x2CAA88, offset: 0x2CAA88, size: 0x8, addend: 0x0, symName: __ZN7testing8internal15TestMetaFactoryI76WithVersionNegotiationExtArgs_CompatibleVersionNegotiationDefaultClient_TestE17CreateTestFactoryE25VersionNegotiationExtArgs, symObjAddr: 0x2B6A0, symBinAddr: 0x10002D3E0, symSize: 0x30 }
  - { offsetInCU: 0x2CAB07, offset: 0x2CAB07, size: 0x8, addend: 0x0, symName: __ZN7testing8internal24ParameterizedTestFactoryI76WithVersionNegotiationExtArgs_CompatibleVersionNegotiationDefaultClient_TestED1Ev, symObjAddr: 0x2B6D0, symBinAddr: 0x10002D410, symSize: 0x10 }
  - { offsetInCU: 0x2CAB33, offset: 0x2CAB33, size: 0x8, addend: 0x0, symName: __ZN7testing8internal24ParameterizedTestFactoryI76WithVersionNegotiationExtArgs_CompatibleVersionNegotiationDefaultClient_TestED0Ev, symObjAddr: 0x2B6E0, symBinAddr: 0x10002D420, symSize: 0x10 }
  - { offsetInCU: 0x2CAB93, offset: 0x2CAB93, size: 0x8, addend: 0x0, symName: __ZN7testing8internal24ParameterizedTestFactoryI76WithVersionNegotiationExtArgs_CompatibleVersionNegotiationDefaultClient_TestE10CreateTestEv, symObjAddr: 0x2B6F0, symBinAddr: 0x10002D430, symSize: 0x60 }
  - { offsetInCU: 0x2CAC2E, offset: 0x2CAC2E, size: 0x8, addend: 0x0, symName: __ZN7testing8internal15TestMetaFactoryI50WithFamilyArgs_IncompatibleVersionNegotiation_TestED1Ev, symObjAddr: 0x2B750, symBinAddr: 0x10002D490, symSize: 0x10 }
  - { offsetInCU: 0x2CAC5A, offset: 0x2CAC5A, size: 0x8, addend: 0x0, symName: __ZN7testing8internal15TestMetaFactoryI50WithFamilyArgs_IncompatibleVersionNegotiation_TestED0Ev, symObjAddr: 0x2B760, symBinAddr: 0x10002D4A0, symSize: 0x10 }
  - { offsetInCU: 0x2CACF2, offset: 0x2CACF2, size: 0x8, addend: 0x0, symName: __ZN7testing8internal15TestMetaFactoryI50WithFamilyArgs_IncompatibleVersionNegotiation_TestE17CreateTestFactoryE10FamilyArgs, symObjAddr: 0x2B770, symBinAddr: 0x10002D4B0, symSize: 0x30 }
  - { offsetInCU: 0x2CAD71, offset: 0x2CAD71, size: 0x8, addend: 0x0, symName: __ZN7testing8internal24ParameterizedTestFactoryI50WithFamilyArgs_IncompatibleVersionNegotiation_TestED1Ev, symObjAddr: 0x2B7A0, symBinAddr: 0x10002D4E0, symSize: 0x10 }
  - { offsetInCU: 0x2CAD9D, offset: 0x2CAD9D, size: 0x8, addend: 0x0, symName: __ZN7testing8internal24ParameterizedTestFactoryI50WithFamilyArgs_IncompatibleVersionNegotiation_TestED0Ev, symObjAddr: 0x2B7B0, symBinAddr: 0x10002D4F0, symSize: 0x10 }
  - { offsetInCU: 0x2CADFD, offset: 0x2CADFD, size: 0x8, addend: 0x0, symName: __ZN7testing8internal24ParameterizedTestFactoryI50WithFamilyArgs_IncompatibleVersionNegotiation_TestE10CreateTestEv, symObjAddr: 0x2B7C0, symBinAddr: 0x10002D500, symSize: 0x60 }
  - { offsetInCU: 0x2CAE98, offset: 0x2CAE98, size: 0x8, addend: 0x0, symName: __ZN7testing8internal15TestMetaFactoryI44WithFamilyArgs_FailedVersionNegotiation_TestED1Ev, symObjAddr: 0x2B820, symBinAddr: 0x10002D560, symSize: 0x10 }
  - { offsetInCU: 0x2CAEC4, offset: 0x2CAEC4, size: 0x8, addend: 0x0, symName: __ZN7testing8internal15TestMetaFactoryI44WithFamilyArgs_FailedVersionNegotiation_TestED0Ev, symObjAddr: 0x2B830, symBinAddr: 0x10002D570, symSize: 0x10 }
  - { offsetInCU: 0x2CAF5C, offset: 0x2CAF5C, size: 0x8, addend: 0x0, symName: __ZN7testing8internal15TestMetaFactoryI44WithFamilyArgs_FailedVersionNegotiation_TestE17CreateTestFactoryE10FamilyArgs, symObjAddr: 0x2B840, symBinAddr: 0x10002D580, symSize: 0x30 }
  - { offsetInCU: 0x2CAFDB, offset: 0x2CAFDB, size: 0x8, addend: 0x0, symName: __ZN7testing8internal24ParameterizedTestFactoryI44WithFamilyArgs_FailedVersionNegotiation_TestED1Ev, symObjAddr: 0x2B870, symBinAddr: 0x10002D5B0, symSize: 0x10 }
  - { offsetInCU: 0x2CB007, offset: 0x2CB007, size: 0x8, addend: 0x0, symName: __ZN7testing8internal24ParameterizedTestFactoryI44WithFamilyArgs_FailedVersionNegotiation_TestED0Ev, symObjAddr: 0x2B880, symBinAddr: 0x10002D5C0, symSize: 0x10 }
  - { offsetInCU: 0x2CB067, offset: 0x2CB067, size: 0x8, addend: 0x0, symName: __ZN7testing8internal24ParameterizedTestFactoryI44WithFamilyArgs_FailedVersionNegotiation_TestE10CreateTestEv, symObjAddr: 0x2B890, symBinAddr: 0x10002D5D0, symSize: 0x60 }
  - { offsetInCU: 0x2CB3E9, offset: 0x2CB3E9, size: 0x8, addend: 0x0, symName: __ZNSt3__110shared_ptrIN7testing8internal26ParameterizedTestSuiteInfoI22WithFeatureSupportArgsE8TestInfoEEC1B8ue170006IS6_vEEPT_, symObjAddr: 0x2BCC0, symBinAddr: 0x10002DA00, symSize: 0x60 }
  - { offsetInCU: 0x2CB5C2, offset: 0x2CB5C2, size: 0x8, addend: 0x0, symName: __ZNSt3__16vectorINS_10shared_ptrIN7testing8internal26ParameterizedTestSuiteInfoI22WithFeatureSupportArgsE8TestInfoEEENS_9allocatorIS8_EEE24__emplace_back_slow_pathIJPS7_EEEvDpOT_, symObjAddr: 0x2BAF0, symBinAddr: 0x10002D830, symSize: 0x1D0 }
  - { offsetInCU: 0x2CC13D, offset: 0x2CC13D, size: 0x8, addend: 0x0, symName: __ZNKSt3__16vectorINS_10shared_ptrIN7testing8internal26ParameterizedTestSuiteInfoI22WithFeatureSupportArgsE8TestInfoEEENS_9allocatorIS8_EEE20__throw_length_errorB8ue170006Ev, symObjAddr: 0x2BE60, symBinAddr: 0x10002DBA0, symSize: 0x10 }
  - { offsetInCU: 0x2CC166, offset: 0x2CC166, size: 0x8, addend: 0x0, symName: __ZN7testing8internal15TestMetaFactoryI52WithFeatureSupportArgs_ReliableResetNegotiation_TestED1Ev, symObjAddr: 0x2BE70, symBinAddr: 0x10002DBB0, symSize: 0x10 }
  - { offsetInCU: 0x2CC171, offset: 0x2CC171, size: 0x8, addend: 0x0, symName: __ZNSt3__114__split_bufferINS_10shared_ptrIN7testing8internal26ParameterizedTestSuiteInfoI22WithFeatureSupportArgsE8TestInfoEEERNS_9allocatorIS8_EEED1Ev, symObjAddr: 0x2BDE0, symBinAddr: 0x10002DB20, symSize: 0x80 }
  - { offsetInCU: 0x2CC6E5, offset: 0x2CC6E5, size: 0x8, addend: 0x0, symName: __ZNSt3__110shared_ptrIN7testing8internal26ParameterizedTestSuiteInfoI22WithFeatureSupportArgsE8TestInfoEEC1B8ue170006IS6_vEEPT_.cold.1, symObjAddr: 0x81D10, symBinAddr: 0x100407B40, symSize: 0x50 }
  - { offsetInCU: 0x2CCA49, offset: 0x2CCA49, size: 0x8, addend: 0x0, symName: __ZNSt3__120__shared_ptr_pointerIPN7testing8internal26ParameterizedTestSuiteInfoI22WithFeatureSupportArgsE8TestInfoENS_10shared_ptrIS6_E27__shared_ptr_default_deleteIS6_S6_EENS_9allocatorIS6_EEED1Ev, symObjAddr: 0x2BD20, symBinAddr: 0x10002DA60, symSize: 0x10 }
  - { offsetInCU: 0x2CCAA1, offset: 0x2CCAA1, size: 0x8, addend: 0x0, symName: __ZNSt3__120__shared_ptr_pointerIPN7testing8internal26ParameterizedTestSuiteInfoI22WithFeatureSupportArgsE8TestInfoENS_10shared_ptrIS6_E27__shared_ptr_default_deleteIS6_S6_EENS_9allocatorIS6_EEED0Ev, symObjAddr: 0x2BD30, symBinAddr: 0x10002DA70, symSize: 0x20 }
  - { offsetInCU: 0x2CCBC9, offset: 0x2CCBC9, size: 0x8, addend: 0x0, symName: __ZNSt3__120__shared_ptr_pointerIPN7testing8internal26ParameterizedTestSuiteInfoI22WithFeatureSupportArgsE8TestInfoENS_10shared_ptrIS6_E27__shared_ptr_default_deleteIS6_S6_EENS_9allocatorIS6_EEE16__on_zero_sharedEv, symObjAddr: 0x2BD50, symBinAddr: 0x10002DA90, symSize: 0x60 }
  - { offsetInCU: 0x2CCF55, offset: 0x2CCF55, size: 0x8, addend: 0x0, symName: __ZNKSt3__120__shared_ptr_pointerIPN7testing8internal26ParameterizedTestSuiteInfoI22WithFeatureSupportArgsE8TestInfoENS_10shared_ptrIS6_E27__shared_ptr_default_deleteIS6_S6_EENS_9allocatorIS6_EEE13__get_deleterERKSt9type_info, symObjAddr: 0x2BDB0, symBinAddr: 0x10002DAF0, symSize: 0x20 }
  - { offsetInCU: 0x2CD018, offset: 0x2CD018, size: 0x8, addend: 0x0, symName: __ZNSt3__120__shared_ptr_pointerIPN7testing8internal26ParameterizedTestSuiteInfoI22WithFeatureSupportArgsE8TestInfoENS_10shared_ptrIS6_E27__shared_ptr_default_deleteIS6_S6_EENS_9allocatorIS6_EEE21__on_zero_shared_weakEv, symObjAddr: 0x2BDD0, symBinAddr: 0x10002DB10, symSize: 0x10 }
  - { offsetInCU: 0x2CD0EB, offset: 0x2CD0EB, size: 0x8, addend: 0x0, symName: __ZN7testing8internal15TestMetaFactoryI52WithFeatureSupportArgs_ReliableResetNegotiation_TestED1Ev, symObjAddr: 0x2BE70, symBinAddr: 0x10002DBB0, symSize: 0x10 }
  - { offsetInCU: 0x2CD117, offset: 0x2CD117, size: 0x8, addend: 0x0, symName: __ZN7testing8internal15TestMetaFactoryI52WithFeatureSupportArgs_ReliableResetNegotiation_TestED0Ev, symObjAddr: 0x2BE80, symBinAddr: 0x10002DBC0, symSize: 0x10 }
  - { offsetInCU: 0x2CD1AF, offset: 0x2CD1AF, size: 0x8, addend: 0x0, symName: __ZN7testing8internal15TestMetaFactoryI52WithFeatureSupportArgs_ReliableResetNegotiation_TestE17CreateTestFactoryE18FeatureSupportArgs, symObjAddr: 0x2BE90, symBinAddr: 0x10002DBD0, symSize: 0x30 }
  - { offsetInCU: 0x2CD22E, offset: 0x2CD22E, size: 0x8, addend: 0x0, symName: __ZN7testing8internal24ParameterizedTestFactoryI52WithFeatureSupportArgs_ReliableResetNegotiation_TestED1Ev, symObjAddr: 0x2BEC0, symBinAddr: 0x10002DC00, symSize: 0x10 }
  - { offsetInCU: 0x2CD25A, offset: 0x2CD25A, size: 0x8, addend: 0x0, symName: __ZN7testing8internal24ParameterizedTestFactoryI52WithFeatureSupportArgs_ReliableResetNegotiation_TestED0Ev, symObjAddr: 0x2BED0, symBinAddr: 0x10002DC10, symSize: 0x10 }
  - { offsetInCU: 0x2CD2EB, offset: 0x2CD2EB, size: 0x8, addend: 0x0, symName: __ZN7testing8internal24ParameterizedTestFactoryI52WithFeatureSupportArgs_ReliableResetNegotiation_TestE10CreateTestEv, symObjAddr: 0x2BEE0, symBinAddr: 0x10002DC20, symSize: 0x60 }
  - { offsetInCU: 0x2CD386, offset: 0x2CD386, size: 0x8, addend: 0x0, symName: __ZN22WithFeatureSupportArgsD1Ev, symObjAddr: 0x2BF40, symBinAddr: 0x100407150, symSize: 0x10 }
  - { offsetInCU: 0x2CD3A6, offset: 0x2CD3A6, size: 0x8, addend: 0x0, symName: __ZN22WithFeatureSupportArgsD0Ev, symObjAddr: 0x2BF50, symBinAddr: 0x100407160, symSize: 0x10 }
  - { offsetInCU: 0x2CD3E3, offset: 0x2CD3E3, size: 0x8, addend: 0x0, symName: __ZThn16_N22WithFeatureSupportArgsD1Ev, symObjAddr: 0x2BF60, symBinAddr: 0x100407170, symSize: 0x10 }
  - { offsetInCU: 0x2CD436, offset: 0x2CD436, size: 0x8, addend: 0x0, symName: __ZThn16_N22WithFeatureSupportArgsD0Ev, symObjAddr: 0x2BF70, symBinAddr: 0x100407180, symSize: 0x10 }
  - { offsetInCU: 0x2CD46C, offset: 0x2CD46C, size: 0x8, addend: 0x0, symName: __ZN7testing18WithParamInterfaceI18FeatureSupportArgsED1Ev, symObjAddr: 0x2BF80, symBinAddr: 0x10002DC80, symSize: 0x10 }
  - { offsetInCU: 0x2CD495, offset: 0x2CD495, size: 0x8, addend: 0x0, symName: __ZN7testing18WithParamInterfaceI18FeatureSupportArgsED0Ev, symObjAddr: 0x2BF90, symBinAddr: 0x10002DC90, symSize: 0x10 }
  - { offsetInCU: 0x2CD4BE, offset: 0x2CD4BE, size: 0x8, addend: 0x0, symName: __ZN7testing8internal15TestMetaFactoryI50WithFeatureSupportArgs_OneWayDelayNegotiation_TestED1Ev, symObjAddr: 0x2BFA0, symBinAddr: 0x10002DCA0, symSize: 0x10 }
  - { offsetInCU: 0x2CD4EA, offset: 0x2CD4EA, size: 0x8, addend: 0x0, symName: __ZN7testing8internal15TestMetaFactoryI50WithFeatureSupportArgs_OneWayDelayNegotiation_TestED0Ev, symObjAddr: 0x2BFB0, symBinAddr: 0x10002DCB0, symSize: 0x10 }
  - { offsetInCU: 0x2CD582, offset: 0x2CD582, size: 0x8, addend: 0x0, symName: __ZN7testing8internal15TestMetaFactoryI50WithFeatureSupportArgs_OneWayDelayNegotiation_TestE17CreateTestFactoryE18FeatureSupportArgs, symObjAddr: 0x2BFC0, symBinAddr: 0x10002DCC0, symSize: 0x30 }
  - { offsetInCU: 0x2CD601, offset: 0x2CD601, size: 0x8, addend: 0x0, symName: __ZN7testing8internal24ParameterizedTestFactoryI50WithFeatureSupportArgs_OneWayDelayNegotiation_TestED1Ev, symObjAddr: 0x2BFF0, symBinAddr: 0x10002DCF0, symSize: 0x10 }
  - { offsetInCU: 0x2CD62D, offset: 0x2CD62D, size: 0x8, addend: 0x0, symName: __ZN7testing8internal24ParameterizedTestFactoryI50WithFeatureSupportArgs_OneWayDelayNegotiation_TestED0Ev, symObjAddr: 0x2C000, symBinAddr: 0x10002DD00, symSize: 0x10 }
  - { offsetInCU: 0x2CD68D, offset: 0x2CD68D, size: 0x8, addend: 0x0, symName: __ZN7testing8internal24ParameterizedTestFactoryI50WithFeatureSupportArgs_OneWayDelayNegotiation_TestE10CreateTestEv, symObjAddr: 0x2C010, symBinAddr: 0x10002DD10, symSize: 0x60 }
  - { offsetInCU: 0x2CDA0F, offset: 0x2CDA0F, size: 0x8, addend: 0x0, symName: __ZNSt3__110shared_ptrIN7testing8internal26ParameterizedTestSuiteInfoI18WithHandshakeArgs5E8TestInfoEEC1B8ue170006IS6_vEEPT_, symObjAddr: 0x2C440, symBinAddr: 0x10002E140, symSize: 0x60 }
  - { offsetInCU: 0x2CDBE8, offset: 0x2CDBE8, size: 0x8, addend: 0x0, symName: __ZNSt3__16vectorINS_10shared_ptrIN7testing8internal26ParameterizedTestSuiteInfoI18WithHandshakeArgs5E8TestInfoEEENS_9allocatorIS8_EEE24__emplace_back_slow_pathIJPS7_EEEvDpOT_, symObjAddr: 0x2C270, symBinAddr: 0x10002DF70, symSize: 0x1D0 }
  - { offsetInCU: 0x2CE763, offset: 0x2CE763, size: 0x8, addend: 0x0, symName: __ZNKSt3__16vectorINS_10shared_ptrIN7testing8internal26ParameterizedTestSuiteInfoI18WithHandshakeArgs5E8TestInfoEEENS_9allocatorIS8_EEE20__throw_length_errorB8ue170006Ev, symObjAddr: 0x2C5E0, symBinAddr: 0x10002E2E0, symSize: 0x10 }
  - { offsetInCU: 0x2CE78C, offset: 0x2CE78C, size: 0x8, addend: 0x0, symName: __ZN7testing8internal15TestMetaFactoryI57WithHandshakeArgs5_CustomServerCertificateValidation_TestED1Ev, symObjAddr: 0x2C5F0, symBinAddr: 0x10002E2F0, symSize: 0x10 }
  - { offsetInCU: 0x2CE797, offset: 0x2CE797, size: 0x8, addend: 0x0, symName: __ZNSt3__114__split_bufferINS_10shared_ptrIN7testing8internal26ParameterizedTestSuiteInfoI18WithHandshakeArgs5E8TestInfoEEERNS_9allocatorIS8_EEED1Ev, symObjAddr: 0x2C560, symBinAddr: 0x10002E260, symSize: 0x80 }
  - { offsetInCU: 0x2CED0B, offset: 0x2CED0B, size: 0x8, addend: 0x0, symName: __ZNSt3__110shared_ptrIN7testing8internal26ParameterizedTestSuiteInfoI18WithHandshakeArgs5E8TestInfoEEC1B8ue170006IS6_vEEPT_.cold.1, symObjAddr: 0x81D60, symBinAddr: 0x100407B90, symSize: 0x50 }
  - { offsetInCU: 0x2CF06F, offset: 0x2CF06F, size: 0x8, addend: 0x0, symName: __ZNSt3__120__shared_ptr_pointerIPN7testing8internal26ParameterizedTestSuiteInfoI18WithHandshakeArgs5E8TestInfoENS_10shared_ptrIS6_E27__shared_ptr_default_deleteIS6_S6_EENS_9allocatorIS6_EEED1Ev, symObjAddr: 0x2C4A0, symBinAddr: 0x10002E1A0, symSize: 0x10 }
  - { offsetInCU: 0x2CF0C7, offset: 0x2CF0C7, size: 0x8, addend: 0x0, symName: __ZNSt3__120__shared_ptr_pointerIPN7testing8internal26ParameterizedTestSuiteInfoI18WithHandshakeArgs5E8TestInfoENS_10shared_ptrIS6_E27__shared_ptr_default_deleteIS6_S6_EENS_9allocatorIS6_EEED0Ev, symObjAddr: 0x2C4B0, symBinAddr: 0x10002E1B0, symSize: 0x20 }
  - { offsetInCU: 0x2CF1EF, offset: 0x2CF1EF, size: 0x8, addend: 0x0, symName: __ZNSt3__120__shared_ptr_pointerIPN7testing8internal26ParameterizedTestSuiteInfoI18WithHandshakeArgs5E8TestInfoENS_10shared_ptrIS6_E27__shared_ptr_default_deleteIS6_S6_EENS_9allocatorIS6_EEE16__on_zero_sharedEv, symObjAddr: 0x2C4D0, symBinAddr: 0x10002E1D0, symSize: 0x60 }
  - { offsetInCU: 0x2CF57B, offset: 0x2CF57B, size: 0x8, addend: 0x0, symName: __ZNKSt3__120__shared_ptr_pointerIPN7testing8internal26ParameterizedTestSuiteInfoI18WithHandshakeArgs5E8TestInfoENS_10shared_ptrIS6_E27__shared_ptr_default_deleteIS6_S6_EENS_9allocatorIS6_EEE13__get_deleterERKSt9type_info, symObjAddr: 0x2C530, symBinAddr: 0x10002E230, symSize: 0x20 }
  - { offsetInCU: 0x2CF63E, offset: 0x2CF63E, size: 0x8, addend: 0x0, symName: __ZNSt3__120__shared_ptr_pointerIPN7testing8internal26ParameterizedTestSuiteInfoI18WithHandshakeArgs5E8TestInfoENS_10shared_ptrIS6_E27__shared_ptr_default_deleteIS6_S6_EENS_9allocatorIS6_EEE21__on_zero_shared_weakEv, symObjAddr: 0x2C550, symBinAddr: 0x10002E250, symSize: 0x10 }
  - { offsetInCU: 0x2CF711, offset: 0x2CF711, size: 0x8, addend: 0x0, symName: __ZN7testing8internal15TestMetaFactoryI57WithHandshakeArgs5_CustomServerCertificateValidation_TestED1Ev, symObjAddr: 0x2C5F0, symBinAddr: 0x10002E2F0, symSize: 0x10 }
  - { offsetInCU: 0x2CF73D, offset: 0x2CF73D, size: 0x8, addend: 0x0, symName: __ZN7testing8internal15TestMetaFactoryI57WithHandshakeArgs5_CustomServerCertificateValidation_TestED0Ev, symObjAddr: 0x2C600, symBinAddr: 0x10002E300, symSize: 0x10 }
  - { offsetInCU: 0x2CF7D5, offset: 0x2CF7D5, size: 0x8, addend: 0x0, symName: __ZN7testing8internal15TestMetaFactoryI57WithHandshakeArgs5_CustomServerCertificateValidation_TestE17CreateTestFactoryE14HandshakeArgs5, symObjAddr: 0x2C610, symBinAddr: 0x10002E310, symSize: 0x30 }
  - { offsetInCU: 0x2CF854, offset: 0x2CF854, size: 0x8, addend: 0x0, symName: __ZN7testing8internal24ParameterizedTestFactoryI57WithHandshakeArgs5_CustomServerCertificateValidation_TestED1Ev, symObjAddr: 0x2C640, symBinAddr: 0x10002E340, symSize: 0x10 }
  - { offsetInCU: 0x2CF880, offset: 0x2CF880, size: 0x8, addend: 0x0, symName: __ZN7testing8internal24ParameterizedTestFactoryI57WithHandshakeArgs5_CustomServerCertificateValidation_TestED0Ev, symObjAddr: 0x2C650, symBinAddr: 0x10002E350, symSize: 0x10 }
  - { offsetInCU: 0x2CF910, offset: 0x2CF910, size: 0x8, addend: 0x0, symName: __ZN7testing8internal24ParameterizedTestFactoryI57WithHandshakeArgs5_CustomServerCertificateValidation_TestE10CreateTestEv, symObjAddr: 0x2C660, symBinAddr: 0x10002E360, symSize: 0x60 }
  - { offsetInCU: 0x2CF9AB, offset: 0x2CF9AB, size: 0x8, addend: 0x0, symName: __ZN18WithHandshakeArgs5D1Ev, symObjAddr: 0x2C6C0, symBinAddr: 0x100407190, symSize: 0x10 }
  - { offsetInCU: 0x2CF9CB, offset: 0x2CF9CB, size: 0x8, addend: 0x0, symName: __ZN18WithHandshakeArgs5D0Ev, symObjAddr: 0x2C6D0, symBinAddr: 0x1004071A0, symSize: 0x10 }
  - { offsetInCU: 0x2CFA07, offset: 0x2CFA07, size: 0x8, addend: 0x0, symName: __ZThn16_N18WithHandshakeArgs5D1Ev, symObjAddr: 0x2C6E0, symBinAddr: 0x1004071B0, symSize: 0x10 }
  - { offsetInCU: 0x2CFA58, offset: 0x2CFA58, size: 0x8, addend: 0x0, symName: __ZThn16_N18WithHandshakeArgs5D0Ev, symObjAddr: 0x2C6F0, symBinAddr: 0x1004071C0, symSize: 0x10 }
  - { offsetInCU: 0x2CFA8D, offset: 0x2CFA8D, size: 0x8, addend: 0x0, symName: __ZN7testing18WithParamInterfaceI14HandshakeArgs5ED1Ev, symObjAddr: 0x2C700, symBinAddr: 0x10002E3C0, symSize: 0x10 }
  - { offsetInCU: 0x2CFAB6, offset: 0x2CFAB6, size: 0x8, addend: 0x0, symName: __ZN7testing18WithParamInterfaceI14HandshakeArgs5ED0Ev, symObjAddr: 0x2C710, symBinAddr: 0x10002E3D0, symSize: 0x10 }
  - { offsetInCU: 0x2CFADF, offset: 0x2CFADF, size: 0x8, addend: 0x0, symName: __ZN7testing8internal15TestMetaFactoryI57WithHandshakeArgs5_CustomClientCertificateValidation_TestED1Ev, symObjAddr: 0x2C720, symBinAddr: 0x10002E3E0, symSize: 0x10 }
  - { offsetInCU: 0x2CFB0B, offset: 0x2CFB0B, size: 0x8, addend: 0x0, symName: __ZN7testing8internal15TestMetaFactoryI57WithHandshakeArgs5_CustomClientCertificateValidation_TestED0Ev, symObjAddr: 0x2C730, symBinAddr: 0x10002E3F0, symSize: 0x10 }
  - { offsetInCU: 0x2CFBA3, offset: 0x2CFBA3, size: 0x8, addend: 0x0, symName: __ZN7testing8internal15TestMetaFactoryI57WithHandshakeArgs5_CustomClientCertificateValidation_TestE17CreateTestFactoryE14HandshakeArgs5, symObjAddr: 0x2C740, symBinAddr: 0x10002E400, symSize: 0x30 }
  - { offsetInCU: 0x2CFC22, offset: 0x2CFC22, size: 0x8, addend: 0x0, symName: __ZN7testing8internal24ParameterizedTestFactoryI57WithHandshakeArgs5_CustomClientCertificateValidation_TestED1Ev, symObjAddr: 0x2C770, symBinAddr: 0x10002E430, symSize: 0x10 }
  - { offsetInCU: 0x2CFC4E, offset: 0x2CFC4E, size: 0x8, addend: 0x0, symName: __ZN7testing8internal24ParameterizedTestFactoryI57WithHandshakeArgs5_CustomClientCertificateValidation_TestED0Ev, symObjAddr: 0x2C780, symBinAddr: 0x10002E440, symSize: 0x10 }
  - { offsetInCU: 0x2CFCAE, offset: 0x2CFCAE, size: 0x8, addend: 0x0, symName: __ZN7testing8internal24ParameterizedTestFactoryI57WithHandshakeArgs5_CustomClientCertificateValidation_TestE10CreateTestEv, symObjAddr: 0x2C790, symBinAddr: 0x10002E450, symSize: 0x60 }
  - { offsetInCU: 0x2D0030, offset: 0x2D0030, size: 0x8, addend: 0x0, symName: __ZNSt3__110shared_ptrIN7testing8internal26ParameterizedTestSuiteInfoI18WithHandshakeArgs6E8TestInfoEEC1B8ue170006IS6_vEEPT_, symObjAddr: 0x2CBC0, symBinAddr: 0x10002E880, symSize: 0x60 }
  - { offsetInCU: 0x2D0209, offset: 0x2D0209, size: 0x8, addend: 0x0, symName: __ZNSt3__16vectorINS_10shared_ptrIN7testing8internal26ParameterizedTestSuiteInfoI18WithHandshakeArgs6E8TestInfoEEENS_9allocatorIS8_EEE24__emplace_back_slow_pathIJPS7_EEEvDpOT_, symObjAddr: 0x2C9F0, symBinAddr: 0x10002E6B0, symSize: 0x1D0 }
  - { offsetInCU: 0x2D0D84, offset: 0x2D0D84, size: 0x8, addend: 0x0, symName: __ZNKSt3__16vectorINS_10shared_ptrIN7testing8internal26ParameterizedTestSuiteInfoI18WithHandshakeArgs6E8TestInfoEEENS_9allocatorIS8_EEE20__throw_length_errorB8ue170006Ev, symObjAddr: 0x2CD60, symBinAddr: 0x10002EA20, symSize: 0x10 }
  - { offsetInCU: 0x2D0DAD, offset: 0x2D0DAD, size: 0x8, addend: 0x0, symName: __ZN7testing8internal15TestMetaFactoryI48WithHandshakeArgs6_ConnectClientCertificate_TestED1Ev, symObjAddr: 0x2CD70, symBinAddr: 0x10002EA30, symSize: 0x10 }
  - { offsetInCU: 0x2D0DB8, offset: 0x2D0DB8, size: 0x8, addend: 0x0, symName: __ZNSt3__114__split_bufferINS_10shared_ptrIN7testing8internal26ParameterizedTestSuiteInfoI18WithHandshakeArgs6E8TestInfoEEERNS_9allocatorIS8_EEED1Ev, symObjAddr: 0x2CCE0, symBinAddr: 0x10002E9A0, symSize: 0x80 }
  - { offsetInCU: 0x2D132C, offset: 0x2D132C, size: 0x8, addend: 0x0, symName: __ZNSt3__110shared_ptrIN7testing8internal26ParameterizedTestSuiteInfoI18WithHandshakeArgs6E8TestInfoEEC1B8ue170006IS6_vEEPT_.cold.1, symObjAddr: 0x81DB0, symBinAddr: 0x100407BE0, symSize: 0x50 }
  - { offsetInCU: 0x2D1690, offset: 0x2D1690, size: 0x8, addend: 0x0, symName: __ZNSt3__120__shared_ptr_pointerIPN7testing8internal26ParameterizedTestSuiteInfoI18WithHandshakeArgs6E8TestInfoENS_10shared_ptrIS6_E27__shared_ptr_default_deleteIS6_S6_EENS_9allocatorIS6_EEED1Ev, symObjAddr: 0x2CC20, symBinAddr: 0x10002E8E0, symSize: 0x10 }
  - { offsetInCU: 0x2D16E8, offset: 0x2D16E8, size: 0x8, addend: 0x0, symName: __ZNSt3__120__shared_ptr_pointerIPN7testing8internal26ParameterizedTestSuiteInfoI18WithHandshakeArgs6E8TestInfoENS_10shared_ptrIS6_E27__shared_ptr_default_deleteIS6_S6_EENS_9allocatorIS6_EEED0Ev, symObjAddr: 0x2CC30, symBinAddr: 0x10002E8F0, symSize: 0x20 }
  - { offsetInCU: 0x2D1810, offset: 0x2D1810, size: 0x8, addend: 0x0, symName: __ZNSt3__120__shared_ptr_pointerIPN7testing8internal26ParameterizedTestSuiteInfoI18WithHandshakeArgs6E8TestInfoENS_10shared_ptrIS6_E27__shared_ptr_default_deleteIS6_S6_EENS_9allocatorIS6_EEE16__on_zero_sharedEv, symObjAddr: 0x2CC50, symBinAddr: 0x10002E910, symSize: 0x60 }
  - { offsetInCU: 0x2D1B9C, offset: 0x2D1B9C, size: 0x8, addend: 0x0, symName: __ZNKSt3__120__shared_ptr_pointerIPN7testing8internal26ParameterizedTestSuiteInfoI18WithHandshakeArgs6E8TestInfoENS_10shared_ptrIS6_E27__shared_ptr_default_deleteIS6_S6_EENS_9allocatorIS6_EEE13__get_deleterERKSt9type_info, symObjAddr: 0x2CCB0, symBinAddr: 0x10002E970, symSize: 0x20 }
  - { offsetInCU: 0x2D1C5F, offset: 0x2D1C5F, size: 0x8, addend: 0x0, symName: __ZNSt3__120__shared_ptr_pointerIPN7testing8internal26ParameterizedTestSuiteInfoI18WithHandshakeArgs6E8TestInfoENS_10shared_ptrIS6_E27__shared_ptr_default_deleteIS6_S6_EENS_9allocatorIS6_EEE21__on_zero_shared_weakEv, symObjAddr: 0x2CCD0, symBinAddr: 0x10002E990, symSize: 0x10 }
  - { offsetInCU: 0x2D1D32, offset: 0x2D1D32, size: 0x8, addend: 0x0, symName: __ZN7testing8internal15TestMetaFactoryI48WithHandshakeArgs6_ConnectClientCertificate_TestED1Ev, symObjAddr: 0x2CD70, symBinAddr: 0x10002EA30, symSize: 0x10 }
  - { offsetInCU: 0x2D1D5E, offset: 0x2D1D5E, size: 0x8, addend: 0x0, symName: __ZN7testing8internal15TestMetaFactoryI48WithHandshakeArgs6_ConnectClientCertificate_TestED0Ev, symObjAddr: 0x2CD80, symBinAddr: 0x10002EA40, symSize: 0x10 }
  - { offsetInCU: 0x2D1DF6, offset: 0x2D1DF6, size: 0x8, addend: 0x0, symName: __ZN7testing8internal15TestMetaFactoryI48WithHandshakeArgs6_ConnectClientCertificate_TestE17CreateTestFactoryE14HandshakeArgs6, symObjAddr: 0x2CD90, symBinAddr: 0x10002EA50, symSize: 0x30 }
  - { offsetInCU: 0x2D1E75, offset: 0x2D1E75, size: 0x8, addend: 0x0, symName: __ZN7testing8internal24ParameterizedTestFactoryI48WithHandshakeArgs6_ConnectClientCertificate_TestED1Ev, symObjAddr: 0x2CDC0, symBinAddr: 0x10002EA80, symSize: 0x10 }
  - { offsetInCU: 0x2D1EA1, offset: 0x2D1EA1, size: 0x8, addend: 0x0, symName: __ZN7testing8internal24ParameterizedTestFactoryI48WithHandshakeArgs6_ConnectClientCertificate_TestED0Ev, symObjAddr: 0x2CDD0, symBinAddr: 0x10002EA90, symSize: 0x10 }
  - { offsetInCU: 0x2D1F31, offset: 0x2D1F31, size: 0x8, addend: 0x0, symName: __ZN7testing8internal24ParameterizedTestFactoryI48WithHandshakeArgs6_ConnectClientCertificate_TestE10CreateTestEv, symObjAddr: 0x2CDE0, symBinAddr: 0x10002EAA0, symSize: 0x60 }
  - { offsetInCU: 0x2D1FCC, offset: 0x2D1FCC, size: 0x8, addend: 0x0, symName: __ZN18WithHandshakeArgs6D1Ev, symObjAddr: 0x2CE40, symBinAddr: 0x1004071D0, symSize: 0x10 }
  - { offsetInCU: 0x2D1FEC, offset: 0x2D1FEC, size: 0x8, addend: 0x0, symName: __ZN18WithHandshakeArgs6D0Ev, symObjAddr: 0x2CE50, symBinAddr: 0x1004071E0, symSize: 0x10 }
  - { offsetInCU: 0x2D2028, offset: 0x2D2028, size: 0x8, addend: 0x0, symName: __ZThn16_N18WithHandshakeArgs6D1Ev, symObjAddr: 0x2CE60, symBinAddr: 0x1004071F0, symSize: 0x10 }
  - { offsetInCU: 0x2D2079, offset: 0x2D2079, size: 0x8, addend: 0x0, symName: __ZThn16_N18WithHandshakeArgs6D0Ev, symObjAddr: 0x2CE70, symBinAddr: 0x100407200, symSize: 0x10 }
  - { offsetInCU: 0x2D20AE, offset: 0x2D20AE, size: 0x8, addend: 0x0, symName: __ZN7testing18WithParamInterfaceI14HandshakeArgs6ED1Ev, symObjAddr: 0x2CE80, symBinAddr: 0x10002EB00, symSize: 0x10 }
  - { offsetInCU: 0x2D20D7, offset: 0x2D20D7, size: 0x8, addend: 0x0, symName: __ZN7testing18WithParamInterfaceI14HandshakeArgs6ED0Ev, symObjAddr: 0x2CE90, symBinAddr: 0x10002EB10, symSize: 0x10 }
  - { offsetInCU: 0x2D23E7, offset: 0x2D23E7, size: 0x8, addend: 0x0, symName: __ZNSt3__110shared_ptrIN7testing8internal26ParameterizedTestSuiteInfoI18WithHandshakeArgs7E8TestInfoEEC1B8ue170006IS6_vEEPT_, symObjAddr: 0x2D270, symBinAddr: 0x10002EEF0, symSize: 0x60 }
  - { offsetInCU: 0x2D25C0, offset: 0x2D25C0, size: 0x8, addend: 0x0, symName: __ZNSt3__16vectorINS_10shared_ptrIN7testing8internal26ParameterizedTestSuiteInfoI18WithHandshakeArgs7E8TestInfoEEENS_9allocatorIS8_EEE24__emplace_back_slow_pathIJPS7_EEEvDpOT_, symObjAddr: 0x2D0A0, symBinAddr: 0x10002ED20, symSize: 0x1D0 }
  - { offsetInCU: 0x2D313B, offset: 0x2D313B, size: 0x8, addend: 0x0, symName: __ZNKSt3__16vectorINS_10shared_ptrIN7testing8internal26ParameterizedTestSuiteInfoI18WithHandshakeArgs7E8TestInfoEEENS_9allocatorIS8_EEE20__throw_length_errorB8ue170006Ev, symObjAddr: 0x2D410, symBinAddr: 0x10002F090, symSize: 0x10 }
  - { offsetInCU: 0x2D3164, offset: 0x2D3164, size: 0x8, addend: 0x0, symName: __ZN7testing8internal15TestMetaFactoryI38WithHandshakeArgs7_CibirExtension_TestED1Ev, symObjAddr: 0x2D420, symBinAddr: 0x10002F0A0, symSize: 0x10 }
  - { offsetInCU: 0x2D316F, offset: 0x2D316F, size: 0x8, addend: 0x0, symName: __ZNSt3__114__split_bufferINS_10shared_ptrIN7testing8internal26ParameterizedTestSuiteInfoI18WithHandshakeArgs7E8TestInfoEEERNS_9allocatorIS8_EEED1Ev, symObjAddr: 0x2D390, symBinAddr: 0x10002F010, symSize: 0x80 }
  - { offsetInCU: 0x2D36E3, offset: 0x2D36E3, size: 0x8, addend: 0x0, symName: __ZNSt3__110shared_ptrIN7testing8internal26ParameterizedTestSuiteInfoI18WithHandshakeArgs7E8TestInfoEEC1B8ue170006IS6_vEEPT_.cold.1, symObjAddr: 0x81E00, symBinAddr: 0x100407C30, symSize: 0x50 }
  - { offsetInCU: 0x2D3A47, offset: 0x2D3A47, size: 0x8, addend: 0x0, symName: __ZNSt3__120__shared_ptr_pointerIPN7testing8internal26ParameterizedTestSuiteInfoI18WithHandshakeArgs7E8TestInfoENS_10shared_ptrIS6_E27__shared_ptr_default_deleteIS6_S6_EENS_9allocatorIS6_EEED1Ev, symObjAddr: 0x2D2D0, symBinAddr: 0x10002EF50, symSize: 0x10 }
  - { offsetInCU: 0x2D3A9F, offset: 0x2D3A9F, size: 0x8, addend: 0x0, symName: __ZNSt3__120__shared_ptr_pointerIPN7testing8internal26ParameterizedTestSuiteInfoI18WithHandshakeArgs7E8TestInfoENS_10shared_ptrIS6_E27__shared_ptr_default_deleteIS6_S6_EENS_9allocatorIS6_EEED0Ev, symObjAddr: 0x2D2E0, symBinAddr: 0x10002EF60, symSize: 0x20 }
  - { offsetInCU: 0x2D3BC7, offset: 0x2D3BC7, size: 0x8, addend: 0x0, symName: __ZNSt3__120__shared_ptr_pointerIPN7testing8internal26ParameterizedTestSuiteInfoI18WithHandshakeArgs7E8TestInfoENS_10shared_ptrIS6_E27__shared_ptr_default_deleteIS6_S6_EENS_9allocatorIS6_EEE16__on_zero_sharedEv, symObjAddr: 0x2D300, symBinAddr: 0x10002EF80, symSize: 0x60 }
  - { offsetInCU: 0x2D3F53, offset: 0x2D3F53, size: 0x8, addend: 0x0, symName: __ZNKSt3__120__shared_ptr_pointerIPN7testing8internal26ParameterizedTestSuiteInfoI18WithHandshakeArgs7E8TestInfoENS_10shared_ptrIS6_E27__shared_ptr_default_deleteIS6_S6_EENS_9allocatorIS6_EEE13__get_deleterERKSt9type_info, symObjAddr: 0x2D360, symBinAddr: 0x10002EFE0, symSize: 0x20 }
  - { offsetInCU: 0x2D4016, offset: 0x2D4016, size: 0x8, addend: 0x0, symName: __ZNSt3__120__shared_ptr_pointerIPN7testing8internal26ParameterizedTestSuiteInfoI18WithHandshakeArgs7E8TestInfoENS_10shared_ptrIS6_E27__shared_ptr_default_deleteIS6_S6_EENS_9allocatorIS6_EEE21__on_zero_shared_weakEv, symObjAddr: 0x2D380, symBinAddr: 0x10002F000, symSize: 0x10 }
  - { offsetInCU: 0x2D40E9, offset: 0x2D40E9, size: 0x8, addend: 0x0, symName: __ZN7testing8internal15TestMetaFactoryI38WithHandshakeArgs7_CibirExtension_TestED1Ev, symObjAddr: 0x2D420, symBinAddr: 0x10002F0A0, symSize: 0x10 }
  - { offsetInCU: 0x2D4115, offset: 0x2D4115, size: 0x8, addend: 0x0, symName: __ZN7testing8internal15TestMetaFactoryI38WithHandshakeArgs7_CibirExtension_TestED0Ev, symObjAddr: 0x2D430, symBinAddr: 0x10002F0B0, symSize: 0x10 }
  - { offsetInCU: 0x2D41AD, offset: 0x2D41AD, size: 0x8, addend: 0x0, symName: __ZN7testing8internal15TestMetaFactoryI38WithHandshakeArgs7_CibirExtension_TestE17CreateTestFactoryE14HandshakeArgs7, symObjAddr: 0x2D440, symBinAddr: 0x10002F0C0, symSize: 0x30 }
  - { offsetInCU: 0x2D422C, offset: 0x2D422C, size: 0x8, addend: 0x0, symName: __ZN7testing8internal24ParameterizedTestFactoryI38WithHandshakeArgs7_CibirExtension_TestED1Ev, symObjAddr: 0x2D470, symBinAddr: 0x10002F0F0, symSize: 0x10 }
  - { offsetInCU: 0x2D4258, offset: 0x2D4258, size: 0x8, addend: 0x0, symName: __ZN7testing8internal24ParameterizedTestFactoryI38WithHandshakeArgs7_CibirExtension_TestED0Ev, symObjAddr: 0x2D480, symBinAddr: 0x10002F100, symSize: 0x10 }
  - { offsetInCU: 0x2D42E9, offset: 0x2D42E9, size: 0x8, addend: 0x0, symName: __ZN7testing8internal24ParameterizedTestFactoryI38WithHandshakeArgs7_CibirExtension_TestE10CreateTestEv, symObjAddr: 0x2D490, symBinAddr: 0x10002F110, symSize: 0x60 }
  - { offsetInCU: 0x2D4384, offset: 0x2D4384, size: 0x8, addend: 0x0, symName: __ZN18WithHandshakeArgs7D1Ev, symObjAddr: 0x2D4F0, symBinAddr: 0x100407210, symSize: 0x10 }
  - { offsetInCU: 0x2D43A4, offset: 0x2D43A4, size: 0x8, addend: 0x0, symName: __ZN18WithHandshakeArgs7D0Ev, symObjAddr: 0x2D500, symBinAddr: 0x100407220, symSize: 0x10 }
  - { offsetInCU: 0x2D43E1, offset: 0x2D43E1, size: 0x8, addend: 0x0, symName: __ZThn16_N18WithHandshakeArgs7D1Ev, symObjAddr: 0x2D510, symBinAddr: 0x100407230, symSize: 0x10 }
  - { offsetInCU: 0x2D4434, offset: 0x2D4434, size: 0x8, addend: 0x0, symName: __ZThn16_N18WithHandshakeArgs7D0Ev, symObjAddr: 0x2D520, symBinAddr: 0x100407240, symSize: 0x10 }
  - { offsetInCU: 0x2D446A, offset: 0x2D446A, size: 0x8, addend: 0x0, symName: __ZN7testing18WithParamInterfaceI14HandshakeArgs7ED1Ev, symObjAddr: 0x2D530, symBinAddr: 0x10002F170, symSize: 0x10 }
  - { offsetInCU: 0x2D4493, offset: 0x2D4493, size: 0x8, addend: 0x0, symName: __ZN7testing18WithParamInterfaceI14HandshakeArgs7ED0Ev, symObjAddr: 0x2D540, symBinAddr: 0x10002F180, symSize: 0x10 }
  - { offsetInCU: 0x2D47A3, offset: 0x2D47A3, size: 0x8, addend: 0x0, symName: __ZNSt3__110shared_ptrIN7testing8internal26ParameterizedTestSuiteInfoI18WithHandshakeArgs8E8TestInfoEEC1B8ue170006IS6_vEEPT_, symObjAddr: 0x2D920, symBinAddr: 0x10002F560, symSize: 0x60 }
  - { offsetInCU: 0x2D497C, offset: 0x2D497C, size: 0x8, addend: 0x0, symName: __ZNSt3__16vectorINS_10shared_ptrIN7testing8internal26ParameterizedTestSuiteInfoI18WithHandshakeArgs8E8TestInfoEEENS_9allocatorIS8_EEE24__emplace_back_slow_pathIJPS7_EEEvDpOT_, symObjAddr: 0x2D750, symBinAddr: 0x10002F390, symSize: 0x1D0 }
  - { offsetInCU: 0x2D54F7, offset: 0x2D54F7, size: 0x8, addend: 0x0, symName: __ZNKSt3__16vectorINS_10shared_ptrIN7testing8internal26ParameterizedTestSuiteInfoI18WithHandshakeArgs8E8TestInfoEEENS_9allocatorIS8_EEE20__throw_length_errorB8ue170006Ev, symObjAddr: 0x2DAC0, symBinAddr: 0x10002F700, symSize: 0x10 }
  - { offsetInCU: 0x2D5520, offset: 0x2D5520, size: 0x8, addend: 0x0, symName: __ZN7testing8internal15TestMetaFactoryI35WithHandshakeArgs8_OddSizeVnTp_TestED1Ev, symObjAddr: 0x2DAD0, symBinAddr: 0x10002F710, symSize: 0x10 }
  - { offsetInCU: 0x2D552B, offset: 0x2D552B, size: 0x8, addend: 0x0, symName: __ZNSt3__114__split_bufferINS_10shared_ptrIN7testing8internal26ParameterizedTestSuiteInfoI18WithHandshakeArgs8E8TestInfoEEERNS_9allocatorIS8_EEED1Ev, symObjAddr: 0x2DA40, symBinAddr: 0x10002F680, symSize: 0x80 }
  - { offsetInCU: 0x2D5A9F, offset: 0x2D5A9F, size: 0x8, addend: 0x0, symName: __ZNSt3__110shared_ptrIN7testing8internal26ParameterizedTestSuiteInfoI18WithHandshakeArgs8E8TestInfoEEC1B8ue170006IS6_vEEPT_.cold.1, symObjAddr: 0x81E50, symBinAddr: 0x100407C80, symSize: 0x50 }
  - { offsetInCU: 0x2D5E03, offset: 0x2D5E03, size: 0x8, addend: 0x0, symName: __ZNSt3__120__shared_ptr_pointerIPN7testing8internal26ParameterizedTestSuiteInfoI18WithHandshakeArgs8E8TestInfoENS_10shared_ptrIS6_E27__shared_ptr_default_deleteIS6_S6_EENS_9allocatorIS6_EEED1Ev, symObjAddr: 0x2D980, symBinAddr: 0x10002F5C0, symSize: 0x10 }
  - { offsetInCU: 0x2D5E5B, offset: 0x2D5E5B, size: 0x8, addend: 0x0, symName: __ZNSt3__120__shared_ptr_pointerIPN7testing8internal26ParameterizedTestSuiteInfoI18WithHandshakeArgs8E8TestInfoENS_10shared_ptrIS6_E27__shared_ptr_default_deleteIS6_S6_EENS_9allocatorIS6_EEED0Ev, symObjAddr: 0x2D990, symBinAddr: 0x10002F5D0, symSize: 0x20 }
  - { offsetInCU: 0x2D5F83, offset: 0x2D5F83, size: 0x8, addend: 0x0, symName: __ZNSt3__120__shared_ptr_pointerIPN7testing8internal26ParameterizedTestSuiteInfoI18WithHandshakeArgs8E8TestInfoENS_10shared_ptrIS6_E27__shared_ptr_default_deleteIS6_S6_EENS_9allocatorIS6_EEE16__on_zero_sharedEv, symObjAddr: 0x2D9B0, symBinAddr: 0x10002F5F0, symSize: 0x60 }
  - { offsetInCU: 0x2D630F, offset: 0x2D630F, size: 0x8, addend: 0x0, symName: __ZNKSt3__120__shared_ptr_pointerIPN7testing8internal26ParameterizedTestSuiteInfoI18WithHandshakeArgs8E8TestInfoENS_10shared_ptrIS6_E27__shared_ptr_default_deleteIS6_S6_EENS_9allocatorIS6_EEE13__get_deleterERKSt9type_info, symObjAddr: 0x2DA10, symBinAddr: 0x10002F650, symSize: 0x20 }
  - { offsetInCU: 0x2D63D2, offset: 0x2D63D2, size: 0x8, addend: 0x0, symName: __ZNSt3__120__shared_ptr_pointerIPN7testing8internal26ParameterizedTestSuiteInfoI18WithHandshakeArgs8E8TestInfoENS_10shared_ptrIS6_E27__shared_ptr_default_deleteIS6_S6_EENS_9allocatorIS6_EEE21__on_zero_shared_weakEv, symObjAddr: 0x2DA30, symBinAddr: 0x10002F670, symSize: 0x10 }
  - { offsetInCU: 0x2D64A5, offset: 0x2D64A5, size: 0x8, addend: 0x0, symName: __ZN7testing8internal15TestMetaFactoryI35WithHandshakeArgs8_OddSizeVnTp_TestED1Ev, symObjAddr: 0x2DAD0, symBinAddr: 0x10002F710, symSize: 0x10 }
  - { offsetInCU: 0x2D64D1, offset: 0x2D64D1, size: 0x8, addend: 0x0, symName: __ZN7testing8internal15TestMetaFactoryI35WithHandshakeArgs8_OddSizeVnTp_TestED0Ev, symObjAddr: 0x2DAE0, symBinAddr: 0x10002F720, symSize: 0x10 }
  - { offsetInCU: 0x2D6569, offset: 0x2D6569, size: 0x8, addend: 0x0, symName: __ZN7testing8internal15TestMetaFactoryI35WithHandshakeArgs8_OddSizeVnTp_TestE17CreateTestFactoryE14HandshakeArgs8, symObjAddr: 0x2DAF0, symBinAddr: 0x10002F730, symSize: 0x30 }
  - { offsetInCU: 0x2D65E8, offset: 0x2D65E8, size: 0x8, addend: 0x0, symName: __ZN7testing8internal24ParameterizedTestFactoryI35WithHandshakeArgs8_OddSizeVnTp_TestED1Ev, symObjAddr: 0x2DB20, symBinAddr: 0x10002F760, symSize: 0x10 }
  - { offsetInCU: 0x2D6614, offset: 0x2D6614, size: 0x8, addend: 0x0, symName: __ZN7testing8internal24ParameterizedTestFactoryI35WithHandshakeArgs8_OddSizeVnTp_TestED0Ev, symObjAddr: 0x2DB30, symBinAddr: 0x10002F770, symSize: 0x10 }
  - { offsetInCU: 0x2D66A5, offset: 0x2D66A5, size: 0x8, addend: 0x0, symName: __ZN7testing8internal24ParameterizedTestFactoryI35WithHandshakeArgs8_OddSizeVnTp_TestE10CreateTestEv, symObjAddr: 0x2DB40, symBinAddr: 0x10002F780, symSize: 0x60 }
  - { offsetInCU: 0x2D6740, offset: 0x2D6740, size: 0x8, addend: 0x0, symName: __ZN18WithHandshakeArgs8D1Ev, symObjAddr: 0x2DBA0, symBinAddr: 0x100407250, symSize: 0x10 }
  - { offsetInCU: 0x2D6760, offset: 0x2D6760, size: 0x8, addend: 0x0, symName: __ZN18WithHandshakeArgs8D0Ev, symObjAddr: 0x2DBB0, symBinAddr: 0x100407260, symSize: 0x10 }
  - { offsetInCU: 0x2D679D, offset: 0x2D679D, size: 0x8, addend: 0x0, symName: __ZThn16_N18WithHandshakeArgs8D1Ev, symObjAddr: 0x2DBC0, symBinAddr: 0x100407270, symSize: 0x10 }
  - { offsetInCU: 0x2D67F0, offset: 0x2D67F0, size: 0x8, addend: 0x0, symName: __ZThn16_N18WithHandshakeArgs8D0Ev, symObjAddr: 0x2DBD0, symBinAddr: 0x100407280, symSize: 0x10 }
  - { offsetInCU: 0x2D6826, offset: 0x2D6826, size: 0x8, addend: 0x0, symName: __ZN7testing18WithParamInterfaceI14HandshakeArgs8ED1Ev, symObjAddr: 0x2DBE0, symBinAddr: 0x10002F7E0, symSize: 0x10 }
  - { offsetInCU: 0x2D684F, offset: 0x2D684F, size: 0x8, addend: 0x0, symName: __ZN7testing18WithParamInterfaceI14HandshakeArgs8ED0Ev, symObjAddr: 0x2DBF0, symBinAddr: 0x10002F7F0, symSize: 0x10 }
  - { offsetInCU: 0x2D6A47, offset: 0x2D6A47, size: 0x8, addend: 0x0, symName: __ZNSt3__110shared_ptrIN7testing8internal26ParameterizedTestSuiteInfoI18WithHandshakeArgs9E8TestInfoEEC1B8ue170006IS6_vEEPT_, symObjAddr: 0x2DFD0, symBinAddr: 0x10002FBD0, symSize: 0x60 }
  - { offsetInCU: 0x2D6C20, offset: 0x2D6C20, size: 0x8, addend: 0x0, symName: __ZNSt3__16vectorINS_10shared_ptrIN7testing8internal26ParameterizedTestSuiteInfoI18WithHandshakeArgs9E8TestInfoEEENS_9allocatorIS8_EEE24__emplace_back_slow_pathIJPS7_EEEvDpOT_, symObjAddr: 0x2DE00, symBinAddr: 0x10002FA00, symSize: 0x1D0 }
  - { offsetInCU: 0x2D779B, offset: 0x2D779B, size: 0x8, addend: 0x0, symName: __ZNKSt3__16vectorINS_10shared_ptrIN7testing8internal26ParameterizedTestSuiteInfoI18WithHandshakeArgs9E8TestInfoEEENS_9allocatorIS8_EEE20__throw_length_errorB8ue170006Ev, symObjAddr: 0x2E170, symBinAddr: 0x10002FD70, symSize: 0x10 }
  - { offsetInCU: 0x2D77C4, offset: 0x2D77C4, size: 0x8, addend: 0x0, symName: __ZN7testing8internal15TestMetaFactoryI49WithHandshakeArgs9_VnTpChosenVersionMismatch_TestED1Ev, symObjAddr: 0x2E180, symBinAddr: 0x10002FD80, symSize: 0x10 }
  - { offsetInCU: 0x2D77CF, offset: 0x2D77CF, size: 0x8, addend: 0x0, symName: __ZNSt3__114__split_bufferINS_10shared_ptrIN7testing8internal26ParameterizedTestSuiteInfoI18WithHandshakeArgs9E8TestInfoEEERNS_9allocatorIS8_EEED1Ev, symObjAddr: 0x2E0F0, symBinAddr: 0x10002FCF0, symSize: 0x80 }
  - { offsetInCU: 0x2D7D43, offset: 0x2D7D43, size: 0x8, addend: 0x0, symName: __ZNSt3__110shared_ptrIN7testing8internal26ParameterizedTestSuiteInfoI18WithHandshakeArgs9E8TestInfoEEC1B8ue170006IS6_vEEPT_.cold.1, symObjAddr: 0x81EA0, symBinAddr: 0x100407CD0, symSize: 0x50 }
  - { offsetInCU: 0x2D80A7, offset: 0x2D80A7, size: 0x8, addend: 0x0, symName: __ZNSt3__120__shared_ptr_pointerIPN7testing8internal26ParameterizedTestSuiteInfoI18WithHandshakeArgs9E8TestInfoENS_10shared_ptrIS6_E27__shared_ptr_default_deleteIS6_S6_EENS_9allocatorIS6_EEED1Ev, symObjAddr: 0x2E030, symBinAddr: 0x10002FC30, symSize: 0x10 }
  - { offsetInCU: 0x2D80FF, offset: 0x2D80FF, size: 0x8, addend: 0x0, symName: __ZNSt3__120__shared_ptr_pointerIPN7testing8internal26ParameterizedTestSuiteInfoI18WithHandshakeArgs9E8TestInfoENS_10shared_ptrIS6_E27__shared_ptr_default_deleteIS6_S6_EENS_9allocatorIS6_EEED0Ev, symObjAddr: 0x2E040, symBinAddr: 0x10002FC40, symSize: 0x20 }
  - { offsetInCU: 0x2D819E, offset: 0x2D819E, size: 0x8, addend: 0x0, symName: __ZNSt3__120__shared_ptr_pointerIPN7testing8internal26ParameterizedTestSuiteInfoI18WithHandshakeArgs9E8TestInfoENS_10shared_ptrIS6_E27__shared_ptr_default_deleteIS6_S6_EENS_9allocatorIS6_EEE16__on_zero_sharedEv, symObjAddr: 0x2E060, symBinAddr: 0x10002FC60, symSize: 0x60 }
  - { offsetInCU: 0x2D852A, offset: 0x2D852A, size: 0x8, addend: 0x0, symName: __ZNKSt3__120__shared_ptr_pointerIPN7testing8internal26ParameterizedTestSuiteInfoI18WithHandshakeArgs9E8TestInfoENS_10shared_ptrIS6_E27__shared_ptr_default_deleteIS6_S6_EENS_9allocatorIS6_EEE13__get_deleterERKSt9type_info, symObjAddr: 0x2E0C0, symBinAddr: 0x10002FCC0, symSize: 0x20 }
  - { offsetInCU: 0x2D85ED, offset: 0x2D85ED, size: 0x8, addend: 0x0, symName: __ZNSt3__120__shared_ptr_pointerIPN7testing8internal26ParameterizedTestSuiteInfoI18WithHandshakeArgs9E8TestInfoENS_10shared_ptrIS6_E27__shared_ptr_default_deleteIS6_S6_EENS_9allocatorIS6_EEE21__on_zero_shared_weakEv, symObjAddr: 0x2E0E0, symBinAddr: 0x10002FCE0, symSize: 0x10 }
  - { offsetInCU: 0x2D86C0, offset: 0x2D86C0, size: 0x8, addend: 0x0, symName: __ZN7testing8internal15TestMetaFactoryI49WithHandshakeArgs9_VnTpChosenVersionMismatch_TestED1Ev, symObjAddr: 0x2E180, symBinAddr: 0x10002FD80, symSize: 0x10 }
  - { offsetInCU: 0x2D86EC, offset: 0x2D86EC, size: 0x8, addend: 0x0, symName: __ZN7testing8internal15TestMetaFactoryI49WithHandshakeArgs9_VnTpChosenVersionMismatch_TestED0Ev, symObjAddr: 0x2E190, symBinAddr: 0x10002FD90, symSize: 0x10 }
  - { offsetInCU: 0x2D8784, offset: 0x2D8784, size: 0x8, addend: 0x0, symName: __ZN7testing8internal15TestMetaFactoryI49WithHandshakeArgs9_VnTpChosenVersionMismatch_TestE17CreateTestFactoryEb, symObjAddr: 0x2E1A0, symBinAddr: 0x10002FDA0, symSize: 0x30 }
  - { offsetInCU: 0x2D87FC, offset: 0x2D87FC, size: 0x8, addend: 0x0, symName: __ZN7testing8internal24ParameterizedTestFactoryI49WithHandshakeArgs9_VnTpChosenVersionMismatch_TestED1Ev, symObjAddr: 0x2E1D0, symBinAddr: 0x10002FDD0, symSize: 0x10 }
  - { offsetInCU: 0x2D8828, offset: 0x2D8828, size: 0x8, addend: 0x0, symName: __ZN7testing8internal24ParameterizedTestFactoryI49WithHandshakeArgs9_VnTpChosenVersionMismatch_TestED0Ev, symObjAddr: 0x2E1E0, symBinAddr: 0x10002FDE0, symSize: 0x10 }
  - { offsetInCU: 0x2D88A5, offset: 0x2D88A5, size: 0x8, addend: 0x0, symName: __ZN7testing8internal24ParameterizedTestFactoryI49WithHandshakeArgs9_VnTpChosenVersionMismatch_TestE10CreateTestEv, symObjAddr: 0x2E1F0, symBinAddr: 0x10002FDF0, symSize: 0x60 }
  - { offsetInCU: 0x2D8940, offset: 0x2D8940, size: 0x8, addend: 0x0, symName: __ZN18WithHandshakeArgs9D1Ev, symObjAddr: 0x2E250, symBinAddr: 0x100407290, symSize: 0x10 }
  - { offsetInCU: 0x2D8960, offset: 0x2D8960, size: 0x8, addend: 0x0, symName: __ZN18WithHandshakeArgs9D0Ev, symObjAddr: 0x2E260, symBinAddr: 0x1004072A0, symSize: 0x10 }
  - { offsetInCU: 0x2D899D, offset: 0x2D899D, size: 0x8, addend: 0x0, symName: __ZThn16_N18WithHandshakeArgs9D1Ev, symObjAddr: 0x2E270, symBinAddr: 0x1004072B0, symSize: 0x10 }
  - { offsetInCU: 0x2D89F0, offset: 0x2D89F0, size: 0x8, addend: 0x0, symName: __ZThn16_N18WithHandshakeArgs9D0Ev, symObjAddr: 0x2E280, symBinAddr: 0x1004072C0, symSize: 0x10 }
  - { offsetInCU: 0x2D8A26, offset: 0x2D8A26, size: 0x8, addend: 0x0, symName: __ZN7testing8internal15TestMetaFactoryI45WithHandshakeArgs9_VnTpChosenVersionZero_TestED1Ev, symObjAddr: 0x2E290, symBinAddr: 0x10002FE50, symSize: 0x10 }
  - { offsetInCU: 0x2D8A52, offset: 0x2D8A52, size: 0x8, addend: 0x0, symName: __ZN7testing8internal15TestMetaFactoryI45WithHandshakeArgs9_VnTpChosenVersionZero_TestED0Ev, symObjAddr: 0x2E2A0, symBinAddr: 0x10002FE60, symSize: 0x10 }
  - { offsetInCU: 0x2D8AEA, offset: 0x2D8AEA, size: 0x8, addend: 0x0, symName: __ZN7testing8internal15TestMetaFactoryI45WithHandshakeArgs9_VnTpChosenVersionZero_TestE17CreateTestFactoryEb, symObjAddr: 0x2E2B0, symBinAddr: 0x10002FE70, symSize: 0x30 }
  - { offsetInCU: 0x2D8B62, offset: 0x2D8B62, size: 0x8, addend: 0x0, symName: __ZN7testing8internal24ParameterizedTestFactoryI45WithHandshakeArgs9_VnTpChosenVersionZero_TestED1Ev, symObjAddr: 0x2E2E0, symBinAddr: 0x10002FEA0, symSize: 0x10 }
  - { offsetInCU: 0x2D8B8E, offset: 0x2D8B8E, size: 0x8, addend: 0x0, symName: __ZN7testing8internal24ParameterizedTestFactoryI45WithHandshakeArgs9_VnTpChosenVersionZero_TestED0Ev, symObjAddr: 0x2E2F0, symBinAddr: 0x10002FEB0, symSize: 0x10 }
  - { offsetInCU: 0x2D8BEE, offset: 0x2D8BEE, size: 0x8, addend: 0x0, symName: __ZN7testing8internal24ParameterizedTestFactoryI45WithHandshakeArgs9_VnTpChosenVersionZero_TestE10CreateTestEv, symObjAddr: 0x2E300, symBinAddr: 0x10002FEC0, symSize: 0x60 }
  - { offsetInCU: 0x2D8C89, offset: 0x2D8C89, size: 0x8, addend: 0x0, symName: __ZN7testing8internal15TestMetaFactoryI44WithHandshakeArgs9_VnTpOtherVersionZero_TestED1Ev, symObjAddr: 0x2E360, symBinAddr: 0x10002FF20, symSize: 0x10 }
  - { offsetInCU: 0x2D8CB5, offset: 0x2D8CB5, size: 0x8, addend: 0x0, symName: __ZN7testing8internal15TestMetaFactoryI44WithHandshakeArgs9_VnTpOtherVersionZero_TestED0Ev, symObjAddr: 0x2E370, symBinAddr: 0x10002FF30, symSize: 0x10 }
  - { offsetInCU: 0x2D8D4D, offset: 0x2D8D4D, size: 0x8, addend: 0x0, symName: __ZN7testing8internal15TestMetaFactoryI44WithHandshakeArgs9_VnTpOtherVersionZero_TestE17CreateTestFactoryEb, symObjAddr: 0x2E380, symBinAddr: 0x10002FF40, symSize: 0x30 }
  - { offsetInCU: 0x2D8DC5, offset: 0x2D8DC5, size: 0x8, addend: 0x0, symName: __ZN7testing8internal24ParameterizedTestFactoryI44WithHandshakeArgs9_VnTpOtherVersionZero_TestED1Ev, symObjAddr: 0x2E3B0, symBinAddr: 0x10002FF70, symSize: 0x10 }
  - { offsetInCU: 0x2D8DF1, offset: 0x2D8DF1, size: 0x8, addend: 0x0, symName: __ZN7testing8internal24ParameterizedTestFactoryI44WithHandshakeArgs9_VnTpOtherVersionZero_TestED0Ev, symObjAddr: 0x2E3C0, symBinAddr: 0x10002FF80, symSize: 0x10 }
  - { offsetInCU: 0x2D8E51, offset: 0x2D8E51, size: 0x8, addend: 0x0, symName: __ZN7testing8internal24ParameterizedTestFactoryI44WithHandshakeArgs9_VnTpOtherVersionZero_TestE10CreateTestEv, symObjAddr: 0x2E3D0, symBinAddr: 0x10002FF90, symSize: 0x60 }
  - { offsetInCU: 0x2D91D3, offset: 0x2D91D3, size: 0x8, addend: 0x0, symName: __ZNSt3__110shared_ptrIN7testing8internal26ParameterizedTestSuiteInfoI18WithHandshakeArgs4E8TestInfoEEC1B8ue170006IS6_vEEPT_, symObjAddr: 0x2E800, symBinAddr: 0x1000303C0, symSize: 0x60 }
  - { offsetInCU: 0x2D93AC, offset: 0x2D93AC, size: 0x8, addend: 0x0, symName: __ZNSt3__16vectorINS_10shared_ptrIN7testing8internal26ParameterizedTestSuiteInfoI18WithHandshakeArgs4E8TestInfoEEENS_9allocatorIS8_EEE24__emplace_back_slow_pathIJPS7_EEEvDpOT_, symObjAddr: 0x2E630, symBinAddr: 0x1000301F0, symSize: 0x1D0 }
  - { offsetInCU: 0x2D9F27, offset: 0x2D9F27, size: 0x8, addend: 0x0, symName: __ZNKSt3__16vectorINS_10shared_ptrIN7testing8internal26ParameterizedTestSuiteInfoI18WithHandshakeArgs4E8TestInfoEEENS_9allocatorIS8_EEE20__throw_length_errorB8ue170006Ev, symObjAddr: 0x2E9A0, symBinAddr: 0x100030560, symSize: 0x10 }
  - { offsetInCU: 0x2D9F50, offset: 0x2D9F50, size: 0x8, addend: 0x0, symName: __ZN7testing8internal15TestMetaFactoryI34WithHandshakeArgs4_RandomLoss_TestED1Ev, symObjAddr: 0x2E9B0, symBinAddr: 0x100030570, symSize: 0x10 }
  - { offsetInCU: 0x2D9F5B, offset: 0x2D9F5B, size: 0x8, addend: 0x0, symName: __ZNSt3__114__split_bufferINS_10shared_ptrIN7testing8internal26ParameterizedTestSuiteInfoI18WithHandshakeArgs4E8TestInfoEEERNS_9allocatorIS8_EEED1Ev, symObjAddr: 0x2E920, symBinAddr: 0x1000304E0, symSize: 0x80 }
  - { offsetInCU: 0x2DA4CF, offset: 0x2DA4CF, size: 0x8, addend: 0x0, symName: __ZNSt3__110shared_ptrIN7testing8internal26ParameterizedTestSuiteInfoI18WithHandshakeArgs4E8TestInfoEEC1B8ue170006IS6_vEEPT_.cold.1, symObjAddr: 0x81EF0, symBinAddr: 0x100407D20, symSize: 0x50 }
  - { offsetInCU: 0x2DA833, offset: 0x2DA833, size: 0x8, addend: 0x0, symName: __ZNSt3__120__shared_ptr_pointerIPN7testing8internal26ParameterizedTestSuiteInfoI18WithHandshakeArgs4E8TestInfoENS_10shared_ptrIS6_E27__shared_ptr_default_deleteIS6_S6_EENS_9allocatorIS6_EEED1Ev, symObjAddr: 0x2E860, symBinAddr: 0x100030420, symSize: 0x10 }
  - { offsetInCU: 0x2DA88B, offset: 0x2DA88B, size: 0x8, addend: 0x0, symName: __ZNSt3__120__shared_ptr_pointerIPN7testing8internal26ParameterizedTestSuiteInfoI18WithHandshakeArgs4E8TestInfoENS_10shared_ptrIS6_E27__shared_ptr_default_deleteIS6_S6_EENS_9allocatorIS6_EEED0Ev, symObjAddr: 0x2E870, symBinAddr: 0x100030430, symSize: 0x20 }
  - { offsetInCU: 0x2DA9B3, offset: 0x2DA9B3, size: 0x8, addend: 0x0, symName: __ZNSt3__120__shared_ptr_pointerIPN7testing8internal26ParameterizedTestSuiteInfoI18WithHandshakeArgs4E8TestInfoENS_10shared_ptrIS6_E27__shared_ptr_default_deleteIS6_S6_EENS_9allocatorIS6_EEE16__on_zero_sharedEv, symObjAddr: 0x2E890, symBinAddr: 0x100030450, symSize: 0x60 }
  - { offsetInCU: 0x2DAD3F, offset: 0x2DAD3F, size: 0x8, addend: 0x0, symName: __ZNKSt3__120__shared_ptr_pointerIPN7testing8internal26ParameterizedTestSuiteInfoI18WithHandshakeArgs4E8TestInfoENS_10shared_ptrIS6_E27__shared_ptr_default_deleteIS6_S6_EENS_9allocatorIS6_EEE13__get_deleterERKSt9type_info, symObjAddr: 0x2E8F0, symBinAddr: 0x1000304B0, symSize: 0x20 }
  - { offsetInCU: 0x2DAE02, offset: 0x2DAE02, size: 0x8, addend: 0x0, symName: __ZNSt3__120__shared_ptr_pointerIPN7testing8internal26ParameterizedTestSuiteInfoI18WithHandshakeArgs4E8TestInfoENS_10shared_ptrIS6_E27__shared_ptr_default_deleteIS6_S6_EENS_9allocatorIS6_EEE21__on_zero_shared_weakEv, symObjAddr: 0x2E910, symBinAddr: 0x1000304D0, symSize: 0x10 }
  - { offsetInCU: 0x2DAED5, offset: 0x2DAED5, size: 0x8, addend: 0x0, symName: __ZN7testing8internal15TestMetaFactoryI34WithHandshakeArgs4_RandomLoss_TestED1Ev, symObjAddr: 0x2E9B0, symBinAddr: 0x100030570, symSize: 0x10 }
  - { offsetInCU: 0x2DAF01, offset: 0x2DAF01, size: 0x8, addend: 0x0, symName: __ZN7testing8internal15TestMetaFactoryI34WithHandshakeArgs4_RandomLoss_TestED0Ev, symObjAddr: 0x2E9C0, symBinAddr: 0x100030580, symSize: 0x10 }
  - { offsetInCU: 0x2DAF99, offset: 0x2DAF99, size: 0x8, addend: 0x0, symName: __ZN7testing8internal15TestMetaFactoryI34WithHandshakeArgs4_RandomLoss_TestE17CreateTestFactoryE14HandshakeArgs4, symObjAddr: 0x2E9D0, symBinAddr: 0x100030590, symSize: 0x30 }
  - { offsetInCU: 0x2DB018, offset: 0x2DB018, size: 0x8, addend: 0x0, symName: __ZN7testing8internal24ParameterizedTestFactoryI34WithHandshakeArgs4_RandomLoss_TestED1Ev, symObjAddr: 0x2EA00, symBinAddr: 0x1000305C0, symSize: 0x10 }
  - { offsetInCU: 0x2DB044, offset: 0x2DB044, size: 0x8, addend: 0x0, symName: __ZN7testing8internal24ParameterizedTestFactoryI34WithHandshakeArgs4_RandomLoss_TestED0Ev, symObjAddr: 0x2EA10, symBinAddr: 0x1000305D0, symSize: 0x10 }
  - { offsetInCU: 0x2DB0D4, offset: 0x2DB0D4, size: 0x8, addend: 0x0, symName: __ZN7testing8internal24ParameterizedTestFactoryI34WithHandshakeArgs4_RandomLoss_TestE10CreateTestEv, symObjAddr: 0x2EA20, symBinAddr: 0x1000305E0, symSize: 0x60 }
  - { offsetInCU: 0x2DB16F, offset: 0x2DB16F, size: 0x8, addend: 0x0, symName: __ZN18WithHandshakeArgs4D1Ev, symObjAddr: 0x2EA80, symBinAddr: 0x1004072D0, symSize: 0x10 }
  - { offsetInCU: 0x2DB18F, offset: 0x2DB18F, size: 0x8, addend: 0x0, symName: __ZN18WithHandshakeArgs4D0Ev, symObjAddr: 0x2EA90, symBinAddr: 0x1004072E0, symSize: 0x10 }
  - { offsetInCU: 0x2DB1CB, offset: 0x2DB1CB, size: 0x8, addend: 0x0, symName: __ZThn16_N18WithHandshakeArgs4D1Ev, symObjAddr: 0x2EAA0, symBinAddr: 0x1004072F0, symSize: 0x10 }
  - { offsetInCU: 0x2DB21C, offset: 0x2DB21C, size: 0x8, addend: 0x0, symName: __ZThn16_N18WithHandshakeArgs4D0Ev, symObjAddr: 0x2EAB0, symBinAddr: 0x100407300, symSize: 0x10 }
  - { offsetInCU: 0x2DB251, offset: 0x2DB251, size: 0x8, addend: 0x0, symName: __ZN7testing18WithParamInterfaceI14HandshakeArgs4ED1Ev, symObjAddr: 0x2EAC0, symBinAddr: 0x100030640, symSize: 0x10 }
  - { offsetInCU: 0x2DB27A, offset: 0x2DB27A, size: 0x8, addend: 0x0, symName: __ZN7testing18WithParamInterfaceI14HandshakeArgs4ED0Ev, symObjAddr: 0x2EAD0, symBinAddr: 0x100030650, symSize: 0x10 }
  - { offsetInCU: 0x2DB2A3, offset: 0x2DB2A3, size: 0x8, addend: 0x0, symName: __ZN7testing8internal15TestMetaFactoryI40WithHandshakeArgs4_RandomLossResume_TestED1Ev, symObjAddr: 0x2EAE0, symBinAddr: 0x100030660, symSize: 0x10 }
  - { offsetInCU: 0x2DB2CF, offset: 0x2DB2CF, size: 0x8, addend: 0x0, symName: __ZN7testing8internal15TestMetaFactoryI40WithHandshakeArgs4_RandomLossResume_TestED0Ev, symObjAddr: 0x2EAF0, symBinAddr: 0x100030670, symSize: 0x10 }
  - { offsetInCU: 0x2DB367, offset: 0x2DB367, size: 0x8, addend: 0x0, symName: __ZN7testing8internal15TestMetaFactoryI40WithHandshakeArgs4_RandomLossResume_TestE17CreateTestFactoryE14HandshakeArgs4, symObjAddr: 0x2EB00, symBinAddr: 0x100030680, symSize: 0x30 }
  - { offsetInCU: 0x2DB3E6, offset: 0x2DB3E6, size: 0x8, addend: 0x0, symName: __ZN7testing8internal24ParameterizedTestFactoryI40WithHandshakeArgs4_RandomLossResume_TestED1Ev, symObjAddr: 0x2EB30, symBinAddr: 0x1000306B0, symSize: 0x10 }
  - { offsetInCU: 0x2DB412, offset: 0x2DB412, size: 0x8, addend: 0x0, symName: __ZN7testing8internal24ParameterizedTestFactoryI40WithHandshakeArgs4_RandomLossResume_TestED0Ev, symObjAddr: 0x2EB40, symBinAddr: 0x1000306C0, symSize: 0x10 }
  - { offsetInCU: 0x2DB472, offset: 0x2DB472, size: 0x8, addend: 0x0, symName: __ZN7testing8internal24ParameterizedTestFactoryI40WithHandshakeArgs4_RandomLossResume_TestE10CreateTestEv, symObjAddr: 0x2EB50, symBinAddr: 0x1000306D0, symSize: 0x60 }
  - { offsetInCU: 0x2DB50D, offset: 0x2DB50D, size: 0x8, addend: 0x0, symName: __ZN7testing8internal15TestMetaFactoryI49WithHandshakeArgs4_RandomLossResumeRejection_TestED1Ev, symObjAddr: 0x2EBB0, symBinAddr: 0x100030730, symSize: 0x10 }
  - { offsetInCU: 0x2DB539, offset: 0x2DB539, size: 0x8, addend: 0x0, symName: __ZN7testing8internal15TestMetaFactoryI49WithHandshakeArgs4_RandomLossResumeRejection_TestED0Ev, symObjAddr: 0x2EBC0, symBinAddr: 0x100030740, symSize: 0x10 }
  - { offsetInCU: 0x2DB5D1, offset: 0x2DB5D1, size: 0x8, addend: 0x0, symName: __ZN7testing8internal15TestMetaFactoryI49WithHandshakeArgs4_RandomLossResumeRejection_TestE17CreateTestFactoryE14HandshakeArgs4, symObjAddr: 0x2EBD0, symBinAddr: 0x100030750, symSize: 0x30 }
  - { offsetInCU: 0x2DB650, offset: 0x2DB650, size: 0x8, addend: 0x0, symName: __ZN7testing8internal24ParameterizedTestFactoryI49WithHandshakeArgs4_RandomLossResumeRejection_TestED1Ev, symObjAddr: 0x2EC00, symBinAddr: 0x100030780, symSize: 0x10 }
  - { offsetInCU: 0x2DB67C, offset: 0x2DB67C, size: 0x8, addend: 0x0, symName: __ZN7testing8internal24ParameterizedTestFactoryI49WithHandshakeArgs4_RandomLossResumeRejection_TestED0Ev, symObjAddr: 0x2EC10, symBinAddr: 0x100030790, symSize: 0x10 }
  - { offsetInCU: 0x2DB6DC, offset: 0x2DB6DC, size: 0x8, addend: 0x0, symName: __ZN7testing8internal24ParameterizedTestFactoryI49WithHandshakeArgs4_RandomLossResumeRejection_TestE10CreateTestEv, symObjAddr: 0x2EC20, symBinAddr: 0x1000307A0, symSize: 0x60 }
  - { offsetInCU: 0x2DB777, offset: 0x2DB777, size: 0x8, addend: 0x0, symName: __ZN7testing8internal15TestMetaFactoryI31WithFamilyArgs_Unreachable_TestED1Ev, symObjAddr: 0x2EC80, symBinAddr: 0x100030800, symSize: 0x10 }
  - { offsetInCU: 0x2DB7A3, offset: 0x2DB7A3, size: 0x8, addend: 0x0, symName: __ZN7testing8internal15TestMetaFactoryI31WithFamilyArgs_Unreachable_TestED0Ev, symObjAddr: 0x2EC90, symBinAddr: 0x100030810, symSize: 0x10 }
  - { offsetInCU: 0x2DB83B, offset: 0x2DB83B, size: 0x8, addend: 0x0, symName: __ZN7testing8internal15TestMetaFactoryI31WithFamilyArgs_Unreachable_TestE17CreateTestFactoryE10FamilyArgs, symObjAddr: 0x2ECA0, symBinAddr: 0x100030820, symSize: 0x30 }
  - { offsetInCU: 0x2DB8BA, offset: 0x2DB8BA, size: 0x8, addend: 0x0, symName: __ZN7testing8internal24ParameterizedTestFactoryI31WithFamilyArgs_Unreachable_TestED1Ev, symObjAddr: 0x2ECD0, symBinAddr: 0x100030850, symSize: 0x10 }
  - { offsetInCU: 0x2DB8E6, offset: 0x2DB8E6, size: 0x8, addend: 0x0, symName: __ZN7testing8internal24ParameterizedTestFactoryI31WithFamilyArgs_Unreachable_TestED0Ev, symObjAddr: 0x2ECE0, symBinAddr: 0x100030860, symSize: 0x10 }
  - { offsetInCU: 0x2DB946, offset: 0x2DB946, size: 0x8, addend: 0x0, symName: __ZN7testing8internal24ParameterizedTestFactoryI31WithFamilyArgs_Unreachable_TestE10CreateTestEv, symObjAddr: 0x2ECF0, symBinAddr: 0x100030870, symSize: 0x60 }
  - { offsetInCU: 0x2DB9E6, offset: 0x2DB9E6, size: 0x8, addend: 0x0, symName: __ZN7testing8internal15TestFactoryImplI33HandshakeTest_InvalidAddress_TestED1Ev, symObjAddr: 0x2ED50, symBinAddr: 0x1000308D0, symSize: 0x10 }
  - { offsetInCU: 0x2DBA12, offset: 0x2DBA12, size: 0x8, addend: 0x0, symName: __ZN7testing8internal15TestFactoryImplI33HandshakeTest_InvalidAddress_TestED0Ev, symObjAddr: 0x2ED60, symBinAddr: 0x1000308E0, symSize: 0x10 }
  - { offsetInCU: 0x2DBA72, offset: 0x2DBA72, size: 0x8, addend: 0x0, symName: __ZN7testing8internal15TestFactoryImplI33HandshakeTest_InvalidAddress_TestE10CreateTestEv, symObjAddr: 0x2ED70, symBinAddr: 0x1000308F0, symSize: 0x50 }
  - { offsetInCU: 0x2DBAD3, offset: 0x2DBAD3, size: 0x8, addend: 0x0, symName: __ZN7testing8internal15TestMetaFactoryI27WithFamilyArgs_BadALPN_TestED1Ev, symObjAddr: 0x2EDC0, symBinAddr: 0x100030940, symSize: 0x10 }
  - { offsetInCU: 0x2DBAFF, offset: 0x2DBAFF, size: 0x8, addend: 0x0, symName: __ZN7testing8internal15TestMetaFactoryI27WithFamilyArgs_BadALPN_TestED0Ev, symObjAddr: 0x2EDD0, symBinAddr: 0x100030950, symSize: 0x10 }
  - { offsetInCU: 0x2DBB97, offset: 0x2DBB97, size: 0x8, addend: 0x0, symName: __ZN7testing8internal15TestMetaFactoryI27WithFamilyArgs_BadALPN_TestE17CreateTestFactoryE10FamilyArgs, symObjAddr: 0x2EDE0, symBinAddr: 0x100030960, symSize: 0x30 }
  - { offsetInCU: 0x2DBC16, offset: 0x2DBC16, size: 0x8, addend: 0x0, symName: __ZN7testing8internal24ParameterizedTestFactoryI27WithFamilyArgs_BadALPN_TestED1Ev, symObjAddr: 0x2EE10, symBinAddr: 0x100030990, symSize: 0x10 }
  - { offsetInCU: 0x2DBC42, offset: 0x2DBC42, size: 0x8, addend: 0x0, symName: __ZN7testing8internal24ParameterizedTestFactoryI27WithFamilyArgs_BadALPN_TestED0Ev, symObjAddr: 0x2EE20, symBinAddr: 0x1000309A0, symSize: 0x10 }
  - { offsetInCU: 0x2DBCA2, offset: 0x2DBCA2, size: 0x8, addend: 0x0, symName: __ZN7testing8internal24ParameterizedTestFactoryI27WithFamilyArgs_BadALPN_TestE10CreateTestEv, symObjAddr: 0x2EE30, symBinAddr: 0x1000309B0, symSize: 0x60 }
  - { offsetInCU: 0x2DBD3D, offset: 0x2DBD3D, size: 0x8, addend: 0x0, symName: __ZN7testing8internal15TestMetaFactoryI26WithFamilyArgs_BadSNI_TestED1Ev, symObjAddr: 0x2EE90, symBinAddr: 0x100030A10, symSize: 0x10 }
  - { offsetInCU: 0x2DBD69, offset: 0x2DBD69, size: 0x8, addend: 0x0, symName: __ZN7testing8internal15TestMetaFactoryI26WithFamilyArgs_BadSNI_TestED0Ev, symObjAddr: 0x2EEA0, symBinAddr: 0x100030A20, symSize: 0x10 }
  - { offsetInCU: 0x2DBE01, offset: 0x2DBE01, size: 0x8, addend: 0x0, symName: __ZN7testing8internal15TestMetaFactoryI26WithFamilyArgs_BadSNI_TestE17CreateTestFactoryE10FamilyArgs, symObjAddr: 0x2EEB0, symBinAddr: 0x100030A30, symSize: 0x30 }
  - { offsetInCU: 0x2DBE80, offset: 0x2DBE80, size: 0x8, addend: 0x0, symName: __ZN7testing8internal24ParameterizedTestFactoryI26WithFamilyArgs_BadSNI_TestED1Ev, symObjAddr: 0x2EEE0, symBinAddr: 0x100030A60, symSize: 0x10 }
  - { offsetInCU: 0x2DBEAC, offset: 0x2DBEAC, size: 0x8, addend: 0x0, symName: __ZN7testing8internal24ParameterizedTestFactoryI26WithFamilyArgs_BadSNI_TestED0Ev, symObjAddr: 0x2EEF0, symBinAddr: 0x100030A70, symSize: 0x10 }
  - { offsetInCU: 0x2DBF0C, offset: 0x2DBF0C, size: 0x8, addend: 0x0, symName: __ZN7testing8internal24ParameterizedTestFactoryI26WithFamilyArgs_BadSNI_TestE10CreateTestEv, symObjAddr: 0x2EF00, symBinAddr: 0x100030A80, symSize: 0x60 }
  - { offsetInCU: 0x2DBFA7, offset: 0x2DBFA7, size: 0x8, addend: 0x0, symName: __ZN7testing8internal15TestMetaFactoryI34WithFamilyArgs_ServerRejected_TestED1Ev, symObjAddr: 0x2EF60, symBinAddr: 0x100030AE0, symSize: 0x10 }
  - { offsetInCU: 0x2DBFD3, offset: 0x2DBFD3, size: 0x8, addend: 0x0, symName: __ZN7testing8internal15TestMetaFactoryI34WithFamilyArgs_ServerRejected_TestED0Ev, symObjAddr: 0x2EF70, symBinAddr: 0x100030AF0, symSize: 0x10 }
  - { offsetInCU: 0x2DC06B, offset: 0x2DC06B, size: 0x8, addend: 0x0, symName: __ZN7testing8internal15TestMetaFactoryI34WithFamilyArgs_ServerRejected_TestE17CreateTestFactoryE10FamilyArgs, symObjAddr: 0x2EF80, symBinAddr: 0x100030B00, symSize: 0x30 }
  - { offsetInCU: 0x2DC0EA, offset: 0x2DC0EA, size: 0x8, addend: 0x0, symName: __ZN7testing8internal24ParameterizedTestFactoryI34WithFamilyArgs_ServerRejected_TestED1Ev, symObjAddr: 0x2EFB0, symBinAddr: 0x100030B30, symSize: 0x10 }
  - { offsetInCU: 0x2DC116, offset: 0x2DC116, size: 0x8, addend: 0x0, symName: __ZN7testing8internal24ParameterizedTestFactoryI34WithFamilyArgs_ServerRejected_TestED0Ev, symObjAddr: 0x2EFC0, symBinAddr: 0x100030B40, symSize: 0x10 }
  - { offsetInCU: 0x2DC176, offset: 0x2DC176, size: 0x8, addend: 0x0, symName: __ZN7testing8internal24ParameterizedTestFactoryI34WithFamilyArgs_ServerRejected_TestE10CreateTestEv, symObjAddr: 0x2EFD0, symBinAddr: 0x100030B50, symSize: 0x60 }
  - { offsetInCU: 0x2DC211, offset: 0x2DC211, size: 0x8, addend: 0x0, symName: __ZN7testing8internal15TestMetaFactoryI43WithFamilyArgs_ClientBlockedSourcePort_TestED1Ev, symObjAddr: 0x2F030, symBinAddr: 0x100030BB0, symSize: 0x10 }
  - { offsetInCU: 0x2DC23D, offset: 0x2DC23D, size: 0x8, addend: 0x0, symName: __ZN7testing8internal15TestMetaFactoryI43WithFamilyArgs_ClientBlockedSourcePort_TestED0Ev, symObjAddr: 0x2F040, symBinAddr: 0x100030BC0, symSize: 0x10 }
  - { offsetInCU: 0x2DC2D5, offset: 0x2DC2D5, size: 0x8, addend: 0x0, symName: __ZN7testing8internal15TestMetaFactoryI43WithFamilyArgs_ClientBlockedSourcePort_TestE17CreateTestFactoryE10FamilyArgs, symObjAddr: 0x2F050, symBinAddr: 0x100030BD0, symSize: 0x30 }
  - { offsetInCU: 0x2DC354, offset: 0x2DC354, size: 0x8, addend: 0x0, symName: __ZN7testing8internal24ParameterizedTestFactoryI43WithFamilyArgs_ClientBlockedSourcePort_TestED1Ev, symObjAddr: 0x2F080, symBinAddr: 0x100030C00, symSize: 0x10 }
  - { offsetInCU: 0x2DC380, offset: 0x2DC380, size: 0x8, addend: 0x0, symName: __ZN7testing8internal24ParameterizedTestFactoryI43WithFamilyArgs_ClientBlockedSourcePort_TestED0Ev, symObjAddr: 0x2F090, symBinAddr: 0x100030C10, symSize: 0x10 }
  - { offsetInCU: 0x2DC3E0, offset: 0x2DC3E0, size: 0x8, addend: 0x0, symName: __ZN7testing8internal24ParameterizedTestFactoryI43WithFamilyArgs_ClientBlockedSourcePort_TestE10CreateTestEv, symObjAddr: 0x2F0A0, symBinAddr: 0x100030C20, symSize: 0x60 }
  - { offsetInCU: 0x2DC47B, offset: 0x2DC47B, size: 0x8, addend: 0x0, symName: __ZN7testing8internal15TestMetaFactoryI30WithFamilyArgs_RebindPort_TestED1Ev, symObjAddr: 0x2F100, symBinAddr: 0x100030C80, symSize: 0x10 }
  - { offsetInCU: 0x2DC4A7, offset: 0x2DC4A7, size: 0x8, addend: 0x0, symName: __ZN7testing8internal15TestMetaFactoryI30WithFamilyArgs_RebindPort_TestED0Ev, symObjAddr: 0x2F110, symBinAddr: 0x100030C90, symSize: 0x10 }
  - { offsetInCU: 0x2DC53F, offset: 0x2DC53F, size: 0x8, addend: 0x0, symName: __ZN7testing8internal15TestMetaFactoryI30WithFamilyArgs_RebindPort_TestE17CreateTestFactoryE10FamilyArgs, symObjAddr: 0x2F120, symBinAddr: 0x100030CA0, symSize: 0x30 }
  - { offsetInCU: 0x2DC5BE, offset: 0x2DC5BE, size: 0x8, addend: 0x0, symName: __ZN7testing8internal24ParameterizedTestFactoryI30WithFamilyArgs_RebindPort_TestED1Ev, symObjAddr: 0x2F150, symBinAddr: 0x100030CD0, symSize: 0x10 }
  - { offsetInCU: 0x2DC5EA, offset: 0x2DC5EA, size: 0x8, addend: 0x0, symName: __ZN7testing8internal24ParameterizedTestFactoryI30WithFamilyArgs_RebindPort_TestED0Ev, symObjAddr: 0x2F160, symBinAddr: 0x100030CE0, symSize: 0x10 }
  - { offsetInCU: 0x2DC64A, offset: 0x2DC64A, size: 0x8, addend: 0x0, symName: __ZN7testing8internal24ParameterizedTestFactoryI30WithFamilyArgs_RebindPort_TestE10CreateTestEv, symObjAddr: 0x2F170, symBinAddr: 0x100030CF0, symSize: 0x60 }
  - { offsetInCU: 0x2DC9CC, offset: 0x2DC9CC, size: 0x8, addend: 0x0, symName: __ZNSt3__110shared_ptrIN7testing8internal26ParameterizedTestSuiteInfoI21WithRebindPaddingArgsE8TestInfoEEC1B8ue170006IS6_vEEPT_, symObjAddr: 0x2F5A0, symBinAddr: 0x100031120, symSize: 0x60 }
  - { offsetInCU: 0x2DCBA5, offset: 0x2DCBA5, size: 0x8, addend: 0x0, symName: __ZNSt3__16vectorINS_10shared_ptrIN7testing8internal26ParameterizedTestSuiteInfoI21WithRebindPaddingArgsE8TestInfoEEENS_9allocatorIS8_EEE24__emplace_back_slow_pathIJPS7_EEEvDpOT_, symObjAddr: 0x2F3D0, symBinAddr: 0x100030F50, symSize: 0x1D0 }
  - { offsetInCU: 0x2DD720, offset: 0x2DD720, size: 0x8, addend: 0x0, symName: __ZNKSt3__16vectorINS_10shared_ptrIN7testing8internal26ParameterizedTestSuiteInfoI21WithRebindPaddingArgsE8TestInfoEEENS_9allocatorIS8_EEE20__throw_length_errorB8ue170006Ev, symObjAddr: 0x2F740, symBinAddr: 0x1000312C0, symSize: 0x10 }
  - { offsetInCU: 0x2DD749, offset: 0x2DD749, size: 0x8, addend: 0x0, symName: __ZN7testing8internal15TestMetaFactoryI43WithRebindPaddingArgs_RebindPortPadded_TestED1Ev, symObjAddr: 0x2F750, symBinAddr: 0x1000312D0, symSize: 0x10 }
  - { offsetInCU: 0x2DD754, offset: 0x2DD754, size: 0x8, addend: 0x0, symName: __ZNSt3__114__split_bufferINS_10shared_ptrIN7testing8internal26ParameterizedTestSuiteInfoI21WithRebindPaddingArgsE8TestInfoEEERNS_9allocatorIS8_EEED1Ev, symObjAddr: 0x2F6C0, symBinAddr: 0x100031240, symSize: 0x80 }
  - { offsetInCU: 0x2DDCC8, offset: 0x2DDCC8, size: 0x8, addend: 0x0, symName: __ZNSt3__110shared_ptrIN7testing8internal26ParameterizedTestSuiteInfoI21WithRebindPaddingArgsE8TestInfoEEC1B8ue170006IS6_vEEPT_.cold.1, symObjAddr: 0x81F40, symBinAddr: 0x100407D70, symSize: 0x50 }
  - { offsetInCU: 0x2DE02C, offset: 0x2DE02C, size: 0x8, addend: 0x0, symName: __ZNSt3__120__shared_ptr_pointerIPN7testing8internal26ParameterizedTestSuiteInfoI21WithRebindPaddingArgsE8TestInfoENS_10shared_ptrIS6_E27__shared_ptr_default_deleteIS6_S6_EENS_9allocatorIS6_EEED1Ev, symObjAddr: 0x2F600, symBinAddr: 0x100031180, symSize: 0x10 }
  - { offsetInCU: 0x2DE084, offset: 0x2DE084, size: 0x8, addend: 0x0, symName: __ZNSt3__120__shared_ptr_pointerIPN7testing8internal26ParameterizedTestSuiteInfoI21WithRebindPaddingArgsE8TestInfoENS_10shared_ptrIS6_E27__shared_ptr_default_deleteIS6_S6_EENS_9allocatorIS6_EEED0Ev, symObjAddr: 0x2F610, symBinAddr: 0x100031190, symSize: 0x20 }
  - { offsetInCU: 0x2DE1AC, offset: 0x2DE1AC, size: 0x8, addend: 0x0, symName: __ZNSt3__120__shared_ptr_pointerIPN7testing8internal26ParameterizedTestSuiteInfoI21WithRebindPaddingArgsE8TestInfoENS_10shared_ptrIS6_E27__shared_ptr_default_deleteIS6_S6_EENS_9allocatorIS6_EEE16__on_zero_sharedEv, symObjAddr: 0x2F630, symBinAddr: 0x1000311B0, symSize: 0x60 }
  - { offsetInCU: 0x2DE538, offset: 0x2DE538, size: 0x8, addend: 0x0, symName: __ZNKSt3__120__shared_ptr_pointerIPN7testing8internal26ParameterizedTestSuiteInfoI21WithRebindPaddingArgsE8TestInfoENS_10shared_ptrIS6_E27__shared_ptr_default_deleteIS6_S6_EENS_9allocatorIS6_EEE13__get_deleterERKSt9type_info, symObjAddr: 0x2F690, symBinAddr: 0x100031210, symSize: 0x20 }
  - { offsetInCU: 0x2DE5FB, offset: 0x2DE5FB, size: 0x8, addend: 0x0, symName: __ZNSt3__120__shared_ptr_pointerIPN7testing8internal26ParameterizedTestSuiteInfoI21WithRebindPaddingArgsE8TestInfoENS_10shared_ptrIS6_E27__shared_ptr_default_deleteIS6_S6_EENS_9allocatorIS6_EEE21__on_zero_shared_weakEv, symObjAddr: 0x2F6B0, symBinAddr: 0x100031230, symSize: 0x10 }
  - { offsetInCU: 0x2DE6CE, offset: 0x2DE6CE, size: 0x8, addend: 0x0, symName: __ZN7testing8internal15TestMetaFactoryI43WithRebindPaddingArgs_RebindPortPadded_TestED1Ev, symObjAddr: 0x2F750, symBinAddr: 0x1000312D0, symSize: 0x10 }
  - { offsetInCU: 0x2DE6FA, offset: 0x2DE6FA, size: 0x8, addend: 0x0, symName: __ZN7testing8internal15TestMetaFactoryI43WithRebindPaddingArgs_RebindPortPadded_TestED0Ev, symObjAddr: 0x2F760, symBinAddr: 0x1000312E0, symSize: 0x10 }
  - { offsetInCU: 0x2DE792, offset: 0x2DE792, size: 0x8, addend: 0x0, symName: __ZN7testing8internal15TestMetaFactoryI43WithRebindPaddingArgs_RebindPortPadded_TestE17CreateTestFactoryE17RebindPaddingArgs, symObjAddr: 0x2F770, symBinAddr: 0x1000312F0, symSize: 0x30 }
  - { offsetInCU: 0x2DE811, offset: 0x2DE811, size: 0x8, addend: 0x0, symName: __ZN7testing8internal24ParameterizedTestFactoryI43WithRebindPaddingArgs_RebindPortPadded_TestED1Ev, symObjAddr: 0x2F7A0, symBinAddr: 0x100031320, symSize: 0x10 }
  - { offsetInCU: 0x2DE83D, offset: 0x2DE83D, size: 0x8, addend: 0x0, symName: __ZN7testing8internal24ParameterizedTestFactoryI43WithRebindPaddingArgs_RebindPortPadded_TestED0Ev, symObjAddr: 0x2F7B0, symBinAddr: 0x100031330, symSize: 0x10 }
  - { offsetInCU: 0x2DE8CE, offset: 0x2DE8CE, size: 0x8, addend: 0x0, symName: __ZN7testing8internal24ParameterizedTestFactoryI43WithRebindPaddingArgs_RebindPortPadded_TestE10CreateTestEv, symObjAddr: 0x2F7C0, symBinAddr: 0x100031340, symSize: 0x60 }
  - { offsetInCU: 0x2DE969, offset: 0x2DE969, size: 0x8, addend: 0x0, symName: __ZN21WithRebindPaddingArgsD1Ev, symObjAddr: 0x2F820, symBinAddr: 0x100407310, symSize: 0x10 }
  - { offsetInCU: 0x2DE989, offset: 0x2DE989, size: 0x8, addend: 0x0, symName: __ZN21WithRebindPaddingArgsD0Ev, symObjAddr: 0x2F830, symBinAddr: 0x100407320, symSize: 0x10 }
  - { offsetInCU: 0x2DE9C6, offset: 0x2DE9C6, size: 0x8, addend: 0x0, symName: __ZThn16_N21WithRebindPaddingArgsD1Ev, symObjAddr: 0x2F840, symBinAddr: 0x100407330, symSize: 0x10 }
  - { offsetInCU: 0x2DEA19, offset: 0x2DEA19, size: 0x8, addend: 0x0, symName: __ZThn16_N21WithRebindPaddingArgsD0Ev, symObjAddr: 0x2F850, symBinAddr: 0x100407340, symSize: 0x10 }
  - { offsetInCU: 0x2DEA4F, offset: 0x2DEA4F, size: 0x8, addend: 0x0, symName: __ZN7testing18WithParamInterfaceI17RebindPaddingArgsED1Ev, symObjAddr: 0x2F860, symBinAddr: 0x1000313A0, symSize: 0x10 }
  - { offsetInCU: 0x2DEA78, offset: 0x2DEA78, size: 0x8, addend: 0x0, symName: __ZN7testing18WithParamInterfaceI17RebindPaddingArgsED0Ev, symObjAddr: 0x2F870, symBinAddr: 0x1000313B0, symSize: 0x10 }
  - { offsetInCU: 0x2DEAA1, offset: 0x2DEAA1, size: 0x8, addend: 0x0, symName: __ZN7testing8internal15TestMetaFactoryI30WithFamilyArgs_RebindAddr_TestED1Ev, symObjAddr: 0x2F880, symBinAddr: 0x1000313C0, symSize: 0x10 }
  - { offsetInCU: 0x2DEACD, offset: 0x2DEACD, size: 0x8, addend: 0x0, symName: __ZN7testing8internal15TestMetaFactoryI30WithFamilyArgs_RebindAddr_TestED0Ev, symObjAddr: 0x2F890, symBinAddr: 0x1000313D0, symSize: 0x10 }
  - { offsetInCU: 0x2DEB65, offset: 0x2DEB65, size: 0x8, addend: 0x0, symName: __ZN7testing8internal15TestMetaFactoryI30WithFamilyArgs_RebindAddr_TestE17CreateTestFactoryE10FamilyArgs, symObjAddr: 0x2F8A0, symBinAddr: 0x1000313E0, symSize: 0x30 }
  - { offsetInCU: 0x2DEBE4, offset: 0x2DEBE4, size: 0x8, addend: 0x0, symName: __ZN7testing8internal24ParameterizedTestFactoryI30WithFamilyArgs_RebindAddr_TestED1Ev, symObjAddr: 0x2F8D0, symBinAddr: 0x100031410, symSize: 0x10 }
  - { offsetInCU: 0x2DEC10, offset: 0x2DEC10, size: 0x8, addend: 0x0, symName: __ZN7testing8internal24ParameterizedTestFactoryI30WithFamilyArgs_RebindAddr_TestED0Ev, symObjAddr: 0x2F8E0, symBinAddr: 0x100031420, symSize: 0x10 }
  - { offsetInCU: 0x2DEC70, offset: 0x2DEC70, size: 0x8, addend: 0x0, symName: __ZN7testing8internal24ParameterizedTestFactoryI30WithFamilyArgs_RebindAddr_TestE10CreateTestEv, symObjAddr: 0x2F8F0, symBinAddr: 0x100031430, symSize: 0x60 }
  - { offsetInCU: 0x2DED0B, offset: 0x2DED0B, size: 0x8, addend: 0x0, symName: __ZN7testing8internal15TestMetaFactoryI38WithFamilyArgs_RebindDatapathAddr_TestED1Ev, symObjAddr: 0x2F950, symBinAddr: 0x100031490, symSize: 0x10 }
  - { offsetInCU: 0x2DED37, offset: 0x2DED37, size: 0x8, addend: 0x0, symName: __ZN7testing8internal15TestMetaFactoryI38WithFamilyArgs_RebindDatapathAddr_TestED0Ev, symObjAddr: 0x2F960, symBinAddr: 0x1000314A0, symSize: 0x10 }
  - { offsetInCU: 0x2DEDCF, offset: 0x2DEDCF, size: 0x8, addend: 0x0, symName: __ZN7testing8internal15TestMetaFactoryI38WithFamilyArgs_RebindDatapathAddr_TestE17CreateTestFactoryE10FamilyArgs, symObjAddr: 0x2F970, symBinAddr: 0x1000314B0, symSize: 0x30 }
  - { offsetInCU: 0x2DEE4E, offset: 0x2DEE4E, size: 0x8, addend: 0x0, symName: __ZN7testing8internal24ParameterizedTestFactoryI38WithFamilyArgs_RebindDatapathAddr_TestED1Ev, symObjAddr: 0x2F9A0, symBinAddr: 0x1000314E0, symSize: 0x10 }
  - { offsetInCU: 0x2DEE7A, offset: 0x2DEE7A, size: 0x8, addend: 0x0, symName: __ZN7testing8internal24ParameterizedTestFactoryI38WithFamilyArgs_RebindDatapathAddr_TestED0Ev, symObjAddr: 0x2F9B0, symBinAddr: 0x1000314F0, symSize: 0x10 }
  - { offsetInCU: 0x2DEEDA, offset: 0x2DEEDA, size: 0x8, addend: 0x0, symName: __ZN7testing8internal24ParameterizedTestFactoryI38WithFamilyArgs_RebindDatapathAddr_TestE10CreateTestEv, symObjAddr: 0x2F9C0, symBinAddr: 0x100031500, symSize: 0x60 }
  - { offsetInCU: 0x2DEF75, offset: 0x2DEF75, size: 0x8, addend: 0x0, symName: __ZN7testing8internal15TestMetaFactoryI43WithRebindPaddingArgs_RebindAddrPadded_TestED1Ev, symObjAddr: 0x2FA20, symBinAddr: 0x100031560, symSize: 0x10 }
  - { offsetInCU: 0x2DEFA1, offset: 0x2DEFA1, size: 0x8, addend: 0x0, symName: __ZN7testing8internal15TestMetaFactoryI43WithRebindPaddingArgs_RebindAddrPadded_TestED0Ev, symObjAddr: 0x2FA30, symBinAddr: 0x100031570, symSize: 0x10 }
  - { offsetInCU: 0x2DF039, offset: 0x2DF039, size: 0x8, addend: 0x0, symName: __ZN7testing8internal15TestMetaFactoryI43WithRebindPaddingArgs_RebindAddrPadded_TestE17CreateTestFactoryE17RebindPaddingArgs, symObjAddr: 0x2FA40, symBinAddr: 0x100031580, symSize: 0x30 }
  - { offsetInCU: 0x2DF0B8, offset: 0x2DF0B8, size: 0x8, addend: 0x0, symName: __ZN7testing8internal24ParameterizedTestFactoryI43WithRebindPaddingArgs_RebindAddrPadded_TestED1Ev, symObjAddr: 0x2FA70, symBinAddr: 0x1000315B0, symSize: 0x10 }
  - { offsetInCU: 0x2DF0E4, offset: 0x2DF0E4, size: 0x8, addend: 0x0, symName: __ZN7testing8internal24ParameterizedTestFactoryI43WithRebindPaddingArgs_RebindAddrPadded_TestED0Ev, symObjAddr: 0x2FA80, symBinAddr: 0x1000315C0, symSize: 0x10 }
  - { offsetInCU: 0x2DF144, offset: 0x2DF144, size: 0x8, addend: 0x0, symName: __ZN7testing8internal24ParameterizedTestFactoryI43WithRebindPaddingArgs_RebindAddrPadded_TestE10CreateTestEv, symObjAddr: 0x2FA90, symBinAddr: 0x1000315D0, symSize: 0x60 }
  - { offsetInCU: 0x2DF1DF, offset: 0x2DF1DF, size: 0x8, addend: 0x0, symName: __ZN7testing8internal15TestMetaFactoryI41WithFamilyArgs_PathValidationTimeout_TestED1Ev, symObjAddr: 0x2FAF0, symBinAddr: 0x100031630, symSize: 0x10 }
  - { offsetInCU: 0x2DF20B, offset: 0x2DF20B, size: 0x8, addend: 0x0, symName: __ZN7testing8internal15TestMetaFactoryI41WithFamilyArgs_PathValidationTimeout_TestED0Ev, symObjAddr: 0x2FB00, symBinAddr: 0x100031640, symSize: 0x10 }
  - { offsetInCU: 0x2DF2A3, offset: 0x2DF2A3, size: 0x8, addend: 0x0, symName: __ZN7testing8internal15TestMetaFactoryI41WithFamilyArgs_PathValidationTimeout_TestE17CreateTestFactoryE10FamilyArgs, symObjAddr: 0x2FB10, symBinAddr: 0x100031650, symSize: 0x30 }
  - { offsetInCU: 0x2DF322, offset: 0x2DF322, size: 0x8, addend: 0x0, symName: __ZN7testing8internal24ParameterizedTestFactoryI41WithFamilyArgs_PathValidationTimeout_TestED1Ev, symObjAddr: 0x2FB40, symBinAddr: 0x100031680, symSize: 0x10 }
  - { offsetInCU: 0x2DF34E, offset: 0x2DF34E, size: 0x8, addend: 0x0, symName: __ZN7testing8internal24ParameterizedTestFactoryI41WithFamilyArgs_PathValidationTimeout_TestED0Ev, symObjAddr: 0x2FB50, symBinAddr: 0x100031690, symSize: 0x10 }
  - { offsetInCU: 0x2DF3AE, offset: 0x2DF3AE, size: 0x8, addend: 0x0, symName: __ZN7testing8internal24ParameterizedTestFactoryI41WithFamilyArgs_PathValidationTimeout_TestE10CreateTestEv, symObjAddr: 0x2FB60, symBinAddr: 0x1000316A0, symSize: 0x60 }
  - { offsetInCU: 0x2DF449, offset: 0x2DF449, size: 0x8, addend: 0x0, symName: __ZN7testing8internal15TestMetaFactoryI38WithFamilyArgs_ChangeMaxStreamIDs_TestED1Ev, symObjAddr: 0x2FBC0, symBinAddr: 0x100031700, symSize: 0x10 }
  - { offsetInCU: 0x2DF475, offset: 0x2DF475, size: 0x8, addend: 0x0, symName: __ZN7testing8internal15TestMetaFactoryI38WithFamilyArgs_ChangeMaxStreamIDs_TestED0Ev, symObjAddr: 0x2FBD0, symBinAddr: 0x100031710, symSize: 0x10 }
  - { offsetInCU: 0x2DF50D, offset: 0x2DF50D, size: 0x8, addend: 0x0, symName: __ZN7testing8internal15TestMetaFactoryI38WithFamilyArgs_ChangeMaxStreamIDs_TestE17CreateTestFactoryE10FamilyArgs, symObjAddr: 0x2FBE0, symBinAddr: 0x100031720, symSize: 0x30 }
  - { offsetInCU: 0x2DF58C, offset: 0x2DF58C, size: 0x8, addend: 0x0, symName: __ZN7testing8internal24ParameterizedTestFactoryI38WithFamilyArgs_ChangeMaxStreamIDs_TestED1Ev, symObjAddr: 0x2FC10, symBinAddr: 0x100031750, symSize: 0x10 }
  - { offsetInCU: 0x2DF5B8, offset: 0x2DF5B8, size: 0x8, addend: 0x0, symName: __ZN7testing8internal24ParameterizedTestFactoryI38WithFamilyArgs_ChangeMaxStreamIDs_TestED0Ev, symObjAddr: 0x2FC20, symBinAddr: 0x100031760, symSize: 0x10 }
  - { offsetInCU: 0x2DF618, offset: 0x2DF618, size: 0x8, addend: 0x0, symName: __ZN7testing8internal24ParameterizedTestFactoryI38WithFamilyArgs_ChangeMaxStreamIDs_TestE10CreateTestEv, symObjAddr: 0x2FC30, symBinAddr: 0x100031770, symSize: 0x60 }
  - { offsetInCU: 0x2DF6B3, offset: 0x2DF6B3, size: 0x8, addend: 0x0, symName: __ZN7testing8internal15TestMetaFactoryI32WithFamilyArgs_LoadBalanced_TestED1Ev, symObjAddr: 0x2FC90, symBinAddr: 0x1000317D0, symSize: 0x10 }
  - { offsetInCU: 0x2DF6DF, offset: 0x2DF6DF, size: 0x8, addend: 0x0, symName: __ZN7testing8internal15TestMetaFactoryI32WithFamilyArgs_LoadBalanced_TestED0Ev, symObjAddr: 0x2FCA0, symBinAddr: 0x1000317E0, symSize: 0x10 }
  - { offsetInCU: 0x2DF777, offset: 0x2DF777, size: 0x8, addend: 0x0, symName: __ZN7testing8internal15TestMetaFactoryI32WithFamilyArgs_LoadBalanced_TestE17CreateTestFactoryE10FamilyArgs, symObjAddr: 0x2FCB0, symBinAddr: 0x1000317F0, symSize: 0x30 }
  - { offsetInCU: 0x2DF7F6, offset: 0x2DF7F6, size: 0x8, addend: 0x0, symName: __ZN7testing8internal24ParameterizedTestFactoryI32WithFamilyArgs_LoadBalanced_TestED1Ev, symObjAddr: 0x2FCE0, symBinAddr: 0x100031820, symSize: 0x10 }
  - { offsetInCU: 0x2DF822, offset: 0x2DF822, size: 0x8, addend: 0x0, symName: __ZN7testing8internal24ParameterizedTestFactoryI32WithFamilyArgs_LoadBalanced_TestED0Ev, symObjAddr: 0x2FCF0, symBinAddr: 0x100031830, symSize: 0x10 }
  - { offsetInCU: 0x2DF882, offset: 0x2DF882, size: 0x8, addend: 0x0, symName: __ZN7testing8internal24ParameterizedTestFactoryI32WithFamilyArgs_LoadBalanced_TestE10CreateTestEv, symObjAddr: 0x2FD00, symBinAddr: 0x100031840, symSize: 0x60 }
  - { offsetInCU: 0x2DFC04, offset: 0x2DFC04, size: 0x8, addend: 0x0, symName: __ZNSt3__110shared_ptrIN7testing8internal26ParameterizedTestSuiteInfoI19WithHandshakeArgs10E8TestInfoEEC1B8ue170006IS6_vEEPT_, symObjAddr: 0x30130, symBinAddr: 0x100031C70, symSize: 0x60 }
  - { offsetInCU: 0x2DFDDD, offset: 0x2DFDDD, size: 0x8, addend: 0x0, symName: __ZNSt3__16vectorINS_10shared_ptrIN7testing8internal26ParameterizedTestSuiteInfoI19WithHandshakeArgs10E8TestInfoEEENS_9allocatorIS8_EEE24__emplace_back_slow_pathIJPS7_EEEvDpOT_, symObjAddr: 0x2FF60, symBinAddr: 0x100031AA0, symSize: 0x1D0 }
  - { offsetInCU: 0x2E0958, offset: 0x2E0958, size: 0x8, addend: 0x0, symName: __ZNKSt3__16vectorINS_10shared_ptrIN7testing8internal26ParameterizedTestSuiteInfoI19WithHandshakeArgs10E8TestInfoEEENS_9allocatorIS8_EEE20__throw_length_errorB8ue170006Ev, symObjAddr: 0x302D0, symBinAddr: 0x100031E10, symSize: 0x10 }
  - { offsetInCU: 0x2E0981, offset: 0x2E0981, size: 0x8, addend: 0x0, symName: __ZN7testing8internal15TestMetaFactoryI54WithHandshakeArgs10_HandshakeSpecificLossPatterns_TestED1Ev, symObjAddr: 0x302E0, symBinAddr: 0x100031E20, symSize: 0x10 }
  - { offsetInCU: 0x2E098C, offset: 0x2E098C, size: 0x8, addend: 0x0, symName: __ZNSt3__114__split_bufferINS_10shared_ptrIN7testing8internal26ParameterizedTestSuiteInfoI19WithHandshakeArgs10E8TestInfoEEERNS_9allocatorIS8_EEED1Ev, symObjAddr: 0x30250, symBinAddr: 0x100031D90, symSize: 0x80 }
  - { offsetInCU: 0x2E0F00, offset: 0x2E0F00, size: 0x8, addend: 0x0, symName: __ZNSt3__110shared_ptrIN7testing8internal26ParameterizedTestSuiteInfoI19WithHandshakeArgs10E8TestInfoEEC1B8ue170006IS6_vEEPT_.cold.1, symObjAddr: 0x81F90, symBinAddr: 0x100407DC0, symSize: 0x50 }
  - { offsetInCU: 0x2E1264, offset: 0x2E1264, size: 0x8, addend: 0x0, symName: __ZNSt3__120__shared_ptr_pointerIPN7testing8internal26ParameterizedTestSuiteInfoI19WithHandshakeArgs10E8TestInfoENS_10shared_ptrIS6_E27__shared_ptr_default_deleteIS6_S6_EENS_9allocatorIS6_EEED1Ev, symObjAddr: 0x30190, symBinAddr: 0x100031CD0, symSize: 0x10 }
  - { offsetInCU: 0x2E12BC, offset: 0x2E12BC, size: 0x8, addend: 0x0, symName: __ZNSt3__120__shared_ptr_pointerIPN7testing8internal26ParameterizedTestSuiteInfoI19WithHandshakeArgs10E8TestInfoENS_10shared_ptrIS6_E27__shared_ptr_default_deleteIS6_S6_EENS_9allocatorIS6_EEED0Ev, symObjAddr: 0x301A0, symBinAddr: 0x100031CE0, symSize: 0x20 }
  - { offsetInCU: 0x2E13E4, offset: 0x2E13E4, size: 0x8, addend: 0x0, symName: __ZNSt3__120__shared_ptr_pointerIPN7testing8internal26ParameterizedTestSuiteInfoI19WithHandshakeArgs10E8TestInfoENS_10shared_ptrIS6_E27__shared_ptr_default_deleteIS6_S6_EENS_9allocatorIS6_EEE16__on_zero_sharedEv, symObjAddr: 0x301C0, symBinAddr: 0x100031D00, symSize: 0x60 }
  - { offsetInCU: 0x2E1770, offset: 0x2E1770, size: 0x8, addend: 0x0, symName: __ZNKSt3__120__shared_ptr_pointerIPN7testing8internal26ParameterizedTestSuiteInfoI19WithHandshakeArgs10E8TestInfoENS_10shared_ptrIS6_E27__shared_ptr_default_deleteIS6_S6_EENS_9allocatorIS6_EEE13__get_deleterERKSt9type_info, symObjAddr: 0x30220, symBinAddr: 0x100031D60, symSize: 0x20 }
  - { offsetInCU: 0x2E1833, offset: 0x2E1833, size: 0x8, addend: 0x0, symName: __ZNSt3__120__shared_ptr_pointerIPN7testing8internal26ParameterizedTestSuiteInfoI19WithHandshakeArgs10E8TestInfoENS_10shared_ptrIS6_E27__shared_ptr_default_deleteIS6_S6_EENS_9allocatorIS6_EEE21__on_zero_shared_weakEv, symObjAddr: 0x30240, symBinAddr: 0x100031D80, symSize: 0x10 }
  - { offsetInCU: 0x2E1906, offset: 0x2E1906, size: 0x8, addend: 0x0, symName: __ZN7testing8internal15TestMetaFactoryI54WithHandshakeArgs10_HandshakeSpecificLossPatterns_TestED1Ev, symObjAddr: 0x302E0, symBinAddr: 0x100031E20, symSize: 0x10 }
  - { offsetInCU: 0x2E1932, offset: 0x2E1932, size: 0x8, addend: 0x0, symName: __ZN7testing8internal15TestMetaFactoryI54WithHandshakeArgs10_HandshakeSpecificLossPatterns_TestED0Ev, symObjAddr: 0x302F0, symBinAddr: 0x100031E30, symSize: 0x10 }
  - { offsetInCU: 0x2E19CA, offset: 0x2E19CA, size: 0x8, addend: 0x0, symName: __ZN7testing8internal15TestMetaFactoryI54WithHandshakeArgs10_HandshakeSpecificLossPatterns_TestE17CreateTestFactoryE15HandshakeArgs10, symObjAddr: 0x30300, symBinAddr: 0x100031E40, symSize: 0x30 }
  - { offsetInCU: 0x2E1A49, offset: 0x2E1A49, size: 0x8, addend: 0x0, symName: __ZN7testing8internal24ParameterizedTestFactoryI54WithHandshakeArgs10_HandshakeSpecificLossPatterns_TestED1Ev, symObjAddr: 0x30330, symBinAddr: 0x100031E70, symSize: 0x10 }
  - { offsetInCU: 0x2E1A75, offset: 0x2E1A75, size: 0x8, addend: 0x0, symName: __ZN7testing8internal24ParameterizedTestFactoryI54WithHandshakeArgs10_HandshakeSpecificLossPatterns_TestED0Ev, symObjAddr: 0x30340, symBinAddr: 0x100031E80, symSize: 0x10 }
  - { offsetInCU: 0x2E1B06, offset: 0x2E1B06, size: 0x8, addend: 0x0, symName: __ZN7testing8internal24ParameterizedTestFactoryI54WithHandshakeArgs10_HandshakeSpecificLossPatterns_TestE10CreateTestEv, symObjAddr: 0x30350, symBinAddr: 0x100031E90, symSize: 0x60 }
  - { offsetInCU: 0x2E1BA1, offset: 0x2E1BA1, size: 0x8, addend: 0x0, symName: __ZN19WithHandshakeArgs10D1Ev, symObjAddr: 0x303B0, symBinAddr: 0x100407350, symSize: 0x10 }
  - { offsetInCU: 0x2E1BC1, offset: 0x2E1BC1, size: 0x8, addend: 0x0, symName: __ZN19WithHandshakeArgs10D0Ev, symObjAddr: 0x303C0, symBinAddr: 0x100407360, symSize: 0x10 }
  - { offsetInCU: 0x2E1BFE, offset: 0x2E1BFE, size: 0x8, addend: 0x0, symName: __ZThn16_N19WithHandshakeArgs10D1Ev, symObjAddr: 0x303D0, symBinAddr: 0x100407370, symSize: 0x10 }
  - { offsetInCU: 0x2E1C51, offset: 0x2E1C51, size: 0x8, addend: 0x0, symName: __ZThn16_N19WithHandshakeArgs10D0Ev, symObjAddr: 0x303E0, symBinAddr: 0x100407380, symSize: 0x10 }
  - { offsetInCU: 0x2E1C87, offset: 0x2E1C87, size: 0x8, addend: 0x0, symName: __ZN7testing18WithParamInterfaceI15HandshakeArgs10ED1Ev, symObjAddr: 0x303F0, symBinAddr: 0x100031EF0, symSize: 0x10 }
  - { offsetInCU: 0x2E1CB0, offset: 0x2E1CB0, size: 0x8, addend: 0x0, symName: __ZN7testing18WithParamInterfaceI15HandshakeArgs10ED0Ev, symObjAddr: 0x30400, symBinAddr: 0x100031F00, symSize: 0x10 }
  - { offsetInCU: 0x2E1FC0, offset: 0x2E1FC0, size: 0x8, addend: 0x0, symName: __ZNSt3__110shared_ptrIN7testing8internal26ParameterizedTestSuiteInfoI19WithHandshakeArgs11E8TestInfoEEC1B8ue170006IS6_vEEPT_, symObjAddr: 0x307E0, symBinAddr: 0x1000322E0, symSize: 0x60 }
  - { offsetInCU: 0x2E2199, offset: 0x2E2199, size: 0x8, addend: 0x0, symName: __ZNSt3__16vectorINS_10shared_ptrIN7testing8internal26ParameterizedTestSuiteInfoI19WithHandshakeArgs11E8TestInfoEEENS_9allocatorIS8_EEE24__emplace_back_slow_pathIJPS7_EEEvDpOT_, symObjAddr: 0x30610, symBinAddr: 0x100032110, symSize: 0x1D0 }
  - { offsetInCU: 0x2E2D14, offset: 0x2E2D14, size: 0x8, addend: 0x0, symName: __ZNKSt3__16vectorINS_10shared_ptrIN7testing8internal26ParameterizedTestSuiteInfoI19WithHandshakeArgs11E8TestInfoEEENS_9allocatorIS8_EEE20__throw_length_errorB8ue170006Ev, symObjAddr: 0x30980, symBinAddr: 0x100032480, symSize: 0x10 }
  - { offsetInCU: 0x2E2D3D, offset: 0x2E2D3D, size: 0x8, addend: 0x0, symName: __ZN7testing8internal15TestMetaFactoryI48WithHandshakeArgs11_ShutdownDuringHandshake_TestED1Ev, symObjAddr: 0x30990, symBinAddr: 0x100032490, symSize: 0x10 }
  - { offsetInCU: 0x2E2D48, offset: 0x2E2D48, size: 0x8, addend: 0x0, symName: __ZNSt3__114__split_bufferINS_10shared_ptrIN7testing8internal26ParameterizedTestSuiteInfoI19WithHandshakeArgs11E8TestInfoEEERNS_9allocatorIS8_EEED1Ev, symObjAddr: 0x30900, symBinAddr: 0x100032400, symSize: 0x80 }
  - { offsetInCU: 0x2E32BC, offset: 0x2E32BC, size: 0x8, addend: 0x0, symName: __ZNSt3__110shared_ptrIN7testing8internal26ParameterizedTestSuiteInfoI19WithHandshakeArgs11E8TestInfoEEC1B8ue170006IS6_vEEPT_.cold.1, symObjAddr: 0x81FE0, symBinAddr: 0x100407E10, symSize: 0x50 }
  - { offsetInCU: 0x2E3620, offset: 0x2E3620, size: 0x8, addend: 0x0, symName: __ZNSt3__120__shared_ptr_pointerIPN7testing8internal26ParameterizedTestSuiteInfoI19WithHandshakeArgs11E8TestInfoENS_10shared_ptrIS6_E27__shared_ptr_default_deleteIS6_S6_EENS_9allocatorIS6_EEED1Ev, symObjAddr: 0x30840, symBinAddr: 0x100032340, symSize: 0x10 }
  - { offsetInCU: 0x2E3678, offset: 0x2E3678, size: 0x8, addend: 0x0, symName: __ZNSt3__120__shared_ptr_pointerIPN7testing8internal26ParameterizedTestSuiteInfoI19WithHandshakeArgs11E8TestInfoENS_10shared_ptrIS6_E27__shared_ptr_default_deleteIS6_S6_EENS_9allocatorIS6_EEED0Ev, symObjAddr: 0x30850, symBinAddr: 0x100032350, symSize: 0x20 }
  - { offsetInCU: 0x2E37A0, offset: 0x2E37A0, size: 0x8, addend: 0x0, symName: __ZNSt3__120__shared_ptr_pointerIPN7testing8internal26ParameterizedTestSuiteInfoI19WithHandshakeArgs11E8TestInfoENS_10shared_ptrIS6_E27__shared_ptr_default_deleteIS6_S6_EENS_9allocatorIS6_EEE16__on_zero_sharedEv, symObjAddr: 0x30870, symBinAddr: 0x100032370, symSize: 0x60 }
  - { offsetInCU: 0x2E3B2C, offset: 0x2E3B2C, size: 0x8, addend: 0x0, symName: __ZNKSt3__120__shared_ptr_pointerIPN7testing8internal26ParameterizedTestSuiteInfoI19WithHandshakeArgs11E8TestInfoENS_10shared_ptrIS6_E27__shared_ptr_default_deleteIS6_S6_EENS_9allocatorIS6_EEE13__get_deleterERKSt9type_info, symObjAddr: 0x308D0, symBinAddr: 0x1000323D0, symSize: 0x20 }
  - { offsetInCU: 0x2E3BEF, offset: 0x2E3BEF, size: 0x8, addend: 0x0, symName: __ZNSt3__120__shared_ptr_pointerIPN7testing8internal26ParameterizedTestSuiteInfoI19WithHandshakeArgs11E8TestInfoENS_10shared_ptrIS6_E27__shared_ptr_default_deleteIS6_S6_EENS_9allocatorIS6_EEE21__on_zero_shared_weakEv, symObjAddr: 0x308F0, symBinAddr: 0x1000323F0, symSize: 0x10 }
  - { offsetInCU: 0x2E3CC2, offset: 0x2E3CC2, size: 0x8, addend: 0x0, symName: __ZN7testing8internal15TestMetaFactoryI48WithHandshakeArgs11_ShutdownDuringHandshake_TestED1Ev, symObjAddr: 0x30990, symBinAddr: 0x100032490, symSize: 0x10 }
  - { offsetInCU: 0x2E3CEE, offset: 0x2E3CEE, size: 0x8, addend: 0x0, symName: __ZN7testing8internal15TestMetaFactoryI48WithHandshakeArgs11_ShutdownDuringHandshake_TestED0Ev, symObjAddr: 0x309A0, symBinAddr: 0x1000324A0, symSize: 0x10 }
  - { offsetInCU: 0x2E3D86, offset: 0x2E3D86, size: 0x8, addend: 0x0, symName: __ZN7testing8internal15TestMetaFactoryI48WithHandshakeArgs11_ShutdownDuringHandshake_TestE17CreateTestFactoryE15HandshakeArgs11, symObjAddr: 0x309B0, symBinAddr: 0x1000324B0, symSize: 0x30 }
  - { offsetInCU: 0x2E3E05, offset: 0x2E3E05, size: 0x8, addend: 0x0, symName: __ZN7testing8internal24ParameterizedTestFactoryI48WithHandshakeArgs11_ShutdownDuringHandshake_TestED1Ev, symObjAddr: 0x309E0, symBinAddr: 0x1000324E0, symSize: 0x10 }
  - { offsetInCU: 0x2E3E31, offset: 0x2E3E31, size: 0x8, addend: 0x0, symName: __ZN7testing8internal24ParameterizedTestFactoryI48WithHandshakeArgs11_ShutdownDuringHandshake_TestED0Ev, symObjAddr: 0x309F0, symBinAddr: 0x1000324F0, symSize: 0x10 }
  - { offsetInCU: 0x2E3EC2, offset: 0x2E3EC2, size: 0x8, addend: 0x0, symName: __ZN7testing8internal24ParameterizedTestFactoryI48WithHandshakeArgs11_ShutdownDuringHandshake_TestE10CreateTestEv, symObjAddr: 0x30A00, symBinAddr: 0x100032500, symSize: 0x60 }
  - { offsetInCU: 0x2E3F5D, offset: 0x2E3F5D, size: 0x8, addend: 0x0, symName: __ZN19WithHandshakeArgs11D1Ev, symObjAddr: 0x30A60, symBinAddr: 0x100407390, symSize: 0x10 }
  - { offsetInCU: 0x2E3F7D, offset: 0x2E3F7D, size: 0x8, addend: 0x0, symName: __ZN19WithHandshakeArgs11D0Ev, symObjAddr: 0x30A70, symBinAddr: 0x1004073A0, symSize: 0x10 }
  - { offsetInCU: 0x2E3FBA, offset: 0x2E3FBA, size: 0x8, addend: 0x0, symName: __ZThn16_N19WithHandshakeArgs11D1Ev, symObjAddr: 0x30A80, symBinAddr: 0x1004073B0, symSize: 0x10 }
  - { offsetInCU: 0x2E400D, offset: 0x2E400D, size: 0x8, addend: 0x0, symName: __ZThn16_N19WithHandshakeArgs11D0Ev, symObjAddr: 0x30A90, symBinAddr: 0x1004073C0, symSize: 0x10 }
  - { offsetInCU: 0x2E4043, offset: 0x2E4043, size: 0x8, addend: 0x0, symName: __ZN7testing18WithParamInterfaceI15HandshakeArgs11ED1Ev, symObjAddr: 0x30AA0, symBinAddr: 0x100032560, symSize: 0x10 }
  - { offsetInCU: 0x2E406C, offset: 0x2E406C, size: 0x8, addend: 0x0, symName: __ZN7testing18WithParamInterfaceI15HandshakeArgs11ED0Ev, symObjAddr: 0x30AB0, symBinAddr: 0x100032570, symSize: 0x10 }
  - { offsetInCU: 0x2E437C, offset: 0x2E437C, size: 0x8, addend: 0x0, symName: __ZNSt3__110shared_ptrIN7testing8internal26ParameterizedTestSuiteInfoI13WithSendArgs1E8TestInfoEEC1B8ue170006IS6_vEEPT_, symObjAddr: 0x30E90, symBinAddr: 0x100032950, symSize: 0x60 }
  - { offsetInCU: 0x2E4555, offset: 0x2E4555, size: 0x8, addend: 0x0, symName: __ZNSt3__16vectorINS_10shared_ptrIN7testing8internal26ParameterizedTestSuiteInfoI13WithSendArgs1E8TestInfoEEENS_9allocatorIS8_EEE24__emplace_back_slow_pathIJPS7_EEEvDpOT_, symObjAddr: 0x30CC0, symBinAddr: 0x100032780, symSize: 0x1D0 }
  - { offsetInCU: 0x2E50D0, offset: 0x2E50D0, size: 0x8, addend: 0x0, symName: __ZNKSt3__16vectorINS_10shared_ptrIN7testing8internal26ParameterizedTestSuiteInfoI13WithSendArgs1E8TestInfoEEENS_9allocatorIS8_EEE20__throw_length_errorB8ue170006Ev, symObjAddr: 0x31030, symBinAddr: 0x100032AF0, symSize: 0x10 }
  - { offsetInCU: 0x2E50F9, offset: 0x2E50F9, size: 0x8, addend: 0x0, symName: __ZN7testing8internal15TestMetaFactoryI23WithSendArgs1_Send_TestED1Ev, symObjAddr: 0x31040, symBinAddr: 0x100032B00, symSize: 0x10 }
  - { offsetInCU: 0x2E5104, offset: 0x2E5104, size: 0x8, addend: 0x0, symName: __ZNSt3__114__split_bufferINS_10shared_ptrIN7testing8internal26ParameterizedTestSuiteInfoI13WithSendArgs1E8TestInfoEEERNS_9allocatorIS8_EEED1Ev, symObjAddr: 0x30FB0, symBinAddr: 0x100032A70, symSize: 0x80 }
  - { offsetInCU: 0x2E5678, offset: 0x2E5678, size: 0x8, addend: 0x0, symName: __ZNSt3__110shared_ptrIN7testing8internal26ParameterizedTestSuiteInfoI13WithSendArgs1E8TestInfoEEC1B8ue170006IS6_vEEPT_.cold.1, symObjAddr: 0x82030, symBinAddr: 0x100407E60, symSize: 0x50 }
  - { offsetInCU: 0x2E59DC, offset: 0x2E59DC, size: 0x8, addend: 0x0, symName: __ZNSt3__120__shared_ptr_pointerIPN7testing8internal26ParameterizedTestSuiteInfoI13WithSendArgs1E8TestInfoENS_10shared_ptrIS6_E27__shared_ptr_default_deleteIS6_S6_EENS_9allocatorIS6_EEED1Ev, symObjAddr: 0x30EF0, symBinAddr: 0x1000329B0, symSize: 0x10 }
  - { offsetInCU: 0x2E5A34, offset: 0x2E5A34, size: 0x8, addend: 0x0, symName: __ZNSt3__120__shared_ptr_pointerIPN7testing8internal26ParameterizedTestSuiteInfoI13WithSendArgs1E8TestInfoENS_10shared_ptrIS6_E27__shared_ptr_default_deleteIS6_S6_EENS_9allocatorIS6_EEED0Ev, symObjAddr: 0x30F00, symBinAddr: 0x1000329C0, symSize: 0x20 }
  - { offsetInCU: 0x2E5B5C, offset: 0x2E5B5C, size: 0x8, addend: 0x0, symName: __ZNSt3__120__shared_ptr_pointerIPN7testing8internal26ParameterizedTestSuiteInfoI13WithSendArgs1E8TestInfoENS_10shared_ptrIS6_E27__shared_ptr_default_deleteIS6_S6_EENS_9allocatorIS6_EEE16__on_zero_sharedEv, symObjAddr: 0x30F20, symBinAddr: 0x1000329E0, symSize: 0x60 }
  - { offsetInCU: 0x2E5EE8, offset: 0x2E5EE8, size: 0x8, addend: 0x0, symName: __ZNKSt3__120__shared_ptr_pointerIPN7testing8internal26ParameterizedTestSuiteInfoI13WithSendArgs1E8TestInfoENS_10shared_ptrIS6_E27__shared_ptr_default_deleteIS6_S6_EENS_9allocatorIS6_EEE13__get_deleterERKSt9type_info, symObjAddr: 0x30F80, symBinAddr: 0x100032A40, symSize: 0x20 }
  - { offsetInCU: 0x2E5FAB, offset: 0x2E5FAB, size: 0x8, addend: 0x0, symName: __ZNSt3__120__shared_ptr_pointerIPN7testing8internal26ParameterizedTestSuiteInfoI13WithSendArgs1E8TestInfoENS_10shared_ptrIS6_E27__shared_ptr_default_deleteIS6_S6_EENS_9allocatorIS6_EEE21__on_zero_shared_weakEv, symObjAddr: 0x30FA0, symBinAddr: 0x100032A60, symSize: 0x10 }
  - { offsetInCU: 0x2E607E, offset: 0x2E607E, size: 0x8, addend: 0x0, symName: __ZN7testing8internal15TestMetaFactoryI23WithSendArgs1_Send_TestED1Ev, symObjAddr: 0x31040, symBinAddr: 0x100032B00, symSize: 0x10 }
  - { offsetInCU: 0x2E60AA, offset: 0x2E60AA, size: 0x8, addend: 0x0, symName: __ZN7testing8internal15TestMetaFactoryI23WithSendArgs1_Send_TestED0Ev, symObjAddr: 0x31050, symBinAddr: 0x100032B10, symSize: 0x10 }
  - { offsetInCU: 0x2E6142, offset: 0x2E6142, size: 0x8, addend: 0x0, symName: __ZN7testing8internal15TestMetaFactoryI23WithSendArgs1_Send_TestE17CreateTestFactoryE9SendArgs1, symObjAddr: 0x31060, symBinAddr: 0x100032B20, symSize: 0x30 }
  - { offsetInCU: 0x2E61B3, offset: 0x2E61B3, size: 0x8, addend: 0x0, symName: __ZN7testing8internal24ParameterizedTestFactoryI23WithSendArgs1_Send_TestED1Ev, symObjAddr: 0x31090, symBinAddr: 0x100032B50, symSize: 0x10 }
  - { offsetInCU: 0x2E61DF, offset: 0x2E61DF, size: 0x8, addend: 0x0, symName: __ZN7testing8internal24ParameterizedTestFactoryI23WithSendArgs1_Send_TestED0Ev, symObjAddr: 0x310A0, symBinAddr: 0x100032B60, symSize: 0x10 }
  - { offsetInCU: 0x2E6270, offset: 0x2E6270, size: 0x8, addend: 0x0, symName: __ZN7testing8internal24ParameterizedTestFactoryI23WithSendArgs1_Send_TestE10CreateTestEv, symObjAddr: 0x310B0, symBinAddr: 0x100032B70, symSize: 0x60 }
  - { offsetInCU: 0x2E630B, offset: 0x2E630B, size: 0x8, addend: 0x0, symName: __ZN13WithSendArgs1D1Ev, symObjAddr: 0x31110, symBinAddr: 0x1004073D0, symSize: 0x10 }
  - { offsetInCU: 0x2E632B, offset: 0x2E632B, size: 0x8, addend: 0x0, symName: __ZN13WithSendArgs1D0Ev, symObjAddr: 0x31120, symBinAddr: 0x1004073E0, symSize: 0x10 }
  - { offsetInCU: 0x2E6368, offset: 0x2E6368, size: 0x8, addend: 0x0, symName: __ZThn16_N13WithSendArgs1D1Ev, symObjAddr: 0x31130, symBinAddr: 0x1004073F0, symSize: 0x10 }
  - { offsetInCU: 0x2E63BB, offset: 0x2E63BB, size: 0x8, addend: 0x0, symName: __ZThn16_N13WithSendArgs1D0Ev, symObjAddr: 0x31140, symBinAddr: 0x100407400, symSize: 0x10 }
  - { offsetInCU: 0x2E63F1, offset: 0x2E63F1, size: 0x8, addend: 0x0, symName: __ZN7testing18WithParamInterfaceI9SendArgs1ED1Ev, symObjAddr: 0x31150, symBinAddr: 0x100032BD0, symSize: 0x10 }
  - { offsetInCU: 0x2E641A, offset: 0x2E641A, size: 0x8, addend: 0x0, symName: __ZN7testing18WithParamInterfaceI9SendArgs1ED0Ev, symObjAddr: 0x31160, symBinAddr: 0x100032BE0, symSize: 0x10 }
  - { offsetInCU: 0x2E672A, offset: 0x2E672A, size: 0x8, addend: 0x0, symName: __ZNSt3__110shared_ptrIN7testing8internal26ParameterizedTestSuiteInfoI13WithSendArgs2E8TestInfoEEC1B8ue170006IS6_vEEPT_, symObjAddr: 0x31540, symBinAddr: 0x100032FC0, symSize: 0x60 }
  - { offsetInCU: 0x2E6903, offset: 0x2E6903, size: 0x8, addend: 0x0, symName: __ZNSt3__16vectorINS_10shared_ptrIN7testing8internal26ParameterizedTestSuiteInfoI13WithSendArgs2E8TestInfoEEENS_9allocatorIS8_EEE24__emplace_back_slow_pathIJPS7_EEEvDpOT_, symObjAddr: 0x31370, symBinAddr: 0x100032DF0, symSize: 0x1D0 }
  - { offsetInCU: 0x2E747E, offset: 0x2E747E, size: 0x8, addend: 0x0, symName: __ZNKSt3__16vectorINS_10shared_ptrIN7testing8internal26ParameterizedTestSuiteInfoI13WithSendArgs2E8TestInfoEEENS_9allocatorIS8_EEE20__throw_length_errorB8ue170006Ev, symObjAddr: 0x316E0, symBinAddr: 0x100033160, symSize: 0x10 }
  - { offsetInCU: 0x2E74A7, offset: 0x2E74A7, size: 0x8, addend: 0x0, symName: __ZN7testing8internal15TestMetaFactoryI28WithSendArgs2_SendLarge_TestED1Ev, symObjAddr: 0x316F0, symBinAddr: 0x100033170, symSize: 0x10 }
  - { offsetInCU: 0x2E74B2, offset: 0x2E74B2, size: 0x8, addend: 0x0, symName: __ZNSt3__114__split_bufferINS_10shared_ptrIN7testing8internal26ParameterizedTestSuiteInfoI13WithSendArgs2E8TestInfoEEERNS_9allocatorIS8_EEED1Ev, symObjAddr: 0x31660, symBinAddr: 0x1000330E0, symSize: 0x80 }
  - { offsetInCU: 0x2E7A26, offset: 0x2E7A26, size: 0x8, addend: 0x0, symName: __ZNSt3__110shared_ptrIN7testing8internal26ParameterizedTestSuiteInfoI13WithSendArgs2E8TestInfoEEC1B8ue170006IS6_vEEPT_.cold.1, symObjAddr: 0x82080, symBinAddr: 0x100407EB0, symSize: 0x50 }
  - { offsetInCU: 0x2E7D8A, offset: 0x2E7D8A, size: 0x8, addend: 0x0, symName: __ZNSt3__120__shared_ptr_pointerIPN7testing8internal26ParameterizedTestSuiteInfoI13WithSendArgs2E8TestInfoENS_10shared_ptrIS6_E27__shared_ptr_default_deleteIS6_S6_EENS_9allocatorIS6_EEED1Ev, symObjAddr: 0x315A0, symBinAddr: 0x100033020, symSize: 0x10 }
  - { offsetInCU: 0x2E7DE2, offset: 0x2E7DE2, size: 0x8, addend: 0x0, symName: __ZNSt3__120__shared_ptr_pointerIPN7testing8internal26ParameterizedTestSuiteInfoI13WithSendArgs2E8TestInfoENS_10shared_ptrIS6_E27__shared_ptr_default_deleteIS6_S6_EENS_9allocatorIS6_EEED0Ev, symObjAddr: 0x315B0, symBinAddr: 0x100033030, symSize: 0x20 }
  - { offsetInCU: 0x2E7F0A, offset: 0x2E7F0A, size: 0x8, addend: 0x0, symName: __ZNSt3__120__shared_ptr_pointerIPN7testing8internal26ParameterizedTestSuiteInfoI13WithSendArgs2E8TestInfoENS_10shared_ptrIS6_E27__shared_ptr_default_deleteIS6_S6_EENS_9allocatorIS6_EEE16__on_zero_sharedEv, symObjAddr: 0x315D0, symBinAddr: 0x100033050, symSize: 0x60 }
  - { offsetInCU: 0x2E8296, offset: 0x2E8296, size: 0x8, addend: 0x0, symName: __ZNKSt3__120__shared_ptr_pointerIPN7testing8internal26ParameterizedTestSuiteInfoI13WithSendArgs2E8TestInfoENS_10shared_ptrIS6_E27__shared_ptr_default_deleteIS6_S6_EENS_9allocatorIS6_EEE13__get_deleterERKSt9type_info, symObjAddr: 0x31630, symBinAddr: 0x1000330B0, symSize: 0x20 }
  - { offsetInCU: 0x2E8359, offset: 0x2E8359, size: 0x8, addend: 0x0, symName: __ZNSt3__120__shared_ptr_pointerIPN7testing8internal26ParameterizedTestSuiteInfoI13WithSendArgs2E8TestInfoENS_10shared_ptrIS6_E27__shared_ptr_default_deleteIS6_S6_EENS_9allocatorIS6_EEE21__on_zero_shared_weakEv, symObjAddr: 0x31650, symBinAddr: 0x1000330D0, symSize: 0x10 }
  - { offsetInCU: 0x2E842C, offset: 0x2E842C, size: 0x8, addend: 0x0, symName: __ZN7testing8internal15TestMetaFactoryI28WithSendArgs2_SendLarge_TestED1Ev, symObjAddr: 0x316F0, symBinAddr: 0x100033170, symSize: 0x10 }
  - { offsetInCU: 0x2E8458, offset: 0x2E8458, size: 0x8, addend: 0x0, symName: __ZN7testing8internal15TestMetaFactoryI28WithSendArgs2_SendLarge_TestED0Ev, symObjAddr: 0x31700, symBinAddr: 0x100033180, symSize: 0x10 }
  - { offsetInCU: 0x2E84F0, offset: 0x2E84F0, size: 0x8, addend: 0x0, symName: __ZN7testing8internal15TestMetaFactoryI28WithSendArgs2_SendLarge_TestE17CreateTestFactoryE9SendArgs2, symObjAddr: 0x31710, symBinAddr: 0x100033190, symSize: 0x30 }
  - { offsetInCU: 0x2E856F, offset: 0x2E856F, size: 0x8, addend: 0x0, symName: __ZN7testing8internal24ParameterizedTestFactoryI28WithSendArgs2_SendLarge_TestED1Ev, symObjAddr: 0x31740, symBinAddr: 0x1000331C0, symSize: 0x10 }
  - { offsetInCU: 0x2E859B, offset: 0x2E859B, size: 0x8, addend: 0x0, symName: __ZN7testing8internal24ParameterizedTestFactoryI28WithSendArgs2_SendLarge_TestED0Ev, symObjAddr: 0x31750, symBinAddr: 0x1000331D0, symSize: 0x10 }
  - { offsetInCU: 0x2E862C, offset: 0x2E862C, size: 0x8, addend: 0x0, symName: __ZN7testing8internal24ParameterizedTestFactoryI28WithSendArgs2_SendLarge_TestE10CreateTestEv, symObjAddr: 0x31760, symBinAddr: 0x1000331E0, symSize: 0x60 }
  - { offsetInCU: 0x2E86C7, offset: 0x2E86C7, size: 0x8, addend: 0x0, symName: __ZN13WithSendArgs2D1Ev, symObjAddr: 0x317C0, symBinAddr: 0x100407410, symSize: 0x10 }
  - { offsetInCU: 0x2E86E7, offset: 0x2E86E7, size: 0x8, addend: 0x0, symName: __ZN13WithSendArgs2D0Ev, symObjAddr: 0x317D0, symBinAddr: 0x100407420, symSize: 0x10 }
  - { offsetInCU: 0x2E8724, offset: 0x2E8724, size: 0x8, addend: 0x0, symName: __ZThn16_N13WithSendArgs2D1Ev, symObjAddr: 0x317E0, symBinAddr: 0x100407430, symSize: 0x10 }
  - { offsetInCU: 0x2E8777, offset: 0x2E8777, size: 0x8, addend: 0x0, symName: __ZThn16_N13WithSendArgs2D0Ev, symObjAddr: 0x317F0, symBinAddr: 0x100407440, symSize: 0x10 }
  - { offsetInCU: 0x2E87AD, offset: 0x2E87AD, size: 0x8, addend: 0x0, symName: __ZN7testing18WithParamInterfaceI9SendArgs2ED1Ev, symObjAddr: 0x31800, symBinAddr: 0x100033240, symSize: 0x10 }
  - { offsetInCU: 0x2E87D6, offset: 0x2E87D6, size: 0x8, addend: 0x0, symName: __ZN7testing18WithParamInterfaceI9SendArgs2ED0Ev, symObjAddr: 0x31810, symBinAddr: 0x100033250, symSize: 0x10 }
  - { offsetInCU: 0x2E8AE6, offset: 0x2E8AE6, size: 0x8, addend: 0x0, symName: __ZNSt3__110shared_ptrIN7testing8internal26ParameterizedTestSuiteInfoI13WithSendArgs3E8TestInfoEEC1B8ue170006IS6_vEEPT_, symObjAddr: 0x31BF0, symBinAddr: 0x100033630, symSize: 0x60 }
  - { offsetInCU: 0x2E8CBF, offset: 0x2E8CBF, size: 0x8, addend: 0x0, symName: __ZNSt3__16vectorINS_10shared_ptrIN7testing8internal26ParameterizedTestSuiteInfoI13WithSendArgs3E8TestInfoEEENS_9allocatorIS8_EEE24__emplace_back_slow_pathIJPS7_EEEvDpOT_, symObjAddr: 0x31A20, symBinAddr: 0x100033460, symSize: 0x1D0 }
  - { offsetInCU: 0x2E983A, offset: 0x2E983A, size: 0x8, addend: 0x0, symName: __ZNKSt3__16vectorINS_10shared_ptrIN7testing8internal26ParameterizedTestSuiteInfoI13WithSendArgs3E8TestInfoEEENS_9allocatorIS8_EEE20__throw_length_errorB8ue170006Ev, symObjAddr: 0x31D90, symBinAddr: 0x1000337D0, symSize: 0x10 }
  - { offsetInCU: 0x2E9863, offset: 0x2E9863, size: 0x8, addend: 0x0, symName: __ZN7testing8internal15TestMetaFactoryI37WithSendArgs3_SendIntermittently_TestED1Ev, symObjAddr: 0x31DA0, symBinAddr: 0x1000337E0, symSize: 0x10 }
  - { offsetInCU: 0x2E986E, offset: 0x2E986E, size: 0x8, addend: 0x0, symName: __ZNSt3__114__split_bufferINS_10shared_ptrIN7testing8internal26ParameterizedTestSuiteInfoI13WithSendArgs3E8TestInfoEEERNS_9allocatorIS8_EEED1Ev, symObjAddr: 0x31D10, symBinAddr: 0x100033750, symSize: 0x80 }
  - { offsetInCU: 0x2E9DE2, offset: 0x2E9DE2, size: 0x8, addend: 0x0, symName: __ZNSt3__110shared_ptrIN7testing8internal26ParameterizedTestSuiteInfoI13WithSendArgs3E8TestInfoEEC1B8ue170006IS6_vEEPT_.cold.1, symObjAddr: 0x820D0, symBinAddr: 0x100407F00, symSize: 0x50 }
  - { offsetInCU: 0x2EA146, offset: 0x2EA146, size: 0x8, addend: 0x0, symName: __ZNSt3__120__shared_ptr_pointerIPN7testing8internal26ParameterizedTestSuiteInfoI13WithSendArgs3E8TestInfoENS_10shared_ptrIS6_E27__shared_ptr_default_deleteIS6_S6_EENS_9allocatorIS6_EEED1Ev, symObjAddr: 0x31C50, symBinAddr: 0x100033690, symSize: 0x10 }
  - { offsetInCU: 0x2EA19E, offset: 0x2EA19E, size: 0x8, addend: 0x0, symName: __ZNSt3__120__shared_ptr_pointerIPN7testing8internal26ParameterizedTestSuiteInfoI13WithSendArgs3E8TestInfoENS_10shared_ptrIS6_E27__shared_ptr_default_deleteIS6_S6_EENS_9allocatorIS6_EEED0Ev, symObjAddr: 0x31C60, symBinAddr: 0x1000336A0, symSize: 0x20 }
  - { offsetInCU: 0x2EA2C6, offset: 0x2EA2C6, size: 0x8, addend: 0x0, symName: __ZNSt3__120__shared_ptr_pointerIPN7testing8internal26ParameterizedTestSuiteInfoI13WithSendArgs3E8TestInfoENS_10shared_ptrIS6_E27__shared_ptr_default_deleteIS6_S6_EENS_9allocatorIS6_EEE16__on_zero_sharedEv, symObjAddr: 0x31C80, symBinAddr: 0x1000336C0, symSize: 0x60 }
  - { offsetInCU: 0x2EA652, offset: 0x2EA652, size: 0x8, addend: 0x0, symName: __ZNKSt3__120__shared_ptr_pointerIPN7testing8internal26ParameterizedTestSuiteInfoI13WithSendArgs3E8TestInfoENS_10shared_ptrIS6_E27__shared_ptr_default_deleteIS6_S6_EENS_9allocatorIS6_EEE13__get_deleterERKSt9type_info, symObjAddr: 0x31CE0, symBinAddr: 0x100033720, symSize: 0x20 }
  - { offsetInCU: 0x2EA715, offset: 0x2EA715, size: 0x8, addend: 0x0, symName: __ZNSt3__120__shared_ptr_pointerIPN7testing8internal26ParameterizedTestSuiteInfoI13WithSendArgs3E8TestInfoENS_10shared_ptrIS6_E27__shared_ptr_default_deleteIS6_S6_EENS_9allocatorIS6_EEE21__on_zero_shared_weakEv, symObjAddr: 0x31D00, symBinAddr: 0x100033740, symSize: 0x10 }
  - { offsetInCU: 0x2EA7E8, offset: 0x2EA7E8, size: 0x8, addend: 0x0, symName: __ZN7testing8internal15TestMetaFactoryI37WithSendArgs3_SendIntermittently_TestED1Ev, symObjAddr: 0x31DA0, symBinAddr: 0x1000337E0, symSize: 0x10 }
  - { offsetInCU: 0x2EA814, offset: 0x2EA814, size: 0x8, addend: 0x0, symName: __ZN7testing8internal15TestMetaFactoryI37WithSendArgs3_SendIntermittently_TestED0Ev, symObjAddr: 0x31DB0, symBinAddr: 0x1000337F0, symSize: 0x10 }
  - { offsetInCU: 0x2EA8AC, offset: 0x2EA8AC, size: 0x8, addend: 0x0, symName: __ZN7testing8internal15TestMetaFactoryI37WithSendArgs3_SendIntermittently_TestE17CreateTestFactoryE9SendArgs3, symObjAddr: 0x31DC0, symBinAddr: 0x100033800, symSize: 0x30 }
  - { offsetInCU: 0x2EA91D, offset: 0x2EA91D, size: 0x8, addend: 0x0, symName: __ZN7testing8internal24ParameterizedTestFactoryI37WithSendArgs3_SendIntermittently_TestED1Ev, symObjAddr: 0x31DF0, symBinAddr: 0x100033830, symSize: 0x10 }
