---
triple:          'x86_64-apple-darwin'
binary-path:     '/Users/victor/Documents/teste/quic_jr/msquic/artifacts/bin/macos/x64_Debug_openssl3/msquiccoretest'
relocations:
  - { offsetInCU: 0x26, offset: 0x26, size: 0x8, addend: 0x0, symName: _main, symObjAddr: 0x0, symBinAddr: 0x100002000, symSize: 0x60 }
  - { offsetInCU: 0xB585, offset: 0xB585, size: 0x8, addend: 0x0, symName: _main, symObjAddr: 0x0, symBinAddr: 0x100002000, symSize: 0x60 }
  - { offsetInCU: 0xB64C, offset: 0xB64C, size: 0x8, addend: 0x0, symName: __ZN23QuicCoreTestEnvironmentD1Ev, symObjAddr: 0x60, symBinAddr: 0x100002060, symSize: 0x10 }
  - { offsetInCU: 0xB677, offset: 0xB677, size: 0x8, addend: 0x0, symName: __ZN23QuicCoreTestEnvironmentD0Ev, symObjAddr: 0x70, symBinAddr: 0x100002070, symSize: 0x10 }
  - { offsetInCU: 0xBAB4, offset: 0xBAB4, size: 0x8, addend: 0x0, symName: __ZN23QuicCoreTestEnvironment5SetUpEv, symObjAddr: 0x80, symBinAddr: 0x100002080, symSize: 0x140 }
  - { offsetInCU: 0xC2E5, offset: 0xC2E5, size: 0x8, addend: 0x0, symName: __ZN7testing15AssertionResultD1Ev, symObjAddr: 0x1F0, symBinAddr: 0x1000021F0, symSize: 0x3A }
  - { offsetInCU: 0xC4F2, offset: 0xC4F2, size: 0x8, addend: 0x0, symName: __ZN23QuicCoreTestEnvironment8TearDownEv, symObjAddr: 0x1C0, symBinAddr: 0x1000021C0, symSize: 0x20 }
  - { offsetInCU: 0xC545, offset: 0xC545, size: 0x8, addend: 0x0, symName: __ZN7testing11Environment5SetupEv, symObjAddr: 0x1E0, symBinAddr: 0x1000021E0, symSize: 0x10 }
  - { offsetInCU: 0x3A, offset: 0xC5A3, size: 0x8, addend: 0x0, symName: __ZN38AckFrameTest_AckFrameEncodeDecode_Test24gtest_registering_dummy_E, symObjAddr: 0x754708, symBinAddr: 0x1004FC710, symSize: 0x0 }
  - { offsetInCU: 0x533, offset: 0xCA9C, size: 0x8, addend: 0x0, symName: __ZN7testing8internal12TypeIdHelperI12AckFrameTestE6dummy_E, symObjAddr: 0x4D6A8, symBinAddr: 0x1004F68F0, symSize: 0x0 }
  - { offsetInCU: 0x568, offset: 0xCAD1, size: 0x8, addend: 0x0, symName: __ZN7testing8internal12TypeIdHelperI20ResetStreamFrameTestE6dummy_E, symObjAddr: 0x4D6A9, symBinAddr: 0x1004F68F1, symSize: 0x0 }
  - { offsetInCU: 0x59D, offset: 0xCB06, size: 0x8, addend: 0x0, symName: __ZN7testing8internal12TypeIdHelperI20StopSendingFrameTestE6dummy_E, symObjAddr: 0x4D6AA, symBinAddr: 0x1004F68F2, symSize: 0x0 }
  - { offsetInCU: 0x5D2, offset: 0xCB3B, size: 0x8, addend: 0x0, symName: __ZN7testing8internal12TypeIdHelperI15CryptoFrameTestE6dummy_E, symObjAddr: 0x4D6AB, symBinAddr: 0x1004F68F3, symSize: 0x0 }
  - { offsetInCU: 0x607, offset: 0xCB70, size: 0x8, addend: 0x0, symName: __ZN7testing8internal12TypeIdHelperI17NewTokenFrameTestE6dummy_E, symObjAddr: 0x4D6AC, symBinAddr: 0x1004F68F4, symSize: 0x0 }
  - { offsetInCU: 0x63C, offset: 0xCBA5, size: 0x8, addend: 0x0, symName: __ZN7testing8internal12TypeIdHelperI15StreamFrameTestE6dummy_E, symObjAddr: 0x4D6AD, symBinAddr: 0x1004F68F5, symSize: 0x0 }
  - { offsetInCU: 0x671, offset: 0xCBDA, size: 0x8, addend: 0x0, symName: __ZN7testing8internal12TypeIdHelperI16MaxDataFrameTestE6dummy_E, symObjAddr: 0x4D6AE, symBinAddr: 0x1004F68F6, symSize: 0x0 }
  - { offsetInCU: 0x6A6, offset: 0xCC0F, size: 0x8, addend: 0x0, symName: __ZN7testing8internal12TypeIdHelperI22MaxStreamDataFrameTestE6dummy_E, symObjAddr: 0x4D6AF, symBinAddr: 0x1004F68F7, symSize: 0x0 }
  - { offsetInCU: 0x6DB, offset: 0xCC44, size: 0x8, addend: 0x0, symName: __ZN7testing8internal12TypeIdHelperI19MaxStreamsFrameTestE6dummy_E, symObjAddr: 0x4D6B0, symBinAddr: 0x1004F68F8, symSize: 0x0 }
  - { offsetInCU: 0x710, offset: 0xCC79, size: 0x8, addend: 0x0, symName: __ZN7testing8internal12TypeIdHelperI20DataBlockedFrameTestE6dummy_E, symObjAddr: 0x4D6B1, symBinAddr: 0x1004F68F9, symSize: 0x0 }
  - { offsetInCU: 0x745, offset: 0xCCAE, size: 0x8, addend: 0x0, symName: __ZN7testing8internal12TypeIdHelperI26StreamDataBlockedFrameTestE6dummy_E, symObjAddr: 0x4D6B2, symBinAddr: 0x1004F68FA, symSize: 0x0 }
  - { offsetInCU: 0x77A, offset: 0xCCE3, size: 0x8, addend: 0x0, symName: __ZN7testing8internal12TypeIdHelperI23StreamsBlockedFrameTestE6dummy_E, symObjAddr: 0x4D6B3, symBinAddr: 0x1004F68FB, symSize: 0x0 }
  - { offsetInCU: 0x7AF, offset: 0xCD18, size: 0x8, addend: 0x0, symName: __ZN7testing8internal12TypeIdHelperI24NewConnectionIdFrameTestE6dummy_E, symObjAddr: 0x4D6B4, symBinAddr: 0x1004F68FC, symSize: 0x0 }
  - { offsetInCU: 0x7E4, offset: 0xCD4D, size: 0x8, addend: 0x0, symName: __ZN7testing8internal12TypeIdHelperI27RetireConnectionIdFrameTestE6dummy_E, symObjAddr: 0x4D6B5, symBinAddr: 0x1004F68FD, symSize: 0x0 }
  - { offsetInCU: 0x819, offset: 0xCD82, size: 0x8, addend: 0x0, symName: __ZN7testing8internal12TypeIdHelperI30PathChallengeResponseFrameTestE6dummy_E, symObjAddr: 0x4D6B6, symBinAddr: 0x1004F68FE, symSize: 0x0 }
  - { offsetInCU: 0x84E, offset: 0xCDB7, size: 0x8, addend: 0x0, symName: __ZN7testing8internal12TypeIdHelperI24ConnectionCloseFrameTestE6dummy_E, symObjAddr: 0x4D6B7, symBinAddr: 0x1004F68FF, symSize: 0x0 }
  - { offsetInCU: 0x883, offset: 0xCDEC, size: 0x8, addend: 0x0, symName: __ZN7testing8internal12TypeIdHelperI30ConnectionCloseFrameDecodeTestE6dummy_E, symObjAddr: 0x4D6B8, symBinAddr: 0x1004F6900, symSize: 0x0 }
  - { offsetInCU: 0x7F88, offset: 0x144F1, size: 0x8, addend: 0x0, symName: __ZN7testing8internal18CmpHelperEQFailureIh15QUIC_FRAME_TYPEEENS_15AssertionResultEPKcS5_RKT_RKT0_, symObjAddr: 0x22570, symBinAddr: 0x100023FE0, symSize: 0xC0 }
  - { offsetInCU: 0x85CA, offset: 0x14B33, size: 0x8, addend: 0x0, symName: __ZN7testing8internal18CmpHelperEQFailureIyyEENS_15AssertionResultEPKcS4_RKT_RKT0_, symObjAddr: 0x22720, symBinAddr: 0x100024190, symSize: 0xC0 }
  - { offsetInCU: 0x8C0C, offset: 0x15175, size: 0x8, addend: 0x0, symName: __ZN7testing8internal18CmpHelperEQFailureIjjEENS_15AssertionResultEPKcS4_RKT_RKT0_, symObjAddr: 0x228D0, symBinAddr: 0x100024340, symSize: 0xC0 }
  - { offsetInCU: 0x92B8, offset: 0x15821, size: 0x8, addend: 0x0, symName: __ZN7testing8internal18CmpHelperEQFailureIyiEENS_15AssertionResultEPKcS4_RKT_RKT0_, symObjAddr: 0x22A80, symBinAddr: 0x1000244F0, symSize: 0xC0 }
  - { offsetInCU: 0x999C, offset: 0x15F05, size: 0x8, addend: 0x0, symName: __ZN7testing8internal27CheckedDowncastToActualTypeINS0_26ParameterizedTestSuiteInfoI12AckFrameTestEENS0_30ParameterizedTestSuiteInfoBaseEEEPT_PT0_, symObjAddr: 0x20110, symBinAddr: 0x100021B80, symSize: 0xA0 }
  - { offsetInCU: 0x9A49, offset: 0x15FB2, size: 0x8, addend: 0x0, symName: __ZN7testing8internal5posix5AbortEv, symObjAddr: 0x20100, symBinAddr: 0x100021B70, symSize: 0x10 }
  - { offsetInCU: 0x9D74, offset: 0x162DD, size: 0x8, addend: 0x0, symName: __ZN7testing8internal27CheckedDowncastToActualTypeINS0_26ParameterizedTestSuiteInfoI20ResetStreamFrameTestEENS0_30ParameterizedTestSuiteInfoBaseEEEPT_PT0_, symObjAddr: 0x22E70, symBinAddr: 0x1000248E0, symSize: 0xA0 }
  - { offsetInCU: 0x9ECF, offset: 0x16438, size: 0x8, addend: 0x0, symName: __ZN7testing8internal27CheckedDowncastToActualTypeINS0_26ParameterizedTestSuiteInfoI20StopSendingFrameTestEENS0_30ParameterizedTestSuiteInfoBaseEEEPT_PT0_, symObjAddr: 0x244D0, symBinAddr: 0x100025F40, symSize: 0xA0 }
  - { offsetInCU: 0x9FDC, offset: 0x16545, size: 0x8, addend: 0x0, symName: __ZN7testing8internal18CmpHelperEQFailureIiiEENS_15AssertionResultEPKcS4_RKT_RKT0_, symObjAddr: 0x25B30, symBinAddr: 0x1000275A0, symSize: 0xC0 }
  - { offsetInCU: 0xA6C0, offset: 0x16C29, size: 0x8, addend: 0x0, symName: __ZN7testing8internal27CheckedDowncastToActualTypeINS0_26ParameterizedTestSuiteInfoI15CryptoFrameTestEENS0_30ParameterizedTestSuiteInfoBaseEEEPT_PT0_, symObjAddr: 0x25BF0, symBinAddr: 0x100027660, symSize: 0xA0 }
  - { offsetInCU: 0xA81B, offset: 0x16D84, size: 0x8, addend: 0x0, symName: __ZN7testing8internal27CheckedDowncastToActualTypeINS0_26ParameterizedTestSuiteInfoI17NewTokenFrameTestEENS0_30ParameterizedTestSuiteInfoBaseEEEPT_PT0_, symObjAddr: 0x27240, symBinAddr: 0x100028CB0, symSize: 0xA0 }
  - { offsetInCU: 0xAA72, offset: 0x16FDB, size: 0x8, addend: 0x0, symName: __ZN7testing8internal18CmpHelperEQFailureI15QUIC_FRAME_TYPEhEENS_15AssertionResultEPKcS5_RKT_RKT0_, symObjAddr: 0x29BB0, symBinAddr: 0x10002B620, symSize: 0xC0 }
  - { offsetInCU: 0xB0B4, offset: 0x1761D, size: 0x8, addend: 0x0, symName: __ZN7testing8internal18CmpHelperEQFailureIhhEENS_15AssertionResultEPKcS4_RKT_RKT0_, symObjAddr: 0x29C70, symBinAddr: 0x10002B6E0, symSize: 0xC0 }
  - { offsetInCU: 0xB6F6, offset: 0x17C5F, size: 0x8, addend: 0x0, symName: __ZN7testing8internal18CmpHelperEQFailureIPKhPhEENS_15AssertionResultEPKcS7_RKT_RKT0_, symObjAddr: 0x29D30, symBinAddr: 0x10002B7A0, symSize: 0xC0 }
  - { offsetInCU: 0xBDF8, offset: 0x18361, size: 0x8, addend: 0x0, symName: __ZN7testing8internal27CheckedDowncastToActualTypeINS0_26ParameterizedTestSuiteInfoI15StreamFrameTestEENS0_30ParameterizedTestSuiteInfoBaseEEEPT_PT0_, symObjAddr: 0x288A0, symBinAddr: 0x10002A310, symSize: 0xA0 }
  - { offsetInCU: 0xC56C, offset: 0x18AD5, size: 0x8, addend: 0x0, symName: __ZN7testing8internal27CheckedDowncastToActualTypeINS0_26ParameterizedTestSuiteInfoI16MaxDataFrameTestEENS0_30ParameterizedTestSuiteInfoBaseEEEPT_PT0_, symObjAddr: 0x2A230, symBinAddr: 0x10002BCA0, symSize: 0xA0 }
  - { offsetInCU: 0xC6C7, offset: 0x18C30, size: 0x8, addend: 0x0, symName: __ZN7testing8internal27CheckedDowncastToActualTypeINS0_26ParameterizedTestSuiteInfoI22MaxStreamDataFrameTestEENS0_30ParameterizedTestSuiteInfoBaseEEEPT_PT0_, symObjAddr: 0x2B870, symBinAddr: 0x10002D2E0, symSize: 0xA0 }
  - { offsetInCU: 0xC8C4, offset: 0x18E2D, size: 0x8, addend: 0x0, symName: __ZN7testing8internal27CheckedDowncastToActualTypeINS0_26ParameterizedTestSuiteInfoI19MaxStreamsFrameTestEENS0_30ParameterizedTestSuiteInfoBaseEEEPT_PT0_, symObjAddr: 0x2CED0, symBinAddr: 0x10002E940, symSize: 0xA0 }
  - { offsetInCU: 0xCBE2, offset: 0x1914B, size: 0x8, addend: 0x0, symName: __ZN7testing8internal27CheckedDowncastToActualTypeINS0_26ParameterizedTestSuiteInfoI20DataBlockedFrameTestEENS0_30ParameterizedTestSuiteInfoBaseEEEPT_PT0_, symObjAddr: 0x2E530, symBinAddr: 0x10002FFA0, symSize: 0xA0 }
  - { offsetInCU: 0xCD3D, offset: 0x192A6, size: 0x8, addend: 0x0, symName: __ZN7testing8internal27CheckedDowncastToActualTypeINS0_26ParameterizedTestSuiteInfoI26StreamDataBlockedFrameTestEENS0_30ParameterizedTestSuiteInfoBaseEEEPT_PT0_, symObjAddr: 0x2FB70, symBinAddr: 0x1000315E0, symSize: 0xA0 }
  - { offsetInCU: 0xCF3A, offset: 0x194A3, size: 0x8, addend: 0x0, symName: __ZN7testing8internal27CheckedDowncastToActualTypeINS0_26ParameterizedTestSuiteInfoI23StreamsBlockedFrameTestEENS0_30ParameterizedTestSuiteInfoBaseEEEPT_PT0_, symObjAddr: 0x311D0, symBinAddr: 0x100032C40, symSize: 0xA0 }
  - { offsetInCU: 0xD06E, offset: 0x195D7, size: 0x8, addend: 0x0, symName: __ZN7testing8internal27CheckedDowncastToActualTypeINS0_26ParameterizedTestSuiteInfoI24NewConnectionIdFrameTestEENS0_30ParameterizedTestSuiteInfoBaseEEEPT_PT0_, symObjAddr: 0x32720, symBinAddr: 0x100034190, symSize: 0xA0 }
  - { offsetInCU: 0xD1C9, offset: 0x19732, size: 0x8, addend: 0x0, symName: __ZN7testing8internal27CheckedDowncastToActualTypeINS0_26ParameterizedTestSuiteInfoI27RetireConnectionIdFrameTestEENS0_30ParameterizedTestSuiteInfoBaseEEEPT_PT0_, symObjAddr: 0x33E30, symBinAddr: 0x1000358A0, symSize: 0xA0 }
  - { offsetInCU: 0xD3C6, offset: 0x1992F, size: 0x8, addend: 0x0, symName: __ZN7testing8internal27CheckedDowncastToActualTypeINS0_26ParameterizedTestSuiteInfoI30PathChallengeResponseFrameTestEENS0_30ParameterizedTestSuiteInfoBaseEEEPT_PT0_, symObjAddr: 0x35470, symBinAddr: 0x100036EE0, symSize: 0xA0 }
  - { offsetInCU: 0xD4FA, offset: 0x19A63, size: 0x8, addend: 0x0, symName: __ZN7testing8internal27CheckedDowncastToActualTypeINS0_26ParameterizedTestSuiteInfoI24ConnectionCloseFrameTestEENS0_30ParameterizedTestSuiteInfoBaseEEEPT_PT0_, symObjAddr: 0x369C0, symBinAddr: 0x100038430, symSize: 0xA0 }
  - { offsetInCU: 0xD62E, offset: 0x19B97, size: 0x8, addend: 0x0, symName: __ZN7testing8internal27CheckedDowncastToActualTypeINS0_26ParameterizedTestSuiteInfoI30ConnectionCloseFrameDecodeTestEENS0_30ParameterizedTestSuiteInfoBaseEEEPT_PT0_, symObjAddr: 0x37F10, symBinAddr: 0x100039980, symSize: 0xA0 }
  - { offsetInCU: 0xD845, offset: 0x19DAE, size: 0x8, addend: 0x0, symName: __ZN7testing8internal27CheckedDowncastToActualTypeIKNS0_30ValuesInIteratorRangeGeneratorI15QUIC_FRAME_TYPEE8IteratorEKNS0_22ParamIteratorInterfaceIS3_EEEEPT_PT0_, symObjAddr: 0x11BC0, symBinAddr: 0x100013D30, symSize: 0xA0 }
  - { offsetInCU: 0xDBB9, offset: 0x1A122, size: 0x8, addend: 0x0, symName: __ZN7testing8internal27CheckedDowncastToActualTypeIKNS0_30ValuesInIteratorRangeGeneratorI22ResetStreamFrameParamsE8IteratorEKNS0_22ParamIteratorInterfaceIS3_EEEEPT_PT0_, symObjAddr: 0x13680, symBinAddr: 0x100015770, symSize: 0xA0 }
  - { offsetInCU: 0xDD59, offset: 0x1A2C2, size: 0x8, addend: 0x0, symName: __ZN7testing8internal27CheckedDowncastToActualTypeIKNS0_30ValuesInIteratorRangeGeneratorI22StopSendingFrameParamsE8IteratorEKNS0_22ParamIteratorInterfaceIS3_EEEEPT_PT0_, symObjAddr: 0x14620, symBinAddr: 0x100016690, symSize: 0xA0 }
  - { offsetInCU: 0xDEF9, offset: 0x1A462, size: 0x8, addend: 0x0, symName: __ZN7testing8internal27CheckedDowncastToActualTypeIKNS0_30ValuesInIteratorRangeGeneratorI17CryptoFrameParamsE8IteratorEKNS0_22ParamIteratorInterfaceIS3_EEEEPT_PT0_, symObjAddr: 0x155D0, symBinAddr: 0x1000175C0, symSize: 0xA0 }
  - { offsetInCU: 0xE099, offset: 0x1A602, size: 0x8, addend: 0x0, symName: __ZN7testing8internal27CheckedDowncastToActualTypeIKNS0_30ValuesInIteratorRangeGeneratorI19NewTokenFrameParamsE8IteratorEKNS0_22ParamIteratorInterfaceIS3_EEEEPT_PT0_, symObjAddr: 0x164F0, symBinAddr: 0x100018460, symSize: 0xA0 }
  - { offsetInCU: 0xE397, offset: 0x1A900, size: 0x8, addend: 0x0, symName: __ZN7testing8internal27CheckedDowncastToActualTypeIKNS0_30ValuesInIteratorRangeGeneratorI18MaxDataFrameParamsE8IteratorEKNS0_22ParamIteratorInterfaceIS3_EEEEPT_PT0_, symObjAddr: 0x17B00, symBinAddr: 0x1000199B0, symSize: 0xA0 }
  - { offsetInCU: 0xE537, offset: 0x1AAA0, size: 0x8, addend: 0x0, symName: __ZN7testing8internal27CheckedDowncastToActualTypeIKNS0_30ValuesInIteratorRangeGeneratorI24MaxStreamDataFrameParamsE8IteratorEKNS0_22ParamIteratorInterfaceIS3_EEEEPT_PT0_, symObjAddr: 0x18AA0, symBinAddr: 0x10001A8D0, symSize: 0xA0 }
  - { offsetInCU: 0xE727, offset: 0x1AC90, size: 0x8, addend: 0x0, symName: __ZN7testing8internal27CheckedDowncastToActualTypeIKNS0_30ValuesInIteratorRangeGeneratorIbE8IteratorEKNS0_22ParamIteratorInterfaceIbEEEEPT_PT0_, symObjAddr: 0x19A30, symBinAddr: 0x10001B7E0, symSize: 0xA0 }
  - { offsetInCU: 0xE8C7, offset: 0x1AE30, size: 0x8, addend: 0x0, symName: __ZN7testing8internal27CheckedDowncastToActualTypeIKNS0_30ValuesInIteratorRangeGeneratorI22DataBlockedFrameParamsE8IteratorEKNS0_22ParamIteratorInterfaceIS3_EEEEPT_PT0_, symObjAddr: 0x1A8E0, symBinAddr: 0x10001C610, symSize: 0xA0 }
  - { offsetInCU: 0xEA67, offset: 0x1AFD0, size: 0x8, addend: 0x0, symName: __ZN7testing8internal27CheckedDowncastToActualTypeIKNS0_30ValuesInIteratorRangeGeneratorI28StreamDataBlockedFrameParamsE8IteratorEKNS0_22ParamIteratorInterfaceIS3_EEEEPT_PT0_, symObjAddr: 0x1B880, symBinAddr: 0x10001D530, symSize: 0xA0 }
  - { offsetInCU: 0xED65, offset: 0x1B2CE, size: 0x8, addend: 0x0, symName: __ZN7testing8internal27CheckedDowncastToActualTypeIKNS0_30ValuesInIteratorRangeGeneratorI26NewConnectionIdFrameParamsE8IteratorEKNS0_22ParamIteratorInterfaceIS3_EEEEPT_PT0_, symObjAddr: 0x1D1C0, symBinAddr: 0x10001EDB0, symSize: 0xA0 }
  - { offsetInCU: 0xEF05, offset: 0x1B46E, size: 0x8, addend: 0x0, symName: __ZN7testing8internal27CheckedDowncastToActualTypeIKNS0_30ValuesInIteratorRangeGeneratorI29RetireConnectionIdFrameParamsE8IteratorEKNS0_22ParamIteratorInterfaceIS3_EEEEPT_PT0_, symObjAddr: 0x1E070, symBinAddr: 0x10001FBE0, symSize: 0xA0 }
  - { offsetInCU: 0xF253, offset: 0x1B7BC, size: 0x8, addend: 0x0, symName: __ZN7testing8internal27CheckedDowncastToActualTypeIKNS0_30ValuesInIteratorRangeGeneratorI26ConnectionCloseFrameParamsE8IteratorEKNS0_22ParamIteratorInterfaceIS3_EEEEPT_PT0_, symObjAddr: 0x1FFE0, symBinAddr: 0x100021A50, symSize: 0xA0 }
  - { offsetInCU: 0x11F62, offset: 0x1E4CB, size: 0x8, addend: 0x0, symName: __ZN7testing18WithParamInterfaceI15QUIC_FRAME_TYPEE10parameter_E, symObjAddr: 0x4D640, symBinAddr: 0x1004F6888, symSize: 0x0 }
  - { offsetInCU: 0x11F7A, offset: 0x1E4E3, size: 0x8, addend: 0x0, symName: __ZN7testing18WithParamInterfaceI22ResetStreamFrameParamsE10parameter_E, symObjAddr: 0x4D648, symBinAddr: 0x1004F6890, symSize: 0x0 }
  - { offsetInCU: 0x11F92, offset: 0x1E4FB, size: 0x8, addend: 0x0, symName: __ZN7testing18WithParamInterfaceI22StopSendingFrameParamsE10parameter_E, symObjAddr: 0x4D650, symBinAddr: 0x1004F6898, symSize: 0x0 }
  - { offsetInCU: 0x11FAA, offset: 0x1E513, size: 0x8, addend: 0x0, symName: __ZN7testing18WithParamInterfaceI17CryptoFrameParamsE10parameter_E, symObjAddr: 0x4D658, symBinAddr: 0x1004F68A0, symSize: 0x0 }
  - { offsetInCU: 0x11FC2, offset: 0x1E52B, size: 0x8, addend: 0x0, symName: __ZN7testing18WithParamInterfaceI19NewTokenFrameParamsE10parameter_E, symObjAddr: 0x4D660, symBinAddr: 0x1004F68A8, symSize: 0x0 }
  - { offsetInCU: 0x11FDA, offset: 0x1E543, size: 0x8, addend: 0x0, symName: __ZN7testing18WithParamInterfaceI18MaxDataFrameParamsE10parameter_E, symObjAddr: 0x4D668, symBinAddr: 0x1004F68B0, symSize: 0x0 }
  - { offsetInCU: 0x11FF2, offset: 0x1E55B, size: 0x8, addend: 0x0, symName: __ZN7testing18WithParamInterfaceI24MaxStreamDataFrameParamsE10parameter_E, symObjAddr: 0x4D670, symBinAddr: 0x1004F68B8, symSize: 0x0 }
  - { offsetInCU: 0x1200A, offset: 0x1E573, size: 0x8, addend: 0x0, symName: __ZN7testing18WithParamInterfaceIbE10parameter_E, symObjAddr: 0x4D678, symBinAddr: 0x1004F68C0, symSize: 0x0 }
  - { offsetInCU: 0x12022, offset: 0x1E58B, size: 0x8, addend: 0x0, symName: __ZN7testing18WithParamInterfaceI22DataBlockedFrameParamsE10parameter_E, symObjAddr: 0x4D680, symBinAddr: 0x1004F68C8, symSize: 0x0 }
  - { offsetInCU: 0x1203A, offset: 0x1E5A3, size: 0x8, addend: 0x0, symName: __ZN7testing18WithParamInterfaceI28StreamDataBlockedFrameParamsE10parameter_E, symObjAddr: 0x4D688, symBinAddr: 0x1004F68D0, symSize: 0x0 }
  - { offsetInCU: 0x12052, offset: 0x1E5BB, size: 0x8, addend: 0x0, symName: __ZN7testing18WithParamInterfaceI26NewConnectionIdFrameParamsE10parameter_E, symObjAddr: 0x4D690, symBinAddr: 0x1004F68D8, symSize: 0x0 }
  - { offsetInCU: 0x1206A, offset: 0x1E5D3, size: 0x8, addend: 0x0, symName: __ZN7testing18WithParamInterfaceI29RetireConnectionIdFrameParamsE10parameter_E, symObjAddr: 0x4D698, symBinAddr: 0x1004F68E0, symSize: 0x0 }
  - { offsetInCU: 0x12082, offset: 0x1E5EB, size: 0x8, addend: 0x0, symName: __ZN7testing18WithParamInterfaceI26ConnectionCloseFrameParamsE10parameter_E, symObjAddr: 0x4D6A0, symBinAddr: 0x1004F68E8, symSize: 0x0 }
  - { offsetInCU: 0x12701, offset: 0x1EC6A, size: 0x8, addend: 0x0, symName: __ZN7testing8ValuesInINSt3__111__wrap_iterIPK15QUIC_FRAME_TYPEEEEENS_8internal14ParamGeneratorINS1_15iterator_traitsIT_E10value_typeEEESA_SA_, symObjAddr: 0x11740, symBinAddr: 0x1000138B0, symSize: 0x110 }
  - { offsetInCU: 0x12EC3, offset: 0x1F42C, size: 0x8, addend: 0x0, symName: __ZN7testing13PrintToStringI15QUIC_FRAME_TYPEEENSt3__112basic_stringIcNS2_11char_traitsIcEENS2_9allocatorIcEEEERKT_, symObjAddr: 0x11FC0, symBinAddr: 0x100014130, symSize: 0xF0 }
  - { offsetInCU: 0x13220, offset: 0x1F789, size: 0x8, addend: 0x0, symName: __ZN7testing8ValuesInINSt3__111__wrap_iterIPK22ResetStreamFrameParamsEEEENS_8internal14ParamGeneratorINS1_15iterator_traitsIT_E10value_typeEEESA_SA_, symObjAddr: 0x131E0, symBinAddr: 0x1000152D0, symSize: 0x130 }
  - { offsetInCU: 0x13A00, offset: 0x1FF69, size: 0x8, addend: 0x0, symName: __ZN7testing8ValuesInINSt3__111__wrap_iterIPK22StopSendingFrameParamsEEEENS_8internal14ParamGeneratorINS1_15iterator_traitsIT_E10value_typeEEESA_SA_, symObjAddr: 0x14180, symBinAddr: 0x1000161F0, symSize: 0x130 }
  - { offsetInCU: 0x141E0, offset: 0x20749, size: 0x8, addend: 0x0, symName: __ZN7testing8ValuesInINSt3__111__wrap_iterIPK17CryptoFrameParamsEEEENS_8internal14ParamGeneratorINS1_15iterator_traitsIT_E10value_typeEEESA_SA_, symObjAddr: 0x15130, symBinAddr: 0x100017120, symSize: 0x130 }
  - { offsetInCU: 0x149C0, offset: 0x20F29, size: 0x8, addend: 0x0, symName: __ZN7testing8ValuesInINSt3__111__wrap_iterIPK19NewTokenFrameParamsEEEENS_8internal14ParamGeneratorINS1_15iterator_traitsIT_E10value_typeEEESA_SA_, symObjAddr: 0x16050, symBinAddr: 0x100017FC0, symSize: 0x130 }
  - { offsetInCU: 0x151A0, offset: 0x21709, size: 0x8, addend: 0x0, symName: __ZN7testing8ValuesInINSt3__111__wrap_iterIPK18MaxDataFrameParamsEEEENS_8internal14ParamGeneratorINS1_15iterator_traitsIT_E10value_typeEEESA_SA_, symObjAddr: 0x17680, symBinAddr: 0x100019530, symSize: 0x110 }
  - { offsetInCU: 0x1595C, offset: 0x21EC5, size: 0x8, addend: 0x0, symName: __ZN7testing8ValuesInINSt3__111__wrap_iterIPK24MaxStreamDataFrameParamsEEEENS_8internal14ParamGeneratorINS1_15iterator_traitsIT_E10value_typeEEESA_SA_, symObjAddr: 0x18600, symBinAddr: 0x10001A430, symSize: 0x130 }
  - { offsetInCU: 0x1614E, offset: 0x226B7, size: 0x8, addend: 0x0, symName: __ZN7testing8ValuesInINSt3__111__wrap_iterIPK22DataBlockedFrameParamsEEEENS_8internal14ParamGeneratorINS1_15iterator_traitsIT_E10value_typeEEESA_SA_, symObjAddr: 0x1A460, symBinAddr: 0x10001C190, symSize: 0x110 }
  - { offsetInCU: 0x1690A, offset: 0x22E73, size: 0x8, addend: 0x0, symName: __ZN7testing8ValuesInINSt3__111__wrap_iterIPK28StreamDataBlockedFrameParamsEEEENS_8internal14ParamGeneratorINS1_15iterator_traitsIT_E10value_typeEEESA_SA_, symObjAddr: 0x1B3E0, symBinAddr: 0x10001D090, symSize: 0x130 }
  - { offsetInCU: 0x170EA, offset: 0x23653, size: 0x8, addend: 0x0, symName: __ZN7testing8ValuesInINSt3__111__wrap_iterIPK26NewConnectionIdFrameParamsEEEENS_8internal14ParamGeneratorINS1_15iterator_traitsIT_E10value_typeEEESA_SA_, symObjAddr: 0x1CD10, symBinAddr: 0x10001E900, symSize: 0x130 }
  - { offsetInCU: 0x178CA, offset: 0x23E33, size: 0x8, addend: 0x0, symName: __ZN7testing8ValuesInINSt3__111__wrap_iterIPK29RetireConnectionIdFrameParamsEEEENS_8internal14ParamGeneratorINS1_15iterator_traitsIT_E10value_typeEEESA_SA_, symObjAddr: 0x1DBF0, symBinAddr: 0x10001F760, symSize: 0x110 }
  - { offsetInCU: 0x18086, offset: 0x245EF, size: 0x8, addend: 0x0, symName: __ZN7testing8ValuesInINSt3__111__wrap_iterIPK26ConnectionCloseFrameParamsEEEENS_8internal14ParamGeneratorINS1_15iterator_traitsIT_E10value_typeEEESA_SA_, symObjAddr: 0x1FB60, symBinAddr: 0x1000215D0, symSize: 0x110 }
  - { offsetInCU: 0x1881B, offset: 0x24D84, size: 0x8, addend: 0x0, symName: __ZN7testing8ValuesInINSt3__16vectorIbNS1_9allocatorIbEEEEEENS_8internal14ParamGeneratorINT_10value_typeEEERKS8_, symObjAddr: 0x19460, symBinAddr: 0x10001B210, symSize: 0xE0 }
  - { offsetInCU: 0x18CE9, offset: 0x25252, size: 0x8, addend: 0x0, symName: __ZN7testing13PrintToStringIhEENSt3__112basic_stringIcNS1_11char_traitsIcEENS1_9allocatorIcEEEERKT_, symObjAddr: 0x22630, symBinAddr: 0x1000240A0, symSize: 0xF0 }
  - { offsetInCU: 0x18FA2, offset: 0x2550B, size: 0x8, addend: 0x0, symName: __ZN7testing13PrintToStringIyEENSt3__112basic_stringIcNS1_11char_traitsIcEENS1_9allocatorIcEEEERKT_, symObjAddr: 0x227E0, symBinAddr: 0x100024250, symSize: 0xF0 }
  - { offsetInCU: 0x192B9, offset: 0x25822, size: 0x8, addend: 0x0, symName: __ZN7testing13PrintToStringIjEENSt3__112basic_stringIcNS1_11char_traitsIcEENS1_9allocatorIcEEEERKT_, symObjAddr: 0x22990, symBinAddr: 0x100024400, symSize: 0xF0 }
  - { offsetInCU: 0x195D0, offset: 0x25B39, size: 0x8, addend: 0x0, symName: __ZN7testing13PrintToStringIiEENSt3__112basic_stringIcNS1_11char_traitsIcEENS1_9allocatorIcEEEERKT_, symObjAddr: 0x22B40, symBinAddr: 0x1000245B0, symSize: 0xF0 }
  - { offsetInCU: 0x198E7, offset: 0x25E50, size: 0x8, addend: 0x0, symName: __ZN7testing13PrintToStringI22ResetStreamFrameParamsEENSt3__112basic_stringIcNS2_11char_traitsIcEENS2_9allocatorIcEEEERKT_, symObjAddr: 0x24000, symBinAddr: 0x100025A70, symSize: 0xF0 }
  - { offsetInCU: 0x19C23, offset: 0x2618C, size: 0x8, addend: 0x0, symName: __ZN7testing13PrintToStringI22StopSendingFrameParamsEENSt3__112basic_stringIcNS2_11char_traitsIcEENS2_9allocatorIcEEEERKT_, symObjAddr: 0x25660, symBinAddr: 0x1000270D0, symSize: 0xF0 }
  - { offsetInCU: 0x19F5F, offset: 0x264C8, size: 0x8, addend: 0x0, symName: __ZN7testing13PrintToStringI17CryptoFrameParamsEENSt3__112basic_stringIcNS2_11char_traitsIcEENS2_9allocatorIcEEEERKT_, symObjAddr: 0x26D70, symBinAddr: 0x1000287E0, symSize: 0xF0 }
  - { offsetInCU: 0x1A29B, offset: 0x26804, size: 0x8, addend: 0x0, symName: __ZN7testing13PrintToStringI19NewTokenFrameParamsEENSt3__112basic_stringIcNS2_11char_traitsIcEENS2_9allocatorIcEEEERKT_, symObjAddr: 0x283D0, symBinAddr: 0x100029E40, symSize: 0xF0 }
  - { offsetInCU: 0x1A5D7, offset: 0x26B40, size: 0x8, addend: 0x0, symName: __ZN7testing13PrintToStringIPKhEENSt3__112basic_stringIcNS3_11char_traitsIcEENS3_9allocatorIcEEEERKT_, symObjAddr: 0x29DF0, symBinAddr: 0x10002B860, symSize: 0x100 }
  - { offsetInCU: 0x1A954, offset: 0x26EBD, size: 0x8, addend: 0x0, symName: __ZN7testing13PrintToStringIPhEENSt3__112basic_stringIcNS2_11char_traitsIcEENS2_9allocatorIcEEEERKT_, symObjAddr: 0x29EF0, symBinAddr: 0x10002B960, symSize: 0x100 }
  - { offsetInCU: 0x1ACD1, offset: 0x2723A, size: 0x8, addend: 0x0, symName: __ZN7testing13PrintToStringI18MaxDataFrameParamsEENSt3__112basic_stringIcNS2_11char_traitsIcEENS2_9allocatorIcEEEERKT_, symObjAddr: 0x2B3A0, symBinAddr: 0x10002CE10, symSize: 0xF0 }
  - { offsetInCU: 0x1B00D, offset: 0x27576, size: 0x8, addend: 0x0, symName: __ZN7testing13PrintToStringI24MaxStreamDataFrameParamsEENSt3__112basic_stringIcNS2_11char_traitsIcEENS2_9allocatorIcEEEERKT_, symObjAddr: 0x2CA00, symBinAddr: 0x10002E470, symSize: 0xF0 }
  - { offsetInCU: 0x1B349, offset: 0x278B2, size: 0x8, addend: 0x0, symName: __ZN7testing13PrintToStringIbEENSt3__112basic_stringIcNS1_11char_traitsIcEENS1_9allocatorIcEEEERKT_, symObjAddr: 0x2E040, symBinAddr: 0x10002FAB0, symSize: 0x110 }
  - { offsetInCU: 0x1B690, offset: 0x27BF9, size: 0x8, addend: 0x0, symName: __ZN7testing13PrintToStringI22DataBlockedFrameParamsEENSt3__112basic_stringIcNS2_11char_traitsIcEENS2_9allocatorIcEEEERKT_, symObjAddr: 0x2F6A0, symBinAddr: 0x100031110, symSize: 0xF0 }
  - { offsetInCU: 0x1B9CC, offset: 0x27F35, size: 0x8, addend: 0x0, symName: __ZN7testing13PrintToStringI28StreamDataBlockedFrameParamsEENSt3__112basic_stringIcNS2_11char_traitsIcEENS2_9allocatorIcEEEERKT_, symObjAddr: 0x30D00, symBinAddr: 0x100032770, symSize: 0xF0 }
  - { offsetInCU: 0x1BD08, offset: 0x28271, size: 0x8, addend: 0x0, symName: __ZN7testing13PrintToStringI26NewConnectionIdFrameParamsEENSt3__112basic_stringIcNS2_11char_traitsIcEENS2_9allocatorIcEEEERKT_, symObjAddr: 0x33960, symBinAddr: 0x1000353D0, symSize: 0xF0 }
  - { offsetInCU: 0x1C045, offset: 0x285AE, size: 0x8, addend: 0x0, symName: __ZN7testing13PrintToStringI29RetireConnectionIdFrameParamsEENSt3__112basic_stringIcNS2_11char_traitsIcEENS2_9allocatorIcEEEERKT_, symObjAddr: 0x34FA0, symBinAddr: 0x100036A10, symSize: 0xF0 }
  - { offsetInCU: 0x1C381, offset: 0x288EA, size: 0x8, addend: 0x0, symName: __ZN7testing13PrintToStringI26ConnectionCloseFrameParamsEENSt3__112basic_stringIcNS2_11char_traitsIcEENS2_9allocatorIcEEEERKT_, symObjAddr: 0x39080, symBinAddr: 0x10003AAF0, symSize: 0xF0 }
  - { offsetInCU: 0x29116, offset: 0x3567F, size: 0x8, addend: 0x0, symName: __ZNSt3__124__put_character_sequenceB8ue170006IcNS_11char_traitsIcEEEERNS_13basic_ostreamIT_T0_EES7_PKS4_m, symObjAddr: 0x11C60, symBinAddr: 0x100013DD0, symSize: 0x160 }
  - { offsetInCU: 0x8CD18, offset: 0x99281, size: 0x8, addend: 0x0, symName: __ZNSt3__120__throw_length_errorB8ue170006EPKc, symObjAddr: 0x11440, symBinAddr: 0x100013630, symSize: 0x50 }
  - { offsetInCU: 0x8DC52, offset: 0x9A1BB, size: 0x8, addend: 0x0, symName: __ZNSt3__116__pad_and_outputB8ue170006IcNS_11char_traitsIcEEEENS_19ostreambuf_iteratorIT_T0_EES6_PKS4_S8_S8_RNS_8ios_baseES4_, symObjAddr: 0x11DC0, symBinAddr: 0x100013F30, symSize: 0x170 }
  - { offsetInCU: 0xA99FD, offset: 0xB5F66, size: 0x8, addend: 0x0, symName: __ZNSt3__127__tree_balance_after_insertB8ue170006IPNS_16__tree_node_baseIPvEEEEvT_S5_, symObjAddr: 0x21C20, symBinAddr: 0x100023690, symSize: 0x1A0 }
  - { offsetInCU: 0xAD369, offset: 0xB98D2, size: 0x8, addend: 0x0, symName: __ZSt28__throw_bad_array_new_lengthB8ue170006v, symObjAddr: 0x114C0, symBinAddr: 0x1000136B0, symSize: 0x40 }
  - { offsetInCU: 0xAD6A5, offset: 0xB9C0E, size: 0x8, addend: 0x0, symName: __ZN36AckFrameTest_DecodeAckFrameFail_Test24gtest_registering_dummy_E, symObjAddr: 0x75470C, symBinAddr: 0x1004FC714, symSize: 0x0 }
  - { offsetInCU: 0xAD731, offset: 0xB9C9A, size: 0x8, addend: 0x0, symName: __ZN43FrameTest_ResetStreamFrameEncodeDecode_Test10test_info_E, symObjAddr: 0x754710, symBinAddr: 0x1004FC718, symSize: 0x0 }
  - { offsetInCU: 0xADC20, offset: 0xBA189, size: 0x8, addend: 0x0, symName: __ZN51FrameTest_ReliableResetStreamFrameEncodeDecode_Test10test_info_E, symObjAddr: 0x754718, symBinAddr: 0x1004FC720, symSize: 0x0 }
  - { offsetInCU: 0xADD06, offset: 0xBA26F, size: 0x8, addend: 0x0, symName: __ZN52ResetStreamFrameTest_DecodeResetStreamFrameFail_Test24gtest_registering_dummy_E, symObjAddr: 0x754720, symBinAddr: 0x1004FC728, symSize: 0x0 }
  - { offsetInCU: 0xADE24, offset: 0xBA38D, size: 0x8, addend: 0x0, symName: __ZN43FrameTest_StopSendingFrameEncodeDecode_Test10test_info_E, symObjAddr: 0x754728, symBinAddr: 0x1004FC730, symSize: 0x0 }
  - { offsetInCU: 0xADF14, offset: 0xBA47D, size: 0x8, addend: 0x0, symName: __ZN52StopSendingFrameTest_DecodeStopSendingFrameFail_Test24gtest_registering_dummy_E, symObjAddr: 0x754730, symBinAddr: 0x1004FC738, symSize: 0x0 }
  - { offsetInCU: 0xAE02F, offset: 0xBA598, size: 0x8, addend: 0x0, symName: __ZN38FrameTest_CryptoFrameEncodeDecode_Test10test_info_E, symObjAddr: 0x754738, symBinAddr: 0x1004FC740, symSize: 0x0 }
  - { offsetInCU: 0xAE11F, offset: 0xBA688, size: 0x8, addend: 0x0, symName: __ZN42CryptoFrameTest_DecodeCryptoFrameFail_Test24gtest_registering_dummy_E, symObjAddr: 0x754740, symBinAddr: 0x1004FC748, symSize: 0x0 }
  - { offsetInCU: 0xAE23A, offset: 0xBA7A3, size: 0x8, addend: 0x0, symName: __ZN40FrameTest_NewTokenFrameEncodeDecode_Test10test_info_E, symObjAddr: 0x754748, symBinAddr: 0x1004FC750, symSize: 0x0 }
  - { offsetInCU: 0xAE32A, offset: 0xBA893, size: 0x8, addend: 0x0, symName: __ZN46NewTokenFrameTest_DecodeNewTokenFrameFail_Test24gtest_registering_dummy_E, symObjAddr: 0x754750, symBinAddr: 0x1004FC758, symSize: 0x0 }
  - { offsetInCU: 0xAE439, offset: 0xBA9A2, size: 0x8, addend: 0x0, symName: __ZN44StreamFrameTest_StreamFrameEncodeDecode_Test24gtest_registering_dummy_E, symObjAddr: 0x754754, symBinAddr: 0x1004FC75C, symSize: 0x0 }
  - { offsetInCU: 0xAE4FF, offset: 0xBAA68, size: 0x8, addend: 0x0, symName: __ZN42StreamFrameTest_DecodeStreamFrameFail_Test24gtest_registering_dummy_E, symObjAddr: 0x754758, symBinAddr: 0x1004FC760, symSize: 0x0 }
  - { offsetInCU: 0xAE58F, offset: 0xBAAF8, size: 0x8, addend: 0x0, symName: __ZN39FrameTest_MaxDataFrameEncodeDecode_Test10test_info_E, symObjAddr: 0x754760, symBinAddr: 0x1004FC768, symSize: 0x0 }
  - { offsetInCU: 0xAE67F, offset: 0xBABE8, size: 0x8, addend: 0x0, symName: __ZN44MaxDataFrameTest_DecodeMaxDataFrameFail_Test24gtest_registering_dummy_E, symObjAddr: 0x754768, symBinAddr: 0x1004FC770, symSize: 0x0 }
  - { offsetInCU: 0xAE79A, offset: 0xBAD03, size: 0x8, addend: 0x0, symName: __ZN45FrameTest_MaxStreamDataFrameEncodeDecode_Test10test_info_E, symObjAddr: 0x754770, symBinAddr: 0x1004FC778, symSize: 0x0 }
  - { offsetInCU: 0xAE88A, offset: 0xBADF3, size: 0x8, addend: 0x0, symName: __ZN56MaxStreamDataFrameTest_DecodeMaxStreamDataFrameFail_Test24gtest_registering_dummy_E, symObjAddr: 0x754778, symBinAddr: 0x1004FC780, symSize: 0x0 }
  - { offsetInCU: 0xAE999, offset: 0xBAF02, size: 0x8, addend: 0x0, symName: __ZN52MaxStreamsFrameTest_MaxStreamsFrameEncodeDecode_Test24gtest_registering_dummy_E, symObjAddr: 0x75477C, symBinAddr: 0x1004FC784, symSize: 0x0 }
  - { offsetInCU: 0xAEA73, offset: 0xBAFDC, size: 0x8, addend: 0x0, symName: __ZN50MaxStreamsFrameTest_DecodeMaxStreamsFrameFail_Test24gtest_registering_dummy_E, symObjAddr: 0x754780, symBinAddr: 0x1004FC788, symSize: 0x0 }
  - { offsetInCU: 0xAEB03, offset: 0xBB06C, size: 0x8, addend: 0x0, symName: __ZN43FrameTest_DataBlockedFrameEncodeDecode_Test10test_info_E, symObjAddr: 0x754788, symBinAddr: 0x1004FC790, symSize: 0x0 }
  - { offsetInCU: 0xAEBF3, offset: 0xBB15C, size: 0x8, addend: 0x0, symName: __ZN52DataBlockedFrameTest_DecodeDataBlockedFrameFail_Test24gtest_registering_dummy_E, symObjAddr: 0x754790, symBinAddr: 0x1004FC798, symSize: 0x0 }
  - { offsetInCU: 0xAED02, offset: 0xBB26B, size: 0x8, addend: 0x0, symName: __ZN49FrameTest_StreamDataBlockedFrameEncodeDecode_Test10test_info_E, symObjAddr: 0x754798, symBinAddr: 0x1004FC7A0, symSize: 0x0 }
  - { offsetInCU: 0xAEDF2, offset: 0xBB35B, size: 0x8, addend: 0x0, symName: __ZN64StreamDataBlockedFrameTest_DecodeStreamDataBlockedFrameFail_Test24gtest_registering_dummy_E, symObjAddr: 0x7547A0, symBinAddr: 0x1004FC7A8, symSize: 0x0 }
  - { offsetInCU: 0xAEF01, offset: 0xBB46A, size: 0x8, addend: 0x0, symName: __ZN60StreamsBlockedFrameTest_StreamsBlockedFrameEncodeDecode_Test24gtest_registering_dummy_E, symObjAddr: 0x7547A4, symBinAddr: 0x1004FC7AC, symSize: 0x0 }
  - { offsetInCU: 0xAEFC7, offset: 0xBB530, size: 0x8, addend: 0x0, symName: __ZN58StreamsBlockedFrameTest_DecodeStreamsBlockedFrameFail_Test24gtest_registering_dummy_E, symObjAddr: 0x7547A8, symBinAddr: 0x1004FC7B0, symSize: 0x0 }
  - { offsetInCU: 0xAF057, offset: 0xBB5C0, size: 0x8, addend: 0x0, symName: __ZN47FrameTest_NewConnectionIdFrameEncodeDecode_Test10test_info_E, symObjAddr: 0x7547B0, symBinAddr: 0x1004FC7B8, symSize: 0x0 }
  - { offsetInCU: 0xAF147, offset: 0xBB6B0, size: 0x8, addend: 0x0, symName: __ZN60NewConnectionIdFrameTest_DecodeNewConnectionIdFrameFail_Test24gtest_registering_dummy_E, symObjAddr: 0x7547B8, symBinAddr: 0x1004FC7C0, symSize: 0x0 }
  - { offsetInCU: 0xAF26E, offset: 0xBB7D7, size: 0x8, addend: 0x0, symName: __ZN50FrameTest_RetireConnectionIdFrameEncodeDecode_Test10test_info_E, symObjAddr: 0x7547C0, symBinAddr: 0x1004FC7C8, symSize: 0x0 }
  - { offsetInCU: 0xAF35E, offset: 0xBB8C7, size: 0x8, addend: 0x0, symName: __ZN66RetireConnectionIdFrameTest_DecodeRetireConnectionIdFrameFail_Test24gtest_registering_dummy_E, symObjAddr: 0x7547C8, symBinAddr: 0x1004FC7D0, symSize: 0x0 }
  - { offsetInCU: 0xAF46D, offset: 0xBB9D6, size: 0x8, addend: 0x0, symName: __ZN74PathChallengeResponseFrameTest_PathChallengeResponseFrameEncodeDecode_Test24gtest_registering_dummy_E, symObjAddr: 0x7547CC, symBinAddr: 0x1004FC7D4, symSize: 0x0 }
  - { offsetInCU: 0xAF533, offset: 0xBBA9C, size: 0x8, addend: 0x0, symName: __ZN72PathChallengeResponseFrameTest_DecodePathChallengeResponseFrameFail_Test24gtest_registering_dummy_E, symObjAddr: 0x7547D0, symBinAddr: 0x1004FC7D8, symSize: 0x0 }
  - { offsetInCU: 0xAF5C3, offset: 0xBBB2C, size: 0x8, addend: 0x0, symName: __ZN62ConnectionCloseFrameTest_ConnectionCloseFrameEncodeDecode_Test24gtest_registering_dummy_E, symObjAddr: 0x7547D4, symBinAddr: 0x1004FC7DC, symSize: 0x0 }
  - { offsetInCU: 0xAF689, offset: 0xBBBF2, size: 0x8, addend: 0x0, symName: __ZN66ConnectionCloseFrameDecodeTest_DecodeConnectionCloseFrameFail_Test24gtest_registering_dummy_E, symObjAddr: 0x7547D8, symBinAddr: 0x1004FC7E0, symSize: 0x0 }
  - { offsetInCU: 0xBA355, offset: 0xC68BE, size: 0x8, addend: 0x0, symName: __ZN38AckFrameTest_AckFrameEncodeDecode_Test13AddToRegistryEv, symObjAddr: 0x0, symBinAddr: 0x100002230, symSize: 0x1F0 }
  - { offsetInCU: 0xBB421, offset: 0xC798A, size: 0x8, addend: 0x0, symName: __ZN7testing8internal30ParameterizedTestSuiteRegistry25GetTestSuitePatternHolderI12AckFrameTestEEPNS0_26ParameterizedTestSuiteInfoIT_EENSt3__112basic_stringIcNS8_11char_traitsIcEENS8_9allocatorIcEEEENS0_12CodeLocationE, symObjAddr: 0x1CD0, symBinAddr: 0x100003EC0, symSize: 0x340 }
  - { offsetInCU: 0xBC4BC, offset: 0xC8A25, size: 0x8, addend: 0x0, symName: __ZN7testing8internal26ParameterizedTestSuiteInfoI12AckFrameTestE14AddTestPatternEPKcS5_PNS0_19TestMetaFactoryBaseI15QUIC_FRAME_TYPEEENS0_12CodeLocationE, symObjAddr: 0x10EB0, symBinAddr: 0x1000130A0, symSize: 0x200 }
  - { offsetInCU: 0xBD31D, offset: 0xC9886, size: 0x8, addend: 0x0, symName: __ZN38AckFrameTest_AckFrameEncodeDecode_Test8TestBodyEv, symObjAddr: 0x1F0, symBinAddr: 0x100002420, symSize: 0xFF0 }
  - { offsetInCU: 0xC00DC, offset: 0xCC645, size: 0x8, addend: 0x0, symName: __ZN7testing18WithParamInterfaceI15QUIC_FRAME_TYPEE8GetParamEv, symObjAddr: 0x1220, symBinAddr: 0x100003410, symSize: 0xB0 }
  - { offsetInCU: 0xC03D9, offset: 0xCC942, size: 0x8, addend: 0x0, symName: __ZN7testing8internal8EqHelper7CompareIyiLPv0EEENS_15AssertionResultEPKcS6_RKT_RKT0_, symObjAddr: 0x1300, symBinAddr: 0x1000034F0, symSize: 0x30 }
  - { offsetInCU: 0xC0481, offset: 0xCC9EA, size: 0x8, addend: 0x0, symName: __ZN7testing8internal8EqHelper7CompareIyyLPv0EEENS_15AssertionResultEPKcS6_RKT_RKT0_, symObjAddr: 0x12D0, symBinAddr: 0x1000034C0, symSize: 0x30 }
  - { offsetInCU: 0xC0588, offset: 0xCCAF1, size: 0x8, addend: 0x0, symName: __ZN36AckFrameTest_DecodeAckFrameFail_Test13AddToRegistryEv, symObjAddr: 0x1330, symBinAddr: 0x100003520, symSize: 0x1F0 }
  - { offsetInCU: 0xC162A, offset: 0xCDB93, size: 0x8, addend: 0x0, symName: __ZN36AckFrameTest_DecodeAckFrameFail_Test8TestBodyEv, symObjAddr: 0x1520, symBinAddr: 0x100003710, symSize: 0x7B0 }
  - { offsetInCU: 0xC2F63, offset: 0xCF4CC, size: 0x8, addend: 0x0, symName: __ZNSt3__112__hash_tableINS_17__hash_value_typeINS_12basic_stringIcNS_11char_traitsIcEENS_9allocatorIcEEEEmEENS_22__unordered_map_hasherIS7_S8_NS_4hashIS7_EENS_8equal_toIS7_EELb1EEENS_21__unordered_map_equalIS7_S8_SD_SB_Lb1EEENS5_IS8_EEE4findIS7_EENS_15__hash_iteratorIPNS_11__hash_nodeIS8_PvEEEERKT_, symObjAddr: 0x201B0, symBinAddr: 0x100021C20, symSize: 0x230 }
  - { offsetInCU: 0xC325D, offset: 0xCF7C6, size: 0x8, addend: 0x0, symName: __ZNSt3__112__hash_tableINS_17__hash_value_typeINS_12basic_stringIcNS_11char_traitsIcEENS_9allocatorIcEEEEmEENS_22__unordered_map_hasherIS7_S8_NS_4hashIS7_EENS_8equal_toIS7_EELb1EEENS_21__unordered_map_equalIS7_S8_SD_SB_Lb1EEENS5_IS8_EEE25__emplace_unique_key_argsIS7_JS7_mEEENS_4pairINS_15__hash_iteratorIPNS_11__hash_nodeIS8_PvEEEEbEERKT_DpOT0_, symObjAddr: 0x21E10, symBinAddr: 0x100023880, symSize: 0x410 }
  - { offsetInCU: 0xC3B49, offset: 0xD00B2, size: 0x8, addend: 0x0, symName: __ZNKSt3__16vectorIPN7testing8internal30ParameterizedTestSuiteInfoBaseENS_9allocatorIS4_EEE20__throw_length_errorB8ue170006Ev, symObjAddr: 0x22560, symBinAddr: 0x100023FD0, symSize: 0x10 }
  - { offsetInCU: 0xC3B72, offset: 0xD00DB, size: 0x8, addend: 0x0, symName: __ZN7testing8internal18CmpHelperEQFailureIh15QUIC_FRAME_TYPEEENS_15AssertionResultEPKcS5_RKT_RKT0_, symObjAddr: 0x22570, symBinAddr: 0x100023FE0, symSize: 0xC0 }
  - { offsetInCU: 0xC3B7E, offset: 0xD00E7, size: 0x8, addend: 0x0, symName: __ZNKSt3__112basic_stringIcNS_11char_traitsIcEENS_9allocatorIcEEE20__throw_length_errorB8ue170006Ev, symObjAddr: 0x11F30, symBinAddr: 0x1000140A0, symSize: 0x10 }
  - { offsetInCU: 0xC3BA7, offset: 0xD0110, size: 0x8, addend: 0x0, symName: __ZNSt3__120__shared_ptr_pointerIPN7testing8internal23ParamGeneratorInterfaceI15QUIC_FRAME_TYPEEENS_10shared_ptrIKS5_E27__shared_ptr_default_deleteIS8_S5_EENS_9allocatorIS5_EEED1Ev, symObjAddr: 0x11F40, symBinAddr: 0x1000140B0, symSize: 0x10 }
  - { offsetInCU: 0xC3E8D, offset: 0xD03F6, size: 0x8, addend: 0x0, symName: __ZL42gtest_FrameTestAckFrameTest_EvalGenerator_v, symObjAddr: 0x2010, symBinAddr: 0x100004200, symSize: 0x60 }
  - { offsetInCU: 0xC43D3, offset: 0xD093C, size: 0x8, addend: 0x0, symName: __ZL45gtest_FrameTestAckFrameTest_EvalGenerateName_RKN7testing13TestParamInfoI15QUIC_FRAME_TYPEEE, symObjAddr: 0x2070, symBinAddr: 0x100004260, symSize: 0x30 }
  - { offsetInCU: 0xC4474, offset: 0xD09DD, size: 0x8, addend: 0x0, symName: __ZN7testing8internal16SuiteApiResolverINS_4TestEE19GetSetUpCaseOrSuiteEPKci, symObjAddr: 0x20A0, symBinAddr: 0x100004290, symSize: 0xD0 }
  - { offsetInCU: 0xC461B, offset: 0xD0B84, size: 0x8, addend: 0x0, symName: __ZN7testing8internal16SuiteApiResolverINS_4TestEE22GetTearDownCaseOrSuiteEPKci, symObjAddr: 0x2170, symBinAddr: 0x100004360, symSize: 0xD0 }
  - { offsetInCU: 0xC47C2, offset: 0xD0D2B, size: 0x8, addend: 0x0, symName: __ZN43FrameTest_ResetStreamFrameEncodeDecode_Test8TestBodyEv, symObjAddr: 0x2240, symBinAddr: 0x100004430, symSize: 0x530 }
  - { offsetInCU: 0xC5554, offset: 0xD1ABD, size: 0x8, addend: 0x0, symName: __ZN51FrameTest_ReliableResetStreamFrameEncodeDecode_Test8TestBodyEv, symObjAddr: 0x2770, symBinAddr: 0x100004960, symSize: 0x620 }
  - { offsetInCU: 0xC66FA, offset: 0xD2C63, size: 0x8, addend: 0x0, symName: __ZN52ResetStreamFrameTest_DecodeResetStreamFrameFail_Test13AddToRegistryEv, symObjAddr: 0x2D90, symBinAddr: 0x100004F80, symSize: 0x1F0 }
  - { offsetInCU: 0xC7704, offset: 0xD3C6D, size: 0x8, addend: 0x0, symName: __ZN7testing8internal30ParameterizedTestSuiteRegistry25GetTestSuitePatternHolderI20ResetStreamFrameTestEEPNS0_26ParameterizedTestSuiteInfoIT_EENSt3__112basic_stringIcNS8_11char_traitsIcEENS8_9allocatorIcEEEENS0_12CodeLocationE, symObjAddr: 0x3190, symBinAddr: 0x100005380, symSize: 0x340 }
  - { offsetInCU: 0xC879F, offset: 0xD4D08, size: 0x8, addend: 0x0, symName: __ZN7testing8internal26ParameterizedTestSuiteInfoI20ResetStreamFrameTestE14AddTestPatternEPKcS5_PNS0_19TestMetaFactoryBaseI22ResetStreamFrameParamsEENS0_12CodeLocationE, symObjAddr: 0x12870, symBinAddr: 0x1000149E0, symSize: 0x200 }
  - { offsetInCU: 0xC90F1, offset: 0xD565A, size: 0x8, addend: 0x0, symName: __ZN52ResetStreamFrameTest_DecodeResetStreamFrameFail_Test8TestBodyEv, symObjAddr: 0x2F80, symBinAddr: 0x100005170, symSize: 0x160 }
  - { offsetInCU: 0xC996B, offset: 0xD5ED4, size: 0x8, addend: 0x0, symName: __ZN7testing18WithParamInterfaceI22ResetStreamFrameParamsE8GetParamEv, symObjAddr: 0x30E0, symBinAddr: 0x1000052D0, symSize: 0xB0 }
  - { offsetInCU: 0xC9C16, offset: 0xD617F, size: 0x8, addend: 0x0, symName: __ZL50gtest_FrameTestResetStreamFrameTest_EvalGenerator_v, symObjAddr: 0x34D0, symBinAddr: 0x1000056C0, symSize: 0x60 }
  - { offsetInCU: 0xC9FAD, offset: 0xD6516, size: 0x8, addend: 0x0, symName: __ZN22ResetStreamFrameParams24GenerateDecodeFailParamsEv, symObjAddr: 0x12F70, symBinAddr: 0x100015060, symSize: 0x270 }
  - { offsetInCU: 0xCAB61, offset: 0xD70CA, size: 0x8, addend: 0x0, symName: __ZL53gtest_FrameTestResetStreamFrameTest_EvalGenerateName_RKN7testing13TestParamInfoI22ResetStreamFrameParamsEE, symObjAddr: 0x3530, symBinAddr: 0x100005720, symSize: 0xF0 }
  - { offsetInCU: 0xCB305, offset: 0xD786E, size: 0x8, addend: 0x0, symName: __ZN43FrameTest_StopSendingFrameEncodeDecode_Test8TestBodyEv, symObjAddr: 0x3620, symBinAddr: 0x100005810, symSize: 0x400 }
  - { offsetInCU: 0xCBD38, offset: 0xD82A1, size: 0x8, addend: 0x0, symName: __ZN52StopSendingFrameTest_DecodeStopSendingFrameFail_Test13AddToRegistryEv, symObjAddr: 0x3A20, symBinAddr: 0x100005C10, symSize: 0x1F0 }
  - { offsetInCU: 0xCCD42, offset: 0xD92AB, size: 0x8, addend: 0x0, symName: __ZN7testing8internal30ParameterizedTestSuiteRegistry25GetTestSuitePatternHolderI20StopSendingFrameTestEEPNS0_26ParameterizedTestSuiteInfoIT_EENSt3__112basic_stringIcNS8_11char_traitsIcEENS8_9allocatorIcEEEENS0_12CodeLocationE, symObjAddr: 0x3E20, symBinAddr: 0x100006010, symSize: 0x340 }
  - { offsetInCU: 0xCDDDD, offset: 0xDA346, size: 0x8, addend: 0x0, symName: __ZN7testing8internal26ParameterizedTestSuiteInfoI20StopSendingFrameTestE14AddTestPatternEPKcS5_PNS0_19TestMetaFactoryBaseI22StopSendingFrameParamsEENS0_12CodeLocationE, symObjAddr: 0x13810, symBinAddr: 0x100015900, symSize: 0x200 }
  - { offsetInCU: 0xCE708, offset: 0xDAC71, size: 0x8, addend: 0x0, symName: __ZN52StopSendingFrameTest_DecodeStopSendingFrameFail_Test8TestBodyEv, symObjAddr: 0x3C10, symBinAddr: 0x100005E00, symSize: 0x160 }
  - { offsetInCU: 0xCEF82, offset: 0xDB4EB, size: 0x8, addend: 0x0, symName: __ZN7testing18WithParamInterfaceI22StopSendingFrameParamsE8GetParamEv, symObjAddr: 0x3D70, symBinAddr: 0x100005F60, symSize: 0xB0 }
  - { offsetInCU: 0xCF22D, offset: 0xDB796, size: 0x8, addend: 0x0, symName: __ZL50gtest_FrameTestStopSendingFrameTest_EvalGenerator_v, symObjAddr: 0x4160, symBinAddr: 0x100006350, symSize: 0x60 }
  - { offsetInCU: 0xCF5C4, offset: 0xDBB2D, size: 0x8, addend: 0x0, symName: __ZN22StopSendingFrameParams24GenerateDecodeFailParamsEv, symObjAddr: 0x13F10, symBinAddr: 0x100015F80, symSize: 0x270 }
  - { offsetInCU: 0xD0122, offset: 0xDC68B, size: 0x8, addend: 0x0, symName: __ZL53gtest_FrameTestStopSendingFrameTest_EvalGenerateName_RKN7testing13TestParamInfoI22StopSendingFrameParamsEE, symObjAddr: 0x41C0, symBinAddr: 0x1000063B0, symSize: 0xF0 }
  - { offsetInCU: 0xD0916, offset: 0xDCE7F, size: 0x8, addend: 0x0, symName: __ZN38FrameTest_CryptoFrameEncodeDecode_Test8TestBodyEv, symObjAddr: 0x42B0, symBinAddr: 0x1000064A0, symSize: 0x540 }
  - { offsetInCU: 0xD16FB, offset: 0xDDC64, size: 0x8, addend: 0x0, symName: __ZN42CryptoFrameTest_DecodeCryptoFrameFail_Test13AddToRegistryEv, symObjAddr: 0x47F0, symBinAddr: 0x1000069E0, symSize: 0x1F0 }
  - { offsetInCU: 0xD2705, offset: 0xDEC6E, size: 0x8, addend: 0x0, symName: __ZN7testing8internal30ParameterizedTestSuiteRegistry25GetTestSuitePatternHolderI15CryptoFrameTestEEPNS0_26ParameterizedTestSuiteInfoIT_EENSt3__112basic_stringIcNS8_11char_traitsIcEENS8_9allocatorIcEEEENS0_12CodeLocationE, symObjAddr: 0x4BF0, symBinAddr: 0x100006DE0, symSize: 0x340 }
  - { offsetInCU: 0xD37A0, offset: 0xDFD09, size: 0x8, addend: 0x0, symName: __ZN7testing8internal26ParameterizedTestSuiteInfoI15CryptoFrameTestE14AddTestPatternEPKcS5_PNS0_19TestMetaFactoryBaseI17CryptoFrameParamsEENS0_12CodeLocationE, symObjAddr: 0x147B0, symBinAddr: 0x100016820, symSize: 0x200 }
  - { offsetInCU: 0xD40CB, offset: 0xE0634, size: 0x8, addend: 0x0, symName: __ZN42CryptoFrameTest_DecodeCryptoFrameFail_Test8TestBodyEv, symObjAddr: 0x49E0, symBinAddr: 0x100006BD0, symSize: 0x160 }
  - { offsetInCU: 0xD4945, offset: 0xE0EAE, size: 0x8, addend: 0x0, symName: __ZN7testing18WithParamInterfaceI17CryptoFrameParamsE8GetParamEv, symObjAddr: 0x4B40, symBinAddr: 0x100006D30, symSize: 0xB0 }
  - { offsetInCU: 0xD4BF0, offset: 0xE1159, size: 0x8, addend: 0x0, symName: __ZL45gtest_FrameTestCryptoFrameTest_EvalGenerator_v, symObjAddr: 0x4F30, symBinAddr: 0x100007120, symSize: 0x60 }
  - { offsetInCU: 0xD4F87, offset: 0xE14F0, size: 0x8, addend: 0x0, symName: __ZN17CryptoFrameParams24GenerateDecodeFailParamsEv, symObjAddr: 0x14EB0, symBinAddr: 0x100016EA0, symSize: 0x280 }
  - { offsetInCU: 0xD5AE5, offset: 0xE204E, size: 0x8, addend: 0x0, symName: __ZL48gtest_FrameTestCryptoFrameTest_EvalGenerateName_RKN7testing13TestParamInfoI17CryptoFrameParamsEE, symObjAddr: 0x4F90, symBinAddr: 0x100007180, symSize: 0xF0 }
  - { offsetInCU: 0xD6289, offset: 0xE27F2, size: 0x8, addend: 0x0, symName: __ZN40FrameTest_NewTokenFrameEncodeDecode_Test8TestBodyEv, symObjAddr: 0x5080, symBinAddr: 0x100007270, symSize: 0x460 }
  - { offsetInCU: 0xD6CBE, offset: 0xE3227, size: 0x8, addend: 0x0, symName: __ZN46NewTokenFrameTest_DecodeNewTokenFrameFail_Test13AddToRegistryEv, symObjAddr: 0x54E0, symBinAddr: 0x1000076D0, symSize: 0x1F0 }
  - { offsetInCU: 0xD7CB2, offset: 0xE421B, size: 0x8, addend: 0x0, symName: __ZN7testing8internal30ParameterizedTestSuiteRegistry25GetTestSuitePatternHolderI17NewTokenFrameTestEEPNS0_26ParameterizedTestSuiteInfoIT_EENSt3__112basic_stringIcNS8_11char_traitsIcEENS8_9allocatorIcEEEENS0_12CodeLocationE, symObjAddr: 0x58E0, symBinAddr: 0x100007AD0, symSize: 0x340 }
  - { offsetInCU: 0xD8D4D, offset: 0xE52B6, size: 0x8, addend: 0x0, symName: __ZN7testing8internal26ParameterizedTestSuiteInfoI17NewTokenFrameTestE14AddTestPatternEPKcS5_PNS0_19TestMetaFactoryBaseI19NewTokenFrameParamsEENS0_12CodeLocationE, symObjAddr: 0x15760, symBinAddr: 0x100017750, symSize: 0x200 }
  - { offsetInCU: 0xD9678, offset: 0xE5BE1, size: 0x8, addend: 0x0, symName: __ZN46NewTokenFrameTest_DecodeNewTokenFrameFail_Test8TestBodyEv, symObjAddr: 0x56D0, symBinAddr: 0x1000078C0, symSize: 0x160 }
  - { offsetInCU: 0xD9EF2, offset: 0xE645B, size: 0x8, addend: 0x0, symName: __ZN7testing18WithParamInterfaceI19NewTokenFrameParamsE8GetParamEv, symObjAddr: 0x5830, symBinAddr: 0x100007A20, symSize: 0xB0 }
  - { offsetInCU: 0xDA19D, offset: 0xE6706, size: 0x8, addend: 0x0, symName: __ZL47gtest_FrameTestNewTokenFrameTest_EvalGenerator_v, symObjAddr: 0x5C20, symBinAddr: 0x100007E10, symSize: 0x60 }
  - { offsetInCU: 0xDA534, offset: 0xE6A9D, size: 0x8, addend: 0x0, symName: __ZN19NewTokenFrameParams24GenerateDecodeFailParamsEv, symObjAddr: 0x15E60, symBinAddr: 0x100017DD0, symSize: 0x1F0 }
  - { offsetInCU: 0xDB061, offset: 0xE75CA, size: 0x8, addend: 0x0, symName: __ZL50gtest_FrameTestNewTokenFrameTest_EvalGenerateName_RKN7testing13TestParamInfoI19NewTokenFrameParamsEE, symObjAddr: 0x5C80, symBinAddr: 0x100007E70, symSize: 0xF0 }
  - { offsetInCU: 0xDB852, offset: 0xE7DBB, size: 0x8, addend: 0x0, symName: __ZN44StreamFrameTest_StreamFrameEncodeDecode_Test13AddToRegistryEv, symObjAddr: 0x5D70, symBinAddr: 0x100007F60, symSize: 0x1F0 }
  - { offsetInCU: 0xDC85C, offset: 0xE8DC5, size: 0x8, addend: 0x0, symName: __ZN7testing8internal30ParameterizedTestSuiteRegistry25GetTestSuitePatternHolderI15StreamFrameTestEEPNS0_26ParameterizedTestSuiteInfoIT_EENSt3__112basic_stringIcNS8_11char_traitsIcEENS8_9allocatorIcEEEENS0_12CodeLocationE, symObjAddr: 0x71F0, symBinAddr: 0x1000093E0, symSize: 0x340 }
  - { offsetInCU: 0xDD8F7, offset: 0xE9E60, size: 0x8, addend: 0x0, symName: __ZN7testing8internal26ParameterizedTestSuiteInfoI15StreamFrameTestE14AddTestPatternEPKcS5_PNS0_19TestMetaFactoryBaseI15QUIC_FRAME_TYPEEENS0_12CodeLocationE, symObjAddr: 0x16610, symBinAddr: 0x100018580, symSize: 0x200 }
  - { offsetInCU: 0xDE411, offset: 0xEA97A, size: 0x8, addend: 0x0, symName: __ZN44StreamFrameTest_StreamFrameEncodeDecode_Test8TestBodyEv, symObjAddr: 0x5F60, symBinAddr: 0x100008150, symSize: 0xAB0 }
  - { offsetInCU: 0xE0143, offset: 0xEC6AC, size: 0x8, addend: 0x0, symName: __ZN42StreamFrameTest_DecodeStreamFrameFail_Test13AddToRegistryEv, symObjAddr: 0x6A10, symBinAddr: 0x100008C00, symSize: 0x1F0 }
  - { offsetInCU: 0xE1281, offset: 0xED7EA, size: 0x8, addend: 0x0, symName: __ZN42StreamFrameTest_DecodeStreamFrameFail_Test8TestBodyEv, symObjAddr: 0x6C00, symBinAddr: 0x100008DF0, symSize: 0x5F0 }
  - { offsetInCU: 0xE208B, offset: 0xEE5F4, size: 0x8, addend: 0x0, symName: __ZlsRNSt3__113basic_ostreamIcNS_11char_traitsIcEEEERK15QUIC_FRAME_TYPE, symObjAddr: 0x12260, symBinAddr: 0x1000143D0, symSize: 0x530 }
  - { offsetInCU: 0xE2793, offset: 0xEECFC, size: 0x8, addend: 0x0, symName: __ZL45gtest_FrameTestStreamFrameTest_EvalGenerator_v, symObjAddr: 0x7530, symBinAddr: 0x100009720, symSize: 0x60 }
  - { offsetInCU: 0xE2C9A, offset: 0xEF203, size: 0x8, addend: 0x0, symName: __ZL48gtest_FrameTestStreamFrameTest_EvalGenerateName_RKN7testing13TestParamInfoI15QUIC_FRAME_TYPEEE, symObjAddr: 0x7590, symBinAddr: 0x100009780, symSize: 0x30 }
  - { offsetInCU: 0xE2D2B, offset: 0xEF294, size: 0x8, addend: 0x0, symName: __ZN39FrameTest_MaxDataFrameEncodeDecode_Test8TestBodyEv, symObjAddr: 0x75C0, symBinAddr: 0x1000097B0, symSize: 0x320 }
  - { offsetInCU: 0xE3608, offset: 0xEFB71, size: 0x8, addend: 0x0, symName: __ZN44MaxDataFrameTest_DecodeMaxDataFrameFail_Test13AddToRegistryEv, symObjAddr: 0x78E0, symBinAddr: 0x100009AD0, symSize: 0x1E0 }
  - { offsetInCU: 0xE4612, offset: 0xF0B7B, size: 0x8, addend: 0x0, symName: __ZN7testing8internal30ParameterizedTestSuiteRegistry25GetTestSuitePatternHolderI16MaxDataFrameTestEEPNS0_26ParameterizedTestSuiteInfoIT_EENSt3__112basic_stringIcNS8_11char_traitsIcEENS8_9allocatorIcEEEENS0_12CodeLocationE, symObjAddr: 0x7CD0, symBinAddr: 0x100009EC0, symSize: 0x340 }
  - { offsetInCU: 0xE56AD, offset: 0xF1C16, size: 0x8, addend: 0x0, symName: __ZN7testing8internal26ParameterizedTestSuiteInfoI16MaxDataFrameTestE14AddTestPatternEPKcS5_PNS0_19TestMetaFactoryBaseI18MaxDataFrameParamsEENS0_12CodeLocationE, symObjAddr: 0x16DE0, symBinAddr: 0x100018D10, symSize: 0x200 }
  - { offsetInCU: 0xE5FD8, offset: 0xF2541, size: 0x8, addend: 0x0, symName: __ZN44MaxDataFrameTest_DecodeMaxDataFrameFail_Test8TestBodyEv, symObjAddr: 0x7AC0, symBinAddr: 0x100009CB0, symSize: 0x160 }
  - { offsetInCU: 0xE6852, offset: 0xF2DBB, size: 0x8, addend: 0x0, symName: __ZN7testing18WithParamInterfaceI18MaxDataFrameParamsE8GetParamEv, symObjAddr: 0x7C20, symBinAddr: 0x100009E10, symSize: 0xB0 }
  - { offsetInCU: 0xE6AFD, offset: 0xF3066, size: 0x8, addend: 0x0, symName: __ZL46gtest_FrameTestMaxDataFrameTest_EvalGenerator_v, symObjAddr: 0x8010, symBinAddr: 0x10000A200, symSize: 0x60 }
  - { offsetInCU: 0xE6E94, offset: 0xF33FD, size: 0x8, addend: 0x0, symName: __ZN18MaxDataFrameParams24GenerateDecodeFailParamsEv, symObjAddr: 0x174D0, symBinAddr: 0x100019380, symSize: 0x1B0 }
  - { offsetInCU: 0xE79BF, offset: 0xF3F28, size: 0x8, addend: 0x0, symName: __ZL49gtest_FrameTestMaxDataFrameTest_EvalGenerateName_RKN7testing13TestParamInfoI18MaxDataFrameParamsEE, symObjAddr: 0x8070, symBinAddr: 0x10000A260, symSize: 0xF0 }
  - { offsetInCU: 0xE8163, offset: 0xF46CC, size: 0x8, addend: 0x0, symName: __ZN45FrameTest_MaxStreamDataFrameEncodeDecode_Test8TestBodyEv, symObjAddr: 0x8160, symBinAddr: 0x10000A350, symSize: 0x410 }
  - { offsetInCU: 0xE8B96, offset: 0xF50FF, size: 0x8, addend: 0x0, symName: __ZN56MaxStreamDataFrameTest_DecodeMaxStreamDataFrameFail_Test13AddToRegistryEv, symObjAddr: 0x8570, symBinAddr: 0x10000A760, symSize: 0x1F0 }
  - { offsetInCU: 0xE9BA0, offset: 0xF6109, size: 0x8, addend: 0x0, symName: __ZN7testing8internal30ParameterizedTestSuiteRegistry25GetTestSuitePatternHolderI22MaxStreamDataFrameTestEEPNS0_26ParameterizedTestSuiteInfoIT_EENSt3__112basic_stringIcNS8_11char_traitsIcEENS8_9allocatorIcEEEENS0_12CodeLocationE, symObjAddr: 0x8970, symBinAddr: 0x10000AB60, symSize: 0x340 }
  - { offsetInCU: 0xEAC3B, offset: 0xF71A4, size: 0x8, addend: 0x0, symName: __ZN7testing8internal26ParameterizedTestSuiteInfoI22MaxStreamDataFrameTestE14AddTestPatternEPKcS5_PNS0_19TestMetaFactoryBaseI24MaxStreamDataFrameParamsEENS0_12CodeLocationE, symObjAddr: 0x17C90, symBinAddr: 0x100019B40, symSize: 0x200 }
  - { offsetInCU: 0xEB566, offset: 0xF7ACF, size: 0x8, addend: 0x0, symName: __ZN56MaxStreamDataFrameTest_DecodeMaxStreamDataFrameFail_Test8TestBodyEv, symObjAddr: 0x8760, symBinAddr: 0x10000A950, symSize: 0x160 }
  - { offsetInCU: 0xEBDE0, offset: 0xF8349, size: 0x8, addend: 0x0, symName: __ZN7testing18WithParamInterfaceI24MaxStreamDataFrameParamsE8GetParamEv, symObjAddr: 0x88C0, symBinAddr: 0x10000AAB0, symSize: 0xB0 }
  - { offsetInCU: 0xEC08B, offset: 0xF85F4, size: 0x8, addend: 0x0, symName: __ZL52gtest_FrameTestMaxStreamDataFrameTest_EvalGenerator_v, symObjAddr: 0x8CB0, symBinAddr: 0x10000AEA0, symSize: 0x60 }
  - { offsetInCU: 0xEC422, offset: 0xF898B, size: 0x8, addend: 0x0, symName: __ZN24MaxStreamDataFrameParams24GenerateDecodeFailParamsEv, symObjAddr: 0x18390, symBinAddr: 0x10001A1C0, symSize: 0x270 }
  - { offsetInCU: 0xECF80, offset: 0xF94E9, size: 0x8, addend: 0x0, symName: __ZL55gtest_FrameTestMaxStreamDataFrameTest_EvalGenerateName_RKN7testing13TestParamInfoI24MaxStreamDataFrameParamsEE, symObjAddr: 0x8D10, symBinAddr: 0x10000AF00, symSize: 0xF0 }
  - { offsetInCU: 0xED771, offset: 0xF9CDA, size: 0x8, addend: 0x0, symName: __ZN52MaxStreamsFrameTest_MaxStreamsFrameEncodeDecode_Test13AddToRegistryEv, symObjAddr: 0x8E00, symBinAddr: 0x10000AFF0, symSize: 0x1F0 }
  - { offsetInCU: 0xEE77B, offset: 0xFACE4, size: 0x8, addend: 0x0, symName: __ZN7testing8internal30ParameterizedTestSuiteRegistry25GetTestSuitePatternHolderI19MaxStreamsFrameTestEEPNS0_26ParameterizedTestSuiteInfoIT_EENSt3__112basic_stringIcNS8_11char_traitsIcEENS8_9allocatorIcEEEENS0_12CodeLocationE, symObjAddr: 0x9840, symBinAddr: 0x10000BA30, symSize: 0x340 }
  - { offsetInCU: 0xEF816, offset: 0xFBD7F, size: 0x8, addend: 0x0, symName: __ZN7testing8internal26ParameterizedTestSuiteInfoI19MaxStreamsFrameTestE14AddTestPatternEPKcS5_PNS0_19TestMetaFactoryBaseIbEENS0_12CodeLocationE, symObjAddr: 0x18BC0, symBinAddr: 0x10001A9F0, symSize: 0x200 }
  - { offsetInCU: 0xF0141, offset: 0xFC6AA, size: 0x8, addend: 0x0, symName: __ZN52MaxStreamsFrameTest_MaxStreamsFrameEncodeDecode_Test8TestBodyEv, symObjAddr: 0x8FF0, symBinAddr: 0x10000B1E0, symSize: 0x410 }
  - { offsetInCU: 0xF0AAB, offset: 0xFD014, size: 0x8, addend: 0x0, symName: __ZN7testing18WithParamInterfaceIbE8GetParamEv, symObjAddr: 0x9400, symBinAddr: 0x10000B5F0, symSize: 0xB0 }
  - { offsetInCU: 0xF0C66, offset: 0xFD1CF, size: 0x8, addend: 0x0, symName: __ZN50MaxStreamsFrameTest_DecodeMaxStreamsFrameFail_Test13AddToRegistryEv, symObjAddr: 0x94B0, symBinAddr: 0x10000B6A0, symSize: 0x1F0 }
  - { offsetInCU: 0xF1C70, offset: 0xFE1D9, size: 0x8, addend: 0x0, symName: __ZN50MaxStreamsFrameTest_DecodeMaxStreamsFrameFail_Test8TestBodyEv, symObjAddr: 0x96A0, symBinAddr: 0x10000B890, symSize: 0x1A0 }
  - { offsetInCU: 0xF2609, offset: 0xFEB72, size: 0x8, addend: 0x0, symName: __ZL49gtest_FrameTestMaxStreamsFrameTest_EvalGenerator_v, symObjAddr: 0x9B80, symBinAddr: 0x10000BD70, symSize: 0x30 }
  - { offsetInCU: 0xF2680, offset: 0xFEBE9, size: 0x8, addend: 0x0, symName: __ZNK7testing8internal10ValueArrayIJbbEEcvNS0_14ParamGeneratorIT_EEIbEEv, symObjAddr: 0x19380, symBinAddr: 0x10001B130, symSize: 0xE0 }
  - { offsetInCU: 0xF2C76, offset: 0xFF1DF, size: 0x8, addend: 0x0, symName: __ZL52gtest_FrameTestMaxStreamsFrameTest_EvalGenerateName_RKN7testing13TestParamInfoIbEE, symObjAddr: 0x9BB0, symBinAddr: 0x10000BDA0, symSize: 0xE0 }
  - { offsetInCU: 0xF376A, offset: 0xFFCD3, size: 0x8, addend: 0x0, symName: __ZN43FrameTest_DataBlockedFrameEncodeDecode_Test8TestBodyEv, symObjAddr: 0x9C90, symBinAddr: 0x10000BE80, symSize: 0x320 }
  - { offsetInCU: 0xF4044, offset: 0x1005AD, size: 0x8, addend: 0x0, symName: __ZN52DataBlockedFrameTest_DecodeDataBlockedFrameFail_Test13AddToRegistryEv, symObjAddr: 0x9FB0, symBinAddr: 0x10000C1A0, symSize: 0x1F0 }
  - { offsetInCU: 0xF504E, offset: 0x1015B7, size: 0x8, addend: 0x0, symName: __ZN7testing8internal30ParameterizedTestSuiteRegistry25GetTestSuitePatternHolderI20DataBlockedFrameTestEEPNS0_26ParameterizedTestSuiteInfoIT_EENSt3__112basic_stringIcNS8_11char_traitsIcEENS8_9allocatorIcEEEENS0_12CodeLocationE, symObjAddr: 0xA3B0, symBinAddr: 0x10000C5A0, symSize: 0x340 }
  - { offsetInCU: 0xF60E9, offset: 0x102652, size: 0x8, addend: 0x0, symName: __ZN7testing8internal26ParameterizedTestSuiteInfoI20DataBlockedFrameTestE14AddTestPatternEPKcS5_PNS0_19TestMetaFactoryBaseI22DataBlockedFrameParamsEENS0_12CodeLocationE, symObjAddr: 0x19BC0, symBinAddr: 0x10001B970, symSize: 0x200 }
  - { offsetInCU: 0xF6A14, offset: 0x102F7D, size: 0x8, addend: 0x0, symName: __ZN52DataBlockedFrameTest_DecodeDataBlockedFrameFail_Test8TestBodyEv, symObjAddr: 0xA1A0, symBinAddr: 0x10000C390, symSize: 0x160 }
  - { offsetInCU: 0xF728E, offset: 0x1037F7, size: 0x8, addend: 0x0, symName: __ZN7testing18WithParamInterfaceI22DataBlockedFrameParamsE8GetParamEv, symObjAddr: 0xA300, symBinAddr: 0x10000C4F0, symSize: 0xB0 }
  - { offsetInCU: 0xF7539, offset: 0x103AA2, size: 0x8, addend: 0x0, symName: __ZL50gtest_FrameTestDataBlockedFrameTest_EvalGenerator_v, symObjAddr: 0xA6F0, symBinAddr: 0x10000C8E0, symSize: 0x60 }
  - { offsetInCU: 0xF78D0, offset: 0x103E39, size: 0x8, addend: 0x0, symName: __ZN22DataBlockedFrameParams24GenerateDecodeFailParamsEv, symObjAddr: 0x1A2B0, symBinAddr: 0x10001BFE0, symSize: 0x1B0 }
  - { offsetInCU: 0xF83FB, offset: 0x104964, size: 0x8, addend: 0x0, symName: __ZL53gtest_FrameTestDataBlockedFrameTest_EvalGenerateName_RKN7testing13TestParamInfoI22DataBlockedFrameParamsEE, symObjAddr: 0xA750, symBinAddr: 0x10000C940, symSize: 0xF0 }
  - { offsetInCU: 0xF8B9F, offset: 0x105108, size: 0x8, addend: 0x0, symName: __ZN49FrameTest_StreamDataBlockedFrameEncodeDecode_Test8TestBodyEv, symObjAddr: 0xA840, symBinAddr: 0x10000CA30, symSize: 0x410 }
  - { offsetInCU: 0xF95D2, offset: 0x105B3B, size: 0x8, addend: 0x0, symName: __ZN64StreamDataBlockedFrameTest_DecodeStreamDataBlockedFrameFail_Test13AddToRegistryEv, symObjAddr: 0xAC50, symBinAddr: 0x10000CE40, symSize: 0x210 }
  - { offsetInCU: 0xFA73E, offset: 0x106CA7, size: 0x8, addend: 0x0, symName: __ZN7testing8internal30ParameterizedTestSuiteRegistry25GetTestSuitePatternHolderI26StreamDataBlockedFrameTestEEPNS0_26ParameterizedTestSuiteInfoIT_EENSt3__112basic_stringIcNS8_11char_traitsIcEENS8_9allocatorIcEEEENS0_12CodeLocationE, symObjAddr: 0xB070, symBinAddr: 0x10000D260, symSize: 0x340 }
  - { offsetInCU: 0xFB7D9, offset: 0x107D42, size: 0x8, addend: 0x0, symName: __ZN7testing8internal26ParameterizedTestSuiteInfoI26StreamDataBlockedFrameTestE14AddTestPatternEPKcS5_PNS0_19TestMetaFactoryBaseI28StreamDataBlockedFrameParamsEENS0_12CodeLocationE, symObjAddr: 0x1AA70, symBinAddr: 0x10001C7A0, symSize: 0x200 }
  - { offsetInCU: 0xFC104, offset: 0x10866D, size: 0x8, addend: 0x0, symName: __ZN64StreamDataBlockedFrameTest_DecodeStreamDataBlockedFrameFail_Test8TestBodyEv, symObjAddr: 0xAE60, symBinAddr: 0x10000D050, symSize: 0x160 }
  - { offsetInCU: 0xFC97E, offset: 0x108EE7, size: 0x8, addend: 0x0, symName: __ZN7testing18WithParamInterfaceI28StreamDataBlockedFrameParamsE8GetParamEv, symObjAddr: 0xAFC0, symBinAddr: 0x10000D1B0, symSize: 0xB0 }
  - { offsetInCU: 0xFCC29, offset: 0x109192, size: 0x8, addend: 0x0, symName: __ZL56gtest_FrameTestStreamDataBlockedFrameTest_EvalGenerator_v, symObjAddr: 0xB3B0, symBinAddr: 0x10000D5A0, symSize: 0x60 }
  - { offsetInCU: 0xFCFC0, offset: 0x109529, size: 0x8, addend: 0x0, symName: __ZN28StreamDataBlockedFrameParams24GenerateDecodeFailParamsEv, symObjAddr: 0x1B170, symBinAddr: 0x10001CE20, symSize: 0x270 }
  - { offsetInCU: 0xFDB1E, offset: 0x10A087, size: 0x8, addend: 0x0, symName: __ZL59gtest_FrameTestStreamDataBlockedFrameTest_EvalGenerateName_RKN7testing13TestParamInfoI28StreamDataBlockedFrameParamsEE, symObjAddr: 0xB410, symBinAddr: 0x10000D600, symSize: 0xF0 }
  - { offsetInCU: 0xFE30F, offset: 0x10A878, size: 0x8, addend: 0x0, symName: __ZN60StreamsBlockedFrameTest_StreamsBlockedFrameEncodeDecode_Test13AddToRegistryEv, symObjAddr: 0xB500, symBinAddr: 0x10000D6F0, symSize: 0x210 }
  - { offsetInCU: 0xFF47B, offset: 0x10B9E4, size: 0x8, addend: 0x0, symName: __ZN7testing8internal30ParameterizedTestSuiteRegistry25GetTestSuitePatternHolderI23StreamsBlockedFrameTestEEPNS0_26ParameterizedTestSuiteInfoIT_EENSt3__112basic_stringIcNS8_11char_traitsIcEENS8_9allocatorIcEEEENS0_12CodeLocationE, symObjAddr: 0xBED0, symBinAddr: 0x10000E0C0, symSize: 0x340 }
  - { offsetInCU: 0x100516, offset: 0x10CA7F, size: 0x8, addend: 0x0, symName: __ZN7testing8internal26ParameterizedTestSuiteInfoI23StreamsBlockedFrameTestE14AddTestPatternEPKcS5_PNS0_19TestMetaFactoryBaseIbEENS0_12CodeLocationE, symObjAddr: 0x1B9A0, symBinAddr: 0x10001D650, symSize: 0x200 }
  - { offsetInCU: 0x100E41, offset: 0x10D3AA, size: 0x8, addend: 0x0, symName: __ZN60StreamsBlockedFrameTest_StreamsBlockedFrameEncodeDecode_Test8TestBodyEv, symObjAddr: 0xB710, symBinAddr: 0x10000D900, symSize: 0x410 }
  - { offsetInCU: 0x101884, offset: 0x10DDED, size: 0x8, addend: 0x0, symName: __ZN58StreamsBlockedFrameTest_DecodeStreamsBlockedFrameFail_Test13AddToRegistryEv, symObjAddr: 0xBB20, symBinAddr: 0x10000DD10, symSize: 0x210 }
  - { offsetInCU: 0x1029F0, offset: 0x10EF59, size: 0x8, addend: 0x0, symName: __ZN58StreamsBlockedFrameTest_DecodeStreamsBlockedFrameFail_Test8TestBodyEv, symObjAddr: 0xBD30, symBinAddr: 0x10000DF20, symSize: 0x1A0 }
  - { offsetInCU: 0x103389, offset: 0x10F8F2, size: 0x8, addend: 0x0, symName: __ZL53gtest_FrameTestStreamsBlockedFrameTest_EvalGenerator_v, symObjAddr: 0xC210, symBinAddr: 0x10000E400, symSize: 0x30 }
  - { offsetInCU: 0x1033DD, offset: 0x10F946, size: 0x8, addend: 0x0, symName: __ZL56gtest_FrameTestStreamsBlockedFrameTest_EvalGenerateName_RKN7testing13TestParamInfoIbEE, symObjAddr: 0xC240, symBinAddr: 0x10000E430, symSize: 0xE0 }
  - { offsetInCU: 0x103E48, offset: 0x1103B1, size: 0x8, addend: 0x0, symName: __ZN47FrameTest_NewConnectionIdFrameEncodeDecode_Test8TestBodyEv, symObjAddr: 0xC320, symBinAddr: 0x10000E510, symSize: 0x760 }
  - { offsetInCU: 0x10501A, offset: 0x111583, size: 0x8, addend: 0x0, symName: __ZN60NewConnectionIdFrameTest_DecodeNewConnectionIdFrameFail_Test13AddToRegistryEv, symObjAddr: 0xCA80, symBinAddr: 0x10000EC70, symSize: 0x210 }
  - { offsetInCU: 0x106186, offset: 0x1126EF, size: 0x8, addend: 0x0, symName: __ZN7testing8internal30ParameterizedTestSuiteRegistry25GetTestSuitePatternHolderI24NewConnectionIdFrameTestEEPNS0_26ParameterizedTestSuiteInfoIT_EENSt3__112basic_stringIcNS8_11char_traitsIcEENS8_9allocatorIcEEEENS0_12CodeLocationE, symObjAddr: 0xCED0, symBinAddr: 0x10000F0C0, symSize: 0x340 }
  - { offsetInCU: 0x107221, offset: 0x11378A, size: 0x8, addend: 0x0, symName: __ZN7testing8internal26ParameterizedTestSuiteInfoI24NewConnectionIdFrameTestE14AddTestPatternEPKcS5_PNS0_19TestMetaFactoryBaseI26NewConnectionIdFrameParamsEENS0_12CodeLocationE, symObjAddr: 0x1C170, symBinAddr: 0x10001DDE0, symSize: 0x200 }
  - { offsetInCU: 0x107B4C, offset: 0x1140B5, size: 0x8, addend: 0x0, symName: __ZN60NewConnectionIdFrameTest_DecodeNewConnectionIdFrameFail_Test8TestBodyEv, symObjAddr: 0xCC90, symBinAddr: 0x10000EE80, symSize: 0x190 }
  - { offsetInCU: 0x1083DA, offset: 0x114943, size: 0x8, addend: 0x0, symName: __ZN7testing18WithParamInterfaceI26NewConnectionIdFrameParamsE8GetParamEv, symObjAddr: 0xCE20, symBinAddr: 0x10000F010, symSize: 0xB0 }
  - { offsetInCU: 0x108685, offset: 0x114BEE, size: 0x8, addend: 0x0, symName: __ZL54gtest_FrameTestNewConnectionIdFrameTest_EvalGenerator_v, symObjAddr: 0xD210, symBinAddr: 0x10000F400, symSize: 0x60 }
  - { offsetInCU: 0x108A1C, offset: 0x114F85, size: 0x8, addend: 0x0, symName: __ZN26NewConnectionIdFrameParams24GenerateDecodeFailParamsEv, symObjAddr: 0x1C870, symBinAddr: 0x10001E460, symSize: 0x4A0 }
  - { offsetInCU: 0x109C90, offset: 0x1161F9, size: 0x8, addend: 0x0, symName: __ZL57gtest_FrameTestNewConnectionIdFrameTest_EvalGenerateName_RKN7testing13TestParamInfoI26NewConnectionIdFrameParamsEE, symObjAddr: 0xD270, symBinAddr: 0x10000F460, symSize: 0xF0 }
  - { offsetInCU: 0x10A434, offset: 0x11699D, size: 0x8, addend: 0x0, symName: __ZN50FrameTest_RetireConnectionIdFrameEncodeDecode_Test8TestBodyEv, symObjAddr: 0xD360, symBinAddr: 0x10000F550, symSize: 0x310 }
  - { offsetInCU: 0x10AD0E, offset: 0x117277, size: 0x8, addend: 0x0, symName: __ZN66RetireConnectionIdFrameTest_DecodeRetireConnectionIdFrameFail_Test13AddToRegistryEv, symObjAddr: 0xD670, symBinAddr: 0x10000F860, symSize: 0x210 }
  - { offsetInCU: 0x10BE7A, offset: 0x1183E3, size: 0x8, addend: 0x0, symName: __ZN7testing8internal30ParameterizedTestSuiteRegistry25GetTestSuitePatternHolderI27RetireConnectionIdFrameTestEEPNS0_26ParameterizedTestSuiteInfoIT_EENSt3__112basic_stringIcNS8_11char_traitsIcEENS8_9allocatorIcEEEENS0_12CodeLocationE, symObjAddr: 0xDA90, symBinAddr: 0x10000FC80, symSize: 0x340 }
  - { offsetInCU: 0x10CF15, offset: 0x11947E, size: 0x8, addend: 0x0, symName: __ZN7testing8internal26ParameterizedTestSuiteInfoI27RetireConnectionIdFrameTestE14AddTestPatternEPKcS5_PNS0_19TestMetaFactoryBaseI29RetireConnectionIdFrameParamsEENS0_12CodeLocationE, symObjAddr: 0x1D350, symBinAddr: 0x10001EF40, symSize: 0x200 }
  - { offsetInCU: 0x10D840, offset: 0x119DA9, size: 0x8, addend: 0x0, symName: __ZN66RetireConnectionIdFrameTest_DecodeRetireConnectionIdFrameFail_Test8TestBodyEv, symObjAddr: 0xD880, symBinAddr: 0x10000FA70, symSize: 0x160 }
  - { offsetInCU: 0x10E0BA, offset: 0x11A623, size: 0x8, addend: 0x0, symName: __ZN7testing18WithParamInterfaceI29RetireConnectionIdFrameParamsE8GetParamEv, symObjAddr: 0xD9E0, symBinAddr: 0x10000FBD0, symSize: 0xB0 }
  - { offsetInCU: 0x10E365, offset: 0x11A8CE, size: 0x8, addend: 0x0, symName: __ZL57gtest_FrameTestRetireConnectionIdFrameTest_EvalGenerator_v, symObjAddr: 0xDDD0, symBinAddr: 0x10000FFC0, symSize: 0x60 }
  - { offsetInCU: 0x10E6FC, offset: 0x11AC65, size: 0x8, addend: 0x0, symName: __ZN29RetireConnectionIdFrameParams24GenerateDecodeFailParamsEv, symObjAddr: 0x1DA40, symBinAddr: 0x10001F5B0, symSize: 0x1B0 }
  - { offsetInCU: 0x10F227, offset: 0x11B790, size: 0x8, addend: 0x0, symName: __ZL60gtest_FrameTestRetireConnectionIdFrameTest_EvalGenerateName_RKN7testing13TestParamInfoI29RetireConnectionIdFrameParamsEE, symObjAddr: 0xDE30, symBinAddr: 0x100010020, symSize: 0xF0 }
  - { offsetInCU: 0x10FA18, offset: 0x11BF81, size: 0x8, addend: 0x0, symName: __ZN74PathChallengeResponseFrameTest_PathChallengeResponseFrameEncodeDecode_Test13AddToRegistryEv, symObjAddr: 0xDF20, symBinAddr: 0x100010110, symSize: 0x210 }
  - { offsetInCU: 0x110B84, offset: 0x11D0ED, size: 0x8, addend: 0x0, symName: __ZN7testing8internal30ParameterizedTestSuiteRegistry25GetTestSuitePatternHolderI30PathChallengeResponseFrameTestEEPNS0_26ParameterizedTestSuiteInfoIT_EENSt3__112basic_stringIcNS8_11char_traitsIcEENS8_9allocatorIcEEEENS0_12CodeLocationE, symObjAddr: 0xE910, symBinAddr: 0x100010B00, symSize: 0x340 }
  - { offsetInCU: 0x111C1F, offset: 0x11E188, size: 0x8, addend: 0x0, symName: __ZN7testing8internal26ParameterizedTestSuiteInfoI30PathChallengeResponseFrameTestE14AddTestPatternEPKcS5_PNS0_19TestMetaFactoryBaseI15QUIC_FRAME_TYPEEENS0_12CodeLocationE, symObjAddr: 0x1E190, symBinAddr: 0x10001FD00, symSize: 0x200 }
  - { offsetInCU: 0x11254A, offset: 0x11EAB3, size: 0x8, addend: 0x0, symName: __ZN74PathChallengeResponseFrameTest_PathChallengeResponseFrameEncodeDecode_Test8TestBodyEv, symObjAddr: 0xE130, symBinAddr: 0x100010320, symSize: 0x450 }
  - { offsetInCU: 0x112FA6, offset: 0x11F50F, size: 0x8, addend: 0x0, symName: __ZN72PathChallengeResponseFrameTest_DecodePathChallengeResponseFrameFail_Test13AddToRegistryEv, symObjAddr: 0xE580, symBinAddr: 0x100010770, symSize: 0x210 }
  - { offsetInCU: 0x114112, offset: 0x12067B, size: 0x8, addend: 0x0, symName: __ZN72PathChallengeResponseFrameTest_DecodePathChallengeResponseFrameFail_Test8TestBodyEv, symObjAddr: 0xE790, symBinAddr: 0x100010980, symSize: 0x180 }
  - { offsetInCU: 0x114A3D, offset: 0x120FA6, size: 0x8, addend: 0x0, symName: __ZL60gtest_FrameTestPathChallengeResponseFrameTest_EvalGenerator_v, symObjAddr: 0xEC50, symBinAddr: 0x100010E40, symSize: 0x60 }
  - { offsetInCU: 0x114F4B, offset: 0x1214B4, size: 0x8, addend: 0x0, symName: __ZL63gtest_FrameTestPathChallengeResponseFrameTest_EvalGenerateName_RKN7testing13TestParamInfoI15QUIC_FRAME_TYPEEE, symObjAddr: 0xECB0, symBinAddr: 0x100010EA0, symSize: 0x30 }
  - { offsetInCU: 0x115029, offset: 0x121592, size: 0x8, addend: 0x0, symName: __ZN62ConnectionCloseFrameTest_ConnectionCloseFrameEncodeDecode_Test13AddToRegistryEv, symObjAddr: 0xECE0, symBinAddr: 0x100010ED0, symSize: 0x210 }
  - { offsetInCU: 0x116195, offset: 0x1226FE, size: 0x8, addend: 0x0, symName: __ZN7testing8internal30ParameterizedTestSuiteRegistry25GetTestSuitePatternHolderI24ConnectionCloseFrameTestEEPNS0_26ParameterizedTestSuiteInfoIT_EENSt3__112basic_stringIcNS8_11char_traitsIcEENS8_9allocatorIcEEEENS0_12CodeLocationE, symObjAddr: 0xF5D0, symBinAddr: 0x1000117C0, symSize: 0x340 }
  - { offsetInCU: 0x117230, offset: 0x123799, size: 0x8, addend: 0x0, symName: __ZN7testing8internal26ParameterizedTestSuiteInfoI24ConnectionCloseFrameTestE14AddTestPatternEPKcS5_PNS0_19TestMetaFactoryBaseIbEENS0_12CodeLocationE, symObjAddr: 0x1E8F0, symBinAddr: 0x100020420, symSize: 0x200 }
  - { offsetInCU: 0x117B5B, offset: 0x1240C4, size: 0x8, addend: 0x0, symName: __ZN62ConnectionCloseFrameTest_ConnectionCloseFrameEncodeDecode_Test8TestBodyEv, symObjAddr: 0xEEF0, symBinAddr: 0x1000110E0, symSize: 0x6E0 }
  - { offsetInCU: 0x119125, offset: 0x12568E, size: 0x8, addend: 0x0, symName: __ZL54gtest_FrameTestConnectionCloseFrameTest_EvalGenerator_v, symObjAddr: 0xF910, symBinAddr: 0x100011B00, symSize: 0x30 }
  - { offsetInCU: 0x119179, offset: 0x1256E2, size: 0x8, addend: 0x0, symName: __ZL57gtest_FrameTestConnectionCloseFrameTest_EvalGenerateName_RKN7testing13TestParamInfoIbEE, symObjAddr: 0xF940, symBinAddr: 0x100011B30, symSize: 0xF0 }
  - { offsetInCU: 0x119C1E, offset: 0x126187, size: 0x8, addend: 0x0, symName: __ZN66ConnectionCloseFrameDecodeTest_DecodeConnectionCloseFrameFail_Test13AddToRegistryEv, symObjAddr: 0xFA30, symBinAddr: 0x100011C20, symSize: 0x210 }
  - { offsetInCU: 0x11AD8A, offset: 0x1272F3, size: 0x8, addend: 0x0, symName: __ZN7testing8internal30ParameterizedTestSuiteRegistry25GetTestSuitePatternHolderI30ConnectionCloseFrameDecodeTestEEPNS0_26ParameterizedTestSuiteInfoIT_EENSt3__112basic_stringIcNS8_11char_traitsIcEENS8_9allocatorIcEEEENS0_12CodeLocationE, symObjAddr: 0xFE60, symBinAddr: 0x100012050, symSize: 0x340 }
  - { offsetInCU: 0x11BE25, offset: 0x12838E, size: 0x8, addend: 0x0, symName: __ZN7testing8internal26ParameterizedTestSuiteInfoI30ConnectionCloseFrameDecodeTestE14AddTestPatternEPKcS5_PNS0_19TestMetaFactoryBaseI26ConnectionCloseFrameParamsEENS0_12CodeLocationE, symObjAddr: 0x1EF80, symBinAddr: 0x100020A70, symSize: 0x200 }
  - { offsetInCU: 0x11C750, offset: 0x128CB9, size: 0x8, addend: 0x0, symName: __ZN66ConnectionCloseFrameDecodeTest_DecodeConnectionCloseFrameFail_Test8TestBodyEv, symObjAddr: 0xFC40, symBinAddr: 0x100011E30, symSize: 0x170 }
  - { offsetInCU: 0x11CFDF, offset: 0x129548, size: 0x8, addend: 0x0, symName: __ZN7testing18WithParamInterfaceI26ConnectionCloseFrameParamsE8GetParamEv, symObjAddr: 0xFDB0, symBinAddr: 0x100011FA0, symSize: 0xB0 }
  - { offsetInCU: 0x11D28A, offset: 0x1297F3, size: 0x8, addend: 0x0, symName: __ZL60gtest_FrameTestConnectionCloseFrameDecodeTest_EvalGenerator_v, symObjAddr: 0x101A0, symBinAddr: 0x100012390, symSize: 0x60 }
  - { offsetInCU: 0x11D621, offset: 0x129B8A, size: 0x8, addend: 0x0, symName: __ZN26ConnectionCloseFrameParams24GenerateDecodeFailParamsEv, symObjAddr: 0x1F670, symBinAddr: 0x1000210E0, symSize: 0x4F0 }
  - { offsetInCU: 0x11E77B, offset: 0x12ACE4, size: 0x8, addend: 0x0, symName: __ZL63gtest_FrameTestConnectionCloseFrameDecodeTest_EvalGenerateName_RKN7testing13TestParamInfoI26ConnectionCloseFrameParamsEE, symObjAddr: 0x10200, symBinAddr: 0x1000123F0, symSize: 0xF0 }
  - { offsetInCU: 0x11EF8D, offset: 0x12B4F6, size: 0x8, addend: 0x0, symName: __ZN38AckFrameTest_AckFrameEncodeDecode_TestD1Ev, symObjAddr: 0x102F0, symBinAddr: 0x1000124E0, symSize: 0x10 }
  - { offsetInCU: 0x11F024, offset: 0x12B58D, size: 0x8, addend: 0x0, symName: __ZN38AckFrameTest_AckFrameEncodeDecode_TestD0Ev, symObjAddr: 0x10300, symBinAddr: 0x1000124F0, symSize: 0x20 }
  - { offsetInCU: 0x11F0BF, offset: 0x12B628, size: 0x8, addend: 0x0, symName: __ZN7testing4Test5SetupEv, symObjAddr: 0x10320, symBinAddr: 0x100012510, symSize: 0x10 }
  - { offsetInCU: 0x11F0E4, offset: 0x12B64D, size: 0x8, addend: 0x0, symName: __ZThn16_N38AckFrameTest_AckFrameEncodeDecode_TestD1Ev, symObjAddr: 0x10330, symBinAddr: 0x100012520, symSize: 0x10 }
  - { offsetInCU: 0x11F18E, offset: 0x12B6F7, size: 0x8, addend: 0x0, symName: __ZThn16_N38AckFrameTest_AckFrameEncodeDecode_TestD0Ev, symObjAddr: 0x10340, symBinAddr: 0x100012530, symSize: 0x30 }
  - { offsetInCU: 0x11F25D, offset: 0x12B7C6, size: 0x8, addend: 0x0, symName: __ZN36AckFrameTest_DecodeAckFrameFail_TestD1Ev, symObjAddr: 0x10370, symBinAddr: 0x100012560, symSize: 0x10 }
  - { offsetInCU: 0x11F2F4, offset: 0x12B85D, size: 0x8, addend: 0x0, symName: __ZN36AckFrameTest_DecodeAckFrameFail_TestD0Ev, symObjAddr: 0x10380, symBinAddr: 0x100012570, symSize: 0x20 }
  - { offsetInCU: 0x11F38F, offset: 0x12B8F8, size: 0x8, addend: 0x0, symName: __ZThn16_N36AckFrameTest_DecodeAckFrameFail_TestD1Ev, symObjAddr: 0x103A0, symBinAddr: 0x100012590, symSize: 0x10 }
  - { offsetInCU: 0x11F439, offset: 0x12B9A2, size: 0x8, addend: 0x0, symName: __ZThn16_N36AckFrameTest_DecodeAckFrameFail_TestD0Ev, symObjAddr: 0x103B0, symBinAddr: 0x1000125A0, symSize: 0x30 }
  - { offsetInCU: 0x11F506, offset: 0x12BA6F, size: 0x8, addend: 0x0, symName: __ZN43FrameTest_ResetStreamFrameEncodeDecode_TestD1Ev, symObjAddr: 0x103E0, symBinAddr: 0x1000125D0, symSize: 0x10 }
  - { offsetInCU: 0x11F55F, offset: 0x12BAC8, size: 0x8, addend: 0x0, symName: __ZN43FrameTest_ResetStreamFrameEncodeDecode_TestD0Ev, symObjAddr: 0x103F0, symBinAddr: 0x1000125E0, symSize: 0x20 }
  - { offsetInCU: 0x11F5E5, offset: 0x12BB4E, size: 0x8, addend: 0x0, symName: __ZN51FrameTest_ReliableResetStreamFrameEncodeDecode_TestD1Ev, symObjAddr: 0x10410, symBinAddr: 0x100012600, symSize: 0x10 }
  - { offsetInCU: 0x11F63E, offset: 0x12BBA7, size: 0x8, addend: 0x0, symName: __ZN51FrameTest_ReliableResetStreamFrameEncodeDecode_TestD0Ev, symObjAddr: 0x10420, symBinAddr: 0x100012610, symSize: 0x20 }
  - { offsetInCU: 0x11F715, offset: 0x12BC7E, size: 0x8, addend: 0x0, symName: __ZN52ResetStreamFrameTest_DecodeResetStreamFrameFail_TestD1Ev, symObjAddr: 0x10440, symBinAddr: 0x100012630, symSize: 0x10 }
  - { offsetInCU: 0x11F7B0, offset: 0x12BD19, size: 0x8, addend: 0x0, symName: __ZN52ResetStreamFrameTest_DecodeResetStreamFrameFail_TestD0Ev, symObjAddr: 0x10450, symBinAddr: 0x100012640, symSize: 0x20 }
  - { offsetInCU: 0x11F84F, offset: 0x12BDB8, size: 0x8, addend: 0x0, symName: __ZThn16_N52ResetStreamFrameTest_DecodeResetStreamFrameFail_TestD1Ev, symObjAddr: 0x10470, symBinAddr: 0x100012660, symSize: 0x10 }
  - { offsetInCU: 0x11F8FE, offset: 0x12BE67, size: 0x8, addend: 0x0, symName: __ZThn16_N52ResetStreamFrameTest_DecodeResetStreamFrameFail_TestD0Ev, symObjAddr: 0x10480, symBinAddr: 0x100012670, symSize: 0x30 }
  - { offsetInCU: 0x11F9D0, offset: 0x12BF39, size: 0x8, addend: 0x0, symName: __ZN43FrameTest_StopSendingFrameEncodeDecode_TestD1Ev, symObjAddr: 0x104B0, symBinAddr: 0x1000126A0, symSize: 0x10 }
  - { offsetInCU: 0x11FA2A, offset: 0x12BF93, size: 0x8, addend: 0x0, symName: __ZN43FrameTest_StopSendingFrameEncodeDecode_TestD0Ev, symObjAddr: 0x104C0, symBinAddr: 0x1000126B0, symSize: 0x20 }
  - { offsetInCU: 0x11FB03, offset: 0x12C06C, size: 0x8, addend: 0x0, symName: __ZN52StopSendingFrameTest_DecodeStopSendingFrameFail_TestD1Ev, symObjAddr: 0x104E0, symBinAddr: 0x1000126D0, symSize: 0x10 }
  - { offsetInCU: 0x11FB9E, offset: 0x12C107, size: 0x8, addend: 0x0, symName: __ZN52StopSendingFrameTest_DecodeStopSendingFrameFail_TestD0Ev, symObjAddr: 0x104F0, symBinAddr: 0x1000126E0, symSize: 0x20 }
  - { offsetInCU: 0x11FC3D, offset: 0x12C1A6, size: 0x8, addend: 0x0, symName: __ZThn16_N52StopSendingFrameTest_DecodeStopSendingFrameFail_TestD1Ev, symObjAddr: 0x10510, symBinAddr: 0x100012700, symSize: 0x10 }
  - { offsetInCU: 0x11FCEC, offset: 0x12C255, size: 0x8, addend: 0x0, symName: __ZThn16_N52StopSendingFrameTest_DecodeStopSendingFrameFail_TestD0Ev, symObjAddr: 0x10520, symBinAddr: 0x100012710, symSize: 0x30 }
  - { offsetInCU: 0x11FDBE, offset: 0x12C327, size: 0x8, addend: 0x0, symName: __ZN38FrameTest_CryptoFrameEncodeDecode_TestD1Ev, symObjAddr: 0x10550, symBinAddr: 0x100012740, symSize: 0x10 }
  - { offsetInCU: 0x11FE18, offset: 0x12C381, size: 0x8, addend: 0x0, symName: __ZN38FrameTest_CryptoFrameEncodeDecode_TestD0Ev, symObjAddr: 0x10560, symBinAddr: 0x100012750, symSize: 0x20 }
  - { offsetInCU: 0x11FEF1, offset: 0x12C45A, size: 0x8, addend: 0x0, symName: __ZN42CryptoFrameTest_DecodeCryptoFrameFail_TestD1Ev, symObjAddr: 0x10580, symBinAddr: 0x100012770, symSize: 0x10 }
  - { offsetInCU: 0x11FF8C, offset: 0x12C4F5, size: 0x8, addend: 0x0, symName: __ZN42CryptoFrameTest_DecodeCryptoFrameFail_TestD0Ev, symObjAddr: 0x10590, symBinAddr: 0x100012780, symSize: 0x20 }
  - { offsetInCU: 0x12002B, offset: 0x12C594, size: 0x8, addend: 0x0, symName: __ZThn16_N42CryptoFrameTest_DecodeCryptoFrameFail_TestD1Ev, symObjAddr: 0x105B0, symBinAddr: 0x1000127A0, symSize: 0x10 }
  - { offsetInCU: 0x1200DA, offset: 0x12C643, size: 0x8, addend: 0x0, symName: __ZThn16_N42CryptoFrameTest_DecodeCryptoFrameFail_TestD0Ev, symObjAddr: 0x105C0, symBinAddr: 0x1000127B0, symSize: 0x30 }
  - { offsetInCU: 0x1201AC, offset: 0x12C715, size: 0x8, addend: 0x0, symName: __ZN40FrameTest_NewTokenFrameEncodeDecode_TestD1Ev, symObjAddr: 0x105F0, symBinAddr: 0x1000127E0, symSize: 0x10 }
  - { offsetInCU: 0x120206, offset: 0x12C76F, size: 0x8, addend: 0x0, symName: __ZN40FrameTest_NewTokenFrameEncodeDecode_TestD0Ev, symObjAddr: 0x10600, symBinAddr: 0x1000127F0, symSize: 0x20 }
  - { offsetInCU: 0x1202DF, offset: 0x12C848, size: 0x8, addend: 0x0, symName: __ZN46NewTokenFrameTest_DecodeNewTokenFrameFail_TestD1Ev, symObjAddr: 0x10620, symBinAddr: 0x100012810, symSize: 0x10 }
  - { offsetInCU: 0x12037A, offset: 0x12C8E3, size: 0x8, addend: 0x0, symName: __ZN46NewTokenFrameTest_DecodeNewTokenFrameFail_TestD0Ev, symObjAddr: 0x10630, symBinAddr: 0x100012820, symSize: 0x20 }
  - { offsetInCU: 0x120419, offset: 0x12C982, size: 0x8, addend: 0x0, symName: __ZThn16_N46NewTokenFrameTest_DecodeNewTokenFrameFail_TestD1Ev, symObjAddr: 0x10650, symBinAddr: 0x100012840, symSize: 0x10 }
  - { offsetInCU: 0x1204C8, offset: 0x12CA31, size: 0x8, addend: 0x0, symName: __ZThn16_N46NewTokenFrameTest_DecodeNewTokenFrameFail_TestD0Ev, symObjAddr: 0x10660, symBinAddr: 0x100012850, symSize: 0x30 }
  - { offsetInCU: 0x1205C4, offset: 0x12CB2D, size: 0x8, addend: 0x0, symName: __ZN44StreamFrameTest_StreamFrameEncodeDecode_TestD1Ev, symObjAddr: 0x10690, symBinAddr: 0x100012880, symSize: 0x10 }
  - { offsetInCU: 0x12065F, offset: 0x12CBC8, size: 0x8, addend: 0x0, symName: __ZN44StreamFrameTest_StreamFrameEncodeDecode_TestD0Ev, symObjAddr: 0x106A0, symBinAddr: 0x100012890, symSize: 0x20 }
  - { offsetInCU: 0x1206FE, offset: 0x12CC67, size: 0x8, addend: 0x0, symName: __ZThn16_N44StreamFrameTest_StreamFrameEncodeDecode_TestD1Ev, symObjAddr: 0x106C0, symBinAddr: 0x1000128B0, symSize: 0x10 }
  - { offsetInCU: 0x1207AD, offset: 0x12CD16, size: 0x8, addend: 0x0, symName: __ZThn16_N44StreamFrameTest_StreamFrameEncodeDecode_TestD0Ev, symObjAddr: 0x106D0, symBinAddr: 0x1000128C0, symSize: 0x30 }
  - { offsetInCU: 0x120882, offset: 0x12CDEB, size: 0x8, addend: 0x0, symName: __ZN42StreamFrameTest_DecodeStreamFrameFail_TestD1Ev, symObjAddr: 0x10700, symBinAddr: 0x1000128F0, symSize: 0x10 }
  - { offsetInCU: 0x12091D, offset: 0x12CE86, size: 0x8, addend: 0x0, symName: __ZN42StreamFrameTest_DecodeStreamFrameFail_TestD0Ev, symObjAddr: 0x10710, symBinAddr: 0x100012900, symSize: 0x20 }
  - { offsetInCU: 0x1209BC, offset: 0x12CF25, size: 0x8, addend: 0x0, symName: __ZThn16_N42StreamFrameTest_DecodeStreamFrameFail_TestD1Ev, symObjAddr: 0x10730, symBinAddr: 0x100012920, symSize: 0x10 }
  - { offsetInCU: 0x120A6B, offset: 0x12CFD4, size: 0x8, addend: 0x0, symName: __ZThn16_N42StreamFrameTest_DecodeStreamFrameFail_TestD0Ev, symObjAddr: 0x10740, symBinAddr: 0x100012930, symSize: 0x30 }
  - { offsetInCU: 0x120B3D, offset: 0x12D0A6, size: 0x8, addend: 0x0, symName: __ZN39FrameTest_MaxDataFrameEncodeDecode_TestD1Ev, symObjAddr: 0x10770, symBinAddr: 0x100012960, symSize: 0x10 }
  - { offsetInCU: 0x120B97, offset: 0x12D100, size: 0x8, addend: 0x0, symName: __ZN39FrameTest_MaxDataFrameEncodeDecode_TestD0Ev, symObjAddr: 0x10780, symBinAddr: 0x100012970, symSize: 0x20 }
  - { offsetInCU: 0x120C70, offset: 0x12D1D9, size: 0x8, addend: 0x0, symName: __ZN44MaxDataFrameTest_DecodeMaxDataFrameFail_TestD1Ev, symObjAddr: 0x107A0, symBinAddr: 0x100012990, symSize: 0x10 }
  - { offsetInCU: 0x120D0B, offset: 0x12D274, size: 0x8, addend: 0x0, symName: __ZN44MaxDataFrameTest_DecodeMaxDataFrameFail_TestD0Ev, symObjAddr: 0x107B0, symBinAddr: 0x1000129A0, symSize: 0x20 }
  - { offsetInCU: 0x120DAA, offset: 0x12D313, size: 0x8, addend: 0x0, symName: __ZThn16_N44MaxDataFrameTest_DecodeMaxDataFrameFail_TestD1Ev, symObjAddr: 0x107D0, symBinAddr: 0x1000129C0, symSize: 0x10 }
  - { offsetInCU: 0x120E59, offset: 0x12D3C2, size: 0x8, addend: 0x0, symName: __ZThn16_N44MaxDataFrameTest_DecodeMaxDataFrameFail_TestD0Ev, symObjAddr: 0x107E0, symBinAddr: 0x1000129D0, symSize: 0x30 }
  - { offsetInCU: 0x120F2B, offset: 0x12D494, size: 0x8, addend: 0x0, symName: __ZN45FrameTest_MaxStreamDataFrameEncodeDecode_TestD1Ev, symObjAddr: 0x10810, symBinAddr: 0x100012A00, symSize: 0x10 }
  - { offsetInCU: 0x120F85, offset: 0x12D4EE, size: 0x8, addend: 0x0, symName: __ZN45FrameTest_MaxStreamDataFrameEncodeDecode_TestD0Ev, symObjAddr: 0x10820, symBinAddr: 0x100012A10, symSize: 0x20 }
  - { offsetInCU: 0x12105E, offset: 0x12D5C7, size: 0x8, addend: 0x0, symName: __ZN56MaxStreamDataFrameTest_DecodeMaxStreamDataFrameFail_TestD1Ev, symObjAddr: 0x10840, symBinAddr: 0x100012A30, symSize: 0x10 }
  - { offsetInCU: 0x1210F9, offset: 0x12D662, size: 0x8, addend: 0x0, symName: __ZN56MaxStreamDataFrameTest_DecodeMaxStreamDataFrameFail_TestD0Ev, symObjAddr: 0x10850, symBinAddr: 0x100012A40, symSize: 0x20 }
  - { offsetInCU: 0x121198, offset: 0x12D701, size: 0x8, addend: 0x0, symName: __ZThn16_N56MaxStreamDataFrameTest_DecodeMaxStreamDataFrameFail_TestD1Ev, symObjAddr: 0x10870, symBinAddr: 0x100012A60, symSize: 0x10 }
  - { offsetInCU: 0x121247, offset: 0x12D7B0, size: 0x8, addend: 0x0, symName: __ZThn16_N56MaxStreamDataFrameTest_DecodeMaxStreamDataFrameFail_TestD0Ev, symObjAddr: 0x10880, symBinAddr: 0x100012A70, symSize: 0x30 }
  - { offsetInCU: 0x12136A, offset: 0x12D8D3, size: 0x8, addend: 0x0, symName: __ZN52MaxStreamsFrameTest_MaxStreamsFrameEncodeDecode_TestD1Ev, symObjAddr: 0x108B0, symBinAddr: 0x100012AA0, symSize: 0x10 }
  - { offsetInCU: 0x121405, offset: 0x12D96E, size: 0x8, addend: 0x0, symName: __ZN52MaxStreamsFrameTest_MaxStreamsFrameEncodeDecode_TestD0Ev, symObjAddr: 0x108C0, symBinAddr: 0x100012AB0, symSize: 0x20 }
  - { offsetInCU: 0x1214A4, offset: 0x12DA0D, size: 0x8, addend: 0x0, symName: __ZThn16_N52MaxStreamsFrameTest_MaxStreamsFrameEncodeDecode_TestD1Ev, symObjAddr: 0x108E0, symBinAddr: 0x100012AD0, symSize: 0x10 }
  - { offsetInCU: 0x121553, offset: 0x12DABC, size: 0x8, addend: 0x0, symName: __ZThn16_N52MaxStreamsFrameTest_MaxStreamsFrameEncodeDecode_TestD0Ev, symObjAddr: 0x108F0, symBinAddr: 0x100012AE0, symSize: 0x30 }
  - { offsetInCU: 0x121628, offset: 0x12DB91, size: 0x8, addend: 0x0, symName: __ZN50MaxStreamsFrameTest_DecodeMaxStreamsFrameFail_TestD1Ev, symObjAddr: 0x10920, symBinAddr: 0x100012B10, symSize: 0x10 }
  - { offsetInCU: 0x1216C3, offset: 0x12DC2C, size: 0x8, addend: 0x0, symName: __ZN50MaxStreamsFrameTest_DecodeMaxStreamsFrameFail_TestD0Ev, symObjAddr: 0x10930, symBinAddr: 0x100012B20, symSize: 0x20 }
  - { offsetInCU: 0x121762, offset: 0x12DCCB, size: 0x8, addend: 0x0, symName: __ZThn16_N50MaxStreamsFrameTest_DecodeMaxStreamsFrameFail_TestD1Ev, symObjAddr: 0x10950, symBinAddr: 0x100012B40, symSize: 0x10 }
  - { offsetInCU: 0x121811, offset: 0x12DD7A, size: 0x8, addend: 0x0, symName: __ZThn16_N50MaxStreamsFrameTest_DecodeMaxStreamsFrameFail_TestD0Ev, symObjAddr: 0x10960, symBinAddr: 0x100012B50, symSize: 0x30 }
  - { offsetInCU: 0x1218E3, offset: 0x12DE4C, size: 0x8, addend: 0x0, symName: __ZN43FrameTest_DataBlockedFrameEncodeDecode_TestD1Ev, symObjAddr: 0x10990, symBinAddr: 0x100012B80, symSize: 0x10 }
  - { offsetInCU: 0x12193D, offset: 0x12DEA6, size: 0x8, addend: 0x0, symName: __ZN43FrameTest_DataBlockedFrameEncodeDecode_TestD0Ev, symObjAddr: 0x109A0, symBinAddr: 0x100012B90, symSize: 0x20 }
  - { offsetInCU: 0x121A16, offset: 0x12DF7F, size: 0x8, addend: 0x0, symName: __ZN52DataBlockedFrameTest_DecodeDataBlockedFrameFail_TestD1Ev, symObjAddr: 0x109C0, symBinAddr: 0x100012BB0, symSize: 0x10 }
  - { offsetInCU: 0x121AB1, offset: 0x12E01A, size: 0x8, addend: 0x0, symName: __ZN52DataBlockedFrameTest_DecodeDataBlockedFrameFail_TestD0Ev, symObjAddr: 0x109D0, symBinAddr: 0x100012BC0, symSize: 0x20 }
  - { offsetInCU: 0x121B50, offset: 0x12E0B9, size: 0x8, addend: 0x0, symName: __ZThn16_N52DataBlockedFrameTest_DecodeDataBlockedFrameFail_TestD1Ev, symObjAddr: 0x109F0, symBinAddr: 0x100012BE0, symSize: 0x10 }
  - { offsetInCU: 0x121BFF, offset: 0x12E168, size: 0x8, addend: 0x0, symName: __ZThn16_N52DataBlockedFrameTest_DecodeDataBlockedFrameFail_TestD0Ev, symObjAddr: 0x10A00, symBinAddr: 0x100012BF0, symSize: 0x30 }
  - { offsetInCU: 0x121CD1, offset: 0x12E23A, size: 0x8, addend: 0x0, symName: __ZN49FrameTest_StreamDataBlockedFrameEncodeDecode_TestD1Ev, symObjAddr: 0x10A30, symBinAddr: 0x100012C20, symSize: 0x10 }
  - { offsetInCU: 0x121D2B, offset: 0x12E294, size: 0x8, addend: 0x0, symName: __ZN49FrameTest_StreamDataBlockedFrameEncodeDecode_TestD0Ev, symObjAddr: 0x10A40, symBinAddr: 0x100012C30, symSize: 0x20 }
  - { offsetInCU: 0x121E04, offset: 0x12E36D, size: 0x8, addend: 0x0, symName: __ZN64StreamDataBlockedFrameTest_DecodeStreamDataBlockedFrameFail_TestD1Ev, symObjAddr: 0x10A60, symBinAddr: 0x100012C50, symSize: 0x10 }
  - { offsetInCU: 0x121E9F, offset: 0x12E408, size: 0x8, addend: 0x0, symName: __ZN64StreamDataBlockedFrameTest_DecodeStreamDataBlockedFrameFail_TestD0Ev, symObjAddr: 0x10A70, symBinAddr: 0x100012C60, symSize: 0x20 }
  - { offsetInCU: 0x121F3E, offset: 0x12E4A7, size: 0x8, addend: 0x0, symName: __ZThn16_N64StreamDataBlockedFrameTest_DecodeStreamDataBlockedFrameFail_TestD1Ev, symObjAddr: 0x10A90, symBinAddr: 0x100012C80, symSize: 0x10 }
  - { offsetInCU: 0x121FED, offset: 0x12E556, size: 0x8, addend: 0x0, symName: __ZThn16_N64StreamDataBlockedFrameTest_DecodeStreamDataBlockedFrameFail_TestD0Ev, symObjAddr: 0x10AA0, symBinAddr: 0x100012C90, symSize: 0x30 }
  - { offsetInCU: 0x1220E9, offset: 0x12E652, size: 0x8, addend: 0x0, symName: __ZN60StreamsBlockedFrameTest_StreamsBlockedFrameEncodeDecode_TestD1Ev, symObjAddr: 0x10AD0, symBinAddr: 0x100012CC0, symSize: 0x10 }
  - { offsetInCU: 0x122184, offset: 0x12E6ED, size: 0x8, addend: 0x0, symName: __ZN60StreamsBlockedFrameTest_StreamsBlockedFrameEncodeDecode_TestD0Ev, symObjAddr: 0x10AE0, symBinAddr: 0x100012CD0, symSize: 0x20 }
  - { offsetInCU: 0x122223, offset: 0x12E78C, size: 0x8, addend: 0x0, symName: __ZThn16_N60StreamsBlockedFrameTest_StreamsBlockedFrameEncodeDecode_TestD1Ev, symObjAddr: 0x10B00, symBinAddr: 0x100012CF0, symSize: 0x10 }
  - { offsetInCU: 0x1222D2, offset: 0x12E83B, size: 0x8, addend: 0x0, symName: __ZThn16_N60StreamsBlockedFrameTest_StreamsBlockedFrameEncodeDecode_TestD0Ev, symObjAddr: 0x10B10, symBinAddr: 0x100012D00, symSize: 0x30 }
  - { offsetInCU: 0x1223A7, offset: 0x12E910, size: 0x8, addend: 0x0, symName: __ZN58StreamsBlockedFrameTest_DecodeStreamsBlockedFrameFail_TestD1Ev, symObjAddr: 0x10B40, symBinAddr: 0x100012D30, symSize: 0x10 }
  - { offsetInCU: 0x122442, offset: 0x12E9AB, size: 0x8, addend: 0x0, symName: __ZN58StreamsBlockedFrameTest_DecodeStreamsBlockedFrameFail_TestD0Ev, symObjAddr: 0x10B50, symBinAddr: 0x100012D40, symSize: 0x20 }
  - { offsetInCU: 0x1224E1, offset: 0x12EA4A, size: 0x8, addend: 0x0, symName: __ZThn16_N58StreamsBlockedFrameTest_DecodeStreamsBlockedFrameFail_TestD1Ev, symObjAddr: 0x10B70, symBinAddr: 0x100012D60, symSize: 0x10 }
  - { offsetInCU: 0x122590, offset: 0x12EAF9, size: 0x8, addend: 0x0, symName: __ZThn16_N58StreamsBlockedFrameTest_DecodeStreamsBlockedFrameFail_TestD0Ev, symObjAddr: 0x10B80, symBinAddr: 0x100012D70, symSize: 0x30 }
  - { offsetInCU: 0x122662, offset: 0x12EBCB, size: 0x8, addend: 0x0, symName: __ZN47FrameTest_NewConnectionIdFrameEncodeDecode_TestD1Ev, symObjAddr: 0x10BB0, symBinAddr: 0x100012DA0, symSize: 0x10 }
  - { offsetInCU: 0x1226BC, offset: 0x12EC25, size: 0x8, addend: 0x0, symName: __ZN47FrameTest_NewConnectionIdFrameEncodeDecode_TestD0Ev, symObjAddr: 0x10BC0, symBinAddr: 0x100012DB0, symSize: 0x20 }
  - { offsetInCU: 0x122795, offset: 0x12ECFE, size: 0x8, addend: 0x0, symName: __ZN60NewConnectionIdFrameTest_DecodeNewConnectionIdFrameFail_TestD1Ev, symObjAddr: 0x10BE0, symBinAddr: 0x100012DD0, symSize: 0x10 }
  - { offsetInCU: 0x122830, offset: 0x12ED99, size: 0x8, addend: 0x0, symName: __ZN60NewConnectionIdFrameTest_DecodeNewConnectionIdFrameFail_TestD0Ev, symObjAddr: 0x10BF0, symBinAddr: 0x100012DE0, symSize: 0x20 }
  - { offsetInCU: 0x1228CF, offset: 0x12EE38, size: 0x8, addend: 0x0, symName: __ZThn16_N60NewConnectionIdFrameTest_DecodeNewConnectionIdFrameFail_TestD1Ev, symObjAddr: 0x10C10, symBinAddr: 0x100012E00, symSize: 0x10 }
  - { offsetInCU: 0x12297E, offset: 0x12EEE7, size: 0x8, addend: 0x0, symName: __ZThn16_N60NewConnectionIdFrameTest_DecodeNewConnectionIdFrameFail_TestD0Ev, symObjAddr: 0x10C20, symBinAddr: 0x100012E10, symSize: 0x30 }
  - { offsetInCU: 0x122A50, offset: 0x12EFB9, size: 0x8, addend: 0x0, symName: __ZN50FrameTest_RetireConnectionIdFrameEncodeDecode_TestD1Ev, symObjAddr: 0x10C50, symBinAddr: 0x100012E40, symSize: 0x10 }
  - { offsetInCU: 0x122AAA, offset: 0x12F013, size: 0x8, addend: 0x0, symName: __ZN50FrameTest_RetireConnectionIdFrameEncodeDecode_TestD0Ev, symObjAddr: 0x10C60, symBinAddr: 0x100012E50, symSize: 0x20 }
  - { offsetInCU: 0x122B83, offset: 0x12F0EC, size: 0x8, addend: 0x0, symName: __ZN66RetireConnectionIdFrameTest_DecodeRetireConnectionIdFrameFail_TestD1Ev, symObjAddr: 0x10C80, symBinAddr: 0x100012E70, symSize: 0x10 }
  - { offsetInCU: 0x122C1E, offset: 0x12F187, size: 0x8, addend: 0x0, symName: __ZN66RetireConnectionIdFrameTest_DecodeRetireConnectionIdFrameFail_TestD0Ev, symObjAddr: 0x10C90, symBinAddr: 0x100012E80, symSize: 0x20 }
  - { offsetInCU: 0x122CBD, offset: 0x12F226, size: 0x8, addend: 0x0, symName: __ZThn16_N66RetireConnectionIdFrameTest_DecodeRetireConnectionIdFrameFail_TestD1Ev, symObjAddr: 0x10CB0, symBinAddr: 0x100012EA0, symSize: 0x10 }
  - { offsetInCU: 0x122D6C, offset: 0x12F2D5, size: 0x8, addend: 0x0, symName: __ZThn16_N66RetireConnectionIdFrameTest_DecodeRetireConnectionIdFrameFail_TestD0Ev, symObjAddr: 0x10CC0, symBinAddr: 0x100012EB0, symSize: 0x30 }
  - { offsetInCU: 0x122E68, offset: 0x12F3D1, size: 0x8, addend: 0x0, symName: __ZN74PathChallengeResponseFrameTest_PathChallengeResponseFrameEncodeDecode_TestD1Ev, symObjAddr: 0x10CF0, symBinAddr: 0x100012EE0, symSize: 0x10 }
  - { offsetInCU: 0x122F03, offset: 0x12F46C, size: 0x8, addend: 0x0, symName: __ZN74PathChallengeResponseFrameTest_PathChallengeResponseFrameEncodeDecode_TestD0Ev, symObjAddr: 0x10D00, symBinAddr: 0x100012EF0, symSize: 0x20 }
  - { offsetInCU: 0x122FA2, offset: 0x12F50B, size: 0x8, addend: 0x0, symName: __ZThn16_N74PathChallengeResponseFrameTest_PathChallengeResponseFrameEncodeDecode_TestD1Ev, symObjAddr: 0x10D20, symBinAddr: 0x100012F10, symSize: 0x10 }
  - { offsetInCU: 0x123051, offset: 0x12F5BA, size: 0x8, addend: 0x0, symName: __ZThn16_N74PathChallengeResponseFrameTest_PathChallengeResponseFrameEncodeDecode_TestD0Ev, symObjAddr: 0x10D30, symBinAddr: 0x100012F20, symSize: 0x30 }
  - { offsetInCU: 0x123126, offset: 0x12F68F, size: 0x8, addend: 0x0, symName: __ZN72PathChallengeResponseFrameTest_DecodePathChallengeResponseFrameFail_TestD1Ev, symObjAddr: 0x10D60, symBinAddr: 0x100012F50, symSize: 0x10 }
  - { offsetInCU: 0x1231C1, offset: 0x12F72A, size: 0x8, addend: 0x0, symName: __ZN72PathChallengeResponseFrameTest_DecodePathChallengeResponseFrameFail_TestD0Ev, symObjAddr: 0x10D70, symBinAddr: 0x100012F60, symSize: 0x20 }
  - { offsetInCU: 0x123260, offset: 0x12F7C9, size: 0x8, addend: 0x0, symName: __ZThn16_N72PathChallengeResponseFrameTest_DecodePathChallengeResponseFrameFail_TestD1Ev, symObjAddr: 0x10D90, symBinAddr: 0x100012F80, symSize: 0x10 }
  - { offsetInCU: 0x12330F, offset: 0x12F878, size: 0x8, addend: 0x0, symName: __ZThn16_N72PathChallengeResponseFrameTest_DecodePathChallengeResponseFrameFail_TestD0Ev, symObjAddr: 0x10DA0, symBinAddr: 0x100012F90, symSize: 0x30 }
  - { offsetInCU: 0x12340B, offset: 0x12F974, size: 0x8, addend: 0x0, symName: __ZN62ConnectionCloseFrameTest_ConnectionCloseFrameEncodeDecode_TestD1Ev, symObjAddr: 0x10DD0, symBinAddr: 0x100012FC0, symSize: 0x10 }
  - { offsetInCU: 0x1234A6, offset: 0x12FA0F, size: 0x8, addend: 0x0, symName: __ZN62ConnectionCloseFrameTest_ConnectionCloseFrameEncodeDecode_TestD0Ev, symObjAddr: 0x10DE0, symBinAddr: 0x100012FD0, symSize: 0x20 }
  - { offsetInCU: 0x123545, offset: 0x12FAAE, size: 0x8, addend: 0x0, symName: __ZThn16_N62ConnectionCloseFrameTest_ConnectionCloseFrameEncodeDecode_TestD1Ev, symObjAddr: 0x10E00, symBinAddr: 0x100012FF0, symSize: 0x10 }
  - { offsetInCU: 0x1235F4, offset: 0x12FB5D, size: 0x8, addend: 0x0, symName: __ZThn16_N62ConnectionCloseFrameTest_ConnectionCloseFrameEncodeDecode_TestD0Ev, symObjAddr: 0x10E10, symBinAddr: 0x100013000, symSize: 0x30 }
  - { offsetInCU: 0x123717, offset: 0x12FC80, size: 0x8, addend: 0x0, symName: __ZN66ConnectionCloseFrameDecodeTest_DecodeConnectionCloseFrameFail_TestD1Ev, symObjAddr: 0x10E40, symBinAddr: 0x100013030, symSize: 0x10 }
  - { offsetInCU: 0x1237B2, offset: 0x12FD1B, size: 0x8, addend: 0x0, symName: __ZN66ConnectionCloseFrameDecodeTest_DecodeConnectionCloseFrameFail_TestD0Ev, symObjAddr: 0x10E50, symBinAddr: 0x100013040, symSize: 0x20 }
  - { offsetInCU: 0x123851, offset: 0x12FDBA, size: 0x8, addend: 0x0, symName: __ZThn16_N66ConnectionCloseFrameDecodeTest_DecodeConnectionCloseFrameFail_TestD1Ev, symObjAddr: 0x10E70, symBinAddr: 0x100013060, symSize: 0x10 }
  - { offsetInCU: 0x123900, offset: 0x12FE69, size: 0x8, addend: 0x0, symName: __ZThn16_N66ConnectionCloseFrameDecodeTest_DecodeConnectionCloseFrameFail_TestD0Ev, symObjAddr: 0x10E80, symBinAddr: 0x100013070, symSize: 0x30 }
  - { offsetInCU: 0x123C9F, offset: 0x130208, size: 0x8, addend: 0x0, symName: __ZNSt3__110shared_ptrIN7testing8internal26ParameterizedTestSuiteInfoI12AckFrameTestE8TestInfoEEC1B8ue170006IS6_vEEPT_, symObjAddr: 0x11280, symBinAddr: 0x100013470, symSize: 0x60 }
  - { offsetInCU: 0x123E98, offset: 0x130401, size: 0x8, addend: 0x0, symName: __ZNSt3__16vectorINS_10shared_ptrIN7testing8internal26ParameterizedTestSuiteInfoI12AckFrameTestE8TestInfoEEENS_9allocatorIS8_EEE24__emplace_back_slow_pathIJPS7_EEEvDpOT_, symObjAddr: 0x110B0, symBinAddr: 0x1000132A0, symSize: 0x1D0 }
  - { offsetInCU: 0x124AAB, offset: 0x131014, size: 0x8, addend: 0x0, symName: __ZNKSt3__16vectorINS_10shared_ptrIN7testing8internal26ParameterizedTestSuiteInfoI12AckFrameTestE8TestInfoEEENS_9allocatorIS8_EEE20__throw_length_errorB8ue170006Ev, symObjAddr: 0x11430, symBinAddr: 0x100013620, symSize: 0x10 }
  - { offsetInCU: 0x124AD4, offset: 0x13103D, size: 0x8, addend: 0x0, symName: __ZNSt3__120__throw_length_errorB8ue170006EPKc, symObjAddr: 0x11440, symBinAddr: 0x100013630, symSize: 0x50 }
  - { offsetInCU: 0x124AE0, offset: 0x131049, size: 0x8, addend: 0x0, symName: __ZNSt3__114__split_bufferINS_10shared_ptrIN7testing8internal26ParameterizedTestSuiteInfoI12AckFrameTestE8TestInfoEEERNS_9allocatorIS8_EEED1Ev, symObjAddr: 0x113B0, symBinAddr: 0x1000135A0, symSize: 0x80 }
  - { offsetInCU: 0x1250C0, offset: 0x131629, size: 0x8, addend: 0x0, symName: __ZNSt3__110shared_ptrIN7testing8internal26ParameterizedTestSuiteInfoI12AckFrameTestE8TestInfoEEC1B8ue170006IS6_vEEPT_.cold.1, symObjAddr: 0x39550, symBinAddr: 0x100419B10, symSize: 0x50 }
  - { offsetInCU: 0x12545A, offset: 0x1319C3, size: 0x8, addend: 0x0, symName: __ZNSt3__120__shared_ptr_pointerIPN7testing8internal26ParameterizedTestSuiteInfoI12AckFrameTestE8TestInfoENS_10shared_ptrIS6_E27__shared_ptr_default_deleteIS6_S6_EENS_9allocatorIS6_EEED1Ev, symObjAddr: 0x112F0, symBinAddr: 0x1000134E0, symSize: 0x10 }
  - { offsetInCU: 0x1254B5, offset: 0x131A1E, size: 0x8, addend: 0x0, symName: __ZNSt3__120__shared_ptr_pointerIPN7testing8internal26ParameterizedTestSuiteInfoI12AckFrameTestE8TestInfoENS_10shared_ptrIS6_E27__shared_ptr_default_deleteIS6_S6_EENS_9allocatorIS6_EEED0Ev, symObjAddr: 0x11300, symBinAddr: 0x1000134F0, symSize: 0x20 }
  - { offsetInCU: 0x1255E1, offset: 0x131B4A, size: 0x8, addend: 0x0, symName: __ZNSt3__120__shared_ptr_pointerIPN7testing8internal26ParameterizedTestSuiteInfoI12AckFrameTestE8TestInfoENS_10shared_ptrIS6_E27__shared_ptr_default_deleteIS6_S6_EENS_9allocatorIS6_EEE16__on_zero_sharedEv, symObjAddr: 0x11320, symBinAddr: 0x100013510, symSize: 0x60 }
  - { offsetInCU: 0x1259F3, offset: 0x131F5C, size: 0x8, addend: 0x0, symName: __ZNKSt3__120__shared_ptr_pointerIPN7testing8internal26ParameterizedTestSuiteInfoI12AckFrameTestE8TestInfoENS_10shared_ptrIS6_E27__shared_ptr_default_deleteIS6_S6_EENS_9allocatorIS6_EEE13__get_deleterERKSt9type_info, symObjAddr: 0x11380, symBinAddr: 0x100013570, symSize: 0x20 }
  - { offsetInCU: 0x125ABA, offset: 0x132023, size: 0x8, addend: 0x0, symName: __ZNSt3__120__shared_ptr_pointerIPN7testing8internal26ParameterizedTestSuiteInfoI12AckFrameTestE8TestInfoENS_10shared_ptrIS6_E27__shared_ptr_default_deleteIS6_S6_EENS_9allocatorIS6_EEE21__on_zero_shared_weakEv, symObjAddr: 0x113A0, symBinAddr: 0x100013590, symSize: 0x10 }
  - { offsetInCU: 0x125B98, offset: 0x132101, size: 0x8, addend: 0x0, symName: __ZNSt12length_errorC1B8ue170006EPKc, symObjAddr: 0x11490, symBinAddr: 0x100013680, symSize: 0x30 }
  - { offsetInCU: 0x125C28, offset: 0x132191, size: 0x8, addend: 0x0, symName: __ZN7testing8internal15TestMetaFactoryI38AckFrameTest_AckFrameEncodeDecode_TestED1Ev, symObjAddr: 0x11500, symBinAddr: 0x1000136F0, symSize: 0x10 }
  - { offsetInCU: 0x125C54, offset: 0x1321BD, size: 0x8, addend: 0x0, symName: __ZN7testing8internal15TestMetaFactoryI38AckFrameTest_AckFrameEncodeDecode_TestED0Ev, symObjAddr: 0x11510, symBinAddr: 0x100013700, symSize: 0x10 }
  - { offsetInCU: 0x125CEA, offset: 0x132253, size: 0x8, addend: 0x0, symName: __ZN7testing8internal15TestMetaFactoryI38AckFrameTest_AckFrameEncodeDecode_TestE17CreateTestFactoryE15QUIC_FRAME_TYPE, symObjAddr: 0x11520, symBinAddr: 0x100013710, symSize: 0x30 }
  - { offsetInCU: 0x125D70, offset: 0x1322D9, size: 0x8, addend: 0x0, symName: __ZN7testing8internal24ParameterizedTestFactoryI38AckFrameTest_AckFrameEncodeDecode_TestED1Ev, symObjAddr: 0x11550, symBinAddr: 0x100013740, symSize: 0x10 }
  - { offsetInCU: 0x125D9C, offset: 0x132305, size: 0x8, addend: 0x0, symName: __ZN7testing8internal24ParameterizedTestFactoryI38AckFrameTest_AckFrameEncodeDecode_TestED0Ev, symObjAddr: 0x11560, symBinAddr: 0x100013750, symSize: 0x10 }
  - { offsetInCU: 0x125E49, offset: 0x1323B2, size: 0x8, addend: 0x0, symName: __ZN7testing8internal24ParameterizedTestFactoryI38AckFrameTest_AckFrameEncodeDecode_TestE10CreateTestEv, symObjAddr: 0x11570, symBinAddr: 0x100013760, symSize: 0x60 }
  - { offsetInCU: 0x125F08, offset: 0x132471, size: 0x8, addend: 0x0, symName: __ZN12AckFrameTestD1Ev, symObjAddr: 0x115D0, symBinAddr: 0x100419390, symSize: 0x10 }
  - { offsetInCU: 0x125F29, offset: 0x132492, size: 0x8, addend: 0x0, symName: __ZN12AckFrameTestD0Ev, symObjAddr: 0x115E0, symBinAddr: 0x1004193A0, symSize: 0x10 }
  - { offsetInCU: 0x125F66, offset: 0x1324CF, size: 0x8, addend: 0x0, symName: __ZThn16_N12AckFrameTestD1Ev, symObjAddr: 0x115F0, symBinAddr: 0x1004193B0, symSize: 0x10 }
  - { offsetInCU: 0x125FB8, offset: 0x132521, size: 0x8, addend: 0x0, symName: __ZThn16_N12AckFrameTestD0Ev, symObjAddr: 0x11600, symBinAddr: 0x1004193C0, symSize: 0x10 }
  - { offsetInCU: 0x125FEE, offset: 0x132557, size: 0x8, addend: 0x0, symName: __ZN7testing13TestWithParamI15QUIC_FRAME_TYPEED1Ev, symObjAddr: 0x11610, symBinAddr: 0x1004193D0, symSize: 0x10 }
  - { offsetInCU: 0x12600F, offset: 0x132578, size: 0x8, addend: 0x0, symName: __ZN7testing13TestWithParamI15QUIC_FRAME_TYPEED0Ev, symObjAddr: 0x11620, symBinAddr: 0x1004193E0, symSize: 0x10 }
  - { offsetInCU: 0x12604D, offset: 0x1325B6, size: 0x8, addend: 0x0, symName: __ZThn16_N7testing13TestWithParamI15QUIC_FRAME_TYPEED1Ev, symObjAddr: 0x11630, symBinAddr: 0x1004193F0, symSize: 0x10 }
  - { offsetInCU: 0x1260A1, offset: 0x13260A, size: 0x8, addend: 0x0, symName: __ZThn16_N7testing13TestWithParamI15QUIC_FRAME_TYPEED0Ev, symObjAddr: 0x11640, symBinAddr: 0x100419400, symSize: 0x10 }
  - { offsetInCU: 0x1260D8, offset: 0x132641, size: 0x8, addend: 0x0, symName: __ZN7testing18WithParamInterfaceI15QUIC_FRAME_TYPEED1Ev, symObjAddr: 0x11650, symBinAddr: 0x1000137C0, symSize: 0x10 }
  - { offsetInCU: 0x126101, offset: 0x13266A, size: 0x8, addend: 0x0, symName: __ZN7testing18WithParamInterfaceI15QUIC_FRAME_TYPEED0Ev, symObjAddr: 0x11660, symBinAddr: 0x1000137D0, symSize: 0x10 }
  - { offsetInCU: 0x12612A, offset: 0x132693, size: 0x8, addend: 0x0, symName: __ZN7testing8internal15TestMetaFactoryI36AckFrameTest_DecodeAckFrameFail_TestED1Ev, symObjAddr: 0x11670, symBinAddr: 0x1000137E0, symSize: 0x10 }
  - { offsetInCU: 0x126156, offset: 0x1326BF, size: 0x8, addend: 0x0, symName: __ZN7testing8internal15TestMetaFactoryI36AckFrameTest_DecodeAckFrameFail_TestED0Ev, symObjAddr: 0x11680, symBinAddr: 0x1000137F0, symSize: 0x10 }
  - { offsetInCU: 0x1261EC, offset: 0x132755, size: 0x8, addend: 0x0, symName: __ZN7testing8internal15TestMetaFactoryI36AckFrameTest_DecodeAckFrameFail_TestE17CreateTestFactoryE15QUIC_FRAME_TYPE, symObjAddr: 0x11690, symBinAddr: 0x100013800, symSize: 0x30 }
  - { offsetInCU: 0x126272, offset: 0x1327DB, size: 0x8, addend: 0x0, symName: __ZN7testing8internal24ParameterizedTestFactoryI36AckFrameTest_DecodeAckFrameFail_TestED1Ev, symObjAddr: 0x116C0, symBinAddr: 0x100013830, symSize: 0x10 }
  - { offsetInCU: 0x12629E, offset: 0x132807, size: 0x8, addend: 0x0, symName: __ZN7testing8internal24ParameterizedTestFactoryI36AckFrameTest_DecodeAckFrameFail_TestED0Ev, symObjAddr: 0x116D0, symBinAddr: 0x100013840, symSize: 0x10 }
  - { offsetInCU: 0x1262FE, offset: 0x132867, size: 0x8, addend: 0x0, symName: __ZN7testing8internal24ParameterizedTestFactoryI36AckFrameTest_DecodeAckFrameFail_TestE10CreateTestEv, symObjAddr: 0x116E0, symBinAddr: 0x100013850, symSize: 0x60 }
  - { offsetInCU: 0x126A10, offset: 0x132F79, size: 0x8, addend: 0x0, symName: __ZNKSt3__16vectorI15QUIC_FRAME_TYPENS_9allocatorIS1_EEE20__throw_length_errorB8ue170006Ev, symObjAddr: 0x11940, symBinAddr: 0x100013AB0, symSize: 0x10 }
  - { offsetInCU: 0x126A39, offset: 0x132FA2, size: 0x8, addend: 0x0, symName: __ZN7testing8internal30ValuesInIteratorRangeGeneratorI15QUIC_FRAME_TYPEE8IteratorD1Ev, symObjAddr: 0x11950, symBinAddr: 0x100013AC0, symSize: 0x30 }
  - { offsetInCU: 0x126A45, offset: 0x132FAE, size: 0x8, addend: 0x0, symName: __ZN7testing8internal30ValuesInIteratorRangeGeneratorI15QUIC_FRAME_TYPEED0Ev, symObjAddr: 0x11880, symBinAddr: 0x1000139F0, symSize: 0x40 }
  - { offsetInCU: 0x126C20, offset: 0x133189, size: 0x8, addend: 0x0, symName: __ZN7testing8internal30ValuesInIteratorRangeGeneratorI15QUIC_FRAME_TYPEED1Ev, symObjAddr: 0x11850, symBinAddr: 0x1000139C0, symSize: 0x30 }
  - { offsetInCU: 0x126F45, offset: 0x1334AE, size: 0x8, addend: 0x0, symName: __ZNK7testing8internal30ValuesInIteratorRangeGeneratorI15QUIC_FRAME_TYPEE5BeginEv, symObjAddr: 0x118C0, symBinAddr: 0x100013A30, symSize: 0x40 }
  - { offsetInCU: 0x1270A4, offset: 0x13360D, size: 0x8, addend: 0x0, symName: __ZNK7testing8internal30ValuesInIteratorRangeGeneratorI15QUIC_FRAME_TYPEE3EndEv, symObjAddr: 0x11900, symBinAddr: 0x100013A70, symSize: 0x40 }
  - { offsetInCU: 0x12728E, offset: 0x1337F7, size: 0x8, addend: 0x0, symName: __ZN7testing8internal30ValuesInIteratorRangeGeneratorI15QUIC_FRAME_TYPEE8IteratorD1Ev, symObjAddr: 0x11950, symBinAddr: 0x100013AC0, symSize: 0x30 }
  - { offsetInCU: 0x127389, offset: 0x1338F2, size: 0x8, addend: 0x0, symName: __ZN7testing8internal30ValuesInIteratorRangeGeneratorI15QUIC_FRAME_TYPEE8IteratorD0Ev, symObjAddr: 0x11980, symBinAddr: 0x100013AF0, symSize: 0x40 }
  - { offsetInCU: 0x12748F, offset: 0x1339F8, size: 0x8, addend: 0x0, symName: __ZNK7testing8internal30ValuesInIteratorRangeGeneratorI15QUIC_FRAME_TYPEE8Iterator13BaseGeneratorEv, symObjAddr: 0x119C0, symBinAddr: 0x100013B30, symSize: 0x10 }
  - { offsetInCU: 0x1274CF, offset: 0x133A38, size: 0x8, addend: 0x0, symName: __ZN7testing8internal30ValuesInIteratorRangeGeneratorI15QUIC_FRAME_TYPEE8Iterator7AdvanceEv, symObjAddr: 0x119D0, symBinAddr: 0x100013B40, symSize: 0x30 }
  - { offsetInCU: 0x1275BE, offset: 0x133B27, size: 0x8, addend: 0x0, symName: __ZNK7testing8internal30ValuesInIteratorRangeGeneratorI15QUIC_FRAME_TYPEE8Iterator5CloneEv, symObjAddr: 0x11A00, symBinAddr: 0x100013B70, symSize: 0x40 }
  - { offsetInCU: 0x12770A, offset: 0x133C73, size: 0x8, addend: 0x0, symName: __ZNK7testing8internal30ValuesInIteratorRangeGeneratorI15QUIC_FRAME_TYPEE8Iterator7CurrentEv, symObjAddr: 0x11A40, symBinAddr: 0x100013BB0, symSize: 0x40 }
  - { offsetInCU: 0x127856, offset: 0x133DBF, size: 0x8, addend: 0x0, symName: __ZNK7testing8internal30ValuesInIteratorRangeGeneratorI15QUIC_FRAME_TYPEE8Iterator6EqualsERKNS0_22ParamIteratorInterfaceIS2_EE, symObjAddr: 0x11A80, symBinAddr: 0x100013BF0, symSize: 0x140 }
  - { offsetInCU: 0x127D93, offset: 0x1342FC, size: 0x8, addend: 0x0, symName: __ZNSt3__120__shared_ptr_pointerIPN7testing8internal23ParamGeneratorInterfaceI15QUIC_FRAME_TYPEEENS_10shared_ptrIKS5_E27__shared_ptr_default_deleteIS8_S5_EENS_9allocatorIS5_EEED1Ev, symObjAddr: 0x11F40, symBinAddr: 0x1000140B0, symSize: 0x10 }
  - { offsetInCU: 0x127DEE, offset: 0x134357, size: 0x8, addend: 0x0, symName: __ZNSt3__120__shared_ptr_pointerIPN7testing8internal23ParamGeneratorInterfaceI15QUIC_FRAME_TYPEEENS_10shared_ptrIKS5_E27__shared_ptr_default_deleteIS8_S5_EENS_9allocatorIS5_EEED0Ev, symObjAddr: 0x11F50, symBinAddr: 0x1000140C0, symSize: 0x20 }
  - { offsetInCU: 0x127E57, offset: 0x1343C0, size: 0x8, addend: 0x0, symName: __ZNSt3__120__shared_ptr_pointerIPN7testing8internal23ParamGeneratorInterfaceI15QUIC_FRAME_TYPEEENS_10shared_ptrIKS5_E27__shared_ptr_default_deleteIS8_S5_EENS_9allocatorIS5_EEE16__on_zero_sharedEv, symObjAddr: 0x11F70, symBinAddr: 0x1000140E0, symSize: 0x20 }
  - { offsetInCU: 0x127EAB, offset: 0x134414, size: 0x8, addend: 0x0, symName: __ZNKSt3__120__shared_ptr_pointerIPN7testing8internal23ParamGeneratorInterfaceI15QUIC_FRAME_TYPEEENS_10shared_ptrIKS5_E27__shared_ptr_default_deleteIS8_S5_EENS_9allocatorIS5_EEE13__get_deleterERKSt9type_info, symObjAddr: 0x11F90, symBinAddr: 0x100014100, symSize: 0x20 }
  - { offsetInCU: 0x127F72, offset: 0x1344DB, size: 0x8, addend: 0x0, symName: __ZNSt3__120__shared_ptr_pointerIPN7testing8internal23ParamGeneratorInterfaceI15QUIC_FRAME_TYPEEENS_10shared_ptrIKS5_E27__shared_ptr_default_deleteIS8_S5_EENS_9allocatorIS5_EEE21__on_zero_shared_weakEv, symObjAddr: 0x11FB0, symBinAddr: 0x100014120, symSize: 0x10 }
  - { offsetInCU: 0x128162, offset: 0x1346CB, size: 0x8, addend: 0x0, symName: __ZNSt3__118basic_stringstreamIcNS_11char_traitsIcEENS_9allocatorIcEEEC1B8ue170006Ev, symObjAddr: 0x120B0, symBinAddr: 0x100014220, symSize: 0x130 }
  - { offsetInCU: 0x12826D, offset: 0x1347D6, size: 0x8, addend: 0x0, symName: __ZNSt3__118basic_stringstreamIcNS_11char_traitsIcEENS_9allocatorIcEEED1Ev, symObjAddr: 0x121E0, symBinAddr: 0x100014350, symSize: 0x80 }
  - { offsetInCU: 0x128525, offset: 0x134A8E, size: 0x8, addend: 0x0, symName: __ZN7testing8internal15TestFactoryImplI43FrameTest_ResetStreamFrameEncodeDecode_TestED1Ev, symObjAddr: 0x12790, symBinAddr: 0x100014900, symSize: 0x10 }
  - { offsetInCU: 0x128551, offset: 0x134ABA, size: 0x8, addend: 0x0, symName: __ZN7testing8internal15TestFactoryImplI43FrameTest_ResetStreamFrameEncodeDecode_TestED0Ev, symObjAddr: 0x127A0, symBinAddr: 0x100014910, symSize: 0x10 }
  - { offsetInCU: 0x1285B1, offset: 0x134B1A, size: 0x8, addend: 0x0, symName: __ZN7testing8internal15TestFactoryImplI43FrameTest_ResetStreamFrameEncodeDecode_TestE10CreateTestEv, symObjAddr: 0x127B0, symBinAddr: 0x100014920, symSize: 0x50 }
  - { offsetInCU: 0x12861A, offset: 0x134B83, size: 0x8, addend: 0x0, symName: __ZN7testing8internal15TestFactoryImplI51FrameTest_ReliableResetStreamFrameEncodeDecode_TestED1Ev, symObjAddr: 0x12800, symBinAddr: 0x100014970, symSize: 0x10 }
  - { offsetInCU: 0x128646, offset: 0x134BAF, size: 0x8, addend: 0x0, symName: __ZN7testing8internal15TestFactoryImplI51FrameTest_ReliableResetStreamFrameEncodeDecode_TestED0Ev, symObjAddr: 0x12810, symBinAddr: 0x100014980, symSize: 0x10 }
  - { offsetInCU: 0x1286A6, offset: 0x134C0F, size: 0x8, addend: 0x0, symName: __ZN7testing8internal15TestFactoryImplI51FrameTest_ReliableResetStreamFrameEncodeDecode_TestE10CreateTestEv, symObjAddr: 0x12820, symBinAddr: 0x100014990, symSize: 0x50 }
  - { offsetInCU: 0x1289F6, offset: 0x134F5F, size: 0x8, addend: 0x0, symName: __ZNSt3__110shared_ptrIN7testing8internal26ParameterizedTestSuiteInfoI20ResetStreamFrameTestE8TestInfoEEC1B8ue170006IS6_vEEPT_, symObjAddr: 0x12C40, symBinAddr: 0x100014DB0, symSize: 0x60 }
  - { offsetInCU: 0x128BEF, offset: 0x135158, size: 0x8, addend: 0x0, symName: __ZNSt3__16vectorINS_10shared_ptrIN7testing8internal26ParameterizedTestSuiteInfoI20ResetStreamFrameTestE8TestInfoEEENS_9allocatorIS8_EEE24__emplace_back_slow_pathIJPS7_EEEvDpOT_, symObjAddr: 0x12A70, symBinAddr: 0x100014BE0, symSize: 0x1D0 }
  - { offsetInCU: 0x1297FD, offset: 0x135D66, size: 0x8, addend: 0x0, symName: __ZNKSt3__16vectorINS_10shared_ptrIN7testing8internal26ParameterizedTestSuiteInfoI20ResetStreamFrameTestE8TestInfoEEENS_9allocatorIS8_EEE20__throw_length_errorB8ue170006Ev, symObjAddr: 0x12DE0, symBinAddr: 0x100014F50, symSize: 0x10 }
  - { offsetInCU: 0x129826, offset: 0x135D8F, size: 0x8, addend: 0x0, symName: __ZN7testing8internal15TestMetaFactoryI52ResetStreamFrameTest_DecodeResetStreamFrameFail_TestED1Ev, symObjAddr: 0x12DF0, symBinAddr: 0x100014F60, symSize: 0x10 }
  - { offsetInCU: 0x129832, offset: 0x135D9B, size: 0x8, addend: 0x0, symName: __ZNSt3__114__split_bufferINS_10shared_ptrIN7testing8internal26ParameterizedTestSuiteInfoI20ResetStreamFrameTestE8TestInfoEEERNS_9allocatorIS8_EEED1Ev, symObjAddr: 0x12D60, symBinAddr: 0x100014ED0, symSize: 0x80 }
  - { offsetInCU: 0x129DC6, offset: 0x13632F, size: 0x8, addend: 0x0, symName: __ZNSt3__110shared_ptrIN7testing8internal26ParameterizedTestSuiteInfoI20ResetStreamFrameTestE8TestInfoEEC1B8ue170006IS6_vEEPT_.cold.1, symObjAddr: 0x395A0, symBinAddr: 0x100419B60, symSize: 0x50 }
  - { offsetInCU: 0x12A160, offset: 0x1366C9, size: 0x8, addend: 0x0, symName: __ZNSt3__120__shared_ptr_pointerIPN7testing8internal26ParameterizedTestSuiteInfoI20ResetStreamFrameTestE8TestInfoENS_10shared_ptrIS6_E27__shared_ptr_default_deleteIS6_S6_EENS_9allocatorIS6_EEED1Ev, symObjAddr: 0x12CA0, symBinAddr: 0x100014E10, symSize: 0x10 }
  - { offsetInCU: 0x12A1BB, offset: 0x136724, size: 0x8, addend: 0x0, symName: __ZNSt3__120__shared_ptr_pointerIPN7testing8internal26ParameterizedTestSuiteInfoI20ResetStreamFrameTestE8TestInfoENS_10shared_ptrIS6_E27__shared_ptr_default_deleteIS6_S6_EENS_9allocatorIS6_EEED0Ev, symObjAddr: 0x12CB0, symBinAddr: 0x100014E20, symSize: 0x20 }
  - { offsetInCU: 0x12A2E7, offset: 0x136850, size: 0x8, addend: 0x0, symName: __ZNSt3__120__shared_ptr_pointerIPN7testing8internal26ParameterizedTestSuiteInfoI20ResetStreamFrameTestE8TestInfoENS_10shared_ptrIS6_E27__shared_ptr_default_deleteIS6_S6_EENS_9allocatorIS6_EEE16__on_zero_sharedEv, symObjAddr: 0x12CD0, symBinAddr: 0x100014E40, symSize: 0x60 }
  - { offsetInCU: 0x12A6B2, offset: 0x136C1B, size: 0x8, addend: 0x0, symName: __ZNKSt3__120__shared_ptr_pointerIPN7testing8internal26ParameterizedTestSuiteInfoI20ResetStreamFrameTestE8TestInfoENS_10shared_ptrIS6_E27__shared_ptr_default_deleteIS6_S6_EENS_9allocatorIS6_EEE13__get_deleterERKSt9type_info, symObjAddr: 0x12D30, symBinAddr: 0x100014EA0, symSize: 0x20 }
  - { offsetInCU: 0x12A779, offset: 0x136CE2, size: 0x8, addend: 0x0, symName: __ZNSt3__120__shared_ptr_pointerIPN7testing8internal26ParameterizedTestSuiteInfoI20ResetStreamFrameTestE8TestInfoENS_10shared_ptrIS6_E27__shared_ptr_default_deleteIS6_S6_EENS_9allocatorIS6_EEE21__on_zero_shared_weakEv, symObjAddr: 0x12D50, symBinAddr: 0x100014EC0, symSize: 0x10 }
  - { offsetInCU: 0x12A857, offset: 0x136DC0, size: 0x8, addend: 0x0, symName: __ZN7testing8internal15TestMetaFactoryI52ResetStreamFrameTest_DecodeResetStreamFrameFail_TestED1Ev, symObjAddr: 0x12DF0, symBinAddr: 0x100014F60, symSize: 0x10 }
  - { offsetInCU: 0x12A883, offset: 0x136DEC, size: 0x8, addend: 0x0, symName: __ZN7testing8internal15TestMetaFactoryI52ResetStreamFrameTest_DecodeResetStreamFrameFail_TestED0Ev, symObjAddr: 0x12E00, symBinAddr: 0x100014F70, symSize: 0x10 }
  - { offsetInCU: 0x12A919, offset: 0x136E82, size: 0x8, addend: 0x0, symName: __ZN7testing8internal15TestMetaFactoryI52ResetStreamFrameTest_DecodeResetStreamFrameFail_TestE17CreateTestFactoryE22ResetStreamFrameParams, symObjAddr: 0x12E10, symBinAddr: 0x100014F80, symSize: 0x40 }
  - { offsetInCU: 0x12A9A3, offset: 0x136F0C, size: 0x8, addend: 0x0, symName: __ZN7testing8internal24ParameterizedTestFactoryI52ResetStreamFrameTest_DecodeResetStreamFrameFail_TestED1Ev, symObjAddr: 0x12E50, symBinAddr: 0x100014FC0, symSize: 0x10 }
  - { offsetInCU: 0x12A9CF, offset: 0x136F38, size: 0x8, addend: 0x0, symName: __ZN7testing8internal24ParameterizedTestFactoryI52ResetStreamFrameTest_DecodeResetStreamFrameFail_TestED0Ev, symObjAddr: 0x12E60, symBinAddr: 0x100014FD0, symSize: 0x10 }
  - { offsetInCU: 0x12AA7D, offset: 0x136FE6, size: 0x8, addend: 0x0, symName: __ZN7testing8internal24ParameterizedTestFactoryI52ResetStreamFrameTest_DecodeResetStreamFrameFail_TestE10CreateTestEv, symObjAddr: 0x12E70, symBinAddr: 0x100014FE0, symSize: 0x60 }
  - { offsetInCU: 0x12AB3F, offset: 0x1370A8, size: 0x8, addend: 0x0, symName: __ZN20ResetStreamFrameTestD1Ev, symObjAddr: 0x12ED0, symBinAddr: 0x100419410, symSize: 0x10 }
  - { offsetInCU: 0x12AB60, offset: 0x1370C9, size: 0x8, addend: 0x0, symName: __ZN20ResetStreamFrameTestD0Ev, symObjAddr: 0x12EE0, symBinAddr: 0x100419420, symSize: 0x10 }
  - { offsetInCU: 0x12AB9E, offset: 0x137107, size: 0x8, addend: 0x0, symName: __ZThn16_N20ResetStreamFrameTestD1Ev, symObjAddr: 0x12EF0, symBinAddr: 0x100419430, symSize: 0x10 }
  - { offsetInCU: 0x12ABF2, offset: 0x13715B, size: 0x8, addend: 0x0, symName: __ZThn16_N20ResetStreamFrameTestD0Ev, symObjAddr: 0x12F00, symBinAddr: 0x100419440, symSize: 0x10 }
  - { offsetInCU: 0x12AC29, offset: 0x137192, size: 0x8, addend: 0x0, symName: __ZN7testing13TestWithParamI22ResetStreamFrameParamsED1Ev, symObjAddr: 0x12F10, symBinAddr: 0x100419450, symSize: 0x10 }
  - { offsetInCU: 0x12AC4A, offset: 0x1371B3, size: 0x8, addend: 0x0, symName: __ZN7testing13TestWithParamI22ResetStreamFrameParamsED0Ev, symObjAddr: 0x12F20, symBinAddr: 0x100419460, symSize: 0x10 }
  - { offsetInCU: 0x12AC88, offset: 0x1371F1, size: 0x8, addend: 0x0, symName: __ZThn16_N7testing13TestWithParamI22ResetStreamFrameParamsED1Ev, symObjAddr: 0x12F30, symBinAddr: 0x100419470, symSize: 0x10 }
  - { offsetInCU: 0x12ACDC, offset: 0x137245, size: 0x8, addend: 0x0, symName: __ZThn16_N7testing13TestWithParamI22ResetStreamFrameParamsED0Ev, symObjAddr: 0x12F40, symBinAddr: 0x100419480, symSize: 0x10 }
  - { offsetInCU: 0x12AD13, offset: 0x13727C, size: 0x8, addend: 0x0, symName: __ZN7testing18WithParamInterfaceI22ResetStreamFrameParamsED1Ev, symObjAddr: 0x12F50, symBinAddr: 0x100015040, symSize: 0x10 }
  - { offsetInCU: 0x12AD3C, offset: 0x1372A5, size: 0x8, addend: 0x0, symName: __ZN7testing18WithParamInterfaceI22ResetStreamFrameParamsED0Ev, symObjAddr: 0x12F60, symBinAddr: 0x100015050, symSize: 0x10 }
  - { offsetInCU: 0x12B14A, offset: 0x1376B3, size: 0x8, addend: 0x0, symName: __ZNKSt3__16vectorI22ResetStreamFrameParamsNS_9allocatorIS1_EEE20__throw_length_errorB8ue170006Ev, symObjAddr: 0x13400, symBinAddr: 0x1000154F0, symSize: 0x10 }
  - { offsetInCU: 0x12B173, offset: 0x1376DC, size: 0x8, addend: 0x0, symName: __ZN7testing8internal30ValuesInIteratorRangeGeneratorI22ResetStreamFrameParamsE8IteratorD1Ev, symObjAddr: 0x13410, symBinAddr: 0x100015500, symSize: 0x30 }
  - { offsetInCU: 0x12B7FE, offset: 0x137D67, size: 0x8, addend: 0x0, symName: __ZN7testing8internal30ValuesInIteratorRangeGeneratorI22ResetStreamFrameParamsED0Ev, symObjAddr: 0x13340, symBinAddr: 0x100015430, symSize: 0x40 }
  - { offsetInCU: 0x12B9D9, offset: 0x137F42, size: 0x8, addend: 0x0, symName: __ZN7testing8internal30ValuesInIteratorRangeGeneratorI22ResetStreamFrameParamsED1Ev, symObjAddr: 0x13310, symBinAddr: 0x100015400, symSize: 0x30 }
  - { offsetInCU: 0x12BCE1, offset: 0x13824A, size: 0x8, addend: 0x0, symName: __ZNK7testing8internal30ValuesInIteratorRangeGeneratorI22ResetStreamFrameParamsE5BeginEv, symObjAddr: 0x13380, symBinAddr: 0x100015470, symSize: 0x40 }
  - { offsetInCU: 0x12BE28, offset: 0x138391, size: 0x8, addend: 0x0, symName: __ZNK7testing8internal30ValuesInIteratorRangeGeneratorI22ResetStreamFrameParamsE3EndEv, symObjAddr: 0x133C0, symBinAddr: 0x1000154B0, symSize: 0x40 }
  - { offsetInCU: 0x12C012, offset: 0x13857B, size: 0x8, addend: 0x0, symName: __ZN7testing8internal30ValuesInIteratorRangeGeneratorI22ResetStreamFrameParamsE8IteratorD1Ev, symObjAddr: 0x13410, symBinAddr: 0x100015500, symSize: 0x30 }
  - { offsetInCU: 0x12C10D, offset: 0x138676, size: 0x8, addend: 0x0, symName: __ZN7testing8internal30ValuesInIteratorRangeGeneratorI22ResetStreamFrameParamsE8IteratorD0Ev, symObjAddr: 0x13440, symBinAddr: 0x100015530, symSize: 0x40 }
  - { offsetInCU: 0x12C213, offset: 0x13877C, size: 0x8, addend: 0x0, symName: __ZNK7testing8internal30ValuesInIteratorRangeGeneratorI22ResetStreamFrameParamsE8Iterator13BaseGeneratorEv, symObjAddr: 0x13480, symBinAddr: 0x100015570, symSize: 0x10 }
  - { offsetInCU: 0x12C253, offset: 0x1387BC, size: 0x8, addend: 0x0, symName: __ZN7testing8internal30ValuesInIteratorRangeGeneratorI22ResetStreamFrameParamsE8Iterator7AdvanceEv, symObjAddr: 0x13490, symBinAddr: 0x100015580, symSize: 0x30 }
  - { offsetInCU: 0x12C342, offset: 0x1388AB, size: 0x8, addend: 0x0, symName: __ZNK7testing8internal30ValuesInIteratorRangeGeneratorI22ResetStreamFrameParamsE8Iterator5CloneEv, symObjAddr: 0x134C0, symBinAddr: 0x1000155B0, symSize: 0x40 }
  - { offsetInCU: 0x12C48E, offset: 0x1389F7, size: 0x8, addend: 0x0, symName: __ZNK7testing8internal30ValuesInIteratorRangeGeneratorI22ResetStreamFrameParamsE8Iterator7CurrentEv, symObjAddr: 0x13500, symBinAddr: 0x1000155F0, symSize: 0x40 }
  - { offsetInCU: 0x12C52C, offset: 0x138A95, size: 0x8, addend: 0x0, symName: __ZNK7testing8internal30ValuesInIteratorRangeGeneratorI22ResetStreamFrameParamsE8Iterator6EqualsERKNS0_22ParamIteratorInterfaceIS2_EE, symObjAddr: 0x13540, symBinAddr: 0x100015630, symSize: 0x140 }
  - { offsetInCU: 0x12C77A, offset: 0x138CE3, size: 0x8, addend: 0x0, symName: __ZNSt3__120__shared_ptr_pointerIPN7testing8internal23ParamGeneratorInterfaceI22ResetStreamFrameParamsEENS_10shared_ptrIKS5_E27__shared_ptr_default_deleteIS8_S5_EENS_9allocatorIS5_EEED1Ev, symObjAddr: 0x13720, symBinAddr: 0x100015810, symSize: 0x10 }
  - { offsetInCU: 0x12C7D5, offset: 0x138D3E, size: 0x8, addend: 0x0, symName: __ZNSt3__120__shared_ptr_pointerIPN7testing8internal23ParamGeneratorInterfaceI22ResetStreamFrameParamsEENS_10shared_ptrIKS5_E27__shared_ptr_default_deleteIS8_S5_EENS_9allocatorIS5_EEED0Ev, symObjAddr: 0x13730, symBinAddr: 0x100015820, symSize: 0x20 }
  - { offsetInCU: 0x12C83E, offset: 0x138DA7, size: 0x8, addend: 0x0, symName: __ZNSt3__120__shared_ptr_pointerIPN7testing8internal23ParamGeneratorInterfaceI22ResetStreamFrameParamsEENS_10shared_ptrIKS5_E27__shared_ptr_default_deleteIS8_S5_EENS_9allocatorIS5_EEE16__on_zero_sharedEv, symObjAddr: 0x13750, symBinAddr: 0x100015840, symSize: 0x20 }
  - { offsetInCU: 0x12C892, offset: 0x138DFB, size: 0x8, addend: 0x0, symName: __ZNKSt3__120__shared_ptr_pointerIPN7testing8internal23ParamGeneratorInterfaceI22ResetStreamFrameParamsEENS_10shared_ptrIKS5_E27__shared_ptr_default_deleteIS8_S5_EENS_9allocatorIS5_EEE13__get_deleterERKSt9type_info, symObjAddr: 0x13770, symBinAddr: 0x100015860, symSize: 0x20 }
  - { offsetInCU: 0x12C959, offset: 0x138EC2, size: 0x8, addend: 0x0, symName: __ZNSt3__120__shared_ptr_pointerIPN7testing8internal23ParamGeneratorInterfaceI22ResetStreamFrameParamsEENS_10shared_ptrIKS5_E27__shared_ptr_default_deleteIS8_S5_EENS_9allocatorIS5_EEE21__on_zero_shared_weakEv, symObjAddr: 0x13790, symBinAddr: 0x100015880, symSize: 0x10 }
  - { offsetInCU: 0x12CA3C, offset: 0x138FA5, size: 0x8, addend: 0x0, symName: __ZN7testing8internal15TestFactoryImplI43FrameTest_StopSendingFrameEncodeDecode_TestED1Ev, symObjAddr: 0x137A0, symBinAddr: 0x100015890, symSize: 0x10 }
  - { offsetInCU: 0x12CA68, offset: 0x138FD1, size: 0x8, addend: 0x0, symName: __ZN7testing8internal15TestFactoryImplI43FrameTest_StopSendingFrameEncodeDecode_TestED0Ev, symObjAddr: 0x137B0, symBinAddr: 0x1000158A0, symSize: 0x10 }
  - { offsetInCU: 0x12CAC8, offset: 0x139031, size: 0x8, addend: 0x0, symName: __ZN7testing8internal15TestFactoryImplI43FrameTest_StopSendingFrameEncodeDecode_TestE10CreateTestEv, symObjAddr: 0x137C0, symBinAddr: 0x1000158B0, symSize: 0x50 }
  - { offsetInCU: 0x12CE19, offset: 0x139382, size: 0x8, addend: 0x0, symName: __ZNSt3__110shared_ptrIN7testing8internal26ParameterizedTestSuiteInfoI20StopSendingFrameTestE8TestInfoEEC1B8ue170006IS6_vEEPT_, symObjAddr: 0x13BE0, symBinAddr: 0x100015CD0, symSize: 0x60 }
  - { offsetInCU: 0x12D012, offset: 0x13957B, size: 0x8, addend: 0x0, symName: __ZNSt3__16vectorINS_10shared_ptrIN7testing8internal26ParameterizedTestSuiteInfoI20StopSendingFrameTestE8TestInfoEEENS_9allocatorIS8_EEE24__emplace_back_slow_pathIJPS7_EEEvDpOT_, symObjAddr: 0x13A10, symBinAddr: 0x100015B00, symSize: 0x1D0 }
  - { offsetInCU: 0x12DC20, offset: 0x13A189, size: 0x8, addend: 0x0, symName: __ZNKSt3__16vectorINS_10shared_ptrIN7testing8internal26ParameterizedTestSuiteInfoI20StopSendingFrameTestE8TestInfoEEENS_9allocatorIS8_EEE20__throw_length_errorB8ue170006Ev, symObjAddr: 0x13D80, symBinAddr: 0x100015E70, symSize: 0x10 }
  - { offsetInCU: 0x12DC49, offset: 0x13A1B2, size: 0x8, addend: 0x0, symName: __ZN7testing8internal15TestMetaFactoryI52StopSendingFrameTest_DecodeStopSendingFrameFail_TestED1Ev, symObjAddr: 0x13D90, symBinAddr: 0x100015E80, symSize: 0x10 }
  - { offsetInCU: 0x12DC55, offset: 0x13A1BE, size: 0x8, addend: 0x0, symName: __ZNSt3__114__split_bufferINS_10shared_ptrIN7testing8internal26ParameterizedTestSuiteInfoI20StopSendingFrameTestE8TestInfoEEERNS_9allocatorIS8_EEED1Ev, symObjAddr: 0x13D00, symBinAddr: 0x100015DF0, symSize: 0x80 }
  - { offsetInCU: 0x12E1E9, offset: 0x13A752, size: 0x8, addend: 0x0, symName: __ZNSt3__110shared_ptrIN7testing8internal26ParameterizedTestSuiteInfoI20StopSendingFrameTestE8TestInfoEEC1B8ue170006IS6_vEEPT_.cold.1, symObjAddr: 0x395F0, symBinAddr: 0x100419BB0, symSize: 0x50 }
  - { offsetInCU: 0x12E583, offset: 0x13AAEC, size: 0x8, addend: 0x0, symName: __ZNSt3__120__shared_ptr_pointerIPN7testing8internal26ParameterizedTestSuiteInfoI20StopSendingFrameTestE8TestInfoENS_10shared_ptrIS6_E27__shared_ptr_default_deleteIS6_S6_EENS_9allocatorIS6_EEED1Ev, symObjAddr: 0x13C40, symBinAddr: 0x100015D30, symSize: 0x10 }
  - { offsetInCU: 0x12E5DE, offset: 0x13AB47, size: 0x8, addend: 0x0, symName: __ZNSt3__120__shared_ptr_pointerIPN7testing8internal26ParameterizedTestSuiteInfoI20StopSendingFrameTestE8TestInfoENS_10shared_ptrIS6_E27__shared_ptr_default_deleteIS6_S6_EENS_9allocatorIS6_EEED0Ev, symObjAddr: 0x13C50, symBinAddr: 0x100015D40, symSize: 0x20 }
  - { offsetInCU: 0x12E70A, offset: 0x13AC73, size: 0x8, addend: 0x0, symName: __ZNSt3__120__shared_ptr_pointerIPN7testing8internal26ParameterizedTestSuiteInfoI20StopSendingFrameTestE8TestInfoENS_10shared_ptrIS6_E27__shared_ptr_default_deleteIS6_S6_EENS_9allocatorIS6_EEE16__on_zero_sharedEv, symObjAddr: 0x13C70, symBinAddr: 0x100015D60, symSize: 0x60 }
  - { offsetInCU: 0x12EAD5, offset: 0x13B03E, size: 0x8, addend: 0x0, symName: __ZNKSt3__120__shared_ptr_pointerIPN7testing8internal26ParameterizedTestSuiteInfoI20StopSendingFrameTestE8TestInfoENS_10shared_ptrIS6_E27__shared_ptr_default_deleteIS6_S6_EENS_9allocatorIS6_EEE13__get_deleterERKSt9type_info, symObjAddr: 0x13CD0, symBinAddr: 0x100015DC0, symSize: 0x20 }
  - { offsetInCU: 0x12EB9C, offset: 0x13B105, size: 0x8, addend: 0x0, symName: __ZNSt3__120__shared_ptr_pointerIPN7testing8internal26ParameterizedTestSuiteInfoI20StopSendingFrameTestE8TestInfoENS_10shared_ptrIS6_E27__shared_ptr_default_deleteIS6_S6_EENS_9allocatorIS6_EEE21__on_zero_shared_weakEv, symObjAddr: 0x13CF0, symBinAddr: 0x100015DE0, symSize: 0x10 }
  - { offsetInCU: 0x12EC7A, offset: 0x13B1E3, size: 0x8, addend: 0x0, symName: __ZN7testing8internal15TestMetaFactoryI52StopSendingFrameTest_DecodeStopSendingFrameFail_TestED1Ev, symObjAddr: 0x13D90, symBinAddr: 0x100015E80, symSize: 0x10 }
  - { offsetInCU: 0x12ECA6, offset: 0x13B20F, size: 0x8, addend: 0x0, symName: __ZN7testing8internal15TestMetaFactoryI52StopSendingFrameTest_DecodeStopSendingFrameFail_TestED0Ev, symObjAddr: 0x13DA0, symBinAddr: 0x100015E90, symSize: 0x10 }
  - { offsetInCU: 0x12ED3C, offset: 0x13B2A5, size: 0x8, addend: 0x0, symName: __ZN7testing8internal15TestMetaFactoryI52StopSendingFrameTest_DecodeStopSendingFrameFail_TestE17CreateTestFactoryE22StopSendingFrameParams, symObjAddr: 0x13DB0, symBinAddr: 0x100015EA0, symSize: 0x40 }
  - { offsetInCU: 0x12EDC6, offset: 0x13B32F, size: 0x8, addend: 0x0, symName: __ZN7testing8internal24ParameterizedTestFactoryI52StopSendingFrameTest_DecodeStopSendingFrameFail_TestED1Ev, symObjAddr: 0x13DF0, symBinAddr: 0x100015EE0, symSize: 0x10 }
  - { offsetInCU: 0x12EDF2, offset: 0x13B35B, size: 0x8, addend: 0x0, symName: __ZN7testing8internal24ParameterizedTestFactoryI52StopSendingFrameTest_DecodeStopSendingFrameFail_TestED0Ev, symObjAddr: 0x13E00, symBinAddr: 0x100015EF0, symSize: 0x10 }
  - { offsetInCU: 0x12EEA0, offset: 0x13B409, size: 0x8, addend: 0x0, symName: __ZN7testing8internal24ParameterizedTestFactoryI52StopSendingFrameTest_DecodeStopSendingFrameFail_TestE10CreateTestEv, symObjAddr: 0x13E10, symBinAddr: 0x100015F00, symSize: 0x60 }
  - { offsetInCU: 0x12EF62, offset: 0x13B4CB, size: 0x8, addend: 0x0, symName: __ZN20StopSendingFrameTestD1Ev, symObjAddr: 0x13E70, symBinAddr: 0x100419490, symSize: 0x10 }
  - { offsetInCU: 0x12EF83, offset: 0x13B4EC, size: 0x8, addend: 0x0, symName: __ZN20StopSendingFrameTestD0Ev, symObjAddr: 0x13E80, symBinAddr: 0x1004194A0, symSize: 0x10 }
  - { offsetInCU: 0x12EFC1, offset: 0x13B52A, size: 0x8, addend: 0x0, symName: __ZThn16_N20StopSendingFrameTestD1Ev, symObjAddr: 0x13E90, symBinAddr: 0x1004194B0, symSize: 0x10 }
  - { offsetInCU: 0x12F015, offset: 0x13B57E, size: 0x8, addend: 0x0, symName: __ZThn16_N20StopSendingFrameTestD0Ev, symObjAddr: 0x13EA0, symBinAddr: 0x1004194C0, symSize: 0x10 }
  - { offsetInCU: 0x12F04C, offset: 0x13B5B5, size: 0x8, addend: 0x0, symName: __ZN7testing13TestWithParamI22StopSendingFrameParamsED1Ev, symObjAddr: 0x13EB0, symBinAddr: 0x1004194D0, symSize: 0x10 }
  - { offsetInCU: 0x12F06D, offset: 0x13B5D6, size: 0x8, addend: 0x0, symName: __ZN7testing13TestWithParamI22StopSendingFrameParamsED0Ev, symObjAddr: 0x13EC0, symBinAddr: 0x1004194E0, symSize: 0x10 }
  - { offsetInCU: 0x12F0AB, offset: 0x13B614, size: 0x8, addend: 0x0, symName: __ZThn16_N7testing13TestWithParamI22StopSendingFrameParamsED1Ev, symObjAddr: 0x13ED0, symBinAddr: 0x1004194F0, symSize: 0x10 }
  - { offsetInCU: 0x12F0FF, offset: 0x13B668, size: 0x8, addend: 0x0, symName: __ZThn16_N7testing13TestWithParamI22StopSendingFrameParamsED0Ev, symObjAddr: 0x13EE0, symBinAddr: 0x100419500, symSize: 0x10 }
  - { offsetInCU: 0x12F136, offset: 0x13B69F, size: 0x8, addend: 0x0, symName: __ZN7testing18WithParamInterfaceI22StopSendingFrameParamsED1Ev, symObjAddr: 0x13EF0, symBinAddr: 0x100015F60, symSize: 0x10 }
  - { offsetInCU: 0x12F15F, offset: 0x13B6C8, size: 0x8, addend: 0x0, symName: __ZN7testing18WithParamInterfaceI22StopSendingFrameParamsED0Ev, symObjAddr: 0x13F00, symBinAddr: 0x100015F70, symSize: 0x10 }
  - { offsetInCU: 0x12F56D, offset: 0x13BAD6, size: 0x8, addend: 0x0, symName: __ZNKSt3__16vectorI22StopSendingFrameParamsNS_9allocatorIS1_EEE20__throw_length_errorB8ue170006Ev, symObjAddr: 0x143A0, symBinAddr: 0x100016410, symSize: 0x10 }
  - { offsetInCU: 0x12F596, offset: 0x13BAFF, size: 0x8, addend: 0x0, symName: __ZN7testing8internal30ValuesInIteratorRangeGeneratorI22StopSendingFrameParamsE8IteratorD1Ev, symObjAddr: 0x143B0, symBinAddr: 0x100016420, symSize: 0x30 }
  - { offsetInCU: 0x12FC21, offset: 0x13C18A, size: 0x8, addend: 0x0, symName: __ZN7testing8internal30ValuesInIteratorRangeGeneratorI22StopSendingFrameParamsED0Ev, symObjAddr: 0x142E0, symBinAddr: 0x100016350, symSize: 0x40 }
  - { offsetInCU: 0x12FDFC, offset: 0x13C365, size: 0x8, addend: 0x0, symName: __ZN7testing8internal30ValuesInIteratorRangeGeneratorI22StopSendingFrameParamsED1Ev, symObjAddr: 0x142B0, symBinAddr: 0x100016320, symSize: 0x30 }
  - { offsetInCU: 0x130104, offset: 0x13C66D, size: 0x8, addend: 0x0, symName: __ZNK7testing8internal30ValuesInIteratorRangeGeneratorI22StopSendingFrameParamsE5BeginEv, symObjAddr: 0x14320, symBinAddr: 0x100016390, symSize: 0x40 }
  - { offsetInCU: 0x13024B, offset: 0x13C7B4, size: 0x8, addend: 0x0, symName: __ZNK7testing8internal30ValuesInIteratorRangeGeneratorI22StopSendingFrameParamsE3EndEv, symObjAddr: 0x14360, symBinAddr: 0x1000163D0, symSize: 0x40 }
  - { offsetInCU: 0x130435, offset: 0x13C99E, size: 0x8, addend: 0x0, symName: __ZN7testing8internal30ValuesInIteratorRangeGeneratorI22StopSendingFrameParamsE8IteratorD1Ev, symObjAddr: 0x143B0, symBinAddr: 0x100016420, symSize: 0x30 }
  - { offsetInCU: 0x130530, offset: 0x13CA99, size: 0x8, addend: 0x0, symName: __ZN7testing8internal30ValuesInIteratorRangeGeneratorI22StopSendingFrameParamsE8IteratorD0Ev, symObjAddr: 0x143E0, symBinAddr: 0x100016450, symSize: 0x40 }
  - { offsetInCU: 0x130636, offset: 0x13CB9F, size: 0x8, addend: 0x0, symName: __ZNK7testing8internal30ValuesInIteratorRangeGeneratorI22StopSendingFrameParamsE8Iterator13BaseGeneratorEv, symObjAddr: 0x14420, symBinAddr: 0x100016490, symSize: 0x10 }
  - { offsetInCU: 0x130676, offset: 0x13CBDF, size: 0x8, addend: 0x0, symName: __ZN7testing8internal30ValuesInIteratorRangeGeneratorI22StopSendingFrameParamsE8Iterator7AdvanceEv, symObjAddr: 0x14430, symBinAddr: 0x1000164A0, symSize: 0x30 }
  - { offsetInCU: 0x130765, offset: 0x13CCCE, size: 0x8, addend: 0x0, symName: __ZNK7testing8internal30ValuesInIteratorRangeGeneratorI22StopSendingFrameParamsE8Iterator5CloneEv, symObjAddr: 0x14460, symBinAddr: 0x1000164D0, symSize: 0x40 }
  - { offsetInCU: 0x1308B1, offset: 0x13CE1A, size: 0x8, addend: 0x0, symName: __ZNK7testing8internal30ValuesInIteratorRangeGeneratorI22StopSendingFrameParamsE8Iterator7CurrentEv, symObjAddr: 0x144A0, symBinAddr: 0x100016510, symSize: 0x40 }
  - { offsetInCU: 0x13094F, offset: 0x13CEB8, size: 0x8, addend: 0x0, symName: __ZNK7testing8internal30ValuesInIteratorRangeGeneratorI22StopSendingFrameParamsE8Iterator6EqualsERKNS0_22ParamIteratorInterfaceIS2_EE, symObjAddr: 0x144E0, symBinAddr: 0x100016550, symSize: 0x140 }
  - { offsetInCU: 0x130B9D, offset: 0x13D106, size: 0x8, addend: 0x0, symName: __ZNSt3__120__shared_ptr_pointerIPN7testing8internal23ParamGeneratorInterfaceI22StopSendingFrameParamsEENS_10shared_ptrIKS5_E27__shared_ptr_default_deleteIS8_S5_EENS_9allocatorIS5_EEED1Ev, symObjAddr: 0x146C0, symBinAddr: 0x100016730, symSize: 0x10 }
  - { offsetInCU: 0x130BF8, offset: 0x13D161, size: 0x8, addend: 0x0, symName: __ZNSt3__120__shared_ptr_pointerIPN7testing8internal23ParamGeneratorInterfaceI22StopSendingFrameParamsEENS_10shared_ptrIKS5_E27__shared_ptr_default_deleteIS8_S5_EENS_9allocatorIS5_EEED0Ev, symObjAddr: 0x146D0, symBinAddr: 0x100016740, symSize: 0x20 }
  - { offsetInCU: 0x130C61, offset: 0x13D1CA, size: 0x8, addend: 0x0, symName: __ZNSt3__120__shared_ptr_pointerIPN7testing8internal23ParamGeneratorInterfaceI22StopSendingFrameParamsEENS_10shared_ptrIKS5_E27__shared_ptr_default_deleteIS8_S5_EENS_9allocatorIS5_EEE16__on_zero_sharedEv, symObjAddr: 0x146F0, symBinAddr: 0x100016760, symSize: 0x20 }
  - { offsetInCU: 0x130CB5, offset: 0x13D21E, size: 0x8, addend: 0x0, symName: __ZNKSt3__120__shared_ptr_pointerIPN7testing8internal23ParamGeneratorInterfaceI22StopSendingFrameParamsEENS_10shared_ptrIKS5_E27__shared_ptr_default_deleteIS8_S5_EENS_9allocatorIS5_EEE13__get_deleterERKSt9type_info, symObjAddr: 0x14710, symBinAddr: 0x100016780, symSize: 0x20 }
  - { offsetInCU: 0x130D7C, offset: 0x13D2E5, size: 0x8, addend: 0x0, symName: __ZNSt3__120__shared_ptr_pointerIPN7testing8internal23ParamGeneratorInterfaceI22StopSendingFrameParamsEENS_10shared_ptrIKS5_E27__shared_ptr_default_deleteIS8_S5_EENS_9allocatorIS5_EEE21__on_zero_shared_weakEv, symObjAddr: 0x14730, symBinAddr: 0x1000167A0, symSize: 0x10 }
  - { offsetInCU: 0x130E5F, offset: 0x13D3C8, size: 0x8, addend: 0x0, symName: __ZN7testing8internal15TestFactoryImplI38FrameTest_CryptoFrameEncodeDecode_TestED1Ev, symObjAddr: 0x14740, symBinAddr: 0x1000167B0, symSize: 0x10 }
  - { offsetInCU: 0x130E8B, offset: 0x13D3F4, size: 0x8, addend: 0x0, symName: __ZN7testing8internal15TestFactoryImplI38FrameTest_CryptoFrameEncodeDecode_TestED0Ev, symObjAddr: 0x14750, symBinAddr: 0x1000167C0, symSize: 0x10 }
  - { offsetInCU: 0x130EEB, offset: 0x13D454, size: 0x8, addend: 0x0, symName: __ZN7testing8internal15TestFactoryImplI38FrameTest_CryptoFrameEncodeDecode_TestE10CreateTestEv, symObjAddr: 0x14760, symBinAddr: 0x1000167D0, symSize: 0x50 }
  - { offsetInCU: 0x13123C, offset: 0x13D7A5, size: 0x8, addend: 0x0, symName: __ZNSt3__110shared_ptrIN7testing8internal26ParameterizedTestSuiteInfoI15CryptoFrameTestE8TestInfoEEC1B8ue170006IS6_vEEPT_, symObjAddr: 0x14B80, symBinAddr: 0x100016BF0, symSize: 0x60 }
  - { offsetInCU: 0x131435, offset: 0x13D99E, size: 0x8, addend: 0x0, symName: __ZNSt3__16vectorINS_10shared_ptrIN7testing8internal26ParameterizedTestSuiteInfoI15CryptoFrameTestE8TestInfoEEENS_9allocatorIS8_EEE24__emplace_back_slow_pathIJPS7_EEEvDpOT_, symObjAddr: 0x149B0, symBinAddr: 0x100016A20, symSize: 0x1D0 }
  - { offsetInCU: 0x132043, offset: 0x13E5AC, size: 0x8, addend: 0x0, symName: __ZNKSt3__16vectorINS_10shared_ptrIN7testing8internal26ParameterizedTestSuiteInfoI15CryptoFrameTestE8TestInfoEEENS_9allocatorIS8_EEE20__throw_length_errorB8ue170006Ev, symObjAddr: 0x14D20, symBinAddr: 0x100016D90, symSize: 0x10 }
  - { offsetInCU: 0x13206C, offset: 0x13E5D5, size: 0x8, addend: 0x0, symName: __ZN7testing8internal15TestMetaFactoryI42CryptoFrameTest_DecodeCryptoFrameFail_TestED1Ev, symObjAddr: 0x14D30, symBinAddr: 0x100016DA0, symSize: 0x10 }
  - { offsetInCU: 0x132078, offset: 0x13E5E1, size: 0x8, addend: 0x0, symName: __ZNSt3__114__split_bufferINS_10shared_ptrIN7testing8internal26ParameterizedTestSuiteInfoI15CryptoFrameTestE8TestInfoEEERNS_9allocatorIS8_EEED1Ev, symObjAddr: 0x14CA0, symBinAddr: 0x100016D10, symSize: 0x80 }
  - { offsetInCU: 0x13260C, offset: 0x13EB75, size: 0x8, addend: 0x0, symName: __ZNSt3__110shared_ptrIN7testing8internal26ParameterizedTestSuiteInfoI15CryptoFrameTestE8TestInfoEEC1B8ue170006IS6_vEEPT_.cold.1, symObjAddr: 0x39640, symBinAddr: 0x100419C00, symSize: 0x50 }
  - { offsetInCU: 0x1329A6, offset: 0x13EF0F, size: 0x8, addend: 0x0, symName: __ZNSt3__120__shared_ptr_pointerIPN7testing8internal26ParameterizedTestSuiteInfoI15CryptoFrameTestE8TestInfoENS_10shared_ptrIS6_E27__shared_ptr_default_deleteIS6_S6_EENS_9allocatorIS6_EEED1Ev, symObjAddr: 0x14BE0, symBinAddr: 0x100016C50, symSize: 0x10 }
  - { offsetInCU: 0x132A01, offset: 0x13EF6A, size: 0x8, addend: 0x0, symName: __ZNSt3__120__shared_ptr_pointerIPN7testing8internal26ParameterizedTestSuiteInfoI15CryptoFrameTestE8TestInfoENS_10shared_ptrIS6_E27__shared_ptr_default_deleteIS6_S6_EENS_9allocatorIS6_EEED0Ev, symObjAddr: 0x14BF0, symBinAddr: 0x100016C60, symSize: 0x20 }
  - { offsetInCU: 0x132B2D, offset: 0x13F096, size: 0x8, addend: 0x0, symName: __ZNSt3__120__shared_ptr_pointerIPN7testing8internal26ParameterizedTestSuiteInfoI15CryptoFrameTestE8TestInfoENS_10shared_ptrIS6_E27__shared_ptr_default_deleteIS6_S6_EENS_9allocatorIS6_EEE16__on_zero_sharedEv, symObjAddr: 0x14C10, symBinAddr: 0x100016C80, symSize: 0x60 }
  - { offsetInCU: 0x132EF8, offset: 0x13F461, size: 0x8, addend: 0x0, symName: __ZNKSt3__120__shared_ptr_pointerIPN7testing8internal26ParameterizedTestSuiteInfoI15CryptoFrameTestE8TestInfoENS_10shared_ptrIS6_E27__shared_ptr_default_deleteIS6_S6_EENS_9allocatorIS6_EEE13__get_deleterERKSt9type_info, symObjAddr: 0x14C70, symBinAddr: 0x100016CE0, symSize: 0x20 }
  - { offsetInCU: 0x132FBF, offset: 0x13F528, size: 0x8, addend: 0x0, symName: __ZNSt3__120__shared_ptr_pointerIPN7testing8internal26ParameterizedTestSuiteInfoI15CryptoFrameTestE8TestInfoENS_10shared_ptrIS6_E27__shared_ptr_default_deleteIS6_S6_EENS_9allocatorIS6_EEE21__on_zero_shared_weakEv, symObjAddr: 0x14C90, symBinAddr: 0x100016D00, symSize: 0x10 }
  - { offsetInCU: 0x13309D, offset: 0x13F606, size: 0x8, addend: 0x0, symName: __ZN7testing8internal15TestMetaFactoryI42CryptoFrameTest_DecodeCryptoFrameFail_TestED1Ev, symObjAddr: 0x14D30, symBinAddr: 0x100016DA0, symSize: 0x10 }
  - { offsetInCU: 0x1330C9, offset: 0x13F632, size: 0x8, addend: 0x0, symName: __ZN7testing8internal15TestMetaFactoryI42CryptoFrameTest_DecodeCryptoFrameFail_TestED0Ev, symObjAddr: 0x14D40, symBinAddr: 0x100016DB0, symSize: 0x10 }
  - { offsetInCU: 0x13315F, offset: 0x13F6C8, size: 0x8, addend: 0x0, symName: __ZN7testing8internal15TestMetaFactoryI42CryptoFrameTest_DecodeCryptoFrameFail_TestE17CreateTestFactoryE17CryptoFrameParams, symObjAddr: 0x14D50, symBinAddr: 0x100016DC0, symSize: 0x40 }
  - { offsetInCU: 0x1331E9, offset: 0x13F752, size: 0x8, addend: 0x0, symName: __ZN7testing8internal24ParameterizedTestFactoryI42CryptoFrameTest_DecodeCryptoFrameFail_TestED1Ev, symObjAddr: 0x14D90, symBinAddr: 0x100016E00, symSize: 0x10 }
  - { offsetInCU: 0x133215, offset: 0x13F77E, size: 0x8, addend: 0x0, symName: __ZN7testing8internal24ParameterizedTestFactoryI42CryptoFrameTest_DecodeCryptoFrameFail_TestED0Ev, symObjAddr: 0x14DA0, symBinAddr: 0x100016E10, symSize: 0x10 }
  - { offsetInCU: 0x1332C3, offset: 0x13F82C, size: 0x8, addend: 0x0, symName: __ZN7testing8internal24ParameterizedTestFactoryI42CryptoFrameTest_DecodeCryptoFrameFail_TestE10CreateTestEv, symObjAddr: 0x14DB0, symBinAddr: 0x100016E20, symSize: 0x60 }
  - { offsetInCU: 0x133385, offset: 0x13F8EE, size: 0x8, addend: 0x0, symName: __ZN15CryptoFrameTestD1Ev, symObjAddr: 0x14E10, symBinAddr: 0x100419510, symSize: 0x10 }
  - { offsetInCU: 0x1333A6, offset: 0x13F90F, size: 0x8, addend: 0x0, symName: __ZN15CryptoFrameTestD0Ev, symObjAddr: 0x14E20, symBinAddr: 0x100419520, symSize: 0x10 }
  - { offsetInCU: 0x1333E4, offset: 0x13F94D, size: 0x8, addend: 0x0, symName: __ZThn16_N15CryptoFrameTestD1Ev, symObjAddr: 0x14E30, symBinAddr: 0x100419530, symSize: 0x10 }
  - { offsetInCU: 0x133438, offset: 0x13F9A1, size: 0x8, addend: 0x0, symName: __ZThn16_N15CryptoFrameTestD0Ev, symObjAddr: 0x14E40, symBinAddr: 0x100419540, symSize: 0x10 }
  - { offsetInCU: 0x13346F, offset: 0x13F9D8, size: 0x8, addend: 0x0, symName: __ZN7testing13TestWithParamI17CryptoFrameParamsED1Ev, symObjAddr: 0x14E50, symBinAddr: 0x100419550, symSize: 0x10 }
  - { offsetInCU: 0x133490, offset: 0x13F9F9, size: 0x8, addend: 0x0, symName: __ZN7testing13TestWithParamI17CryptoFrameParamsED0Ev, symObjAddr: 0x14E60, symBinAddr: 0x100419560, symSize: 0x10 }
  - { offsetInCU: 0x1334CE, offset: 0x13FA37, size: 0x8, addend: 0x0, symName: __ZThn16_N7testing13TestWithParamI17CryptoFrameParamsED1Ev, symObjAddr: 0x14E70, symBinAddr: 0x100419570, symSize: 0x10 }
  - { offsetInCU: 0x133522, offset: 0x13FA8B, size: 0x8, addend: 0x0, symName: __ZThn16_N7testing13TestWithParamI17CryptoFrameParamsED0Ev, symObjAddr: 0x14E80, symBinAddr: 0x100419580, symSize: 0x10 }
  - { offsetInCU: 0x133559, offset: 0x13FAC2, size: 0x8, addend: 0x0, symName: __ZN7testing18WithParamInterfaceI17CryptoFrameParamsED1Ev, symObjAddr: 0x14E90, symBinAddr: 0x100016E80, symSize: 0x10 }
  - { offsetInCU: 0x133582, offset: 0x13FAEB, size: 0x8, addend: 0x0, symName: __ZN7testing18WithParamInterfaceI17CryptoFrameParamsED0Ev, symObjAddr: 0x14EA0, symBinAddr: 0x100016E90, symSize: 0x10 }
  - { offsetInCU: 0x133990, offset: 0x13FEF9, size: 0x8, addend: 0x0, symName: __ZNKSt3__16vectorI17CryptoFrameParamsNS_9allocatorIS1_EEE20__throw_length_errorB8ue170006Ev, symObjAddr: 0x15350, symBinAddr: 0x100017340, symSize: 0x10 }
  - { offsetInCU: 0x1339B9, offset: 0x13FF22, size: 0x8, addend: 0x0, symName: __ZN7testing8internal30ValuesInIteratorRangeGeneratorI17CryptoFrameParamsE8IteratorD1Ev, symObjAddr: 0x15360, symBinAddr: 0x100017350, symSize: 0x30 }
  - { offsetInCU: 0x134044, offset: 0x1405AD, size: 0x8, addend: 0x0, symName: __ZN7testing8internal30ValuesInIteratorRangeGeneratorI17CryptoFrameParamsED0Ev, symObjAddr: 0x15290, symBinAddr: 0x100017280, symSize: 0x40 }
  - { offsetInCU: 0x13421F, offset: 0x140788, size: 0x8, addend: 0x0, symName: __ZN7testing8internal30ValuesInIteratorRangeGeneratorI17CryptoFrameParamsED1Ev, symObjAddr: 0x15260, symBinAddr: 0x100017250, symSize: 0x30 }
  - { offsetInCU: 0x134527, offset: 0x140A90, size: 0x8, addend: 0x0, symName: __ZNK7testing8internal30ValuesInIteratorRangeGeneratorI17CryptoFrameParamsE5BeginEv, symObjAddr: 0x152D0, symBinAddr: 0x1000172C0, symSize: 0x40 }
  - { offsetInCU: 0x13466E, offset: 0x140BD7, size: 0x8, addend: 0x0, symName: __ZNK7testing8internal30ValuesInIteratorRangeGeneratorI17CryptoFrameParamsE3EndEv, symObjAddr: 0x15310, symBinAddr: 0x100017300, symSize: 0x40 }
  - { offsetInCU: 0x134858, offset: 0x140DC1, size: 0x8, addend: 0x0, symName: __ZN7testing8internal30ValuesInIteratorRangeGeneratorI17CryptoFrameParamsE8IteratorD1Ev, symObjAddr: 0x15360, symBinAddr: 0x100017350, symSize: 0x30 }
  - { offsetInCU: 0x134953, offset: 0x140EBC, size: 0x8, addend: 0x0, symName: __ZN7testing8internal30ValuesInIteratorRangeGeneratorI17CryptoFrameParamsE8IteratorD0Ev, symObjAddr: 0x15390, symBinAddr: 0x100017380, symSize: 0x40 }
  - { offsetInCU: 0x134A59, offset: 0x140FC2, size: 0x8, addend: 0x0, symName: __ZNK7testing8internal30ValuesInIteratorRangeGeneratorI17CryptoFrameParamsE8Iterator13BaseGeneratorEv, symObjAddr: 0x153D0, symBinAddr: 0x1000173C0, symSize: 0x10 }
  - { offsetInCU: 0x134A99, offset: 0x141002, size: 0x8, addend: 0x0, symName: __ZN7testing8internal30ValuesInIteratorRangeGeneratorI17CryptoFrameParamsE8Iterator7AdvanceEv, symObjAddr: 0x153E0, symBinAddr: 0x1000173D0, symSize: 0x30 }
  - { offsetInCU: 0x134B88, offset: 0x1410F1, size: 0x8, addend: 0x0, symName: __ZNK7testing8internal30ValuesInIteratorRangeGeneratorI17CryptoFrameParamsE8Iterator5CloneEv, symObjAddr: 0x15410, symBinAddr: 0x100017400, symSize: 0x40 }
  - { offsetInCU: 0x134CD4, offset: 0x14123D, size: 0x8, addend: 0x0, symName: __ZNK7testing8internal30ValuesInIteratorRangeGeneratorI17CryptoFrameParamsE8Iterator7CurrentEv, symObjAddr: 0x15450, symBinAddr: 0x100017440, symSize: 0x40 }
  - { offsetInCU: 0x134D72, offset: 0x1412DB, size: 0x8, addend: 0x0, symName: __ZNK7testing8internal30ValuesInIteratorRangeGeneratorI17CryptoFrameParamsE8Iterator6EqualsERKNS0_22ParamIteratorInterfaceIS2_EE, symObjAddr: 0x15490, symBinAddr: 0x100017480, symSize: 0x140 }
  - { offsetInCU: 0x134FC0, offset: 0x141529, size: 0x8, addend: 0x0, symName: __ZNSt3__120__shared_ptr_pointerIPN7testing8internal23ParamGeneratorInterfaceI17CryptoFrameParamsEENS_10shared_ptrIKS5_E27__shared_ptr_default_deleteIS8_S5_EENS_9allocatorIS5_EEED1Ev, symObjAddr: 0x15670, symBinAddr: 0x100017660, symSize: 0x10 }
  - { offsetInCU: 0x13501B, offset: 0x141584, size: 0x8, addend: 0x0, symName: __ZNSt3__120__shared_ptr_pointerIPN7testing8internal23ParamGeneratorInterfaceI17CryptoFrameParamsEENS_10shared_ptrIKS5_E27__shared_ptr_default_deleteIS8_S5_EENS_9allocatorIS5_EEED0Ev, symObjAddr: 0x15680, symBinAddr: 0x100017670, symSize: 0x20 }
  - { offsetInCU: 0x135084, offset: 0x1415ED, size: 0x8, addend: 0x0, symName: __ZNSt3__120__shared_ptr_pointerIPN7testing8internal23ParamGeneratorInterfaceI17CryptoFrameParamsEENS_10shared_ptrIKS5_E27__shared_ptr_default_deleteIS8_S5_EENS_9allocatorIS5_EEE16__on_zero_sharedEv, symObjAddr: 0x156A0, symBinAddr: 0x100017690, symSize: 0x20 }
  - { offsetInCU: 0x1350D8, offset: 0x141641, size: 0x8, addend: 0x0, symName: __ZNKSt3__120__shared_ptr_pointerIPN7testing8internal23ParamGeneratorInterfaceI17CryptoFrameParamsEENS_10shared_ptrIKS5_E27__shared_ptr_default_deleteIS8_S5_EENS_9allocatorIS5_EEE13__get_deleterERKSt9type_info, symObjAddr: 0x156C0, symBinAddr: 0x1000176B0, symSize: 0x20 }
  - { offsetInCU: 0x13519F, offset: 0x141708, size: 0x8, addend: 0x0, symName: __ZNSt3__120__shared_ptr_pointerIPN7testing8internal23ParamGeneratorInterfaceI17CryptoFrameParamsEENS_10shared_ptrIKS5_E27__shared_ptr_default_deleteIS8_S5_EENS_9allocatorIS5_EEE21__on_zero_shared_weakEv, symObjAddr: 0x156E0, symBinAddr: 0x1000176D0, symSize: 0x10 }
  - { offsetInCU: 0x135282, offset: 0x1417EB, size: 0x8, addend: 0x0, symName: __ZN7testing8internal15TestFactoryImplI40FrameTest_NewTokenFrameEncodeDecode_TestED1Ev, symObjAddr: 0x156F0, symBinAddr: 0x1000176E0, symSize: 0x10 }
  - { offsetInCU: 0x1352AE, offset: 0x141817, size: 0x8, addend: 0x0, symName: __ZN7testing8internal15TestFactoryImplI40FrameTest_NewTokenFrameEncodeDecode_TestED0Ev, symObjAddr: 0x15700, symBinAddr: 0x1000176F0, symSize: 0x10 }
  - { offsetInCU: 0x13530E, offset: 0x141877, size: 0x8, addend: 0x0, symName: __ZN7testing8internal15TestFactoryImplI40FrameTest_NewTokenFrameEncodeDecode_TestE10CreateTestEv, symObjAddr: 0x15710, symBinAddr: 0x100017700, symSize: 0x50 }
  - { offsetInCU: 0x13565F, offset: 0x141BC8, size: 0x8, addend: 0x0, symName: __ZNSt3__110shared_ptrIN7testing8internal26ParameterizedTestSuiteInfoI17NewTokenFrameTestE8TestInfoEEC1B8ue170006IS6_vEEPT_, symObjAddr: 0x15B30, symBinAddr: 0x100017B20, symSize: 0x60 }
  - { offsetInCU: 0x135858, offset: 0x141DC1, size: 0x8, addend: 0x0, symName: __ZNSt3__16vectorINS_10shared_ptrIN7testing8internal26ParameterizedTestSuiteInfoI17NewTokenFrameTestE8TestInfoEEENS_9allocatorIS8_EEE24__emplace_back_slow_pathIJPS7_EEEvDpOT_, symObjAddr: 0x15960, symBinAddr: 0x100017950, symSize: 0x1D0 }
  - { offsetInCU: 0x136466, offset: 0x1429CF, size: 0x8, addend: 0x0, symName: __ZNKSt3__16vectorINS_10shared_ptrIN7testing8internal26ParameterizedTestSuiteInfoI17NewTokenFrameTestE8TestInfoEEENS_9allocatorIS8_EEE20__throw_length_errorB8ue170006Ev, symObjAddr: 0x15CD0, symBinAddr: 0x100017CC0, symSize: 0x10 }
  - { offsetInCU: 0x13648F, offset: 0x1429F8, size: 0x8, addend: 0x0, symName: __ZN7testing8internal15TestMetaFactoryI46NewTokenFrameTest_DecodeNewTokenFrameFail_TestED1Ev, symObjAddr: 0x15CE0, symBinAddr: 0x100017CD0, symSize: 0x10 }
  - { offsetInCU: 0x13649B, offset: 0x142A04, size: 0x8, addend: 0x0, symName: __ZNSt3__114__split_bufferINS_10shared_ptrIN7testing8internal26ParameterizedTestSuiteInfoI17NewTokenFrameTestE8TestInfoEEERNS_9allocatorIS8_EEED1Ev, symObjAddr: 0x15C50, symBinAddr: 0x100017C40, symSize: 0x80 }
  - { offsetInCU: 0x136A2F, offset: 0x142F98, size: 0x8, addend: 0x0, symName: __ZNSt3__110shared_ptrIN7testing8internal26ParameterizedTestSuiteInfoI17NewTokenFrameTestE8TestInfoEEC1B8ue170006IS6_vEEPT_.cold.1, symObjAddr: 0x39690, symBinAddr: 0x100419C50, symSize: 0x50 }
  - { offsetInCU: 0x136DC9, offset: 0x143332, size: 0x8, addend: 0x0, symName: __ZNSt3__120__shared_ptr_pointerIPN7testing8internal26ParameterizedTestSuiteInfoI17NewTokenFrameTestE8TestInfoENS_10shared_ptrIS6_E27__shared_ptr_default_deleteIS6_S6_EENS_9allocatorIS6_EEED1Ev, symObjAddr: 0x15B90, symBinAddr: 0x100017B80, symSize: 0x10 }
  - { offsetInCU: 0x136E24, offset: 0x14338D, size: 0x8, addend: 0x0, symName: __ZNSt3__120__shared_ptr_pointerIPN7testing8internal26ParameterizedTestSuiteInfoI17NewTokenFrameTestE8TestInfoENS_10shared_ptrIS6_E27__shared_ptr_default_deleteIS6_S6_EENS_9allocatorIS6_EEED0Ev, symObjAddr: 0x15BA0, symBinAddr: 0x100017B90, symSize: 0x20 }
  - { offsetInCU: 0x136F50, offset: 0x1434B9, size: 0x8, addend: 0x0, symName: __ZNSt3__120__shared_ptr_pointerIPN7testing8internal26ParameterizedTestSuiteInfoI17NewTokenFrameTestE8TestInfoENS_10shared_ptrIS6_E27__shared_ptr_default_deleteIS6_S6_EENS_9allocatorIS6_EEE16__on_zero_sharedEv, symObjAddr: 0x15BC0, symBinAddr: 0x100017BB0, symSize: 0x60 }
  - { offsetInCU: 0x13731B, offset: 0x143884, size: 0x8, addend: 0x0, symName: __ZNKSt3__120__shared_ptr_pointerIPN7testing8internal26ParameterizedTestSuiteInfoI17NewTokenFrameTestE8TestInfoENS_10shared_ptrIS6_E27__shared_ptr_default_deleteIS6_S6_EENS_9allocatorIS6_EEE13__get_deleterERKSt9type_info, symObjAddr: 0x15C20, symBinAddr: 0x100017C10, symSize: 0x20 }
  - { offsetInCU: 0x1373E2, offset: 0x14394B, size: 0x8, addend: 0x0, symName: __ZNSt3__120__shared_ptr_pointerIPN7testing8internal26ParameterizedTestSuiteInfoI17NewTokenFrameTestE8TestInfoENS_10shared_ptrIS6_E27__shared_ptr_default_deleteIS6_S6_EENS_9allocatorIS6_EEE21__on_zero_shared_weakEv, symObjAddr: 0x15C40, symBinAddr: 0x100017C30, symSize: 0x10 }
  - { offsetInCU: 0x1374C0, offset: 0x143A29, size: 0x8, addend: 0x0, symName: __ZN7testing8internal15TestMetaFactoryI46NewTokenFrameTest_DecodeNewTokenFrameFail_TestED1Ev, symObjAddr: 0x15CE0, symBinAddr: 0x100017CD0, symSize: 0x10 }
  - { offsetInCU: 0x1374EC, offset: 0x143A55, size: 0x8, addend: 0x0, symName: __ZN7testing8internal15TestMetaFactoryI46NewTokenFrameTest_DecodeNewTokenFrameFail_TestED0Ev, symObjAddr: 0x15CF0, symBinAddr: 0x100017CE0, symSize: 0x10 }
  - { offsetInCU: 0x137582, offset: 0x143AEB, size: 0x8, addend: 0x0, symName: __ZN7testing8internal15TestMetaFactoryI46NewTokenFrameTest_DecodeNewTokenFrameFail_TestE17CreateTestFactoryE19NewTokenFrameParams, symObjAddr: 0x15D00, symBinAddr: 0x100017CF0, symSize: 0x40 }
  - { offsetInCU: 0x13760C, offset: 0x143B75, size: 0x8, addend: 0x0, symName: __ZN7testing8internal24ParameterizedTestFactoryI46NewTokenFrameTest_DecodeNewTokenFrameFail_TestED1Ev, symObjAddr: 0x15D40, symBinAddr: 0x100017D30, symSize: 0x10 }
  - { offsetInCU: 0x137638, offset: 0x143BA1, size: 0x8, addend: 0x0, symName: __ZN7testing8internal24ParameterizedTestFactoryI46NewTokenFrameTest_DecodeNewTokenFrameFail_TestED0Ev, symObjAddr: 0x15D50, symBinAddr: 0x100017D40, symSize: 0x10 }
  - { offsetInCU: 0x1376E6, offset: 0x143C4F, size: 0x8, addend: 0x0, symName: __ZN7testing8internal24ParameterizedTestFactoryI46NewTokenFrameTest_DecodeNewTokenFrameFail_TestE10CreateTestEv, symObjAddr: 0x15D60, symBinAddr: 0x100017D50, symSize: 0x60 }
  - { offsetInCU: 0x1377A8, offset: 0x143D11, size: 0x8, addend: 0x0, symName: __ZN17NewTokenFrameTestD1Ev, symObjAddr: 0x15DC0, symBinAddr: 0x100419590, symSize: 0x10 }
  - { offsetInCU: 0x1377C9, offset: 0x143D32, size: 0x8, addend: 0x0, symName: __ZN17NewTokenFrameTestD0Ev, symObjAddr: 0x15DD0, symBinAddr: 0x1004195A0, symSize: 0x10 }
  - { offsetInCU: 0x137807, offset: 0x143D70, size: 0x8, addend: 0x0, symName: __ZThn16_N17NewTokenFrameTestD1Ev, symObjAddr: 0x15DE0, symBinAddr: 0x1004195B0, symSize: 0x10 }
  - { offsetInCU: 0x13785B, offset: 0x143DC4, size: 0x8, addend: 0x0, symName: __ZThn16_N17NewTokenFrameTestD0Ev, symObjAddr: 0x15DF0, symBinAddr: 0x1004195C0, symSize: 0x10 }
  - { offsetInCU: 0x137892, offset: 0x143DFB, size: 0x8, addend: 0x0, symName: __ZN7testing13TestWithParamI19NewTokenFrameParamsED1Ev, symObjAddr: 0x15E00, symBinAddr: 0x1004195D0, symSize: 0x10 }
  - { offsetInCU: 0x1378B3, offset: 0x143E1C, size: 0x8, addend: 0x0, symName: __ZN7testing13TestWithParamI19NewTokenFrameParamsED0Ev, symObjAddr: 0x15E10, symBinAddr: 0x1004195E0, symSize: 0x10 }
  - { offsetInCU: 0x1378F1, offset: 0x143E5A, size: 0x8, addend: 0x0, symName: __ZThn16_N7testing13TestWithParamI19NewTokenFrameParamsED1Ev, symObjAddr: 0x15E20, symBinAddr: 0x1004195F0, symSize: 0x10 }
  - { offsetInCU: 0x137945, offset: 0x143EAE, size: 0x8, addend: 0x0, symName: __ZThn16_N7testing13TestWithParamI19NewTokenFrameParamsED0Ev, symObjAddr: 0x15E30, symBinAddr: 0x100419600, symSize: 0x10 }
  - { offsetInCU: 0x13797C, offset: 0x143EE5, size: 0x8, addend: 0x0, symName: __ZN7testing18WithParamInterfaceI19NewTokenFrameParamsED1Ev, symObjAddr: 0x15E40, symBinAddr: 0x100017DB0, symSize: 0x10 }
  - { offsetInCU: 0x1379A5, offset: 0x143F0E, size: 0x8, addend: 0x0, symName: __ZN7testing18WithParamInterfaceI19NewTokenFrameParamsED0Ev, symObjAddr: 0x15E50, symBinAddr: 0x100017DC0, symSize: 0x10 }
  - { offsetInCU: 0x137DB3, offset: 0x14431C, size: 0x8, addend: 0x0, symName: __ZNKSt3__16vectorI19NewTokenFrameParamsNS_9allocatorIS1_EEE20__throw_length_errorB8ue170006Ev, symObjAddr: 0x16270, symBinAddr: 0x1000181E0, symSize: 0x10 }
  - { offsetInCU: 0x137DDC, offset: 0x144345, size: 0x8, addend: 0x0, symName: __ZN7testing8internal30ValuesInIteratorRangeGeneratorI19NewTokenFrameParamsE8IteratorD1Ev, symObjAddr: 0x16280, symBinAddr: 0x1000181F0, symSize: 0x30 }
  - { offsetInCU: 0x138467, offset: 0x1449D0, size: 0x8, addend: 0x0, symName: __ZN7testing8internal30ValuesInIteratorRangeGeneratorI19NewTokenFrameParamsED0Ev, symObjAddr: 0x161B0, symBinAddr: 0x100018120, symSize: 0x40 }
  - { offsetInCU: 0x138642, offset: 0x144BAB, size: 0x8, addend: 0x0, symName: __ZN7testing8internal30ValuesInIteratorRangeGeneratorI19NewTokenFrameParamsED1Ev, symObjAddr: 0x16180, symBinAddr: 0x1000180F0, symSize: 0x30 }
  - { offsetInCU: 0x13894A, offset: 0x144EB3, size: 0x8, addend: 0x0, symName: __ZNK7testing8internal30ValuesInIteratorRangeGeneratorI19NewTokenFrameParamsE5BeginEv, symObjAddr: 0x161F0, symBinAddr: 0x100018160, symSize: 0x40 }
  - { offsetInCU: 0x138A91, offset: 0x144FFA, size: 0x8, addend: 0x0, symName: __ZNK7testing8internal30ValuesInIteratorRangeGeneratorI19NewTokenFrameParamsE3EndEv, symObjAddr: 0x16230, symBinAddr: 0x1000181A0, symSize: 0x40 }
  - { offsetInCU: 0x138C7B, offset: 0x1451E4, size: 0x8, addend: 0x0, symName: __ZN7testing8internal30ValuesInIteratorRangeGeneratorI19NewTokenFrameParamsE8IteratorD1Ev, symObjAddr: 0x16280, symBinAddr: 0x1000181F0, symSize: 0x30 }
  - { offsetInCU: 0x138D76, offset: 0x1452DF, size: 0x8, addend: 0x0, symName: __ZN7testing8internal30ValuesInIteratorRangeGeneratorI19NewTokenFrameParamsE8IteratorD0Ev, symObjAddr: 0x162B0, symBinAddr: 0x100018220, symSize: 0x40 }
  - { offsetInCU: 0x138E7C, offset: 0x1453E5, size: 0x8, addend: 0x0, symName: __ZNK7testing8internal30ValuesInIteratorRangeGeneratorI19NewTokenFrameParamsE8Iterator13BaseGeneratorEv, symObjAddr: 0x162F0, symBinAddr: 0x100018260, symSize: 0x10 }
  - { offsetInCU: 0x138EBC, offset: 0x145425, size: 0x8, addend: 0x0, symName: __ZN7testing8internal30ValuesInIteratorRangeGeneratorI19NewTokenFrameParamsE8Iterator7AdvanceEv, symObjAddr: 0x16300, symBinAddr: 0x100018270, symSize: 0x30 }
  - { offsetInCU: 0x138FAB, offset: 0x145514, size: 0x8, addend: 0x0, symName: __ZNK7testing8internal30ValuesInIteratorRangeGeneratorI19NewTokenFrameParamsE8Iterator5CloneEv, symObjAddr: 0x16330, symBinAddr: 0x1000182A0, symSize: 0x40 }
  - { offsetInCU: 0x1390F7, offset: 0x145660, size: 0x8, addend: 0x0, symName: __ZNK7testing8internal30ValuesInIteratorRangeGeneratorI19NewTokenFrameParamsE8Iterator7CurrentEv, symObjAddr: 0x16370, symBinAddr: 0x1000182E0, symSize: 0x40 }
  - { offsetInCU: 0x139195, offset: 0x1456FE, size: 0x8, addend: 0x0, symName: __ZNK7testing8internal30ValuesInIteratorRangeGeneratorI19NewTokenFrameParamsE8Iterator6EqualsERKNS0_22ParamIteratorInterfaceIS2_EE, symObjAddr: 0x163B0, symBinAddr: 0x100018320, symSize: 0x140 }
  - { offsetInCU: 0x1393E3, offset: 0x14594C, size: 0x8, addend: 0x0, symName: __ZNSt3__120__shared_ptr_pointerIPN7testing8internal23ParamGeneratorInterfaceI19NewTokenFrameParamsEENS_10shared_ptrIKS5_E27__shared_ptr_default_deleteIS8_S5_EENS_9allocatorIS5_EEED1Ev, symObjAddr: 0x16590, symBinAddr: 0x100018500, symSize: 0x10 }
  - { offsetInCU: 0x13943E, offset: 0x1459A7, size: 0x8, addend: 0x0, symName: __ZNSt3__120__shared_ptr_pointerIPN7testing8internal23ParamGeneratorInterfaceI19NewTokenFrameParamsEENS_10shared_ptrIKS5_E27__shared_ptr_default_deleteIS8_S5_EENS_9allocatorIS5_EEED0Ev, symObjAddr: 0x165A0, symBinAddr: 0x100018510, symSize: 0x20 }
  - { offsetInCU: 0x1394A7, offset: 0x145A10, size: 0x8, addend: 0x0, symName: __ZNSt3__120__shared_ptr_pointerIPN7testing8internal23ParamGeneratorInterfaceI19NewTokenFrameParamsEENS_10shared_ptrIKS5_E27__shared_ptr_default_deleteIS8_S5_EENS_9allocatorIS5_EEE16__on_zero_sharedEv, symObjAddr: 0x165C0, symBinAddr: 0x100018530, symSize: 0x20 }
  - { offsetInCU: 0x1394FB, offset: 0x145A64, size: 0x8, addend: 0x0, symName: __ZNKSt3__120__shared_ptr_pointerIPN7testing8internal23ParamGeneratorInterfaceI19NewTokenFrameParamsEENS_10shared_ptrIKS5_E27__shared_ptr_default_deleteIS8_S5_EENS_9allocatorIS5_EEE13__get_deleterERKSt9type_info, symObjAddr: 0x165E0, symBinAddr: 0x100018550, symSize: 0x20 }
  - { offsetInCU: 0x1395C2, offset: 0x145B2B, size: 0x8, addend: 0x0, symName: __ZNSt3__120__shared_ptr_pointerIPN7testing8internal23ParamGeneratorInterfaceI19NewTokenFrameParamsEENS_10shared_ptrIKS5_E27__shared_ptr_default_deleteIS8_S5_EENS_9allocatorIS5_EEE21__on_zero_shared_weakEv, symObjAddr: 0x16600, symBinAddr: 0x100018570, symSize: 0x10 }
  - { offsetInCU: 0x13986D, offset: 0x145DD6, size: 0x8, addend: 0x0, symName: __ZNSt3__110shared_ptrIN7testing8internal26ParameterizedTestSuiteInfoI15StreamFrameTestE8TestInfoEEC1B8ue170006IS6_vEEPT_, symObjAddr: 0x169E0, symBinAddr: 0x100018950, symSize: 0x60 }
  - { offsetInCU: 0x139A66, offset: 0x145FCF, size: 0x8, addend: 0x0, symName: __ZNSt3__16vectorINS_10shared_ptrIN7testing8internal26ParameterizedTestSuiteInfoI15StreamFrameTestE8TestInfoEEENS_9allocatorIS8_EEE24__emplace_back_slow_pathIJPS7_EEEvDpOT_, symObjAddr: 0x16810, symBinAddr: 0x100018780, symSize: 0x1D0 }
  - { offsetInCU: 0x13A674, offset: 0x146BDD, size: 0x8, addend: 0x0, symName: __ZNKSt3__16vectorINS_10shared_ptrIN7testing8internal26ParameterizedTestSuiteInfoI15StreamFrameTestE8TestInfoEEENS_9allocatorIS8_EEE20__throw_length_errorB8ue170006Ev, symObjAddr: 0x16B80, symBinAddr: 0x100018AF0, symSize: 0x10 }
  - { offsetInCU: 0x13A69D, offset: 0x146C06, size: 0x8, addend: 0x0, symName: __ZN7testing8internal15TestMetaFactoryI44StreamFrameTest_StreamFrameEncodeDecode_TestED1Ev, symObjAddr: 0x16B90, symBinAddr: 0x100018B00, symSize: 0x10 }
  - { offsetInCU: 0x13A6A9, offset: 0x146C12, size: 0x8, addend: 0x0, symName: __ZNSt3__114__split_bufferINS_10shared_ptrIN7testing8internal26ParameterizedTestSuiteInfoI15StreamFrameTestE8TestInfoEEERNS_9allocatorIS8_EEED1Ev, symObjAddr: 0x16B00, symBinAddr: 0x100018A70, symSize: 0x80 }
  - { offsetInCU: 0x13AC3D, offset: 0x1471A6, size: 0x8, addend: 0x0, symName: __ZNSt3__110shared_ptrIN7testing8internal26ParameterizedTestSuiteInfoI15StreamFrameTestE8TestInfoEEC1B8ue170006IS6_vEEPT_.cold.1, symObjAddr: 0x396E0, symBinAddr: 0x100419CA0, symSize: 0x50 }
  - { offsetInCU: 0x13AFD7, offset: 0x147540, size: 0x8, addend: 0x0, symName: __ZNSt3__120__shared_ptr_pointerIPN7testing8internal26ParameterizedTestSuiteInfoI15StreamFrameTestE8TestInfoENS_10shared_ptrIS6_E27__shared_ptr_default_deleteIS6_S6_EENS_9allocatorIS6_EEED1Ev, symObjAddr: 0x16A40, symBinAddr: 0x1000189B0, symSize: 0x10 }
  - { offsetInCU: 0x13B032, offset: 0x14759B, size: 0x8, addend: 0x0, symName: __ZNSt3__120__shared_ptr_pointerIPN7testing8internal26ParameterizedTestSuiteInfoI15StreamFrameTestE8TestInfoENS_10shared_ptrIS6_E27__shared_ptr_default_deleteIS6_S6_EENS_9allocatorIS6_EEED0Ev, symObjAddr: 0x16A50, symBinAddr: 0x1000189C0, symSize: 0x20 }
  - { offsetInCU: 0x13B0D5, offset: 0x14763E, size: 0x8, addend: 0x0, symName: __ZNSt3__120__shared_ptr_pointerIPN7testing8internal26ParameterizedTestSuiteInfoI15StreamFrameTestE8TestInfoENS_10shared_ptrIS6_E27__shared_ptr_default_deleteIS6_S6_EENS_9allocatorIS6_EEE16__on_zero_sharedEv, symObjAddr: 0x16A70, symBinAddr: 0x1000189E0, symSize: 0x60 }
  - { offsetInCU: 0x13B4A0, offset: 0x147A09, size: 0x8, addend: 0x0, symName: __ZNKSt3__120__shared_ptr_pointerIPN7testing8internal26ParameterizedTestSuiteInfoI15StreamFrameTestE8TestInfoENS_10shared_ptrIS6_E27__shared_ptr_default_deleteIS6_S6_EENS_9allocatorIS6_EEE13__get_deleterERKSt9type_info, symObjAddr: 0x16AD0, symBinAddr: 0x100018A40, symSize: 0x20 }
  - { offsetInCU: 0x13B567, offset: 0x147AD0, size: 0x8, addend: 0x0, symName: __ZNSt3__120__shared_ptr_pointerIPN7testing8internal26ParameterizedTestSuiteInfoI15StreamFrameTestE8TestInfoENS_10shared_ptrIS6_E27__shared_ptr_default_deleteIS6_S6_EENS_9allocatorIS6_EEE21__on_zero_shared_weakEv, symObjAddr: 0x16AF0, symBinAddr: 0x100018A60, symSize: 0x10 }
  - { offsetInCU: 0x13B645, offset: 0x147BAE, size: 0x8, addend: 0x0, symName: __ZN7testing8internal15TestMetaFactoryI44StreamFrameTest_StreamFrameEncodeDecode_TestED1Ev, symObjAddr: 0x16B90, symBinAddr: 0x100018B00, symSize: 0x10 }
  - { offsetInCU: 0x13B671, offset: 0x147BDA, size: 0x8, addend: 0x0, symName: __ZN7testing8internal15TestMetaFactoryI44StreamFrameTest_StreamFrameEncodeDecode_TestED0Ev, symObjAddr: 0x16BA0, symBinAddr: 0x100018B10, symSize: 0x10 }
  - { offsetInCU: 0x13B707, offset: 0x147C70, size: 0x8, addend: 0x0, symName: __ZN7testing8internal15TestMetaFactoryI44StreamFrameTest_StreamFrameEncodeDecode_TestE17CreateTestFactoryE15QUIC_FRAME_TYPE, symObjAddr: 0x16BB0, symBinAddr: 0x100018B20, symSize: 0x30 }
  - { offsetInCU: 0x13B78D, offset: 0x147CF6, size: 0x8, addend: 0x0, symName: __ZN7testing8internal24ParameterizedTestFactoryI44StreamFrameTest_StreamFrameEncodeDecode_TestED1Ev, symObjAddr: 0x16BE0, symBinAddr: 0x100018B50, symSize: 0x10 }
  - { offsetInCU: 0x13B7B9, offset: 0x147D22, size: 0x8, addend: 0x0, symName: __ZN7testing8internal24ParameterizedTestFactoryI44StreamFrameTest_StreamFrameEncodeDecode_TestED0Ev, symObjAddr: 0x16BF0, symBinAddr: 0x100018B60, symSize: 0x10 }
  - { offsetInCU: 0x13B836, offset: 0x147D9F, size: 0x8, addend: 0x0, symName: __ZN7testing8internal24ParameterizedTestFactoryI44StreamFrameTest_StreamFrameEncodeDecode_TestE10CreateTestEv, symObjAddr: 0x16C00, symBinAddr: 0x100018B70, symSize: 0x60 }
  - { offsetInCU: 0x13B8F8, offset: 0x147E61, size: 0x8, addend: 0x0, symName: __ZN15StreamFrameTestD1Ev, symObjAddr: 0x16C60, symBinAddr: 0x100419610, symSize: 0x10 }
  - { offsetInCU: 0x13B919, offset: 0x147E82, size: 0x8, addend: 0x0, symName: __ZN15StreamFrameTestD0Ev, symObjAddr: 0x16C70, symBinAddr: 0x100419620, symSize: 0x10 }
  - { offsetInCU: 0x13B957, offset: 0x147EC0, size: 0x8, addend: 0x0, symName: __ZThn16_N15StreamFrameTestD1Ev, symObjAddr: 0x16C80, symBinAddr: 0x100419630, symSize: 0x10 }
  - { offsetInCU: 0x13B9AB, offset: 0x147F14, size: 0x8, addend: 0x0, symName: __ZThn16_N15StreamFrameTestD0Ev, symObjAddr: 0x16C90, symBinAddr: 0x100419640, symSize: 0x10 }
  - { offsetInCU: 0x13B9E2, offset: 0x147F4B, size: 0x8, addend: 0x0, symName: __ZN7testing8internal15TestMetaFactoryI42StreamFrameTest_DecodeStreamFrameFail_TestED1Ev, symObjAddr: 0x16CA0, symBinAddr: 0x100018BD0, symSize: 0x10 }
  - { offsetInCU: 0x13BA0E, offset: 0x147F77, size: 0x8, addend: 0x0, symName: __ZN7testing8internal15TestMetaFactoryI42StreamFrameTest_DecodeStreamFrameFail_TestED0Ev, symObjAddr: 0x16CB0, symBinAddr: 0x100018BE0, symSize: 0x10 }
  - { offsetInCU: 0x13BAA4, offset: 0x14800D, size: 0x8, addend: 0x0, symName: __ZN7testing8internal15TestMetaFactoryI42StreamFrameTest_DecodeStreamFrameFail_TestE17CreateTestFactoryE15QUIC_FRAME_TYPE, symObjAddr: 0x16CC0, symBinAddr: 0x100018BF0, symSize: 0x30 }
  - { offsetInCU: 0x13BB2A, offset: 0x148093, size: 0x8, addend: 0x0, symName: __ZN7testing8internal24ParameterizedTestFactoryI42StreamFrameTest_DecodeStreamFrameFail_TestED1Ev, symObjAddr: 0x16CF0, symBinAddr: 0x100018C20, symSize: 0x10 }
  - { offsetInCU: 0x13BB56, offset: 0x1480BF, size: 0x8, addend: 0x0, symName: __ZN7testing8internal24ParameterizedTestFactoryI42StreamFrameTest_DecodeStreamFrameFail_TestED0Ev, symObjAddr: 0x16D00, symBinAddr: 0x100018C30, symSize: 0x10 }
  - { offsetInCU: 0x13BBB6, offset: 0x14811F, size: 0x8, addend: 0x0, symName: __ZN7testing8internal24ParameterizedTestFactoryI42StreamFrameTest_DecodeStreamFrameFail_TestE10CreateTestEv, symObjAddr: 0x16D10, symBinAddr: 0x100018C40, symSize: 0x60 }
  - { offsetInCU: 0x13BC7D, offset: 0x1481E6, size: 0x8, addend: 0x0, symName: __ZN7testing8internal15TestFactoryImplI39FrameTest_MaxDataFrameEncodeDecode_TestED1Ev, symObjAddr: 0x16D70, symBinAddr: 0x100018CA0, symSize: 0x10 }
  - { offsetInCU: 0x13BCA9, offset: 0x148212, size: 0x8, addend: 0x0, symName: __ZN7testing8internal15TestFactoryImplI39FrameTest_MaxDataFrameEncodeDecode_TestED0Ev, symObjAddr: 0x16D80, symBinAddr: 0x100018CB0, symSize: 0x10 }
  - { offsetInCU: 0x13BD09, offset: 0x148272, size: 0x8, addend: 0x0, symName: __ZN7testing8internal15TestFactoryImplI39FrameTest_MaxDataFrameEncodeDecode_TestE10CreateTestEv, symObjAddr: 0x16D90, symBinAddr: 0x100018CC0, symSize: 0x50 }
  - { offsetInCU: 0x13C05A, offset: 0x1485C3, size: 0x8, addend: 0x0, symName: __ZNSt3__110shared_ptrIN7testing8internal26ParameterizedTestSuiteInfoI16MaxDataFrameTestE8TestInfoEEC1B8ue170006IS6_vEEPT_, symObjAddr: 0x171B0, symBinAddr: 0x1000190E0, symSize: 0x60 }
  - { offsetInCU: 0x13C253, offset: 0x1487BC, size: 0x8, addend: 0x0, symName: __ZNSt3__16vectorINS_10shared_ptrIN7testing8internal26ParameterizedTestSuiteInfoI16MaxDataFrameTestE8TestInfoEEENS_9allocatorIS8_EEE24__emplace_back_slow_pathIJPS7_EEEvDpOT_, symObjAddr: 0x16FE0, symBinAddr: 0x100018F10, symSize: 0x1D0 }
  - { offsetInCU: 0x13CE61, offset: 0x1493CA, size: 0x8, addend: 0x0, symName: __ZNKSt3__16vectorINS_10shared_ptrIN7testing8internal26ParameterizedTestSuiteInfoI16MaxDataFrameTestE8TestInfoEEENS_9allocatorIS8_EEE20__throw_length_errorB8ue170006Ev, symObjAddr: 0x17350, symBinAddr: 0x100019280, symSize: 0x10 }
  - { offsetInCU: 0x13CE8A, offset: 0x1493F3, size: 0x8, addend: 0x0, symName: __ZN7testing8internal15TestMetaFactoryI44MaxDataFrameTest_DecodeMaxDataFrameFail_TestED1Ev, symObjAddr: 0x17360, symBinAddr: 0x100019290, symSize: 0x10 }
  - { offsetInCU: 0x13CE96, offset: 0x1493FF, size: 0x8, addend: 0x0, symName: __ZNSt3__114__split_bufferINS_10shared_ptrIN7testing8internal26ParameterizedTestSuiteInfoI16MaxDataFrameTestE8TestInfoEEERNS_9allocatorIS8_EEED1Ev, symObjAddr: 0x172D0, symBinAddr: 0x100019200, symSize: 0x80 }
  - { offsetInCU: 0x13D42A, offset: 0x149993, size: 0x8, addend: 0x0, symName: __ZNSt3__110shared_ptrIN7testing8internal26ParameterizedTestSuiteInfoI16MaxDataFrameTestE8TestInfoEEC1B8ue170006IS6_vEEPT_.cold.1, symObjAddr: 0x39730, symBinAddr: 0x100419CF0, symSize: 0x50 }
  - { offsetInCU: 0x13D7C4, offset: 0x149D2D, size: 0x8, addend: 0x0, symName: __ZNSt3__120__shared_ptr_pointerIPN7testing8internal26ParameterizedTestSuiteInfoI16MaxDataFrameTestE8TestInfoENS_10shared_ptrIS6_E27__shared_ptr_default_deleteIS6_S6_EENS_9allocatorIS6_EEED1Ev, symObjAddr: 0x17210, symBinAddr: 0x100019140, symSize: 0x10 }
  - { offsetInCU: 0x13D81F, offset: 0x149D88, size: 0x8, addend: 0x0, symName: __ZNSt3__120__shared_ptr_pointerIPN7testing8internal26ParameterizedTestSuiteInfoI16MaxDataFrameTestE8TestInfoENS_10shared_ptrIS6_E27__shared_ptr_default_deleteIS6_S6_EENS_9allocatorIS6_EEED0Ev, symObjAddr: 0x17220, symBinAddr: 0x100019150, symSize: 0x20 }
  - { offsetInCU: 0x13D94B, offset: 0x149EB4, size: 0x8, addend: 0x0, symName: __ZNSt3__120__shared_ptr_pointerIPN7testing8internal26ParameterizedTestSuiteInfoI16MaxDataFrameTestE8TestInfoENS_10shared_ptrIS6_E27__shared_ptr_default_deleteIS6_S6_EENS_9allocatorIS6_EEE16__on_zero_sharedEv, symObjAddr: 0x17240, symBinAddr: 0x100019170, symSize: 0x60 }
  - { offsetInCU: 0x13DD16, offset: 0x14A27F, size: 0x8, addend: 0x0, symName: __ZNKSt3__120__shared_ptr_pointerIPN7testing8internal26ParameterizedTestSuiteInfoI16MaxDataFrameTestE8TestInfoENS_10shared_ptrIS6_E27__shared_ptr_default_deleteIS6_S6_EENS_9allocatorIS6_EEE13__get_deleterERKSt9type_info, symObjAddr: 0x172A0, symBinAddr: 0x1000191D0, symSize: 0x20 }
  - { offsetInCU: 0x13DDDD, offset: 0x14A346, size: 0x8, addend: 0x0, symName: __ZNSt3__120__shared_ptr_pointerIPN7testing8internal26ParameterizedTestSuiteInfoI16MaxDataFrameTestE8TestInfoENS_10shared_ptrIS6_E27__shared_ptr_default_deleteIS6_S6_EENS_9allocatorIS6_EEE21__on_zero_shared_weakEv, symObjAddr: 0x172C0, symBinAddr: 0x1000191F0, symSize: 0x10 }
  - { offsetInCU: 0x13DEBB, offset: 0x14A424, size: 0x8, addend: 0x0, symName: __ZN7testing8internal15TestMetaFactoryI44MaxDataFrameTest_DecodeMaxDataFrameFail_TestED1Ev, symObjAddr: 0x17360, symBinAddr: 0x100019290, symSize: 0x10 }
  - { offsetInCU: 0x13DEE7, offset: 0x14A450, size: 0x8, addend: 0x0, symName: __ZN7testing8internal15TestMetaFactoryI44MaxDataFrameTest_DecodeMaxDataFrameFail_TestED0Ev, symObjAddr: 0x17370, symBinAddr: 0x1000192A0, symSize: 0x10 }
  - { offsetInCU: 0x13DF7D, offset: 0x14A4E6, size: 0x8, addend: 0x0, symName: __ZN7testing8internal15TestMetaFactoryI44MaxDataFrameTest_DecodeMaxDataFrameFail_TestE17CreateTestFactoryE18MaxDataFrameParams, symObjAddr: 0x17380, symBinAddr: 0x1000192B0, symSize: 0x30 }
  - { offsetInCU: 0x13E003, offset: 0x14A56C, size: 0x8, addend: 0x0, symName: __ZN7testing8internal24ParameterizedTestFactoryI44MaxDataFrameTest_DecodeMaxDataFrameFail_TestED1Ev, symObjAddr: 0x173B0, symBinAddr: 0x1000192E0, symSize: 0x10 }
  - { offsetInCU: 0x13E02F, offset: 0x14A598, size: 0x8, addend: 0x0, symName: __ZN7testing8internal24ParameterizedTestFactoryI44MaxDataFrameTest_DecodeMaxDataFrameFail_TestED0Ev, symObjAddr: 0x173C0, symBinAddr: 0x1000192F0, symSize: 0x10 }
  - { offsetInCU: 0x13E0DD, offset: 0x14A646, size: 0x8, addend: 0x0, symName: __ZN7testing8internal24ParameterizedTestFactoryI44MaxDataFrameTest_DecodeMaxDataFrameFail_TestE10CreateTestEv, symObjAddr: 0x173D0, symBinAddr: 0x100019300, symSize: 0x60 }
  - { offsetInCU: 0x13E19F, offset: 0x14A708, size: 0x8, addend: 0x0, symName: __ZN16MaxDataFrameTestD1Ev, symObjAddr: 0x17430, symBinAddr: 0x100419650, symSize: 0x10 }
  - { offsetInCU: 0x13E1C0, offset: 0x14A729, size: 0x8, addend: 0x0, symName: __ZN16MaxDataFrameTestD0Ev, symObjAddr: 0x17440, symBinAddr: 0x100419660, symSize: 0x10 }
  - { offsetInCU: 0x13E1FE, offset: 0x14A767, size: 0x8, addend: 0x0, symName: __ZThn16_N16MaxDataFrameTestD1Ev, symObjAddr: 0x17450, symBinAddr: 0x100419670, symSize: 0x10 }
  - { offsetInCU: 0x13E252, offset: 0x14A7BB, size: 0x8, addend: 0x0, symName: __ZThn16_N16MaxDataFrameTestD0Ev, symObjAddr: 0x17460, symBinAddr: 0x100419680, symSize: 0x10 }
  - { offsetInCU: 0x13E289, offset: 0x14A7F2, size: 0x8, addend: 0x0, symName: __ZN7testing13TestWithParamI18MaxDataFrameParamsED1Ev, symObjAddr: 0x17470, symBinAddr: 0x100419690, symSize: 0x10 }
  - { offsetInCU: 0x13E2AA, offset: 0x14A813, size: 0x8, addend: 0x0, symName: __ZN7testing13TestWithParamI18MaxDataFrameParamsED0Ev, symObjAddr: 0x17480, symBinAddr: 0x1004196A0, symSize: 0x10 }
  - { offsetInCU: 0x13E2E8, offset: 0x14A851, size: 0x8, addend: 0x0, symName: __ZThn16_N7testing13TestWithParamI18MaxDataFrameParamsED1Ev, symObjAddr: 0x17490, symBinAddr: 0x1004196B0, symSize: 0x10 }
  - { offsetInCU: 0x13E33C, offset: 0x14A8A5, size: 0x8, addend: 0x0, symName: __ZThn16_N7testing13TestWithParamI18MaxDataFrameParamsED0Ev, symObjAddr: 0x174A0, symBinAddr: 0x1004196C0, symSize: 0x10 }
  - { offsetInCU: 0x13E373, offset: 0x14A8DC, size: 0x8, addend: 0x0, symName: __ZN7testing18WithParamInterfaceI18MaxDataFrameParamsED1Ev, symObjAddr: 0x174B0, symBinAddr: 0x100019360, symSize: 0x10 }
  - { offsetInCU: 0x13E39C, offset: 0x14A905, size: 0x8, addend: 0x0, symName: __ZN7testing18WithParamInterfaceI18MaxDataFrameParamsED0Ev, symObjAddr: 0x174C0, symBinAddr: 0x100019370, symSize: 0x10 }
  - { offsetInCU: 0x13E7AA, offset: 0x14AD13, size: 0x8, addend: 0x0, symName: __ZNKSt3__16vectorI18MaxDataFrameParamsNS_9allocatorIS1_EEE20__throw_length_errorB8ue170006Ev, symObjAddr: 0x17880, symBinAddr: 0x100019730, symSize: 0x10 }
  - { offsetInCU: 0x13E7D3, offset: 0x14AD3C, size: 0x8, addend: 0x0, symName: __ZN7testing8internal30ValuesInIteratorRangeGeneratorI18MaxDataFrameParamsE8IteratorD1Ev, symObjAddr: 0x17890, symBinAddr: 0x100019740, symSize: 0x30 }
  - { offsetInCU: 0x13EE5E, offset: 0x14B3C7, size: 0x8, addend: 0x0, symName: __ZN7testing8internal30ValuesInIteratorRangeGeneratorI18MaxDataFrameParamsED0Ev, symObjAddr: 0x177C0, symBinAddr: 0x100019670, symSize: 0x40 }
  - { offsetInCU: 0x13F039, offset: 0x14B5A2, size: 0x8, addend: 0x0, symName: __ZN7testing8internal30ValuesInIteratorRangeGeneratorI18MaxDataFrameParamsED1Ev, symObjAddr: 0x17790, symBinAddr: 0x100019640, symSize: 0x30 }
  - { offsetInCU: 0x13F341, offset: 0x14B8AA, size: 0x8, addend: 0x0, symName: __ZNK7testing8internal30ValuesInIteratorRangeGeneratorI18MaxDataFrameParamsE5BeginEv, symObjAddr: 0x17800, symBinAddr: 0x1000196B0, symSize: 0x40 }
  - { offsetInCU: 0x13F488, offset: 0x14B9F1, size: 0x8, addend: 0x0, symName: __ZNK7testing8internal30ValuesInIteratorRangeGeneratorI18MaxDataFrameParamsE3EndEv, symObjAddr: 0x17840, symBinAddr: 0x1000196F0, symSize: 0x40 }
  - { offsetInCU: 0x13F672, offset: 0x14BBDB, size: 0x8, addend: 0x0, symName: __ZN7testing8internal30ValuesInIteratorRangeGeneratorI18MaxDataFrameParamsE8IteratorD1Ev, symObjAddr: 0x17890, symBinAddr: 0x100019740, symSize: 0x30 }
  - { offsetInCU: 0x13F76D, offset: 0x14BCD6, size: 0x8, addend: 0x0, symName: __ZN7testing8internal30ValuesInIteratorRangeGeneratorI18MaxDataFrameParamsE8IteratorD0Ev, symObjAddr: 0x178C0, symBinAddr: 0x100019770, symSize: 0x40 }
  - { offsetInCU: 0x13F873, offset: 0x14BDDC, size: 0x8, addend: 0x0, symName: __ZNK7testing8internal30ValuesInIteratorRangeGeneratorI18MaxDataFrameParamsE8Iterator13BaseGeneratorEv, symObjAddr: 0x17900, symBinAddr: 0x1000197B0, symSize: 0x10 }
  - { offsetInCU: 0x13F8B3, offset: 0x14BE1C, size: 0x8, addend: 0x0, symName: __ZN7testing8internal30ValuesInIteratorRangeGeneratorI18MaxDataFrameParamsE8Iterator7AdvanceEv, symObjAddr: 0x17910, symBinAddr: 0x1000197C0, symSize: 0x30 }
  - { offsetInCU: 0x13F9A2, offset: 0x14BF0B, size: 0x8, addend: 0x0, symName: __ZNK7testing8internal30ValuesInIteratorRangeGeneratorI18MaxDataFrameParamsE8Iterator5CloneEv, symObjAddr: 0x17940, symBinAddr: 0x1000197F0, symSize: 0x40 }
  - { offsetInCU: 0x13FAEE, offset: 0x14C057, size: 0x8, addend: 0x0, symName: __ZNK7testing8internal30ValuesInIteratorRangeGeneratorI18MaxDataFrameParamsE8Iterator7CurrentEv, symObjAddr: 0x17980, symBinAddr: 0x100019830, symSize: 0x40 }
  - { offsetInCU: 0x13FB8C, offset: 0x14C0F5, size: 0x8, addend: 0x0, symName: __ZNK7testing8internal30ValuesInIteratorRangeGeneratorI18MaxDataFrameParamsE8Iterator6EqualsERKNS0_22ParamIteratorInterfaceIS2_EE, symObjAddr: 0x179C0, symBinAddr: 0x100019870, symSize: 0x140 }
  - { offsetInCU: 0x13FDDA, offset: 0x14C343, size: 0x8, addend: 0x0, symName: __ZNSt3__120__shared_ptr_pointerIPN7testing8internal23ParamGeneratorInterfaceI18MaxDataFrameParamsEENS_10shared_ptrIKS5_E27__shared_ptr_default_deleteIS8_S5_EENS_9allocatorIS5_EEED1Ev, symObjAddr: 0x17BA0, symBinAddr: 0x100019A50, symSize: 0x10 }
  - { offsetInCU: 0x13FE35, offset: 0x14C39E, size: 0x8, addend: 0x0, symName: __ZNSt3__120__shared_ptr_pointerIPN7testing8internal23ParamGeneratorInterfaceI18MaxDataFrameParamsEENS_10shared_ptrIKS5_E27__shared_ptr_default_deleteIS8_S5_EENS_9allocatorIS5_EEED0Ev, symObjAddr: 0x17BB0, symBinAddr: 0x100019A60, symSize: 0x20 }
  - { offsetInCU: 0x13FE9E, offset: 0x14C407, size: 0x8, addend: 0x0, symName: __ZNSt3__120__shared_ptr_pointerIPN7testing8internal23ParamGeneratorInterfaceI18MaxDataFrameParamsEENS_10shared_ptrIKS5_E27__shared_ptr_default_deleteIS8_S5_EENS_9allocatorIS5_EEE16__on_zero_sharedEv, symObjAddr: 0x17BD0, symBinAddr: 0x100019A80, symSize: 0x20 }
  - { offsetInCU: 0x13FEF2, offset: 0x14C45B, size: 0x8, addend: 0x0, symName: __ZNKSt3__120__shared_ptr_pointerIPN7testing8internal23ParamGeneratorInterfaceI18MaxDataFrameParamsEENS_10shared_ptrIKS5_E27__shared_ptr_default_deleteIS8_S5_EENS_9allocatorIS5_EEE13__get_deleterERKSt9type_info, symObjAddr: 0x17BF0, symBinAddr: 0x100019AA0, symSize: 0x20 }
  - { offsetInCU: 0x13FFB9, offset: 0x14C522, size: 0x8, addend: 0x0, symName: __ZNSt3__120__shared_ptr_pointerIPN7testing8internal23ParamGeneratorInterfaceI18MaxDataFrameParamsEENS_10shared_ptrIKS5_E27__shared_ptr_default_deleteIS8_S5_EENS_9allocatorIS5_EEE21__on_zero_shared_weakEv, symObjAddr: 0x17C10, symBinAddr: 0x100019AC0, symSize: 0x10 }
  - { offsetInCU: 0x14009C, offset: 0x14C605, size: 0x8, addend: 0x0, symName: __ZN7testing8internal15TestFactoryImplI45FrameTest_MaxStreamDataFrameEncodeDecode_TestED1Ev, symObjAddr: 0x17C20, symBinAddr: 0x100019AD0, symSize: 0x10 }
  - { offsetInCU: 0x1400C8, offset: 0x14C631, size: 0x8, addend: 0x0, symName: __ZN7testing8internal15TestFactoryImplI45FrameTest_MaxStreamDataFrameEncodeDecode_TestED0Ev, symObjAddr: 0x17C30, symBinAddr: 0x100019AE0, symSize: 0x10 }
  - { offsetInCU: 0x140128, offset: 0x14C691, size: 0x8, addend: 0x0, symName: __ZN7testing8internal15TestFactoryImplI45FrameTest_MaxStreamDataFrameEncodeDecode_TestE10CreateTestEv, symObjAddr: 0x17C40, symBinAddr: 0x100019AF0, symSize: 0x50 }
  - { offsetInCU: 0x140479, offset: 0x14C9E2, size: 0x8, addend: 0x0, symName: __ZNSt3__110shared_ptrIN7testing8internal26ParameterizedTestSuiteInfoI22MaxStreamDataFrameTestE8TestInfoEEC1B8ue170006IS6_vEEPT_, symObjAddr: 0x18060, symBinAddr: 0x100019F10, symSize: 0x60 }
  - { offsetInCU: 0x140672, offset: 0x14CBDB, size: 0x8, addend: 0x0, symName: __ZNSt3__16vectorINS_10shared_ptrIN7testing8internal26ParameterizedTestSuiteInfoI22MaxStreamDataFrameTestE8TestInfoEEENS_9allocatorIS8_EEE24__emplace_back_slow_pathIJPS7_EEEvDpOT_, symObjAddr: 0x17E90, symBinAddr: 0x100019D40, symSize: 0x1D0 }
  - { offsetInCU: 0x141280, offset: 0x14D7E9, size: 0x8, addend: 0x0, symName: __ZNKSt3__16vectorINS_10shared_ptrIN7testing8internal26ParameterizedTestSuiteInfoI22MaxStreamDataFrameTestE8TestInfoEEENS_9allocatorIS8_EEE20__throw_length_errorB8ue170006Ev, symObjAddr: 0x18200, symBinAddr: 0x10001A0B0, symSize: 0x10 }
  - { offsetInCU: 0x1412A9, offset: 0x14D812, size: 0x8, addend: 0x0, symName: __ZN7testing8internal15TestMetaFactoryI56MaxStreamDataFrameTest_DecodeMaxStreamDataFrameFail_TestED1Ev, symObjAddr: 0x18210, symBinAddr: 0x10001A0C0, symSize: 0x10 }
  - { offsetInCU: 0x1412B5, offset: 0x14D81E, size: 0x8, addend: 0x0, symName: __ZNSt3__114__split_bufferINS_10shared_ptrIN7testing8internal26ParameterizedTestSuiteInfoI22MaxStreamDataFrameTestE8TestInfoEEERNS_9allocatorIS8_EEED1Ev, symObjAddr: 0x18180, symBinAddr: 0x10001A030, symSize: 0x80 }
  - { offsetInCU: 0x141849, offset: 0x14DDB2, size: 0x8, addend: 0x0, symName: __ZNSt3__110shared_ptrIN7testing8internal26ParameterizedTestSuiteInfoI22MaxStreamDataFrameTestE8TestInfoEEC1B8ue170006IS6_vEEPT_.cold.1, symObjAddr: 0x39780, symBinAddr: 0x100419D40, symSize: 0x50 }
  - { offsetInCU: 0x141BE3, offset: 0x14E14C, size: 0x8, addend: 0x0, symName: __ZNSt3__120__shared_ptr_pointerIPN7testing8internal26ParameterizedTestSuiteInfoI22MaxStreamDataFrameTestE8TestInfoENS_10shared_ptrIS6_E27__shared_ptr_default_deleteIS6_S6_EENS_9allocatorIS6_EEED1Ev, symObjAddr: 0x180C0, symBinAddr: 0x100019F70, symSize: 0x10 }
  - { offsetInCU: 0x141C3E, offset: 0x14E1A7, size: 0x8, addend: 0x0, symName: __ZNSt3__120__shared_ptr_pointerIPN7testing8internal26ParameterizedTestSuiteInfoI22MaxStreamDataFrameTestE8TestInfoENS_10shared_ptrIS6_E27__shared_ptr_default_deleteIS6_S6_EENS_9allocatorIS6_EEED0Ev, symObjAddr: 0x180D0, symBinAddr: 0x100019F80, symSize: 0x20 }
  - { offsetInCU: 0x141D6A, offset: 0x14E2D3, size: 0x8, addend: 0x0, symName: __ZNSt3__120__shared_ptr_pointerIPN7testing8internal26ParameterizedTestSuiteInfoI22MaxStreamDataFrameTestE8TestInfoENS_10shared_ptrIS6_E27__shared_ptr_default_deleteIS6_S6_EENS_9allocatorIS6_EEE16__on_zero_sharedEv, symObjAddr: 0x180F0, symBinAddr: 0x100019FA0, symSize: 0x60 }
  - { offsetInCU: 0x142135, offset: 0x14E69E, size: 0x8, addend: 0x0, symName: __ZNKSt3__120__shared_ptr_pointerIPN7testing8internal26ParameterizedTestSuiteInfoI22MaxStreamDataFrameTestE8TestInfoENS_10shared_ptrIS6_E27__shared_ptr_default_deleteIS6_S6_EENS_9allocatorIS6_EEE13__get_deleterERKSt9type_info, symObjAddr: 0x18150, symBinAddr: 0x10001A000, symSize: 0x20 }
  - { offsetInCU: 0x1421FC, offset: 0x14E765, size: 0x8, addend: 0x0, symName: __ZNSt3__120__shared_ptr_pointerIPN7testing8internal26ParameterizedTestSuiteInfoI22MaxStreamDataFrameTestE8TestInfoENS_10shared_ptrIS6_E27__shared_ptr_default_deleteIS6_S6_EENS_9allocatorIS6_EEE21__on_zero_shared_weakEv, symObjAddr: 0x18170, symBinAddr: 0x10001A020, symSize: 0x10 }
  - { offsetInCU: 0x1422DA, offset: 0x14E843, size: 0x8, addend: 0x0, symName: __ZN7testing8internal15TestMetaFactoryI56MaxStreamDataFrameTest_DecodeMaxStreamDataFrameFail_TestED1Ev, symObjAddr: 0x18210, symBinAddr: 0x10001A0C0, symSize: 0x10 }
  - { offsetInCU: 0x142306, offset: 0x14E86F, size: 0x8, addend: 0x0, symName: __ZN7testing8internal15TestMetaFactoryI56MaxStreamDataFrameTest_DecodeMaxStreamDataFrameFail_TestED0Ev, symObjAddr: 0x18220, symBinAddr: 0x10001A0D0, symSize: 0x10 }
  - { offsetInCU: 0x14239C, offset: 0x14E905, size: 0x8, addend: 0x0, symName: __ZN7testing8internal15TestMetaFactoryI56MaxStreamDataFrameTest_DecodeMaxStreamDataFrameFail_TestE17CreateTestFactoryE24MaxStreamDataFrameParams, symObjAddr: 0x18230, symBinAddr: 0x10001A0E0, symSize: 0x40 }
  - { offsetInCU: 0x142426, offset: 0x14E98F, size: 0x8, addend: 0x0, symName: __ZN7testing8internal24ParameterizedTestFactoryI56MaxStreamDataFrameTest_DecodeMaxStreamDataFrameFail_TestED1Ev, symObjAddr: 0x18270, symBinAddr: 0x10001A120, symSize: 0x10 }
  - { offsetInCU: 0x142452, offset: 0x14E9BB, size: 0x8, addend: 0x0, symName: __ZN7testing8internal24ParameterizedTestFactoryI56MaxStreamDataFrameTest_DecodeMaxStreamDataFrameFail_TestED0Ev, symObjAddr: 0x18280, symBinAddr: 0x10001A130, symSize: 0x10 }
  - { offsetInCU: 0x142500, offset: 0x14EA69, size: 0x8, addend: 0x0, symName: __ZN7testing8internal24ParameterizedTestFactoryI56MaxStreamDataFrameTest_DecodeMaxStreamDataFrameFail_TestE10CreateTestEv, symObjAddr: 0x18290, symBinAddr: 0x10001A140, symSize: 0x60 }
  - { offsetInCU: 0x1425C2, offset: 0x14EB2B, size: 0x8, addend: 0x0, symName: __ZN22MaxStreamDataFrameTestD1Ev, symObjAddr: 0x182F0, symBinAddr: 0x1004196D0, symSize: 0x10 }
  - { offsetInCU: 0x1425E3, offset: 0x14EB4C, size: 0x8, addend: 0x0, symName: __ZN22MaxStreamDataFrameTestD0Ev, symObjAddr: 0x18300, symBinAddr: 0x1004196E0, symSize: 0x10 }
  - { offsetInCU: 0x142621, offset: 0x14EB8A, size: 0x8, addend: 0x0, symName: __ZThn16_N22MaxStreamDataFrameTestD1Ev, symObjAddr: 0x18310, symBinAddr: 0x1004196F0, symSize: 0x10 }
  - { offsetInCU: 0x142675, offset: 0x14EBDE, size: 0x8, addend: 0x0, symName: __ZThn16_N22MaxStreamDataFrameTestD0Ev, symObjAddr: 0x18320, symBinAddr: 0x100419700, symSize: 0x10 }
  - { offsetInCU: 0x1426AC, offset: 0x14EC15, size: 0x8, addend: 0x0, symName: __ZN7testing13TestWithParamI24MaxStreamDataFrameParamsED1Ev, symObjAddr: 0x18330, symBinAddr: 0x100419710, symSize: 0x10 }
  - { offsetInCU: 0x1426CD, offset: 0x14EC36, size: 0x8, addend: 0x0, symName: __ZN7testing13TestWithParamI24MaxStreamDataFrameParamsED0Ev, symObjAddr: 0x18340, symBinAddr: 0x100419720, symSize: 0x10 }
  - { offsetInCU: 0x14270B, offset: 0x14EC74, size: 0x8, addend: 0x0, symName: __ZThn16_N7testing13TestWithParamI24MaxStreamDataFrameParamsED1Ev, symObjAddr: 0x18350, symBinAddr: 0x100419730, symSize: 0x10 }
  - { offsetInCU: 0x14275F, offset: 0x14ECC8, size: 0x8, addend: 0x0, symName: __ZThn16_N7testing13TestWithParamI24MaxStreamDataFrameParamsED0Ev, symObjAddr: 0x18360, symBinAddr: 0x100419740, symSize: 0x10 }
  - { offsetInCU: 0x142796, offset: 0x14ECFF, size: 0x8, addend: 0x0, symName: __ZN7testing18WithParamInterfaceI24MaxStreamDataFrameParamsED1Ev, symObjAddr: 0x18370, symBinAddr: 0x10001A1A0, symSize: 0x10 }
  - { offsetInCU: 0x1427BF, offset: 0x14ED28, size: 0x8, addend: 0x0, symName: __ZN7testing18WithParamInterfaceI24MaxStreamDataFrameParamsED0Ev, symObjAddr: 0x18380, symBinAddr: 0x10001A1B0, symSize: 0x10 }
  - { offsetInCU: 0x142BCD, offset: 0x14F136, size: 0x8, addend: 0x0, symName: __ZNKSt3__16vectorI24MaxStreamDataFrameParamsNS_9allocatorIS1_EEE20__throw_length_errorB8ue170006Ev, symObjAddr: 0x18820, symBinAddr: 0x10001A650, symSize: 0x10 }
  - { offsetInCU: 0x142BF6, offset: 0x14F15F, size: 0x8, addend: 0x0, symName: __ZN7testing8internal30ValuesInIteratorRangeGeneratorI24MaxStreamDataFrameParamsE8IteratorD1Ev, symObjAddr: 0x18830, symBinAddr: 0x10001A660, symSize: 0x30 }
  - { offsetInCU: 0x143281, offset: 0x14F7EA, size: 0x8, addend: 0x0, symName: __ZN7testing8internal30ValuesInIteratorRangeGeneratorI24MaxStreamDataFrameParamsED0Ev, symObjAddr: 0x18760, symBinAddr: 0x10001A590, symSize: 0x40 }
  - { offsetInCU: 0x14345C, offset: 0x14F9C5, size: 0x8, addend: 0x0, symName: __ZN7testing8internal30ValuesInIteratorRangeGeneratorI24MaxStreamDataFrameParamsED1Ev, symObjAddr: 0x18730, symBinAddr: 0x10001A560, symSize: 0x30 }
  - { offsetInCU: 0x143764, offset: 0x14FCCD, size: 0x8, addend: 0x0, symName: __ZNK7testing8internal30ValuesInIteratorRangeGeneratorI24MaxStreamDataFrameParamsE5BeginEv, symObjAddr: 0x187A0, symBinAddr: 0x10001A5D0, symSize: 0x40 }
  - { offsetInCU: 0x1438AB, offset: 0x14FE14, size: 0x8, addend: 0x0, symName: __ZNK7testing8internal30ValuesInIteratorRangeGeneratorI24MaxStreamDataFrameParamsE3EndEv, symObjAddr: 0x187E0, symBinAddr: 0x10001A610, symSize: 0x40 }
  - { offsetInCU: 0x143A95, offset: 0x14FFFE, size: 0x8, addend: 0x0, symName: __ZN7testing8internal30ValuesInIteratorRangeGeneratorI24MaxStreamDataFrameParamsE8IteratorD1Ev, symObjAddr: 0x18830, symBinAddr: 0x10001A660, symSize: 0x30 }
  - { offsetInCU: 0x143B90, offset: 0x1500F9, size: 0x8, addend: 0x0, symName: __ZN7testing8internal30ValuesInIteratorRangeGeneratorI24MaxStreamDataFrameParamsE8IteratorD0Ev, symObjAddr: 0x18860, symBinAddr: 0x10001A690, symSize: 0x40 }
  - { offsetInCU: 0x143C96, offset: 0x1501FF, size: 0x8, addend: 0x0, symName: __ZNK7testing8internal30ValuesInIteratorRangeGeneratorI24MaxStreamDataFrameParamsE8Iterator13BaseGeneratorEv, symObjAddr: 0x188A0, symBinAddr: 0x10001A6D0, symSize: 0x10 }
  - { offsetInCU: 0x143CD6, offset: 0x15023F, size: 0x8, addend: 0x0, symName: __ZN7testing8internal30ValuesInIteratorRangeGeneratorI24MaxStreamDataFrameParamsE8Iterator7AdvanceEv, symObjAddr: 0x188B0, symBinAddr: 0x10001A6E0, symSize: 0x30 }
  - { offsetInCU: 0x143DC5, offset: 0x15032E, size: 0x8, addend: 0x0, symName: __ZNK7testing8internal30ValuesInIteratorRangeGeneratorI24MaxStreamDataFrameParamsE8Iterator5CloneEv, symObjAddr: 0x188E0, symBinAddr: 0x10001A710, symSize: 0x40 }
  - { offsetInCU: 0x143F11, offset: 0x15047A, size: 0x8, addend: 0x0, symName: __ZNK7testing8internal30ValuesInIteratorRangeGeneratorI24MaxStreamDataFrameParamsE8Iterator7CurrentEv, symObjAddr: 0x18920, symBinAddr: 0x10001A750, symSize: 0x40 }
  - { offsetInCU: 0x143FAF, offset: 0x150518, size: 0x8, addend: 0x0, symName: __ZNK7testing8internal30ValuesInIteratorRangeGeneratorI24MaxStreamDataFrameParamsE8Iterator6EqualsERKNS0_22ParamIteratorInterfaceIS2_EE, symObjAddr: 0x18960, symBinAddr: 0x10001A790, symSize: 0x140 }
  - { offsetInCU: 0x1441FD, offset: 0x150766, size: 0x8, addend: 0x0, symName: __ZNSt3__120__shared_ptr_pointerIPN7testing8internal23ParamGeneratorInterfaceI24MaxStreamDataFrameParamsEENS_10shared_ptrIKS5_E27__shared_ptr_default_deleteIS8_S5_EENS_9allocatorIS5_EEED1Ev, symObjAddr: 0x18B40, symBinAddr: 0x10001A970, symSize: 0x10 }
  - { offsetInCU: 0x144258, offset: 0x1507C1, size: 0x8, addend: 0x0, symName: __ZNSt3__120__shared_ptr_pointerIPN7testing8internal23ParamGeneratorInterfaceI24MaxStreamDataFrameParamsEENS_10shared_ptrIKS5_E27__shared_ptr_default_deleteIS8_S5_EENS_9allocatorIS5_EEED0Ev, symObjAddr: 0x18B50, symBinAddr: 0x10001A980, symSize: 0x20 }
  - { offsetInCU: 0x1442C1, offset: 0x15082A, size: 0x8, addend: 0x0, symName: __ZNSt3__120__shared_ptr_pointerIPN7testing8internal23ParamGeneratorInterfaceI24MaxStreamDataFrameParamsEENS_10shared_ptrIKS5_E27__shared_ptr_default_deleteIS8_S5_EENS_9allocatorIS5_EEE16__on_zero_sharedEv, symObjAddr: 0x18B70, symBinAddr: 0x10001A9A0, symSize: 0x20 }
  - { offsetInCU: 0x144315, offset: 0x15087E, size: 0x8, addend: 0x0, symName: __ZNKSt3__120__shared_ptr_pointerIPN7testing8internal23ParamGeneratorInterfaceI24MaxStreamDataFrameParamsEENS_10shared_ptrIKS5_E27__shared_ptr_default_deleteIS8_S5_EENS_9allocatorIS5_EEE13__get_deleterERKSt9type_info, symObjAddr: 0x18B90, symBinAddr: 0x10001A9C0, symSize: 0x20 }
  - { offsetInCU: 0x1443DC, offset: 0x150945, size: 0x8, addend: 0x0, symName: __ZNSt3__120__shared_ptr_pointerIPN7testing8internal23ParamGeneratorInterfaceI24MaxStreamDataFrameParamsEENS_10shared_ptrIKS5_E27__shared_ptr_default_deleteIS8_S5_EENS_9allocatorIS5_EEE21__on_zero_shared_weakEv, symObjAddr: 0x18BB0, symBinAddr: 0x10001A9E0, symSize: 0x10 }
  - { offsetInCU: 0x1447A6, offset: 0x150D0F, size: 0x8, addend: 0x0, symName: __ZNSt3__110shared_ptrIN7testing8internal26ParameterizedTestSuiteInfoI19MaxStreamsFrameTestE8TestInfoEEC1B8ue170006IS6_vEEPT_, symObjAddr: 0x18F90, symBinAddr: 0x10001ADC0, symSize: 0x60 }
  - { offsetInCU: 0x14499F, offset: 0x150F08, size: 0x8, addend: 0x0, symName: __ZNSt3__16vectorINS_10shared_ptrIN7testing8internal26ParameterizedTestSuiteInfoI19MaxStreamsFrameTestE8TestInfoEEENS_9allocatorIS8_EEE24__emplace_back_slow_pathIJPS7_EEEvDpOT_, symObjAddr: 0x18DC0, symBinAddr: 0x10001ABF0, symSize: 0x1D0 }
  - { offsetInCU: 0x1455AD, offset: 0x151B16, size: 0x8, addend: 0x0, symName: __ZNKSt3__16vectorINS_10shared_ptrIN7testing8internal26ParameterizedTestSuiteInfoI19MaxStreamsFrameTestE8TestInfoEEENS_9allocatorIS8_EEE20__throw_length_errorB8ue170006Ev, symObjAddr: 0x19130, symBinAddr: 0x10001AF60, symSize: 0x10 }
  - { offsetInCU: 0x1455D6, offset: 0x151B3F, size: 0x8, addend: 0x0, symName: __ZN7testing8internal15TestMetaFactoryI52MaxStreamsFrameTest_MaxStreamsFrameEncodeDecode_TestED1Ev, symObjAddr: 0x19140, symBinAddr: 0x10001AF70, symSize: 0x10 }
  - { offsetInCU: 0x1455E2, offset: 0x151B4B, size: 0x8, addend: 0x0, symName: __ZNSt3__114__split_bufferINS_10shared_ptrIN7testing8internal26ParameterizedTestSuiteInfoI19MaxStreamsFrameTestE8TestInfoEEERNS_9allocatorIS8_EEED1Ev, symObjAddr: 0x190B0, symBinAddr: 0x10001AEE0, symSize: 0x80 }
  - { offsetInCU: 0x145B76, offset: 0x1520DF, size: 0x8, addend: 0x0, symName: __ZNSt3__110shared_ptrIN7testing8internal26ParameterizedTestSuiteInfoI19MaxStreamsFrameTestE8TestInfoEEC1B8ue170006IS6_vEEPT_.cold.1, symObjAddr: 0x397D0, symBinAddr: 0x100419D90, symSize: 0x50 }
  - { offsetInCU: 0x145F10, offset: 0x152479, size: 0x8, addend: 0x0, symName: __ZNSt3__120__shared_ptr_pointerIPN7testing8internal26ParameterizedTestSuiteInfoI19MaxStreamsFrameTestE8TestInfoENS_10shared_ptrIS6_E27__shared_ptr_default_deleteIS6_S6_EENS_9allocatorIS6_EEED1Ev, symObjAddr: 0x18FF0, symBinAddr: 0x10001AE20, symSize: 0x10 }
  - { offsetInCU: 0x145F6B, offset: 0x1524D4, size: 0x8, addend: 0x0, symName: __ZNSt3__120__shared_ptr_pointerIPN7testing8internal26ParameterizedTestSuiteInfoI19MaxStreamsFrameTestE8TestInfoENS_10shared_ptrIS6_E27__shared_ptr_default_deleteIS6_S6_EENS_9allocatorIS6_EEED0Ev, symObjAddr: 0x19000, symBinAddr: 0x10001AE30, symSize: 0x20 }
  - { offsetInCU: 0x146097, offset: 0x152600, size: 0x8, addend: 0x0, symName: __ZNSt3__120__shared_ptr_pointerIPN7testing8internal26ParameterizedTestSuiteInfoI19MaxStreamsFrameTestE8TestInfoENS_10shared_ptrIS6_E27__shared_ptr_default_deleteIS6_S6_EENS_9allocatorIS6_EEE16__on_zero_sharedEv, symObjAddr: 0x19020, symBinAddr: 0x10001AE50, symSize: 0x60 }
  - { offsetInCU: 0x146462, offset: 0x1529CB, size: 0x8, addend: 0x0, symName: __ZNKSt3__120__shared_ptr_pointerIPN7testing8internal26ParameterizedTestSuiteInfoI19MaxStreamsFrameTestE8TestInfoENS_10shared_ptrIS6_E27__shared_ptr_default_deleteIS6_S6_EENS_9allocatorIS6_EEE13__get_deleterERKSt9type_info, symObjAddr: 0x19080, symBinAddr: 0x10001AEB0, symSize: 0x20 }
  - { offsetInCU: 0x146529, offset: 0x152A92, size: 0x8, addend: 0x0, symName: __ZNSt3__120__shared_ptr_pointerIPN7testing8internal26ParameterizedTestSuiteInfoI19MaxStreamsFrameTestE8TestInfoENS_10shared_ptrIS6_E27__shared_ptr_default_deleteIS6_S6_EENS_9allocatorIS6_EEE21__on_zero_shared_weakEv, symObjAddr: 0x190A0, symBinAddr: 0x10001AED0, symSize: 0x10 }
  - { offsetInCU: 0x146607, offset: 0x152B70, size: 0x8, addend: 0x0, symName: __ZN7testing8internal15TestMetaFactoryI52MaxStreamsFrameTest_MaxStreamsFrameEncodeDecode_TestED1Ev, symObjAddr: 0x19140, symBinAddr: 0x10001AF70, symSize: 0x10 }
  - { offsetInCU: 0x146633, offset: 0x152B9C, size: 0x8, addend: 0x0, symName: __ZN7testing8internal15TestMetaFactoryI52MaxStreamsFrameTest_MaxStreamsFrameEncodeDecode_TestED0Ev, symObjAddr: 0x19150, symBinAddr: 0x10001AF80, symSize: 0x10 }
  - { offsetInCU: 0x1466C9, offset: 0x152C32, size: 0x8, addend: 0x0, symName: __ZN7testing8internal15TestMetaFactoryI52MaxStreamsFrameTest_MaxStreamsFrameEncodeDecode_TestE17CreateTestFactoryEb, symObjAddr: 0x19160, symBinAddr: 0x10001AF90, symSize: 0x30 }
  - { offsetInCU: 0x146747, offset: 0x152CB0, size: 0x8, addend: 0x0, symName: __ZN7testing8internal24ParameterizedTestFactoryI52MaxStreamsFrameTest_MaxStreamsFrameEncodeDecode_TestED1Ev, symObjAddr: 0x19190, symBinAddr: 0x10001AFC0, symSize: 0x10 }
  - { offsetInCU: 0x146773, offset: 0x152CDC, size: 0x8, addend: 0x0, symName: __ZN7testing8internal24ParameterizedTestFactoryI52MaxStreamsFrameTest_MaxStreamsFrameEncodeDecode_TestED0Ev, symObjAddr: 0x191A0, symBinAddr: 0x10001AFD0, symSize: 0x10 }
  - { offsetInCU: 0x146821, offset: 0x152D8A, size: 0x8, addend: 0x0, symName: __ZN7testing8internal24ParameterizedTestFactoryI52MaxStreamsFrameTest_MaxStreamsFrameEncodeDecode_TestE10CreateTestEv, symObjAddr: 0x191B0, symBinAddr: 0x10001AFE0, symSize: 0x60 }
  - { offsetInCU: 0x1468E3, offset: 0x152E4C, size: 0x8, addend: 0x0, symName: __ZN19MaxStreamsFrameTestD1Ev, symObjAddr: 0x19210, symBinAddr: 0x100419750, symSize: 0x10 }
  - { offsetInCU: 0x146904, offset: 0x152E6D, size: 0x8, addend: 0x0, symName: __ZN19MaxStreamsFrameTestD0Ev, symObjAddr: 0x19220, symBinAddr: 0x100419760, symSize: 0x10 }
  - { offsetInCU: 0x146942, offset: 0x152EAB, size: 0x8, addend: 0x0, symName: __ZThn16_N19MaxStreamsFrameTestD1Ev, symObjAddr: 0x19230, symBinAddr: 0x100419770, symSize: 0x10 }
  - { offsetInCU: 0x146996, offset: 0x152EFF, size: 0x8, addend: 0x0, symName: __ZThn16_N19MaxStreamsFrameTestD0Ev, symObjAddr: 0x19240, symBinAddr: 0x100419780, symSize: 0x10 }
  - { offsetInCU: 0x1469CD, offset: 0x152F36, size: 0x8, addend: 0x0, symName: __ZN7testing13TestWithParamIbED1Ev, symObjAddr: 0x19250, symBinAddr: 0x100419790, symSize: 0x10 }
  - { offsetInCU: 0x1469EE, offset: 0x152F57, size: 0x8, addend: 0x0, symName: __ZN7testing13TestWithParamIbED0Ev, symObjAddr: 0x19260, symBinAddr: 0x1004197A0, symSize: 0x10 }
  - { offsetInCU: 0x146A2C, offset: 0x152F95, size: 0x8, addend: 0x0, symName: __ZThn16_N7testing13TestWithParamIbED1Ev, symObjAddr: 0x19270, symBinAddr: 0x1004197B0, symSize: 0x10 }
  - { offsetInCU: 0x146A80, offset: 0x152FE9, size: 0x8, addend: 0x0, symName: __ZThn16_N7testing13TestWithParamIbED0Ev, symObjAddr: 0x19280, symBinAddr: 0x1004197C0, symSize: 0x10 }
  - { offsetInCU: 0x146AB7, offset: 0x153020, size: 0x8, addend: 0x0, symName: __ZN7testing18WithParamInterfaceIbED1Ev, symObjAddr: 0x19290, symBinAddr: 0x10001B040, symSize: 0x10 }
  - { offsetInCU: 0x146AE0, offset: 0x153049, size: 0x8, addend: 0x0, symName: __ZN7testing18WithParamInterfaceIbED0Ev, symObjAddr: 0x192A0, symBinAddr: 0x10001B050, symSize: 0x10 }
  - { offsetInCU: 0x146B09, offset: 0x153072, size: 0x8, addend: 0x0, symName: __ZN7testing8internal15TestMetaFactoryI50MaxStreamsFrameTest_DecodeMaxStreamsFrameFail_TestED1Ev, symObjAddr: 0x192B0, symBinAddr: 0x10001B060, symSize: 0x10 }
  - { offsetInCU: 0x146B35, offset: 0x15309E, size: 0x8, addend: 0x0, symName: __ZN7testing8internal15TestMetaFactoryI50MaxStreamsFrameTest_DecodeMaxStreamsFrameFail_TestED0Ev, symObjAddr: 0x192C0, symBinAddr: 0x10001B070, symSize: 0x10 }
  - { offsetInCU: 0x146BCB, offset: 0x153134, size: 0x8, addend: 0x0, symName: __ZN7testing8internal15TestMetaFactoryI50MaxStreamsFrameTest_DecodeMaxStreamsFrameFail_TestE17CreateTestFactoryEb, symObjAddr: 0x192D0, symBinAddr: 0x10001B080, symSize: 0x30 }
  - { offsetInCU: 0x146C49, offset: 0x1531B2, size: 0x8, addend: 0x0, symName: __ZN7testing8internal24ParameterizedTestFactoryI50MaxStreamsFrameTest_DecodeMaxStreamsFrameFail_TestED1Ev, symObjAddr: 0x19300, symBinAddr: 0x10001B0B0, symSize: 0x10 }
  - { offsetInCU: 0x146C75, offset: 0x1531DE, size: 0x8, addend: 0x0, symName: __ZN7testing8internal24ParameterizedTestFactoryI50MaxStreamsFrameTest_DecodeMaxStreamsFrameFail_TestED0Ev, symObjAddr: 0x19310, symBinAddr: 0x10001B0C0, symSize: 0x10 }
  - { offsetInCU: 0x146CD5, offset: 0x15323E, size: 0x8, addend: 0x0, symName: __ZN7testing8internal24ParameterizedTestFactoryI50MaxStreamsFrameTest_DecodeMaxStreamsFrameFail_TestE10CreateTestEv, symObjAddr: 0x19320, symBinAddr: 0x10001B0D0, symSize: 0x60 }
  - { offsetInCU: 0x1475C1, offset: 0x153B2A, size: 0x8, addend: 0x0, symName: __ZNSt3__16vectorIbNS_9allocatorIbEEE16__init_with_sizeB8ue170006INS_14__bit_iteratorIS3_Lb1ELm0EEES6_EEvT_T0_m, symObjAddr: 0x19660, symBinAddr: 0x10001B410, symSize: 0x130 }
  - { offsetInCU: 0x1479B8, offset: 0x153F21, size: 0x8, addend: 0x0, symName: __ZN7testing8internal30ValuesInIteratorRangeGeneratorIbED1Ev, symObjAddr: 0x19540, symBinAddr: 0x10001B2F0, symSize: 0x30 }
  - { offsetInCU: 0x147B10, offset: 0x154079, size: 0x8, addend: 0x0, symName: __ZN7testing8internal30ValuesInIteratorRangeGeneratorIbED0Ev, symObjAddr: 0x19570, symBinAddr: 0x10001B320, symSize: 0x40 }
  - { offsetInCU: 0x147DE5, offset: 0x15434E, size: 0x8, addend: 0x0, symName: __ZNK7testing8internal30ValuesInIteratorRangeGeneratorIbE5BeginEv, symObjAddr: 0x195B0, symBinAddr: 0x10001B360, symSize: 0x50 }
  - { offsetInCU: 0x147F58, offset: 0x1544C1, size: 0x8, addend: 0x0, symName: __ZNK7testing8internal30ValuesInIteratorRangeGeneratorIbE3EndEv, symObjAddr: 0x19600, symBinAddr: 0x10001B3B0, symSize: 0x60 }
  - { offsetInCU: 0x14821C, offset: 0x154785, size: 0x8, addend: 0x0, symName: __ZNKSt3__16vectorIbNS_9allocatorIbEEE20__throw_length_errorB8ue170006Ev, symObjAddr: 0x19790, symBinAddr: 0x10001B540, symSize: 0x10 }
  - { offsetInCU: 0x148245, offset: 0x1547AE, size: 0x8, addend: 0x0, symName: __ZN7testing8internal30ValuesInIteratorRangeGeneratorIbE8IteratorD1Ev, symObjAddr: 0x197A0, symBinAddr: 0x10001B550, symSize: 0x30 }
  - { offsetInCU: 0x1482F4, offset: 0x15485D, size: 0x8, addend: 0x0, symName: __ZN7testing8internal30ValuesInIteratorRangeGeneratorIbE8IteratorD1Ev, symObjAddr: 0x197A0, symBinAddr: 0x10001B550, symSize: 0x30 }
  - { offsetInCU: 0x1483EF, offset: 0x154958, size: 0x8, addend: 0x0, symName: __ZN7testing8internal30ValuesInIteratorRangeGeneratorIbE8IteratorD0Ev, symObjAddr: 0x197D0, symBinAddr: 0x10001B580, symSize: 0x40 }
  - { offsetInCU: 0x1484F5, offset: 0x154A5E, size: 0x8, addend: 0x0, symName: __ZNK7testing8internal30ValuesInIteratorRangeGeneratorIbE8Iterator13BaseGeneratorEv, symObjAddr: 0x19810, symBinAddr: 0x10001B5C0, symSize: 0x10 }
  - { offsetInCU: 0x14851A, offset: 0x154A83, size: 0x8, addend: 0x0, symName: __ZN7testing8internal30ValuesInIteratorRangeGeneratorIbE8Iterator7AdvanceEv, symObjAddr: 0x19820, symBinAddr: 0x10001B5D0, symSize: 0x40 }
  - { offsetInCU: 0x1485FF, offset: 0x154B68, size: 0x8, addend: 0x0, symName: __ZNK7testing8internal30ValuesInIteratorRangeGeneratorIbE8Iterator5CloneEv, symObjAddr: 0x19860, symBinAddr: 0x10001B610, symSize: 0x40 }
  - { offsetInCU: 0x14874B, offset: 0x154CB4, size: 0x8, addend: 0x0, symName: __ZNK7testing8internal30ValuesInIteratorRangeGeneratorIbE8Iterator7CurrentEv, symObjAddr: 0x198A0, symBinAddr: 0x10001B650, symSize: 0x40 }
  - { offsetInCU: 0x1487E4, offset: 0x154D4D, size: 0x8, addend: 0x0, symName: __ZNK7testing8internal30ValuesInIteratorRangeGeneratorIbE8Iterator6EqualsERKNS0_22ParamIteratorInterfaceIbEE, symObjAddr: 0x198E0, symBinAddr: 0x10001B690, symSize: 0x150 }
  - { offsetInCU: 0x148A12, offset: 0x154F7B, size: 0x8, addend: 0x0, symName: __ZNSt3__120__shared_ptr_pointerIPN7testing8internal23ParamGeneratorInterfaceIbEENS_10shared_ptrIKS4_E27__shared_ptr_default_deleteIS7_S4_EENS_9allocatorIS4_EEED1Ev, symObjAddr: 0x19AD0, symBinAddr: 0x10001B880, symSize: 0x10 }
  - { offsetInCU: 0x148A6D, offset: 0x154FD6, size: 0x8, addend: 0x0, symName: __ZNSt3__120__shared_ptr_pointerIPN7testing8internal23ParamGeneratorInterfaceIbEENS_10shared_ptrIKS4_E27__shared_ptr_default_deleteIS7_S4_EENS_9allocatorIS4_EEED0Ev, symObjAddr: 0x19AE0, symBinAddr: 0x10001B890, symSize: 0x20 }
  - { offsetInCU: 0x148AD6, offset: 0x15503F, size: 0x8, addend: 0x0, symName: __ZNSt3__120__shared_ptr_pointerIPN7testing8internal23ParamGeneratorInterfaceIbEENS_10shared_ptrIKS4_E27__shared_ptr_default_deleteIS7_S4_EENS_9allocatorIS4_EEE16__on_zero_sharedEv, symObjAddr: 0x19B00, symBinAddr: 0x10001B8B0, symSize: 0x20 }
  - { offsetInCU: 0x148B2A, offset: 0x155093, size: 0x8, addend: 0x0, symName: __ZNKSt3__120__shared_ptr_pointerIPN7testing8internal23ParamGeneratorInterfaceIbEENS_10shared_ptrIKS4_E27__shared_ptr_default_deleteIS7_S4_EENS_9allocatorIS4_EEE13__get_deleterERKSt9type_info, symObjAddr: 0x19B20, symBinAddr: 0x10001B8D0, symSize: 0x20 }
  - { offsetInCU: 0x148BF1, offset: 0x15515A, size: 0x8, addend: 0x0, symName: __ZNSt3__120__shared_ptr_pointerIPN7testing8internal23ParamGeneratorInterfaceIbEENS_10shared_ptrIKS4_E27__shared_ptr_default_deleteIS7_S4_EENS_9allocatorIS4_EEE21__on_zero_shared_weakEv, symObjAddr: 0x19B40, symBinAddr: 0x10001B8F0, symSize: 0x10 }
  - { offsetInCU: 0x148CD4, offset: 0x15523D, size: 0x8, addend: 0x0, symName: __ZN7testing8internal15TestFactoryImplI43FrameTest_DataBlockedFrameEncodeDecode_TestED1Ev, symObjAddr: 0x19B50, symBinAddr: 0x10001B900, symSize: 0x10 }
  - { offsetInCU: 0x148D00, offset: 0x155269, size: 0x8, addend: 0x0, symName: __ZN7testing8internal15TestFactoryImplI43FrameTest_DataBlockedFrameEncodeDecode_TestED0Ev, symObjAddr: 0x19B60, symBinAddr: 0x10001B910, symSize: 0x10 }
  - { offsetInCU: 0x148D60, offset: 0x1552C9, size: 0x8, addend: 0x0, symName: __ZN7testing8internal15TestFactoryImplI43FrameTest_DataBlockedFrameEncodeDecode_TestE10CreateTestEv, symObjAddr: 0x19B70, symBinAddr: 0x10001B920, symSize: 0x50 }
  - { offsetInCU: 0x1490B1, offset: 0x15561A, size: 0x8, addend: 0x0, symName: __ZNSt3__110shared_ptrIN7testing8internal26ParameterizedTestSuiteInfoI20DataBlockedFrameTestE8TestInfoEEC1B8ue170006IS6_vEEPT_, symObjAddr: 0x19F90, symBinAddr: 0x10001BD40, symSize: 0x60 }
  - { offsetInCU: 0x1492AA, offset: 0x155813, size: 0x8, addend: 0x0, symName: __ZNSt3__16vectorINS_10shared_ptrIN7testing8internal26ParameterizedTestSuiteInfoI20DataBlockedFrameTestE8TestInfoEEENS_9allocatorIS8_EEE24__emplace_back_slow_pathIJPS7_EEEvDpOT_, symObjAddr: 0x19DC0, symBinAddr: 0x10001BB70, symSize: 0x1D0 }
  - { offsetInCU: 0x149EB8, offset: 0x156421, size: 0x8, addend: 0x0, symName: __ZNKSt3__16vectorINS_10shared_ptrIN7testing8internal26ParameterizedTestSuiteInfoI20DataBlockedFrameTestE8TestInfoEEENS_9allocatorIS8_EEE20__throw_length_errorB8ue170006Ev, symObjAddr: 0x1A130, symBinAddr: 0x10001BEE0, symSize: 0x10 }
  - { offsetInCU: 0x149EE1, offset: 0x15644A, size: 0x8, addend: 0x0, symName: __ZN7testing8internal15TestMetaFactoryI52DataBlockedFrameTest_DecodeDataBlockedFrameFail_TestED1Ev, symObjAddr: 0x1A140, symBinAddr: 0x10001BEF0, symSize: 0x10 }
  - { offsetInCU: 0x149EED, offset: 0x156456, size: 0x8, addend: 0x0, symName: __ZNSt3__114__split_bufferINS_10shared_ptrIN7testing8internal26ParameterizedTestSuiteInfoI20DataBlockedFrameTestE8TestInfoEEERNS_9allocatorIS8_EEED1Ev, symObjAddr: 0x1A0B0, symBinAddr: 0x10001BE60, symSize: 0x80 }
  - { offsetInCU: 0x14A481, offset: 0x1569EA, size: 0x8, addend: 0x0, symName: __ZNSt3__110shared_ptrIN7testing8internal26ParameterizedTestSuiteInfoI20DataBlockedFrameTestE8TestInfoEEC1B8ue170006IS6_vEEPT_.cold.1, symObjAddr: 0x39820, symBinAddr: 0x100419DE0, symSize: 0x50 }
  - { offsetInCU: 0x14A81B, offset: 0x156D84, size: 0x8, addend: 0x0, symName: __ZNSt3__120__shared_ptr_pointerIPN7testing8internal26ParameterizedTestSuiteInfoI20DataBlockedFrameTestE8TestInfoENS_10shared_ptrIS6_E27__shared_ptr_default_deleteIS6_S6_EENS_9allocatorIS6_EEED1Ev, symObjAddr: 0x19FF0, symBinAddr: 0x10001BDA0, symSize: 0x10 }
  - { offsetInCU: 0x14A876, offset: 0x156DDF, size: 0x8, addend: 0x0, symName: __ZNSt3__120__shared_ptr_pointerIPN7testing8internal26ParameterizedTestSuiteInfoI20DataBlockedFrameTestE8TestInfoENS_10shared_ptrIS6_E27__shared_ptr_default_deleteIS6_S6_EENS_9allocatorIS6_EEED0Ev, symObjAddr: 0x1A000, symBinAddr: 0x10001BDB0, symSize: 0x20 }
  - { offsetInCU: 0x14A9A2, offset: 0x156F0B, size: 0x8, addend: 0x0, symName: __ZNSt3__120__shared_ptr_pointerIPN7testing8internal26ParameterizedTestSuiteInfoI20DataBlockedFrameTestE8TestInfoENS_10shared_ptrIS6_E27__shared_ptr_default_deleteIS6_S6_EENS_9allocatorIS6_EEE16__on_zero_sharedEv, symObjAddr: 0x1A020, symBinAddr: 0x10001BDD0, symSize: 0x60 }
  - { offsetInCU: 0x14AD6D, offset: 0x1572D6, size: 0x8, addend: 0x0, symName: __ZNKSt3__120__shared_ptr_pointerIPN7testing8internal26ParameterizedTestSuiteInfoI20DataBlockedFrameTestE8TestInfoENS_10shared_ptrIS6_E27__shared_ptr_default_deleteIS6_S6_EENS_9allocatorIS6_EEE13__get_deleterERKSt9type_info, symObjAddr: 0x1A080, symBinAddr: 0x10001BE30, symSize: 0x20 }
  - { offsetInCU: 0x14AE34, offset: 0x15739D, size: 0x8, addend: 0x0, symName: __ZNSt3__120__shared_ptr_pointerIPN7testing8internal26ParameterizedTestSuiteInfoI20DataBlockedFrameTestE8TestInfoENS_10shared_ptrIS6_E27__shared_ptr_default_deleteIS6_S6_EENS_9allocatorIS6_EEE21__on_zero_shared_weakEv, symObjAddr: 0x1A0A0, symBinAddr: 0x10001BE50, symSize: 0x10 }
  - { offsetInCU: 0x14AF12, offset: 0x15747B, size: 0x8, addend: 0x0, symName: __ZN7testing8internal15TestMetaFactoryI52DataBlockedFrameTest_DecodeDataBlockedFrameFail_TestED1Ev, symObjAddr: 0x1A140, symBinAddr: 0x10001BEF0, symSize: 0x10 }
  - { offsetInCU: 0x14AF3E, offset: 0x1574A7, size: 0x8, addend: 0x0, symName: __ZN7testing8internal15TestMetaFactoryI52DataBlockedFrameTest_DecodeDataBlockedFrameFail_TestED0Ev, symObjAddr: 0x1A150, symBinAddr: 0x10001BF00, symSize: 0x10 }
  - { offsetInCU: 0x14AFD4, offset: 0x15753D, size: 0x8, addend: 0x0, symName: __ZN7testing8internal15TestMetaFactoryI52DataBlockedFrameTest_DecodeDataBlockedFrameFail_TestE17CreateTestFactoryE22DataBlockedFrameParams, symObjAddr: 0x1A160, symBinAddr: 0x10001BF10, symSize: 0x30 }
  - { offsetInCU: 0x14B05A, offset: 0x1575C3, size: 0x8, addend: 0x0, symName: __ZN7testing8internal24ParameterizedTestFactoryI52DataBlockedFrameTest_DecodeDataBlockedFrameFail_TestED1Ev, symObjAddr: 0x1A190, symBinAddr: 0x10001BF40, symSize: 0x10 }
  - { offsetInCU: 0x14B086, offset: 0x1575EF, size: 0x8, addend: 0x0, symName: __ZN7testing8internal24ParameterizedTestFactoryI52DataBlockedFrameTest_DecodeDataBlockedFrameFail_TestED0Ev, symObjAddr: 0x1A1A0, symBinAddr: 0x10001BF50, symSize: 0x10 }
  - { offsetInCU: 0x14B134, offset: 0x15769D, size: 0x8, addend: 0x0, symName: __ZN7testing8internal24ParameterizedTestFactoryI52DataBlockedFrameTest_DecodeDataBlockedFrameFail_TestE10CreateTestEv, symObjAddr: 0x1A1B0, symBinAddr: 0x10001BF60, symSize: 0x60 }
  - { offsetInCU: 0x14B1F6, offset: 0x15775F, size: 0x8, addend: 0x0, symName: __ZN20DataBlockedFrameTestD1Ev, symObjAddr: 0x1A210, symBinAddr: 0x1004197D0, symSize: 0x10 }
  - { offsetInCU: 0x14B217, offset: 0x157780, size: 0x8, addend: 0x0, symName: __ZN20DataBlockedFrameTestD0Ev, symObjAddr: 0x1A220, symBinAddr: 0x1004197E0, symSize: 0x10 }
  - { offsetInCU: 0x14B255, offset: 0x1577BE, size: 0x8, addend: 0x0, symName: __ZThn16_N20DataBlockedFrameTestD1Ev, symObjAddr: 0x1A230, symBinAddr: 0x1004197F0, symSize: 0x10 }
  - { offsetInCU: 0x14B2A9, offset: 0x157812, size: 0x8, addend: 0x0, symName: __ZThn16_N20DataBlockedFrameTestD0Ev, symObjAddr: 0x1A240, symBinAddr: 0x100419800, symSize: 0x10 }
  - { offsetInCU: 0x14B2E0, offset: 0x157849, size: 0x8, addend: 0x0, symName: __ZN7testing13TestWithParamI22DataBlockedFrameParamsED1Ev, symObjAddr: 0x1A250, symBinAddr: 0x100419810, symSize: 0x10 }
  - { offsetInCU: 0x14B301, offset: 0x15786A, size: 0x8, addend: 0x0, symName: __ZN7testing13TestWithParamI22DataBlockedFrameParamsED0Ev, symObjAddr: 0x1A260, symBinAddr: 0x100419820, symSize: 0x10 }
  - { offsetInCU: 0x14B33F, offset: 0x1578A8, size: 0x8, addend: 0x0, symName: __ZThn16_N7testing13TestWithParamI22DataBlockedFrameParamsED1Ev, symObjAddr: 0x1A270, symBinAddr: 0x100419830, symSize: 0x10 }
  - { offsetInCU: 0x14B393, offset: 0x1578FC, size: 0x8, addend: 0x0, symName: __ZThn16_N7testing13TestWithParamI22DataBlockedFrameParamsED0Ev, symObjAddr: 0x1A280, symBinAddr: 0x100419840, symSize: 0x10 }
  - { offsetInCU: 0x14B3CA, offset: 0x157933, size: 0x8, addend: 0x0, symName: __ZN7testing18WithParamInterfaceI22DataBlockedFrameParamsED1Ev, symObjAddr: 0x1A290, symBinAddr: 0x10001BFC0, symSize: 0x10 }
  - { offsetInCU: 0x14B3F3, offset: 0x15795C, size: 0x8, addend: 0x0, symName: __ZN7testing18WithParamInterfaceI22DataBlockedFrameParamsED0Ev, symObjAddr: 0x1A2A0, symBinAddr: 0x10001BFD0, symSize: 0x10 }
  - { offsetInCU: 0x14B801, offset: 0x157D6A, size: 0x8, addend: 0x0, symName: __ZNKSt3__16vectorI22DataBlockedFrameParamsNS_9allocatorIS1_EEE20__throw_length_errorB8ue170006Ev, symObjAddr: 0x1A660, symBinAddr: 0x10001C390, symSize: 0x10 }
  - { offsetInCU: 0x14B82A, offset: 0x157D93, size: 0x8, addend: 0x0, symName: __ZN7testing8internal30ValuesInIteratorRangeGeneratorI22DataBlockedFrameParamsE8IteratorD1Ev, symObjAddr: 0x1A670, symBinAddr: 0x10001C3A0, symSize: 0x30 }
  - { offsetInCU: 0x14BEB5, offset: 0x15841E, size: 0x8, addend: 0x0, symName: __ZN7testing8internal30ValuesInIteratorRangeGeneratorI22DataBlockedFrameParamsED0Ev, symObjAddr: 0x1A5A0, symBinAddr: 0x10001C2D0, symSize: 0x40 }
  - { offsetInCU: 0x14C090, offset: 0x1585F9, size: 0x8, addend: 0x0, symName: __ZN7testing8internal30ValuesInIteratorRangeGeneratorI22DataBlockedFrameParamsED1Ev, symObjAddr: 0x1A570, symBinAddr: 0x10001C2A0, symSize: 0x30 }
  - { offsetInCU: 0x14C398, offset: 0x158901, size: 0x8, addend: 0x0, symName: __ZNK7testing8internal30ValuesInIteratorRangeGeneratorI22DataBlockedFrameParamsE5BeginEv, symObjAddr: 0x1A5E0, symBinAddr: 0x10001C310, symSize: 0x40 }
  - { offsetInCU: 0x14C4DF, offset: 0x158A48, size: 0x8, addend: 0x0, symName: __ZNK7testing8internal30ValuesInIteratorRangeGeneratorI22DataBlockedFrameParamsE3EndEv, symObjAddr: 0x1A620, symBinAddr: 0x10001C350, symSize: 0x40 }
  - { offsetInCU: 0x14C6C9, offset: 0x158C32, size: 0x8, addend: 0x0, symName: __ZN7testing8internal30ValuesInIteratorRangeGeneratorI22DataBlockedFrameParamsE8IteratorD1Ev, symObjAddr: 0x1A670, symBinAddr: 0x10001C3A0, symSize: 0x30 }
  - { offsetInCU: 0x14C7C4, offset: 0x158D2D, size: 0x8, addend: 0x0, symName: __ZN7testing8internal30ValuesInIteratorRangeGeneratorI22DataBlockedFrameParamsE8IteratorD0Ev, symObjAddr: 0x1A6A0, symBinAddr: 0x10001C3D0, symSize: 0x40 }
  - { offsetInCU: 0x14C8CA, offset: 0x158E33, size: 0x8, addend: 0x0, symName: __ZNK7testing8internal30ValuesInIteratorRangeGeneratorI22DataBlockedFrameParamsE8Iterator13BaseGeneratorEv, symObjAddr: 0x1A6E0, symBinAddr: 0x10001C410, symSize: 0x10 }
  - { offsetInCU: 0x14C90A, offset: 0x158E73, size: 0x8, addend: 0x0, symName: __ZN7testing8internal30ValuesInIteratorRangeGeneratorI22DataBlockedFrameParamsE8Iterator7AdvanceEv, symObjAddr: 0x1A6F0, symBinAddr: 0x10001C420, symSize: 0x30 }
  - { offsetInCU: 0x14C9F9, offset: 0x158F62, size: 0x8, addend: 0x0, symName: __ZNK7testing8internal30ValuesInIteratorRangeGeneratorI22DataBlockedFrameParamsE8Iterator5CloneEv, symObjAddr: 0x1A720, symBinAddr: 0x10001C450, symSize: 0x40 }
  - { offsetInCU: 0x14CB45, offset: 0x1590AE, size: 0x8, addend: 0x0, symName: __ZNK7testing8internal30ValuesInIteratorRangeGeneratorI22DataBlockedFrameParamsE8Iterator7CurrentEv, symObjAddr: 0x1A760, symBinAddr: 0x10001C490, symSize: 0x40 }
  - { offsetInCU: 0x14CBE3, offset: 0x15914C, size: 0x8, addend: 0x0, symName: __ZNK7testing8internal30ValuesInIteratorRangeGeneratorI22DataBlockedFrameParamsE8Iterator6EqualsERKNS0_22ParamIteratorInterfaceIS2_EE, symObjAddr: 0x1A7A0, symBinAddr: 0x10001C4D0, symSize: 0x140 }
  - { offsetInCU: 0x14CE31, offset: 0x15939A, size: 0x8, addend: 0x0, symName: __ZNSt3__120__shared_ptr_pointerIPN7testing8internal23ParamGeneratorInterfaceI22DataBlockedFrameParamsEENS_10shared_ptrIKS5_E27__shared_ptr_default_deleteIS8_S5_EENS_9allocatorIS5_EEED1Ev, symObjAddr: 0x1A980, symBinAddr: 0x10001C6B0, symSize: 0x10 }
  - { offsetInCU: 0x14CE8C, offset: 0x1593F5, size: 0x8, addend: 0x0, symName: __ZNSt3__120__shared_ptr_pointerIPN7testing8internal23ParamGeneratorInterfaceI22DataBlockedFrameParamsEENS_10shared_ptrIKS5_E27__shared_ptr_default_deleteIS8_S5_EENS_9allocatorIS5_EEED0Ev, symObjAddr: 0x1A990, symBinAddr: 0x10001C6C0, symSize: 0x20 }
  - { offsetInCU: 0x14CEF5, offset: 0x15945E, size: 0x8, addend: 0x0, symName: __ZNSt3__120__shared_ptr_pointerIPN7testing8internal23ParamGeneratorInterfaceI22DataBlockedFrameParamsEENS_10shared_ptrIKS5_E27__shared_ptr_default_deleteIS8_S5_EENS_9allocatorIS5_EEE16__on_zero_sharedEv, symObjAddr: 0x1A9B0, symBinAddr: 0x10001C6E0, symSize: 0x20 }
  - { offsetInCU: 0x14CF49, offset: 0x1594B2, size: 0x8, addend: 0x0, symName: __ZNKSt3__120__shared_ptr_pointerIPN7testing8internal23ParamGeneratorInterfaceI22DataBlockedFrameParamsEENS_10shared_ptrIKS5_E27__shared_ptr_default_deleteIS8_S5_EENS_9allocatorIS5_EEE13__get_deleterERKSt9type_info, symObjAddr: 0x1A9D0, symBinAddr: 0x10001C700, symSize: 0x20 }
  - { offsetInCU: 0x14D010, offset: 0x159579, size: 0x8, addend: 0x0, symName: __ZNSt3__120__shared_ptr_pointerIPN7testing8internal23ParamGeneratorInterfaceI22DataBlockedFrameParamsEENS_10shared_ptrIKS5_E27__shared_ptr_default_deleteIS8_S5_EENS_9allocatorIS5_EEE21__on_zero_shared_weakEv, symObjAddr: 0x1A9F0, symBinAddr: 0x10001C720, symSize: 0x10 }
  - { offsetInCU: 0x14D0F3, offset: 0x15965C, size: 0x8, addend: 0x0, symName: __ZN7testing8internal15TestFactoryImplI49FrameTest_StreamDataBlockedFrameEncodeDecode_TestED1Ev, symObjAddr: 0x1AA00, symBinAddr: 0x10001C730, symSize: 0x10 }
  - { offsetInCU: 0x14D11F, offset: 0x159688, size: 0x8, addend: 0x0, symName: __ZN7testing8internal15TestFactoryImplI49FrameTest_StreamDataBlockedFrameEncodeDecode_TestED0Ev, symObjAddr: 0x1AA10, symBinAddr: 0x10001C740, symSize: 0x10 }
  - { offsetInCU: 0x14D17F, offset: 0x1596E8, size: 0x8, addend: 0x0, symName: __ZN7testing8internal15TestFactoryImplI49FrameTest_StreamDataBlockedFrameEncodeDecode_TestE10CreateTestEv, symObjAddr: 0x1AA20, symBinAddr: 0x10001C750, symSize: 0x50 }
  - { offsetInCU: 0x14D4D0, offset: 0x159A39, size: 0x8, addend: 0x0, symName: __ZNSt3__110shared_ptrIN7testing8internal26ParameterizedTestSuiteInfoI26StreamDataBlockedFrameTestE8TestInfoEEC1B8ue170006IS6_vEEPT_, symObjAddr: 0x1AE40, symBinAddr: 0x10001CB70, symSize: 0x60 }
  - { offsetInCU: 0x14D6C9, offset: 0x159C32, size: 0x8, addend: 0x0, symName: __ZNSt3__16vectorINS_10shared_ptrIN7testing8internal26ParameterizedTestSuiteInfoI26StreamDataBlockedFrameTestE8TestInfoEEENS_9allocatorIS8_EEE24__emplace_back_slow_pathIJPS7_EEEvDpOT_, symObjAddr: 0x1AC70, symBinAddr: 0x10001C9A0, symSize: 0x1D0 }
  - { offsetInCU: 0x14E2D7, offset: 0x15A840, size: 0x8, addend: 0x0, symName: __ZNKSt3__16vectorINS_10shared_ptrIN7testing8internal26ParameterizedTestSuiteInfoI26StreamDataBlockedFrameTestE8TestInfoEEENS_9allocatorIS8_EEE20__throw_length_errorB8ue170006Ev, symObjAddr: 0x1AFE0, symBinAddr: 0x10001CD10, symSize: 0x10 }
  - { offsetInCU: 0x14E300, offset: 0x15A869, size: 0x8, addend: 0x0, symName: __ZN7testing8internal15TestMetaFactoryI64StreamDataBlockedFrameTest_DecodeStreamDataBlockedFrameFail_TestED1Ev, symObjAddr: 0x1AFF0, symBinAddr: 0x10001CD20, symSize: 0x10 }
  - { offsetInCU: 0x14E30C, offset: 0x15A875, size: 0x8, addend: 0x0, symName: __ZNSt3__114__split_bufferINS_10shared_ptrIN7testing8internal26ParameterizedTestSuiteInfoI26StreamDataBlockedFrameTestE8TestInfoEEERNS_9allocatorIS8_EEED1Ev, symObjAddr: 0x1AF60, symBinAddr: 0x10001CC90, symSize: 0x80 }
  - { offsetInCU: 0x14E8A0, offset: 0x15AE09, size: 0x8, addend: 0x0, symName: __ZNSt3__110shared_ptrIN7testing8internal26ParameterizedTestSuiteInfoI26StreamDataBlockedFrameTestE8TestInfoEEC1B8ue170006IS6_vEEPT_.cold.1, symObjAddr: 0x39870, symBinAddr: 0x100419E30, symSize: 0x50 }
  - { offsetInCU: 0x14EC3A, offset: 0x15B1A3, size: 0x8, addend: 0x0, symName: __ZNSt3__120__shared_ptr_pointerIPN7testing8internal26ParameterizedTestSuiteInfoI26StreamDataBlockedFrameTestE8TestInfoENS_10shared_ptrIS6_E27__shared_ptr_default_deleteIS6_S6_EENS_9allocatorIS6_EEED1Ev, symObjAddr: 0x1AEA0, symBinAddr: 0x10001CBD0, symSize: 0x10 }
  - { offsetInCU: 0x14EC95, offset: 0x15B1FE, size: 0x8, addend: 0x0, symName: __ZNSt3__120__shared_ptr_pointerIPN7testing8internal26ParameterizedTestSuiteInfoI26StreamDataBlockedFrameTestE8TestInfoENS_10shared_ptrIS6_E27__shared_ptr_default_deleteIS6_S6_EENS_9allocatorIS6_EEED0Ev, symObjAddr: 0x1AEB0, symBinAddr: 0x10001CBE0, symSize: 0x20 }
  - { offsetInCU: 0x14EDC1, offset: 0x15B32A, size: 0x8, addend: 0x0, symName: __ZNSt3__120__shared_ptr_pointerIPN7testing8internal26ParameterizedTestSuiteInfoI26StreamDataBlockedFrameTestE8TestInfoENS_10shared_ptrIS6_E27__shared_ptr_default_deleteIS6_S6_EENS_9allocatorIS6_EEE16__on_zero_sharedEv, symObjAddr: 0x1AED0, symBinAddr: 0x10001CC00, symSize: 0x60 }
  - { offsetInCU: 0x14F18C, offset: 0x15B6F5, size: 0x8, addend: 0x0, symName: __ZNKSt3__120__shared_ptr_pointerIPN7testing8internal26ParameterizedTestSuiteInfoI26StreamDataBlockedFrameTestE8TestInfoENS_10shared_ptrIS6_E27__shared_ptr_default_deleteIS6_S6_EENS_9allocatorIS6_EEE13__get_deleterERKSt9type_info, symObjAddr: 0x1AF30, symBinAddr: 0x10001CC60, symSize: 0x20 }
  - { offsetInCU: 0x14F253, offset: 0x15B7BC, size: 0x8, addend: 0x0, symName: __ZNSt3__120__shared_ptr_pointerIPN7testing8internal26ParameterizedTestSuiteInfoI26StreamDataBlockedFrameTestE8TestInfoENS_10shared_ptrIS6_E27__shared_ptr_default_deleteIS6_S6_EENS_9allocatorIS6_EEE21__on_zero_shared_weakEv, symObjAddr: 0x1AF50, symBinAddr: 0x10001CC80, symSize: 0x10 }
  - { offsetInCU: 0x14F331, offset: 0x15B89A, size: 0x8, addend: 0x0, symName: __ZN7testing8internal15TestMetaFactoryI64StreamDataBlockedFrameTest_DecodeStreamDataBlockedFrameFail_TestED1Ev, symObjAddr: 0x1AFF0, symBinAddr: 0x10001CD20, symSize: 0x10 }
  - { offsetInCU: 0x14F35D, offset: 0x15B8C6, size: 0x8, addend: 0x0, symName: __ZN7testing8internal15TestMetaFactoryI64StreamDataBlockedFrameTest_DecodeStreamDataBlockedFrameFail_TestED0Ev, symObjAddr: 0x1B000, symBinAddr: 0x10001CD30, symSize: 0x10 }
  - { offsetInCU: 0x14F3F3, offset: 0x15B95C, size: 0x8, addend: 0x0, symName: __ZN7testing8internal15TestMetaFactoryI64StreamDataBlockedFrameTest_DecodeStreamDataBlockedFrameFail_TestE17CreateTestFactoryE28StreamDataBlockedFrameParams, symObjAddr: 0x1B010, symBinAddr: 0x10001CD40, symSize: 0x40 }
  - { offsetInCU: 0x14F47D, offset: 0x15B9E6, size: 0x8, addend: 0x0, symName: __ZN7testing8internal24ParameterizedTestFactoryI64StreamDataBlockedFrameTest_DecodeStreamDataBlockedFrameFail_TestED1Ev, symObjAddr: 0x1B050, symBinAddr: 0x10001CD80, symSize: 0x10 }
  - { offsetInCU: 0x14F4A9, offset: 0x15BA12, size: 0x8, addend: 0x0, symName: __ZN7testing8internal24ParameterizedTestFactoryI64StreamDataBlockedFrameTest_DecodeStreamDataBlockedFrameFail_TestED0Ev, symObjAddr: 0x1B060, symBinAddr: 0x10001CD90, symSize: 0x10 }
  - { offsetInCU: 0x14F557, offset: 0x15BAC0, size: 0x8, addend: 0x0, symName: __ZN7testing8internal24ParameterizedTestFactoryI64StreamDataBlockedFrameTest_DecodeStreamDataBlockedFrameFail_TestE10CreateTestEv, symObjAddr: 0x1B070, symBinAddr: 0x10001CDA0, symSize: 0x60 }
  - { offsetInCU: 0x14F619, offset: 0x15BB82, size: 0x8, addend: 0x0, symName: __ZN26StreamDataBlockedFrameTestD1Ev, symObjAddr: 0x1B0D0, symBinAddr: 0x100419850, symSize: 0x10 }
  - { offsetInCU: 0x14F63A, offset: 0x15BBA3, size: 0x8, addend: 0x0, symName: __ZN26StreamDataBlockedFrameTestD0Ev, symObjAddr: 0x1B0E0, symBinAddr: 0x100419860, symSize: 0x10 }
  - { offsetInCU: 0x14F678, offset: 0x15BBE1, size: 0x8, addend: 0x0, symName: __ZThn16_N26StreamDataBlockedFrameTestD1Ev, symObjAddr: 0x1B0F0, symBinAddr: 0x100419870, symSize: 0x10 }
  - { offsetInCU: 0x14F6CC, offset: 0x15BC35, size: 0x8, addend: 0x0, symName: __ZThn16_N26StreamDataBlockedFrameTestD0Ev, symObjAddr: 0x1B100, symBinAddr: 0x100419880, symSize: 0x10 }
  - { offsetInCU: 0x14F703, offset: 0x15BC6C, size: 0x8, addend: 0x0, symName: __ZN7testing13TestWithParamI28StreamDataBlockedFrameParamsED1Ev, symObjAddr: 0x1B110, symBinAddr: 0x100419890, symSize: 0x10 }
  - { offsetInCU: 0x14F724, offset: 0x15BC8D, size: 0x8, addend: 0x0, symName: __ZN7testing13TestWithParamI28StreamDataBlockedFrameParamsED0Ev, symObjAddr: 0x1B120, symBinAddr: 0x1004198A0, symSize: 0x10 }
  - { offsetInCU: 0x14F762, offset: 0x15BCCB, size: 0x8, addend: 0x0, symName: __ZThn16_N7testing13TestWithParamI28StreamDataBlockedFrameParamsED1Ev, symObjAddr: 0x1B130, symBinAddr: 0x1004198B0, symSize: 0x10 }
  - { offsetInCU: 0x14F7B6, offset: 0x15BD1F, size: 0x8, addend: 0x0, symName: __ZThn16_N7testing13TestWithParamI28StreamDataBlockedFrameParamsED0Ev, symObjAddr: 0x1B140, symBinAddr: 0x1004198C0, symSize: 0x10 }
  - { offsetInCU: 0x14F7ED, offset: 0x15BD56, size: 0x8, addend: 0x0, symName: __ZN7testing18WithParamInterfaceI28StreamDataBlockedFrameParamsED1Ev, symObjAddr: 0x1B150, symBinAddr: 0x10001CE00, symSize: 0x10 }
  - { offsetInCU: 0x14F816, offset: 0x15BD7F, size: 0x8, addend: 0x0, symName: __ZN7testing18WithParamInterfaceI28StreamDataBlockedFrameParamsED0Ev, symObjAddr: 0x1B160, symBinAddr: 0x10001CE10, symSize: 0x10 }
  - { offsetInCU: 0x14FC24, offset: 0x15C18D, size: 0x8, addend: 0x0, symName: __ZNKSt3__16vectorI28StreamDataBlockedFrameParamsNS_9allocatorIS1_EEE20__throw_length_errorB8ue170006Ev, symObjAddr: 0x1B600, symBinAddr: 0x10001D2B0, symSize: 0x10 }
  - { offsetInCU: 0x14FC4D, offset: 0x15C1B6, size: 0x8, addend: 0x0, symName: __ZN7testing8internal30ValuesInIteratorRangeGeneratorI28StreamDataBlockedFrameParamsE8IteratorD1Ev, symObjAddr: 0x1B610, symBinAddr: 0x10001D2C0, symSize: 0x30 }
  - { offsetInCU: 0x1502D8, offset: 0x15C841, size: 0x8, addend: 0x0, symName: __ZN7testing8internal30ValuesInIteratorRangeGeneratorI28StreamDataBlockedFrameParamsED0Ev, symObjAddr: 0x1B540, symBinAddr: 0x10001D1F0, symSize: 0x40 }
  - { offsetInCU: 0x1504B3, offset: 0x15CA1C, size: 0x8, addend: 0x0, symName: __ZN7testing8internal30ValuesInIteratorRangeGeneratorI28StreamDataBlockedFrameParamsED1Ev, symObjAddr: 0x1B510, symBinAddr: 0x10001D1C0, symSize: 0x30 }
  - { offsetInCU: 0x1507BB, offset: 0x15CD24, size: 0x8, addend: 0x0, symName: __ZNK7testing8internal30ValuesInIteratorRangeGeneratorI28StreamDataBlockedFrameParamsE5BeginEv, symObjAddr: 0x1B580, symBinAddr: 0x10001D230, symSize: 0x40 }
  - { offsetInCU: 0x150902, offset: 0x15CE6B, size: 0x8, addend: 0x0, symName: __ZNK7testing8internal30ValuesInIteratorRangeGeneratorI28StreamDataBlockedFrameParamsE3EndEv, symObjAddr: 0x1B5C0, symBinAddr: 0x10001D270, symSize: 0x40 }
  - { offsetInCU: 0x150AEC, offset: 0x15D055, size: 0x8, addend: 0x0, symName: __ZN7testing8internal30ValuesInIteratorRangeGeneratorI28StreamDataBlockedFrameParamsE8IteratorD1Ev, symObjAddr: 0x1B610, symBinAddr: 0x10001D2C0, symSize: 0x30 }
  - { offsetInCU: 0x150BE7, offset: 0x15D150, size: 0x8, addend: 0x0, symName: __ZN7testing8internal30ValuesInIteratorRangeGeneratorI28StreamDataBlockedFrameParamsE8IteratorD0Ev, symObjAddr: 0x1B640, symBinAddr: 0x10001D2F0, symSize: 0x40 }
  - { offsetInCU: 0x150CED, offset: 0x15D256, size: 0x8, addend: 0x0, symName: __ZNK7testing8internal30ValuesInIteratorRangeGeneratorI28StreamDataBlockedFrameParamsE8Iterator13BaseGeneratorEv, symObjAddr: 0x1B680, symBinAddr: 0x10001D330, symSize: 0x10 }
  - { offsetInCU: 0x150D2D, offset: 0x15D296, size: 0x8, addend: 0x0, symName: __ZN7testing8internal30ValuesInIteratorRangeGeneratorI28StreamDataBlockedFrameParamsE8Iterator7AdvanceEv, symObjAddr: 0x1B690, symBinAddr: 0x10001D340, symSize: 0x30 }
  - { offsetInCU: 0x150E1C, offset: 0x15D385, size: 0x8, addend: 0x0, symName: __ZNK7testing8internal30ValuesInIteratorRangeGeneratorI28StreamDataBlockedFrameParamsE8Iterator5CloneEv, symObjAddr: 0x1B6C0, symBinAddr: 0x10001D370, symSize: 0x40 }
  - { offsetInCU: 0x150F68, offset: 0x15D4D1, size: 0x8, addend: 0x0, symName: __ZNK7testing8internal30ValuesInIteratorRangeGeneratorI28StreamDataBlockedFrameParamsE8Iterator7CurrentEv, symObjAddr: 0x1B700, symBinAddr: 0x10001D3B0, symSize: 0x40 }
  - { offsetInCU: 0x151006, offset: 0x15D56F, size: 0x8, addend: 0x0, symName: __ZNK7testing8internal30ValuesInIteratorRangeGeneratorI28StreamDataBlockedFrameParamsE8Iterator6EqualsERKNS0_22ParamIteratorInterfaceIS2_EE, symObjAddr: 0x1B740, symBinAddr: 0x10001D3F0, symSize: 0x140 }
  - { offsetInCU: 0x151254, offset: 0x15D7BD, size: 0x8, addend: 0x0, symName: __ZNSt3__120__shared_ptr_pointerIPN7testing8internal23ParamGeneratorInterfaceI28StreamDataBlockedFrameParamsEENS_10shared_ptrIKS5_E27__shared_ptr_default_deleteIS8_S5_EENS_9allocatorIS5_EEED1Ev, symObjAddr: 0x1B920, symBinAddr: 0x10001D5D0, symSize: 0x10 }
  - { offsetInCU: 0x1512AF, offset: 0x15D818, size: 0x8, addend: 0x0, symName: __ZNSt3__120__shared_ptr_pointerIPN7testing8internal23ParamGeneratorInterfaceI28StreamDataBlockedFrameParamsEENS_10shared_ptrIKS5_E27__shared_ptr_default_deleteIS8_S5_EENS_9allocatorIS5_EEED0Ev, symObjAddr: 0x1B930, symBinAddr: 0x10001D5E0, symSize: 0x20 }
  - { offsetInCU: 0x151318, offset: 0x15D881, size: 0x8, addend: 0x0, symName: __ZNSt3__120__shared_ptr_pointerIPN7testing8internal23ParamGeneratorInterfaceI28StreamDataBlockedFrameParamsEENS_10shared_ptrIKS5_E27__shared_ptr_default_deleteIS8_S5_EENS_9allocatorIS5_EEE16__on_zero_sharedEv, symObjAddr: 0x1B950, symBinAddr: 0x10001D600, symSize: 0x20 }
  - { offsetInCU: 0x15136C, offset: 0x15D8D5, size: 0x8, addend: 0x0, symName: __ZNKSt3__120__shared_ptr_pointerIPN7testing8internal23ParamGeneratorInterfaceI28StreamDataBlockedFrameParamsEENS_10shared_ptrIKS5_E27__shared_ptr_default_deleteIS8_S5_EENS_9allocatorIS5_EEE13__get_deleterERKSt9type_info, symObjAddr: 0x1B970, symBinAddr: 0x10001D620, symSize: 0x20 }
  - { offsetInCU: 0x151433, offset: 0x15D99C, size: 0x8, addend: 0x0, symName: __ZNSt3__120__shared_ptr_pointerIPN7testing8internal23ParamGeneratorInterfaceI28StreamDataBlockedFrameParamsEENS_10shared_ptrIKS5_E27__shared_ptr_default_deleteIS8_S5_EENS_9allocatorIS5_EEE21__on_zero_shared_weakEv, symObjAddr: 0x1B990, symBinAddr: 0x10001D640, symSize: 0x10 }
  - { offsetInCU: 0x1516DE, offset: 0x15DC47, size: 0x8, addend: 0x0, symName: __ZNSt3__110shared_ptrIN7testing8internal26ParameterizedTestSuiteInfoI23StreamsBlockedFrameTestE8TestInfoEEC1B8ue170006IS6_vEEPT_, symObjAddr: 0x1BD70, symBinAddr: 0x10001DA20, symSize: 0x60 }
  - { offsetInCU: 0x1518D7, offset: 0x15DE40, size: 0x8, addend: 0x0, symName: __ZNSt3__16vectorINS_10shared_ptrIN7testing8internal26ParameterizedTestSuiteInfoI23StreamsBlockedFrameTestE8TestInfoEEENS_9allocatorIS8_EEE24__emplace_back_slow_pathIJPS7_EEEvDpOT_, symObjAddr: 0x1BBA0, symBinAddr: 0x10001D850, symSize: 0x1D0 }
  - { offsetInCU: 0x1524E5, offset: 0x15EA4E, size: 0x8, addend: 0x0, symName: __ZNKSt3__16vectorINS_10shared_ptrIN7testing8internal26ParameterizedTestSuiteInfoI23StreamsBlockedFrameTestE8TestInfoEEENS_9allocatorIS8_EEE20__throw_length_errorB8ue170006Ev, symObjAddr: 0x1BF10, symBinAddr: 0x10001DBC0, symSize: 0x10 }
  - { offsetInCU: 0x15250E, offset: 0x15EA77, size: 0x8, addend: 0x0, symName: __ZN7testing8internal15TestMetaFactoryI60StreamsBlockedFrameTest_StreamsBlockedFrameEncodeDecode_TestED1Ev, symObjAddr: 0x1BF20, symBinAddr: 0x10001DBD0, symSize: 0x10 }
  - { offsetInCU: 0x15251A, offset: 0x15EA83, size: 0x8, addend: 0x0, symName: __ZNSt3__114__split_bufferINS_10shared_ptrIN7testing8internal26ParameterizedTestSuiteInfoI23StreamsBlockedFrameTestE8TestInfoEEERNS_9allocatorIS8_EEED1Ev, symObjAddr: 0x1BE90, symBinAddr: 0x10001DB40, symSize: 0x80 }
  - { offsetInCU: 0x152AAE, offset: 0x15F017, size: 0x8, addend: 0x0, symName: __ZNSt3__110shared_ptrIN7testing8internal26ParameterizedTestSuiteInfoI23StreamsBlockedFrameTestE8TestInfoEEC1B8ue170006IS6_vEEPT_.cold.1, symObjAddr: 0x398C0, symBinAddr: 0x100419E80, symSize: 0x50 }
  - { offsetInCU: 0x152E48, offset: 0x15F3B1, size: 0x8, addend: 0x0, symName: __ZNSt3__120__shared_ptr_pointerIPN7testing8internal26ParameterizedTestSuiteInfoI23StreamsBlockedFrameTestE8TestInfoENS_10shared_ptrIS6_E27__shared_ptr_default_deleteIS6_S6_EENS_9allocatorIS6_EEED1Ev, symObjAddr: 0x1BDD0, symBinAddr: 0x10001DA80, symSize: 0x10 }
  - { offsetInCU: 0x152EA3, offset: 0x15F40C, size: 0x8, addend: 0x0, symName: __ZNSt3__120__shared_ptr_pointerIPN7testing8internal26ParameterizedTestSuiteInfoI23StreamsBlockedFrameTestE8TestInfoENS_10shared_ptrIS6_E27__shared_ptr_default_deleteIS6_S6_EENS_9allocatorIS6_EEED0Ev, symObjAddr: 0x1BDE0, symBinAddr: 0x10001DA90, symSize: 0x20 }
  - { offsetInCU: 0x152F46, offset: 0x15F4AF, size: 0x8, addend: 0x0, symName: __ZNSt3__120__shared_ptr_pointerIPN7testing8internal26ParameterizedTestSuiteInfoI23StreamsBlockedFrameTestE8TestInfoENS_10shared_ptrIS6_E27__shared_ptr_default_deleteIS6_S6_EENS_9allocatorIS6_EEE16__on_zero_sharedEv, symObjAddr: 0x1BE00, symBinAddr: 0x10001DAB0, symSize: 0x60 }
  - { offsetInCU: 0x153311, offset: 0x15F87A, size: 0x8, addend: 0x0, symName: __ZNKSt3__120__shared_ptr_pointerIPN7testing8internal26ParameterizedTestSuiteInfoI23StreamsBlockedFrameTestE8TestInfoENS_10shared_ptrIS6_E27__shared_ptr_default_deleteIS6_S6_EENS_9allocatorIS6_EEE13__get_deleterERKSt9type_info, symObjAddr: 0x1BE60, symBinAddr: 0x10001DB10, symSize: 0x20 }
  - { offsetInCU: 0x1533D8, offset: 0x15F941, size: 0x8, addend: 0x0, symName: __ZNSt3__120__shared_ptr_pointerIPN7testing8internal26ParameterizedTestSuiteInfoI23StreamsBlockedFrameTestE8TestInfoENS_10shared_ptrIS6_E27__shared_ptr_default_deleteIS6_S6_EENS_9allocatorIS6_EEE21__on_zero_shared_weakEv, symObjAddr: 0x1BE80, symBinAddr: 0x10001DB30, symSize: 0x10 }
  - { offsetInCU: 0x1534B6, offset: 0x15FA1F, size: 0x8, addend: 0x0, symName: __ZN7testing8internal15TestMetaFactoryI60StreamsBlockedFrameTest_StreamsBlockedFrameEncodeDecode_TestED1Ev, symObjAddr: 0x1BF20, symBinAddr: 0x10001DBD0, symSize: 0x10 }
  - { offsetInCU: 0x1534E2, offset: 0x15FA4B, size: 0x8, addend: 0x0, symName: __ZN7testing8internal15TestMetaFactoryI60StreamsBlockedFrameTest_StreamsBlockedFrameEncodeDecode_TestED0Ev, symObjAddr: 0x1BF30, symBinAddr: 0x10001DBE0, symSize: 0x10 }
  - { offsetInCU: 0x153578, offset: 0x15FAE1, size: 0x8, addend: 0x0, symName: __ZN7testing8internal15TestMetaFactoryI60StreamsBlockedFrameTest_StreamsBlockedFrameEncodeDecode_TestE17CreateTestFactoryEb, symObjAddr: 0x1BF40, symBinAddr: 0x10001DBF0, symSize: 0x30 }
  - { offsetInCU: 0x1535F6, offset: 0x15FB5F, size: 0x8, addend: 0x0, symName: __ZN7testing8internal24ParameterizedTestFactoryI60StreamsBlockedFrameTest_StreamsBlockedFrameEncodeDecode_TestED1Ev, symObjAddr: 0x1BF70, symBinAddr: 0x10001DC20, symSize: 0x10 }
  - { offsetInCU: 0x153622, offset: 0x15FB8B, size: 0x8, addend: 0x0, symName: __ZN7testing8internal24ParameterizedTestFactoryI60StreamsBlockedFrameTest_StreamsBlockedFrameEncodeDecode_TestED0Ev, symObjAddr: 0x1BF80, symBinAddr: 0x10001DC30, symSize: 0x10 }
  - { offsetInCU: 0x15369F, offset: 0x15FC08, size: 0x8, addend: 0x0, symName: __ZN7testing8internal24ParameterizedTestFactoryI60StreamsBlockedFrameTest_StreamsBlockedFrameEncodeDecode_TestE10CreateTestEv, symObjAddr: 0x1BF90, symBinAddr: 0x10001DC40, symSize: 0x60 }
  - { offsetInCU: 0x153761, offset: 0x15FCCA, size: 0x8, addend: 0x0, symName: __ZN23StreamsBlockedFrameTestD1Ev, symObjAddr: 0x1BFF0, symBinAddr: 0x1004198D0, symSize: 0x10 }
  - { offsetInCU: 0x153782, offset: 0x15FCEB, size: 0x8, addend: 0x0, symName: __ZN23StreamsBlockedFrameTestD0Ev, symObjAddr: 0x1C000, symBinAddr: 0x1004198E0, symSize: 0x10 }
  - { offsetInCU: 0x1537C0, offset: 0x15FD29, size: 0x8, addend: 0x0, symName: __ZThn16_N23StreamsBlockedFrameTestD1Ev, symObjAddr: 0x1C010, symBinAddr: 0x1004198F0, symSize: 0x10 }
  - { offsetInCU: 0x153814, offset: 0x15FD7D, size: 0x8, addend: 0x0, symName: __ZThn16_N23StreamsBlockedFrameTestD0Ev, symObjAddr: 0x1C020, symBinAddr: 0x100419900, symSize: 0x10 }
  - { offsetInCU: 0x15384B, offset: 0x15FDB4, size: 0x8, addend: 0x0, symName: __ZN7testing8internal15TestMetaFactoryI58StreamsBlockedFrameTest_DecodeStreamsBlockedFrameFail_TestED1Ev, symObjAddr: 0x1C030, symBinAddr: 0x10001DCA0, symSize: 0x10 }
  - { offsetInCU: 0x153877, offset: 0x15FDE0, size: 0x8, addend: 0x0, symName: __ZN7testing8internal15TestMetaFactoryI58StreamsBlockedFrameTest_DecodeStreamsBlockedFrameFail_TestED0Ev, symObjAddr: 0x1C040, symBinAddr: 0x10001DCB0, symSize: 0x10 }
  - { offsetInCU: 0x15390D, offset: 0x15FE76, size: 0x8, addend: 0x0, symName: __ZN7testing8internal15TestMetaFactoryI58StreamsBlockedFrameTest_DecodeStreamsBlockedFrameFail_TestE17CreateTestFactoryEb, symObjAddr: 0x1C050, symBinAddr: 0x10001DCC0, symSize: 0x30 }
  - { offsetInCU: 0x15398B, offset: 0x15FEF4, size: 0x8, addend: 0x0, symName: __ZN7testing8internal24ParameterizedTestFactoryI58StreamsBlockedFrameTest_DecodeStreamsBlockedFrameFail_TestED1Ev, symObjAddr: 0x1C080, symBinAddr: 0x10001DCF0, symSize: 0x10 }
  - { offsetInCU: 0x1539B7, offset: 0x15FF20, size: 0x8, addend: 0x0, symName: __ZN7testing8internal24ParameterizedTestFactoryI58StreamsBlockedFrameTest_DecodeStreamsBlockedFrameFail_TestED0Ev, symObjAddr: 0x1C090, symBinAddr: 0x10001DD00, symSize: 0x10 }
  - { offsetInCU: 0x153A17, offset: 0x15FF80, size: 0x8, addend: 0x0, symName: __ZN7testing8internal24ParameterizedTestFactoryI58StreamsBlockedFrameTest_DecodeStreamsBlockedFrameFail_TestE10CreateTestEv, symObjAddr: 0x1C0A0, symBinAddr: 0x10001DD10, symSize: 0x60 }
  - { offsetInCU: 0x153ADE, offset: 0x160047, size: 0x8, addend: 0x0, symName: __ZN7testing8internal15TestFactoryImplI47FrameTest_NewConnectionIdFrameEncodeDecode_TestED1Ev, symObjAddr: 0x1C100, symBinAddr: 0x10001DD70, symSize: 0x10 }
  - { offsetInCU: 0x153B0A, offset: 0x160073, size: 0x8, addend: 0x0, symName: __ZN7testing8internal15TestFactoryImplI47FrameTest_NewConnectionIdFrameEncodeDecode_TestED0Ev, symObjAddr: 0x1C110, symBinAddr: 0x10001DD80, symSize: 0x10 }
  - { offsetInCU: 0x153B6A, offset: 0x1600D3, size: 0x8, addend: 0x0, symName: __ZN7testing8internal15TestFactoryImplI47FrameTest_NewConnectionIdFrameEncodeDecode_TestE10CreateTestEv, symObjAddr: 0x1C120, symBinAddr: 0x10001DD90, symSize: 0x50 }
  - { offsetInCU: 0x153EBB, offset: 0x160424, size: 0x8, addend: 0x0, symName: __ZNSt3__110shared_ptrIN7testing8internal26ParameterizedTestSuiteInfoI24NewConnectionIdFrameTestE8TestInfoEEC1B8ue170006IS6_vEEPT_, symObjAddr: 0x1C540, symBinAddr: 0x10001E1B0, symSize: 0x60 }
  - { offsetInCU: 0x1540B4, offset: 0x16061D, size: 0x8, addend: 0x0, symName: __ZNSt3__16vectorINS_10shared_ptrIN7testing8internal26ParameterizedTestSuiteInfoI24NewConnectionIdFrameTestE8TestInfoEEENS_9allocatorIS8_EEE24__emplace_back_slow_pathIJPS7_EEEvDpOT_, symObjAddr: 0x1C370, symBinAddr: 0x10001DFE0, symSize: 0x1D0 }
  - { offsetInCU: 0x154CC2, offset: 0x16122B, size: 0x8, addend: 0x0, symName: __ZNKSt3__16vectorINS_10shared_ptrIN7testing8internal26ParameterizedTestSuiteInfoI24NewConnectionIdFrameTestE8TestInfoEEENS_9allocatorIS8_EEE20__throw_length_errorB8ue170006Ev, symObjAddr: 0x1C6E0, symBinAddr: 0x10001E350, symSize: 0x10 }
  - { offsetInCU: 0x154CEB, offset: 0x161254, size: 0x8, addend: 0x0, symName: __ZN7testing8internal15TestMetaFactoryI60NewConnectionIdFrameTest_DecodeNewConnectionIdFrameFail_TestED1Ev, symObjAddr: 0x1C6F0, symBinAddr: 0x10001E360, symSize: 0x10 }
  - { offsetInCU: 0x154CF7, offset: 0x161260, size: 0x8, addend: 0x0, symName: __ZNSt3__114__split_bufferINS_10shared_ptrIN7testing8internal26ParameterizedTestSuiteInfoI24NewConnectionIdFrameTestE8TestInfoEEERNS_9allocatorIS8_EEED1Ev, symObjAddr: 0x1C660, symBinAddr: 0x10001E2D0, symSize: 0x80 }
  - { offsetInCU: 0x15528B, offset: 0x1617F4, size: 0x8, addend: 0x0, symName: __ZNSt3__110shared_ptrIN7testing8internal26ParameterizedTestSuiteInfoI24NewConnectionIdFrameTestE8TestInfoEEC1B8ue170006IS6_vEEPT_.cold.1, symObjAddr: 0x39910, symBinAddr: 0x100419ED0, symSize: 0x50 }
  - { offsetInCU: 0x155625, offset: 0x161B8E, size: 0x8, addend: 0x0, symName: __ZNSt3__120__shared_ptr_pointerIPN7testing8internal26ParameterizedTestSuiteInfoI24NewConnectionIdFrameTestE8TestInfoENS_10shared_ptrIS6_E27__shared_ptr_default_deleteIS6_S6_EENS_9allocatorIS6_EEED1Ev, symObjAddr: 0x1C5A0, symBinAddr: 0x10001E210, symSize: 0x10 }
  - { offsetInCU: 0x155680, offset: 0x161BE9, size: 0x8, addend: 0x0, symName: __ZNSt3__120__shared_ptr_pointerIPN7testing8internal26ParameterizedTestSuiteInfoI24NewConnectionIdFrameTestE8TestInfoENS_10shared_ptrIS6_E27__shared_ptr_default_deleteIS6_S6_EENS_9allocatorIS6_EEED0Ev, symObjAddr: 0x1C5B0, symBinAddr: 0x10001E220, symSize: 0x20 }
  - { offsetInCU: 0x1557AC, offset: 0x161D15, size: 0x8, addend: 0x0, symName: __ZNSt3__120__shared_ptr_pointerIPN7testing8internal26ParameterizedTestSuiteInfoI24NewConnectionIdFrameTestE8TestInfoENS_10shared_ptrIS6_E27__shared_ptr_default_deleteIS6_S6_EENS_9allocatorIS6_EEE16__on_zero_sharedEv, symObjAddr: 0x1C5D0, symBinAddr: 0x10001E240, symSize: 0x60 }
  - { offsetInCU: 0x155B77, offset: 0x1620E0, size: 0x8, addend: 0x0, symName: __ZNKSt3__120__shared_ptr_pointerIPN7testing8internal26ParameterizedTestSuiteInfoI24NewConnectionIdFrameTestE8TestInfoENS_10shared_ptrIS6_E27__shared_ptr_default_deleteIS6_S6_EENS_9allocatorIS6_EEE13__get_deleterERKSt9type_info, symObjAddr: 0x1C630, symBinAddr: 0x10001E2A0, symSize: 0x20 }
  - { offsetInCU: 0x155C3E, offset: 0x1621A7, size: 0x8, addend: 0x0, symName: __ZNSt3__120__shared_ptr_pointerIPN7testing8internal26ParameterizedTestSuiteInfoI24NewConnectionIdFrameTestE8TestInfoENS_10shared_ptrIS6_E27__shared_ptr_default_deleteIS6_S6_EENS_9allocatorIS6_EEE21__on_zero_shared_weakEv, symObjAddr: 0x1C650, symBinAddr: 0x10001E2C0, symSize: 0x10 }
  - { offsetInCU: 0x155D1C, offset: 0x162285, size: 0x8, addend: 0x0, symName: __ZN7testing8internal15TestMetaFactoryI60NewConnectionIdFrameTest_DecodeNewConnectionIdFrameFail_TestED1Ev, symObjAddr: 0x1C6F0, symBinAddr: 0x10001E360, symSize: 0x10 }
  - { offsetInCU: 0x155D48, offset: 0x1622B1, size: 0x8, addend: 0x0, symName: __ZN7testing8internal15TestMetaFactoryI60NewConnectionIdFrameTest_DecodeNewConnectionIdFrameFail_TestED0Ev, symObjAddr: 0x1C700, symBinAddr: 0x10001E370, symSize: 0x10 }
  - { offsetInCU: 0x155DDE, offset: 0x162347, size: 0x8, addend: 0x0, symName: __ZN7testing8internal15TestMetaFactoryI60NewConnectionIdFrameTest_DecodeNewConnectionIdFrameFail_TestE17CreateTestFactoryE26NewConnectionIdFrameParams, symObjAddr: 0x1C710, symBinAddr: 0x10001E380, symSize: 0x40 }
  - { offsetInCU: 0x155E53, offset: 0x1623BC, size: 0x8, addend: 0x0, symName: __ZN7testing8internal24ParameterizedTestFactoryI60NewConnectionIdFrameTest_DecodeNewConnectionIdFrameFail_TestED1Ev, symObjAddr: 0x1C750, symBinAddr: 0x10001E3C0, symSize: 0x10 }
  - { offsetInCU: 0x155E7F, offset: 0x1623E8, size: 0x8, addend: 0x0, symName: __ZN7testing8internal24ParameterizedTestFactoryI60NewConnectionIdFrameTest_DecodeNewConnectionIdFrameFail_TestED0Ev, symObjAddr: 0x1C760, symBinAddr: 0x10001E3D0, symSize: 0x10 }
  - { offsetInCU: 0x155F2D, offset: 0x162496, size: 0x8, addend: 0x0, symName: __ZN7testing8internal24ParameterizedTestFactoryI60NewConnectionIdFrameTest_DecodeNewConnectionIdFrameFail_TestE10CreateTestEv, symObjAddr: 0x1C770, symBinAddr: 0x10001E3E0, symSize: 0x60 }
  - { offsetInCU: 0x155FEF, offset: 0x162558, size: 0x8, addend: 0x0, symName: __ZN24NewConnectionIdFrameTestD1Ev, symObjAddr: 0x1C7D0, symBinAddr: 0x100419910, symSize: 0x10 }
  - { offsetInCU: 0x156010, offset: 0x162579, size: 0x8, addend: 0x0, symName: __ZN24NewConnectionIdFrameTestD0Ev, symObjAddr: 0x1C7E0, symBinAddr: 0x100419920, symSize: 0x10 }
  - { offsetInCU: 0x15604E, offset: 0x1625B7, size: 0x8, addend: 0x0, symName: __ZThn16_N24NewConnectionIdFrameTestD1Ev, symObjAddr: 0x1C7F0, symBinAddr: 0x100419930, symSize: 0x10 }
  - { offsetInCU: 0x1560A2, offset: 0x16260B, size: 0x8, addend: 0x0, symName: __ZThn16_N24NewConnectionIdFrameTestD0Ev, symObjAddr: 0x1C800, symBinAddr: 0x100419940, symSize: 0x10 }
  - { offsetInCU: 0x1560D9, offset: 0x162642, size: 0x8, addend: 0x0, symName: __ZN7testing13TestWithParamI26NewConnectionIdFrameParamsED1Ev, symObjAddr: 0x1C810, symBinAddr: 0x100419950, symSize: 0x10 }
  - { offsetInCU: 0x1560FA, offset: 0x162663, size: 0x8, addend: 0x0, symName: __ZN7testing13TestWithParamI26NewConnectionIdFrameParamsED0Ev, symObjAddr: 0x1C820, symBinAddr: 0x100419960, symSize: 0x10 }
  - { offsetInCU: 0x156138, offset: 0x1626A1, size: 0x8, addend: 0x0, symName: __ZThn16_N7testing13TestWithParamI26NewConnectionIdFrameParamsED1Ev, symObjAddr: 0x1C830, symBinAddr: 0x100419970, symSize: 0x10 }
  - { offsetInCU: 0x15618C, offset: 0x1626F5, size: 0x8, addend: 0x0, symName: __ZThn16_N7testing13TestWithParamI26NewConnectionIdFrameParamsED0Ev, symObjAddr: 0x1C840, symBinAddr: 0x100419980, symSize: 0x10 }
  - { offsetInCU: 0x1561C3, offset: 0x16272C, size: 0x8, addend: 0x0, symName: __ZN7testing18WithParamInterfaceI26NewConnectionIdFrameParamsED1Ev, symObjAddr: 0x1C850, symBinAddr: 0x10001E440, symSize: 0x10 }
  - { offsetInCU: 0x1561EC, offset: 0x162755, size: 0x8, addend: 0x0, symName: __ZN7testing18WithParamInterfaceI26NewConnectionIdFrameParamsED0Ev, symObjAddr: 0x1C860, symBinAddr: 0x10001E450, symSize: 0x10 }
  - { offsetInCU: 0x156639, offset: 0x162BA2, size: 0x8, addend: 0x0, symName: __ZNKSt3__16vectorI26NewConnectionIdFrameParamsNS_9allocatorIS1_EEE20__throw_length_errorB8ue170006Ev, symObjAddr: 0x1CF30, symBinAddr: 0x10001EB20, symSize: 0x10 }
  - { offsetInCU: 0x156662, offset: 0x162BCB, size: 0x8, addend: 0x0, symName: __ZN7testing8internal30ValuesInIteratorRangeGeneratorI26NewConnectionIdFrameParamsE8IteratorD1Ev, symObjAddr: 0x1CF40, symBinAddr: 0x10001EB30, symSize: 0x30 }
  - { offsetInCU: 0x156CED, offset: 0x163256, size: 0x8, addend: 0x0, symName: __ZN7testing8internal30ValuesInIteratorRangeGeneratorI26NewConnectionIdFrameParamsED0Ev, symObjAddr: 0x1CE70, symBinAddr: 0x10001EA60, symSize: 0x40 }
  - { offsetInCU: 0x156EC8, offset: 0x163431, size: 0x8, addend: 0x0, symName: __ZN7testing8internal30ValuesInIteratorRangeGeneratorI26NewConnectionIdFrameParamsED1Ev, symObjAddr: 0x1CE40, symBinAddr: 0x10001EA30, symSize: 0x30 }
  - { offsetInCU: 0x1571D0, offset: 0x163739, size: 0x8, addend: 0x0, symName: __ZNK7testing8internal30ValuesInIteratorRangeGeneratorI26NewConnectionIdFrameParamsE5BeginEv, symObjAddr: 0x1CEB0, symBinAddr: 0x10001EAA0, symSize: 0x40 }
  - { offsetInCU: 0x157317, offset: 0x163880, size: 0x8, addend: 0x0, symName: __ZNK7testing8internal30ValuesInIteratorRangeGeneratorI26NewConnectionIdFrameParamsE3EndEv, symObjAddr: 0x1CEF0, symBinAddr: 0x10001EAE0, symSize: 0x40 }
  - { offsetInCU: 0x157501, offset: 0x163A6A, size: 0x8, addend: 0x0, symName: __ZN7testing8internal30ValuesInIteratorRangeGeneratorI26NewConnectionIdFrameParamsE8IteratorD1Ev, symObjAddr: 0x1CF40, symBinAddr: 0x10001EB30, symSize: 0x30 }
  - { offsetInCU: 0x1575FC, offset: 0x163B65, size: 0x8, addend: 0x0, symName: __ZN7testing8internal30ValuesInIteratorRangeGeneratorI26NewConnectionIdFrameParamsE8IteratorD0Ev, symObjAddr: 0x1CF70, symBinAddr: 0x10001EB60, symSize: 0x40 }
  - { offsetInCU: 0x157702, offset: 0x163C6B, size: 0x8, addend: 0x0, symName: __ZNK7testing8internal30ValuesInIteratorRangeGeneratorI26NewConnectionIdFrameParamsE8Iterator13BaseGeneratorEv, symObjAddr: 0x1CFB0, symBinAddr: 0x10001EBA0, symSize: 0x10 }
  - { offsetInCU: 0x157742, offset: 0x163CAB, size: 0x8, addend: 0x0, symName: __ZN7testing8internal30ValuesInIteratorRangeGeneratorI26NewConnectionIdFrameParamsE8Iterator7AdvanceEv, symObjAddr: 0x1CFC0, symBinAddr: 0x10001EBB0, symSize: 0x30 }
  - { offsetInCU: 0x157831, offset: 0x163D9A, size: 0x8, addend: 0x0, symName: __ZNK7testing8internal30ValuesInIteratorRangeGeneratorI26NewConnectionIdFrameParamsE8Iterator5CloneEv, symObjAddr: 0x1CFF0, symBinAddr: 0x10001EBE0, symSize: 0x40 }
  - { offsetInCU: 0x15797D, offset: 0x163EE6, size: 0x8, addend: 0x0, symName: __ZNK7testing8internal30ValuesInIteratorRangeGeneratorI26NewConnectionIdFrameParamsE8Iterator7CurrentEv, symObjAddr: 0x1D030, symBinAddr: 0x10001EC20, symSize: 0x50 }
  - { offsetInCU: 0x157A1B, offset: 0x163F84, size: 0x8, addend: 0x0, symName: __ZNK7testing8internal30ValuesInIteratorRangeGeneratorI26NewConnectionIdFrameParamsE8Iterator6EqualsERKNS0_22ParamIteratorInterfaceIS2_EE, symObjAddr: 0x1D080, symBinAddr: 0x10001EC70, symSize: 0x140 }
  - { offsetInCU: 0x157C69, offset: 0x1641D2, size: 0x8, addend: 0x0, symName: __ZNSt3__120__shared_ptr_pointerIPN7testing8internal23ParamGeneratorInterfaceI26NewConnectionIdFrameParamsEENS_10shared_ptrIKS5_E27__shared_ptr_default_deleteIS8_S5_EENS_9allocatorIS5_EEED1Ev, symObjAddr: 0x1D260, symBinAddr: 0x10001EE50, symSize: 0x10 }
  - { offsetInCU: 0x157CC4, offset: 0x16422D, size: 0x8, addend: 0x0, symName: __ZNSt3__120__shared_ptr_pointerIPN7testing8internal23ParamGeneratorInterfaceI26NewConnectionIdFrameParamsEENS_10shared_ptrIKS5_E27__shared_ptr_default_deleteIS8_S5_EENS_9allocatorIS5_EEED0Ev, symObjAddr: 0x1D270, symBinAddr: 0x10001EE60, symSize: 0x20 }
  - { offsetInCU: 0x157D2D, offset: 0x164296, size: 0x8, addend: 0x0, symName: __ZNSt3__120__shared_ptr_pointerIPN7testing8internal23ParamGeneratorInterfaceI26NewConnectionIdFrameParamsEENS_10shared_ptrIKS5_E27__shared_ptr_default_deleteIS8_S5_EENS_9allocatorIS5_EEE16__on_zero_sharedEv, symObjAddr: 0x1D290, symBinAddr: 0x10001EE80, symSize: 0x20 }
  - { offsetInCU: 0x157D81, offset: 0x1642EA, size: 0x8, addend: 0x0, symName: __ZNKSt3__120__shared_ptr_pointerIPN7testing8internal23ParamGeneratorInterfaceI26NewConnectionIdFrameParamsEENS_10shared_ptrIKS5_E27__shared_ptr_default_deleteIS8_S5_EENS_9allocatorIS5_EEE13__get_deleterERKSt9type_info, symObjAddr: 0x1D2B0, symBinAddr: 0x10001EEA0, symSize: 0x20 }
  - { offsetInCU: 0x157E48, offset: 0x1643B1, size: 0x8, addend: 0x0, symName: __ZNSt3__120__shared_ptr_pointerIPN7testing8internal23ParamGeneratorInterfaceI26NewConnectionIdFrameParamsEENS_10shared_ptrIKS5_E27__shared_ptr_default_deleteIS8_S5_EENS_9allocatorIS5_EEE21__on_zero_shared_weakEv, symObjAddr: 0x1D2D0, symBinAddr: 0x10001EEC0, symSize: 0x10 }
  - { offsetInCU: 0x157F2B, offset: 0x164494, size: 0x8, addend: 0x0, symName: __ZN7testing8internal15TestFactoryImplI50FrameTest_RetireConnectionIdFrameEncodeDecode_TestED1Ev, symObjAddr: 0x1D2E0, symBinAddr: 0x10001EED0, symSize: 0x10 }
  - { offsetInCU: 0x157F57, offset: 0x1644C0, size: 0x8, addend: 0x0, symName: __ZN7testing8internal15TestFactoryImplI50FrameTest_RetireConnectionIdFrameEncodeDecode_TestED0Ev, symObjAddr: 0x1D2F0, symBinAddr: 0x10001EEE0, symSize: 0x10 }
  - { offsetInCU: 0x157FB7, offset: 0x164520, size: 0x8, addend: 0x0, symName: __ZN7testing8internal15TestFactoryImplI50FrameTest_RetireConnectionIdFrameEncodeDecode_TestE10CreateTestEv, symObjAddr: 0x1D300, symBinAddr: 0x10001EEF0, symSize: 0x50 }
  - { offsetInCU: 0x158308, offset: 0x164871, size: 0x8, addend: 0x0, symName: __ZNSt3__110shared_ptrIN7testing8internal26ParameterizedTestSuiteInfoI27RetireConnectionIdFrameTestE8TestInfoEEC1B8ue170006IS6_vEEPT_, symObjAddr: 0x1D720, symBinAddr: 0x10001F310, symSize: 0x60 }
  - { offsetInCU: 0x158501, offset: 0x164A6A, size: 0x8, addend: 0x0, symName: __ZNSt3__16vectorINS_10shared_ptrIN7testing8internal26ParameterizedTestSuiteInfoI27RetireConnectionIdFrameTestE8TestInfoEEENS_9allocatorIS8_EEE24__emplace_back_slow_pathIJPS7_EEEvDpOT_, symObjAddr: 0x1D550, symBinAddr: 0x10001F140, symSize: 0x1D0 }
  - { offsetInCU: 0x15910F, offset: 0x165678, size: 0x8, addend: 0x0, symName: __ZNKSt3__16vectorINS_10shared_ptrIN7testing8internal26ParameterizedTestSuiteInfoI27RetireConnectionIdFrameTestE8TestInfoEEENS_9allocatorIS8_EEE20__throw_length_errorB8ue170006Ev, symObjAddr: 0x1D8C0, symBinAddr: 0x10001F4B0, symSize: 0x10 }
  - { offsetInCU: 0x159138, offset: 0x1656A1, size: 0x8, addend: 0x0, symName: __ZN7testing8internal15TestMetaFactoryI66RetireConnectionIdFrameTest_DecodeRetireConnectionIdFrameFail_TestED1Ev, symObjAddr: 0x1D8D0, symBinAddr: 0x10001F4C0, symSize: 0x10 }
  - { offsetInCU: 0x159144, offset: 0x1656AD, size: 0x8, addend: 0x0, symName: __ZNSt3__114__split_bufferINS_10shared_ptrIN7testing8internal26ParameterizedTestSuiteInfoI27RetireConnectionIdFrameTestE8TestInfoEEERNS_9allocatorIS8_EEED1Ev, symObjAddr: 0x1D840, symBinAddr: 0x10001F430, symSize: 0x80 }
  - { offsetInCU: 0x1596D8, offset: 0x165C41, size: 0x8, addend: 0x0, symName: __ZNSt3__110shared_ptrIN7testing8internal26ParameterizedTestSuiteInfoI27RetireConnectionIdFrameTestE8TestInfoEEC1B8ue170006IS6_vEEPT_.cold.1, symObjAddr: 0x39960, symBinAddr: 0x100419F20, symSize: 0x50 }
  - { offsetInCU: 0x159A72, offset: 0x165FDB, size: 0x8, addend: 0x0, symName: __ZNSt3__120__shared_ptr_pointerIPN7testing8internal26ParameterizedTestSuiteInfoI27RetireConnectionIdFrameTestE8TestInfoENS_10shared_ptrIS6_E27__shared_ptr_default_deleteIS6_S6_EENS_9allocatorIS6_EEED1Ev, symObjAddr: 0x1D780, symBinAddr: 0x10001F370, symSize: 0x10 }
  - { offsetInCU: 0x159ACD, offset: 0x166036, size: 0x8, addend: 0x0, symName: __ZNSt3__120__shared_ptr_pointerIPN7testing8internal26ParameterizedTestSuiteInfoI27RetireConnectionIdFrameTestE8TestInfoENS_10shared_ptrIS6_E27__shared_ptr_default_deleteIS6_S6_EENS_9allocatorIS6_EEED0Ev, symObjAddr: 0x1D790, symBinAddr: 0x10001F380, symSize: 0x20 }
  - { offsetInCU: 0x159BF9, offset: 0x166162, size: 0x8, addend: 0x0, symName: __ZNSt3__120__shared_ptr_pointerIPN7testing8internal26ParameterizedTestSuiteInfoI27RetireConnectionIdFrameTestE8TestInfoENS_10shared_ptrIS6_E27__shared_ptr_default_deleteIS6_S6_EENS_9allocatorIS6_EEE16__on_zero_sharedEv, symObjAddr: 0x1D7B0, symBinAddr: 0x10001F3A0, symSize: 0x60 }
  - { offsetInCU: 0x159FC4, offset: 0x16652D, size: 0x8, addend: 0x0, symName: __ZNKSt3__120__shared_ptr_pointerIPN7testing8internal26ParameterizedTestSuiteInfoI27RetireConnectionIdFrameTestE8TestInfoENS_10shared_ptrIS6_E27__shared_ptr_default_deleteIS6_S6_EENS_9allocatorIS6_EEE13__get_deleterERKSt9type_info, symObjAddr: 0x1D810, symBinAddr: 0x10001F400, symSize: 0x20 }
  - { offsetInCU: 0x15A08B, offset: 0x1665F4, size: 0x8, addend: 0x0, symName: __ZNSt3__120__shared_ptr_pointerIPN7testing8internal26ParameterizedTestSuiteInfoI27RetireConnectionIdFrameTestE8TestInfoENS_10shared_ptrIS6_E27__shared_ptr_default_deleteIS6_S6_EENS_9allocatorIS6_EEE21__on_zero_shared_weakEv, symObjAddr: 0x1D830, symBinAddr: 0x10001F420, symSize: 0x10 }
  - { offsetInCU: 0x15A169, offset: 0x1666D2, size: 0x8, addend: 0x0, symName: __ZN7testing8internal15TestMetaFactoryI66RetireConnectionIdFrameTest_DecodeRetireConnectionIdFrameFail_TestED1Ev, symObjAddr: 0x1D8D0, symBinAddr: 0x10001F4C0, symSize: 0x10 }
  - { offsetInCU: 0x15A195, offset: 0x1666FE, size: 0x8, addend: 0x0, symName: __ZN7testing8internal15TestMetaFactoryI66RetireConnectionIdFrameTest_DecodeRetireConnectionIdFrameFail_TestED0Ev, symObjAddr: 0x1D8E0, symBinAddr: 0x10001F4D0, symSize: 0x10 }
  - { offsetInCU: 0x15A22B, offset: 0x166794, size: 0x8, addend: 0x0, symName: __ZN7testing8internal15TestMetaFactoryI66RetireConnectionIdFrameTest_DecodeRetireConnectionIdFrameFail_TestE17CreateTestFactoryE29RetireConnectionIdFrameParams, symObjAddr: 0x1D8F0, symBinAddr: 0x10001F4E0, symSize: 0x30 }
  - { offsetInCU: 0x15A2B1, offset: 0x16681A, size: 0x8, addend: 0x0, symName: __ZN7testing8internal24ParameterizedTestFactoryI66RetireConnectionIdFrameTest_DecodeRetireConnectionIdFrameFail_TestED1Ev, symObjAddr: 0x1D920, symBinAddr: 0x10001F510, symSize: 0x10 }
  - { offsetInCU: 0x15A2DD, offset: 0x166846, size: 0x8, addend: 0x0, symName: __ZN7testing8internal24ParameterizedTestFactoryI66RetireConnectionIdFrameTest_DecodeRetireConnectionIdFrameFail_TestED0Ev, symObjAddr: 0x1D930, symBinAddr: 0x10001F520, symSize: 0x10 }
  - { offsetInCU: 0x15A38B, offset: 0x1668F4, size: 0x8, addend: 0x0, symName: __ZN7testing8internal24ParameterizedTestFactoryI66RetireConnectionIdFrameTest_DecodeRetireConnectionIdFrameFail_TestE10CreateTestEv, symObjAddr: 0x1D940, symBinAddr: 0x10001F530, symSize: 0x60 }
  - { offsetInCU: 0x15A44D, offset: 0x1669B6, size: 0x8, addend: 0x0, symName: __ZN27RetireConnectionIdFrameTestD1Ev, symObjAddr: 0x1D9A0, symBinAddr: 0x100419990, symSize: 0x10 }
  - { offsetInCU: 0x15A46E, offset: 0x1669D7, size: 0x8, addend: 0x0, symName: __ZN27RetireConnectionIdFrameTestD0Ev, symObjAddr: 0x1D9B0, symBinAddr: 0x1004199A0, symSize: 0x10 }
  - { offsetInCU: 0x15A4AC, offset: 0x166A15, size: 0x8, addend: 0x0, symName: __ZThn16_N27RetireConnectionIdFrameTestD1Ev, symObjAddr: 0x1D9C0, symBinAddr: 0x1004199B0, symSize: 0x10 }
  - { offsetInCU: 0x15A500, offset: 0x166A69, size: 0x8, addend: 0x0, symName: __ZThn16_N27RetireConnectionIdFrameTestD0Ev, symObjAddr: 0x1D9D0, symBinAddr: 0x1004199C0, symSize: 0x10 }
  - { offsetInCU: 0x15A537, offset: 0x166AA0, size: 0x8, addend: 0x0, symName: __ZN7testing13TestWithParamI29RetireConnectionIdFrameParamsED1Ev, symObjAddr: 0x1D9E0, symBinAddr: 0x1004199D0, symSize: 0x10 }
  - { offsetInCU: 0x15A558, offset: 0x166AC1, size: 0x8, addend: 0x0, symName: __ZN7testing13TestWithParamI29RetireConnectionIdFrameParamsED0Ev, symObjAddr: 0x1D9F0, symBinAddr: 0x1004199E0, symSize: 0x10 }
  - { offsetInCU: 0x15A596, offset: 0x166AFF, size: 0x8, addend: 0x0, symName: __ZThn16_N7testing13TestWithParamI29RetireConnectionIdFrameParamsED1Ev, symObjAddr: 0x1DA00, symBinAddr: 0x1004199F0, symSize: 0x10 }
  - { offsetInCU: 0x15A5EA, offset: 0x166B53, size: 0x8, addend: 0x0, symName: __ZThn16_N7testing13TestWithParamI29RetireConnectionIdFrameParamsED0Ev, symObjAddr: 0x1DA10, symBinAddr: 0x100419A00, symSize: 0x10 }
  - { offsetInCU: 0x15A621, offset: 0x166B8A, size: 0x8, addend: 0x0, symName: __ZN7testing18WithParamInterfaceI29RetireConnectionIdFrameParamsED1Ev, symObjAddr: 0x1DA20, symBinAddr: 0x10001F590, symSize: 0x10 }
  - { offsetInCU: 0x15A64A, offset: 0x166BB3, size: 0x8, addend: 0x0, symName: __ZN7testing18WithParamInterfaceI29RetireConnectionIdFrameParamsED0Ev, symObjAddr: 0x1DA30, symBinAddr: 0x10001F5A0, symSize: 0x10 }
  - { offsetInCU: 0x15AA58, offset: 0x166FC1, size: 0x8, addend: 0x0, symName: __ZNKSt3__16vectorI29RetireConnectionIdFrameParamsNS_9allocatorIS1_EEE20__throw_length_errorB8ue170006Ev, symObjAddr: 0x1DDF0, symBinAddr: 0x10001F960, symSize: 0x10 }
  - { offsetInCU: 0x15AA81, offset: 0x166FEA, size: 0x8, addend: 0x0, symName: __ZN7testing8internal30ValuesInIteratorRangeGeneratorI29RetireConnectionIdFrameParamsE8IteratorD1Ev, symObjAddr: 0x1DE00, symBinAddr: 0x10001F970, symSize: 0x30 }
  - { offsetInCU: 0x15B10C, offset: 0x167675, size: 0x8, addend: 0x0, symName: __ZN7testing8internal30ValuesInIteratorRangeGeneratorI29RetireConnectionIdFrameParamsED0Ev, symObjAddr: 0x1DD30, symBinAddr: 0x10001F8A0, symSize: 0x40 }
  - { offsetInCU: 0x15B2E7, offset: 0x167850, size: 0x8, addend: 0x0, symName: __ZN7testing8internal30ValuesInIteratorRangeGeneratorI29RetireConnectionIdFrameParamsED1Ev, symObjAddr: 0x1DD00, symBinAddr: 0x10001F870, symSize: 0x30 }
  - { offsetInCU: 0x15B5EF, offset: 0x167B58, size: 0x8, addend: 0x0, symName: __ZNK7testing8internal30ValuesInIteratorRangeGeneratorI29RetireConnectionIdFrameParamsE5BeginEv, symObjAddr: 0x1DD70, symBinAddr: 0x10001F8E0, symSize: 0x40 }
  - { offsetInCU: 0x15B736, offset: 0x167C9F, size: 0x8, addend: 0x0, symName: __ZNK7testing8internal30ValuesInIteratorRangeGeneratorI29RetireConnectionIdFrameParamsE3EndEv, symObjAddr: 0x1DDB0, symBinAddr: 0x10001F920, symSize: 0x40 }
  - { offsetInCU: 0x15B920, offset: 0x167E89, size: 0x8, addend: 0x0, symName: __ZN7testing8internal30ValuesInIteratorRangeGeneratorI29RetireConnectionIdFrameParamsE8IteratorD1Ev, symObjAddr: 0x1DE00, symBinAddr: 0x10001F970, symSize: 0x30 }
  - { offsetInCU: 0x15BA1B, offset: 0x167F84, size: 0x8, addend: 0x0, symName: __ZN7testing8internal30ValuesInIteratorRangeGeneratorI29RetireConnectionIdFrameParamsE8IteratorD0Ev, symObjAddr: 0x1DE30, symBinAddr: 0x10001F9A0, symSize: 0x40 }
  - { offsetInCU: 0x15BB21, offset: 0x16808A, size: 0x8, addend: 0x0, symName: __ZNK7testing8internal30ValuesInIteratorRangeGeneratorI29RetireConnectionIdFrameParamsE8Iterator13BaseGeneratorEv, symObjAddr: 0x1DE70, symBinAddr: 0x10001F9E0, symSize: 0x10 }
  - { offsetInCU: 0x15BB61, offset: 0x1680CA, size: 0x8, addend: 0x0, symName: __ZN7testing8internal30ValuesInIteratorRangeGeneratorI29RetireConnectionIdFrameParamsE8Iterator7AdvanceEv, symObjAddr: 0x1DE80, symBinAddr: 0x10001F9F0, symSize: 0x30 }
  - { offsetInCU: 0x15BC50, offset: 0x1681B9, size: 0x8, addend: 0x0, symName: __ZNK7testing8internal30ValuesInIteratorRangeGeneratorI29RetireConnectionIdFrameParamsE8Iterator5CloneEv, symObjAddr: 0x1DEB0, symBinAddr: 0x10001FA20, symSize: 0x40 }
  - { offsetInCU: 0x15BD9C, offset: 0x168305, size: 0x8, addend: 0x0, symName: __ZNK7testing8internal30ValuesInIteratorRangeGeneratorI29RetireConnectionIdFrameParamsE8Iterator7CurrentEv, symObjAddr: 0x1DEF0, symBinAddr: 0x10001FA60, symSize: 0x40 }
  - { offsetInCU: 0x15BE3A, offset: 0x1683A3, size: 0x8, addend: 0x0, symName: __ZNK7testing8internal30ValuesInIteratorRangeGeneratorI29RetireConnectionIdFrameParamsE8Iterator6EqualsERKNS0_22ParamIteratorInterfaceIS2_EE, symObjAddr: 0x1DF30, symBinAddr: 0x10001FAA0, symSize: 0x140 }
  - { offsetInCU: 0x15C088, offset: 0x1685F1, size: 0x8, addend: 0x0, symName: __ZNSt3__120__shared_ptr_pointerIPN7testing8internal23ParamGeneratorInterfaceI29RetireConnectionIdFrameParamsEENS_10shared_ptrIKS5_E27__shared_ptr_default_deleteIS8_S5_EENS_9allocatorIS5_EEED1Ev, symObjAddr: 0x1E110, symBinAddr: 0x10001FC80, symSize: 0x10 }
  - { offsetInCU: 0x15C0E3, offset: 0x16864C, size: 0x8, addend: 0x0, symName: __ZNSt3__120__shared_ptr_pointerIPN7testing8internal23ParamGeneratorInterfaceI29RetireConnectionIdFrameParamsEENS_10shared_ptrIKS5_E27__shared_ptr_default_deleteIS8_S5_EENS_9allocatorIS5_EEED0Ev, symObjAddr: 0x1E120, symBinAddr: 0x10001FC90, symSize: 0x20 }
  - { offsetInCU: 0x15C14C, offset: 0x1686B5, size: 0x8, addend: 0x0, symName: __ZNSt3__120__shared_ptr_pointerIPN7testing8internal23ParamGeneratorInterfaceI29RetireConnectionIdFrameParamsEENS_10shared_ptrIKS5_E27__shared_ptr_default_deleteIS8_S5_EENS_9allocatorIS5_EEE16__on_zero_sharedEv, symObjAddr: 0x1E140, symBinAddr: 0x10001FCB0, symSize: 0x20 }
  - { offsetInCU: 0x15C1A0, offset: 0x168709, size: 0x8, addend: 0x0, symName: __ZNKSt3__120__shared_ptr_pointerIPN7testing8internal23ParamGeneratorInterfaceI29RetireConnectionIdFrameParamsEENS_10shared_ptrIKS5_E27__shared_ptr_default_deleteIS8_S5_EENS_9allocatorIS5_EEE13__get_deleterERKSt9type_info, symObjAddr: 0x1E160, symBinAddr: 0x10001FCD0, symSize: 0x20 }
  - { offsetInCU: 0x15C267, offset: 0x1687D0, size: 0x8, addend: 0x0, symName: __ZNSt3__120__shared_ptr_pointerIPN7testing8internal23ParamGeneratorInterfaceI29RetireConnectionIdFrameParamsEENS_10shared_ptrIKS5_E27__shared_ptr_default_deleteIS8_S5_EENS_9allocatorIS5_EEE21__on_zero_shared_weakEv, symObjAddr: 0x1E180, symBinAddr: 0x10001FCF0, symSize: 0x10 }
  - { offsetInCU: 0x15C512, offset: 0x168A7B, size: 0x8, addend: 0x0, symName: __ZNSt3__110shared_ptrIN7testing8internal26ParameterizedTestSuiteInfoI30PathChallengeResponseFrameTestE8TestInfoEEC1B8ue170006IS6_vEEPT_, symObjAddr: 0x1E560, symBinAddr: 0x1000200D0, symSize: 0x60 }
  - { offsetInCU: 0x15C70B, offset: 0x168C74, size: 0x8, addend: 0x0, symName: __ZNSt3__16vectorINS_10shared_ptrIN7testing8internal26ParameterizedTestSuiteInfoI30PathChallengeResponseFrameTestE8TestInfoEEENS_9allocatorIS8_EEE24__emplace_back_slow_pathIJPS7_EEEvDpOT_, symObjAddr: 0x1E390, symBinAddr: 0x10001FF00, symSize: 0x1D0 }
  - { offsetInCU: 0x15D319, offset: 0x169882, size: 0x8, addend: 0x0, symName: __ZNKSt3__16vectorINS_10shared_ptrIN7testing8internal26ParameterizedTestSuiteInfoI30PathChallengeResponseFrameTestE8TestInfoEEENS_9allocatorIS8_EEE20__throw_length_errorB8ue170006Ev, symObjAddr: 0x1E700, symBinAddr: 0x100020270, symSize: 0x10 }
  - { offsetInCU: 0x15D342, offset: 0x1698AB, size: 0x8, addend: 0x0, symName: __ZN7testing8internal15TestMetaFactoryI74PathChallengeResponseFrameTest_PathChallengeResponseFrameEncodeDecode_TestED1Ev, symObjAddr: 0x1E710, symBinAddr: 0x100020280, symSize: 0x10 }
  - { offsetInCU: 0x15D34E, offset: 0x1698B7, size: 0x8, addend: 0x0, symName: __ZNSt3__114__split_bufferINS_10shared_ptrIN7testing8internal26ParameterizedTestSuiteInfoI30PathChallengeResponseFrameTestE8TestInfoEEERNS_9allocatorIS8_EEED1Ev, symObjAddr: 0x1E680, symBinAddr: 0x1000201F0, symSize: 0x80 }
  - { offsetInCU: 0x15D8E2, offset: 0x169E4B, size: 0x8, addend: 0x0, symName: __ZNSt3__110shared_ptrIN7testing8internal26ParameterizedTestSuiteInfoI30PathChallengeResponseFrameTestE8TestInfoEEC1B8ue170006IS6_vEEPT_.cold.1, symObjAddr: 0x399B0, symBinAddr: 0x100419F70, symSize: 0x50 }
  - { offsetInCU: 0x15DC7C, offset: 0x16A1E5, size: 0x8, addend: 0x0, symName: __ZNSt3__120__shared_ptr_pointerIPN7testing8internal26ParameterizedTestSuiteInfoI30PathChallengeResponseFrameTestE8TestInfoENS_10shared_ptrIS6_E27__shared_ptr_default_deleteIS6_S6_EENS_9allocatorIS6_EEED1Ev, symObjAddr: 0x1E5C0, symBinAddr: 0x100020130, symSize: 0x10 }
  - { offsetInCU: 0x15DCD7, offset: 0x16A240, size: 0x8, addend: 0x0, symName: __ZNSt3__120__shared_ptr_pointerIPN7testing8internal26ParameterizedTestSuiteInfoI30PathChallengeResponseFrameTestE8TestInfoENS_10shared_ptrIS6_E27__shared_ptr_default_deleteIS6_S6_EENS_9allocatorIS6_EEED0Ev, symObjAddr: 0x1E5D0, symBinAddr: 0x100020140, symSize: 0x20 }
  - { offsetInCU: 0x15DD7A, offset: 0x16A2E3, size: 0x8, addend: 0x0, symName: __ZNSt3__120__shared_ptr_pointerIPN7testing8internal26ParameterizedTestSuiteInfoI30PathChallengeResponseFrameTestE8TestInfoENS_10shared_ptrIS6_E27__shared_ptr_default_deleteIS6_S6_EENS_9allocatorIS6_EEE16__on_zero_sharedEv, symObjAddr: 0x1E5F0, symBinAddr: 0x100020160, symSize: 0x60 }
  - { offsetInCU: 0x15E145, offset: 0x16A6AE, size: 0x8, addend: 0x0, symName: __ZNKSt3__120__shared_ptr_pointerIPN7testing8internal26ParameterizedTestSuiteInfoI30PathChallengeResponseFrameTestE8TestInfoENS_10shared_ptrIS6_E27__shared_ptr_default_deleteIS6_S6_EENS_9allocatorIS6_EEE13__get_deleterERKSt9type_info, symObjAddr: 0x1E650, symBinAddr: 0x1000201C0, symSize: 0x20 }
  - { offsetInCU: 0x15E20C, offset: 0x16A775, size: 0x8, addend: 0x0, symName: __ZNSt3__120__shared_ptr_pointerIPN7testing8internal26ParameterizedTestSuiteInfoI30PathChallengeResponseFrameTestE8TestInfoENS_10shared_ptrIS6_E27__shared_ptr_default_deleteIS6_S6_EENS_9allocatorIS6_EEE21__on_zero_shared_weakEv, symObjAddr: 0x1E670, symBinAddr: 0x1000201E0, symSize: 0x10 }
  - { offsetInCU: 0x15E2EA, offset: 0x16A853, size: 0x8, addend: 0x0, symName: __ZN7testing8internal15TestMetaFactoryI74PathChallengeResponseFrameTest_PathChallengeResponseFrameEncodeDecode_TestED1Ev, symObjAddr: 0x1E710, symBinAddr: 0x100020280, symSize: 0x10 }
  - { offsetInCU: 0x15E316, offset: 0x16A87F, size: 0x8, addend: 0x0, symName: __ZN7testing8internal15TestMetaFactoryI74PathChallengeResponseFrameTest_PathChallengeResponseFrameEncodeDecode_TestED0Ev, symObjAddr: 0x1E720, symBinAddr: 0x100020290, symSize: 0x10 }
  - { offsetInCU: 0x15E3AC, offset: 0x16A915, size: 0x8, addend: 0x0, symName: __ZN7testing8internal15TestMetaFactoryI74PathChallengeResponseFrameTest_PathChallengeResponseFrameEncodeDecode_TestE17CreateTestFactoryE15QUIC_FRAME_TYPE, symObjAddr: 0x1E730, symBinAddr: 0x1000202A0, symSize: 0x30 }
  - { offsetInCU: 0x15E432, offset: 0x16A99B, size: 0x8, addend: 0x0, symName: __ZN7testing8internal24ParameterizedTestFactoryI74PathChallengeResponseFrameTest_PathChallengeResponseFrameEncodeDecode_TestED1Ev, symObjAddr: 0x1E760, symBinAddr: 0x1000202D0, symSize: 0x10 }
  - { offsetInCU: 0x15E45E, offset: 0x16A9C7, size: 0x8, addend: 0x0, symName: __ZN7testing8internal24ParameterizedTestFactoryI74PathChallengeResponseFrameTest_PathChallengeResponseFrameEncodeDecode_TestED0Ev, symObjAddr: 0x1E770, symBinAddr: 0x1000202E0, symSize: 0x10 }
  - { offsetInCU: 0x15E4DB, offset: 0x16AA44, size: 0x8, addend: 0x0, symName: __ZN7testing8internal24ParameterizedTestFactoryI74PathChallengeResponseFrameTest_PathChallengeResponseFrameEncodeDecode_TestE10CreateTestEv, symObjAddr: 0x1E780, symBinAddr: 0x1000202F0, symSize: 0x60 }
  - { offsetInCU: 0x15E59D, offset: 0x16AB06, size: 0x8, addend: 0x0, symName: __ZN30PathChallengeResponseFrameTestD1Ev, symObjAddr: 0x1E7E0, symBinAddr: 0x100419A10, symSize: 0x10 }
  - { offsetInCU: 0x15E5BE, offset: 0x16AB27, size: 0x8, addend: 0x0, symName: __ZN30PathChallengeResponseFrameTestD0Ev, symObjAddr: 0x1E7F0, symBinAddr: 0x100419A20, symSize: 0x10 }
  - { offsetInCU: 0x15E5FC, offset: 0x16AB65, size: 0x8, addend: 0x0, symName: __ZThn16_N30PathChallengeResponseFrameTestD1Ev, symObjAddr: 0x1E800, symBinAddr: 0x100419A30, symSize: 0x10 }
  - { offsetInCU: 0x15E650, offset: 0x16ABB9, size: 0x8, addend: 0x0, symName: __ZThn16_N30PathChallengeResponseFrameTestD0Ev, symObjAddr: 0x1E810, symBinAddr: 0x100419A40, symSize: 0x10 }
  - { offsetInCU: 0x15E687, offset: 0x16ABF0, size: 0x8, addend: 0x0, symName: __ZN7testing8internal15TestMetaFactoryI72PathChallengeResponseFrameTest_DecodePathChallengeResponseFrameFail_TestED1Ev, symObjAddr: 0x1E820, symBinAddr: 0x100020350, symSize: 0x10 }
  - { offsetInCU: 0x15E6B3, offset: 0x16AC1C, size: 0x8, addend: 0x0, symName: __ZN7testing8internal15TestMetaFactoryI72PathChallengeResponseFrameTest_DecodePathChallengeResponseFrameFail_TestED0Ev, symObjAddr: 0x1E830, symBinAddr: 0x100020360, symSize: 0x10 }
  - { offsetInCU: 0x15E749, offset: 0x16ACB2, size: 0x8, addend: 0x0, symName: __ZN7testing8internal15TestMetaFactoryI72PathChallengeResponseFrameTest_DecodePathChallengeResponseFrameFail_TestE17CreateTestFactoryE15QUIC_FRAME_TYPE, symObjAddr: 0x1E840, symBinAddr: 0x100020370, symSize: 0x30 }
  - { offsetInCU: 0x15E7CF, offset: 0x16AD38, size: 0x8, addend: 0x0, symName: __ZN7testing8internal24ParameterizedTestFactoryI72PathChallengeResponseFrameTest_DecodePathChallengeResponseFrameFail_TestED1Ev, symObjAddr: 0x1E870, symBinAddr: 0x1000203A0, symSize: 0x10 }
  - { offsetInCU: 0x15E7FB, offset: 0x16AD64, size: 0x8, addend: 0x0, symName: __ZN7testing8internal24ParameterizedTestFactoryI72PathChallengeResponseFrameTest_DecodePathChallengeResponseFrameFail_TestED0Ev, symObjAddr: 0x1E880, symBinAddr: 0x1000203B0, symSize: 0x10 }
  - { offsetInCU: 0x15E85B, offset: 0x16ADC4, size: 0x8, addend: 0x0, symName: __ZN7testing8internal24ParameterizedTestFactoryI72PathChallengeResponseFrameTest_DecodePathChallengeResponseFrameFail_TestE10CreateTestEv, symObjAddr: 0x1E890, symBinAddr: 0x1000203C0, symSize: 0x60 }
  - { offsetInCU: 0x15EAEA, offset: 0x16B053, size: 0x8, addend: 0x0, symName: __ZNSt3__110shared_ptrIN7testing8internal26ParameterizedTestSuiteInfoI24ConnectionCloseFrameTestE8TestInfoEEC1B8ue170006IS6_vEEPT_, symObjAddr: 0x1ECC0, symBinAddr: 0x1000207F0, symSize: 0x60 }
  - { offsetInCU: 0x15ECE3, offset: 0x16B24C, size: 0x8, addend: 0x0, symName: __ZNSt3__16vectorINS_10shared_ptrIN7testing8internal26ParameterizedTestSuiteInfoI24ConnectionCloseFrameTestE8TestInfoEEENS_9allocatorIS8_EEE24__emplace_back_slow_pathIJPS7_EEEvDpOT_, symObjAddr: 0x1EAF0, symBinAddr: 0x100020620, symSize: 0x1D0 }
  - { offsetInCU: 0x15F8F1, offset: 0x16BE5A, size: 0x8, addend: 0x0, symName: __ZNKSt3__16vectorINS_10shared_ptrIN7testing8internal26ParameterizedTestSuiteInfoI24ConnectionCloseFrameTestE8TestInfoEEENS_9allocatorIS8_EEE20__throw_length_errorB8ue170006Ev, symObjAddr: 0x1EE60, symBinAddr: 0x100020990, symSize: 0x10 }
  - { offsetInCU: 0x15F91A, offset: 0x16BE83, size: 0x8, addend: 0x0, symName: __ZN7testing8internal15TestMetaFactoryI62ConnectionCloseFrameTest_ConnectionCloseFrameEncodeDecode_TestED1Ev, symObjAddr: 0x1EE70, symBinAddr: 0x1000209A0, symSize: 0x10 }
  - { offsetInCU: 0x15F926, offset: 0x16BE8F, size: 0x8, addend: 0x0, symName: __ZNSt3__114__split_bufferINS_10shared_ptrIN7testing8internal26ParameterizedTestSuiteInfoI24ConnectionCloseFrameTestE8TestInfoEEERNS_9allocatorIS8_EEED1Ev, symObjAddr: 0x1EDE0, symBinAddr: 0x100020910, symSize: 0x80 }
  - { offsetInCU: 0x15FEBA, offset: 0x16C423, size: 0x8, addend: 0x0, symName: __ZNSt3__110shared_ptrIN7testing8internal26ParameterizedTestSuiteInfoI24ConnectionCloseFrameTestE8TestInfoEEC1B8ue170006IS6_vEEPT_.cold.1, symObjAddr: 0x39A00, symBinAddr: 0x100419FC0, symSize: 0x50 }
  - { offsetInCU: 0x160254, offset: 0x16C7BD, size: 0x8, addend: 0x0, symName: __ZNSt3__120__shared_ptr_pointerIPN7testing8internal26ParameterizedTestSuiteInfoI24ConnectionCloseFrameTestE8TestInfoENS_10shared_ptrIS6_E27__shared_ptr_default_deleteIS6_S6_EENS_9allocatorIS6_EEED1Ev, symObjAddr: 0x1ED20, symBinAddr: 0x100020850, symSize: 0x10 }
  - { offsetInCU: 0x1602AF, offset: 0x16C818, size: 0x8, addend: 0x0, symName: __ZNSt3__120__shared_ptr_pointerIPN7testing8internal26ParameterizedTestSuiteInfoI24ConnectionCloseFrameTestE8TestInfoENS_10shared_ptrIS6_E27__shared_ptr_default_deleteIS6_S6_EENS_9allocatorIS6_EEED0Ev, symObjAddr: 0x1ED30, symBinAddr: 0x100020860, symSize: 0x20 }
  - { offsetInCU: 0x160352, offset: 0x16C8BB, size: 0x8, addend: 0x0, symName: __ZNSt3__120__shared_ptr_pointerIPN7testing8internal26ParameterizedTestSuiteInfoI24ConnectionCloseFrameTestE8TestInfoENS_10shared_ptrIS6_E27__shared_ptr_default_deleteIS6_S6_EENS_9allocatorIS6_EEE16__on_zero_sharedEv, symObjAddr: 0x1ED50, symBinAddr: 0x100020880, symSize: 0x60 }
  - { offsetInCU: 0x16071D, offset: 0x16CC86, size: 0x8, addend: 0x0, symName: __ZNKSt3__120__shared_ptr_pointerIPN7testing8internal26ParameterizedTestSuiteInfoI24ConnectionCloseFrameTestE8TestInfoENS_10shared_ptrIS6_E27__shared_ptr_default_deleteIS6_S6_EENS_9allocatorIS6_EEE13__get_deleterERKSt9type_info, symObjAddr: 0x1EDB0, symBinAddr: 0x1000208E0, symSize: 0x20 }
  - { offsetInCU: 0x1607E4, offset: 0x16CD4D, size: 0x8, addend: 0x0, symName: __ZNSt3__120__shared_ptr_pointerIPN7testing8internal26ParameterizedTestSuiteInfoI24ConnectionCloseFrameTestE8TestInfoENS_10shared_ptrIS6_E27__shared_ptr_default_deleteIS6_S6_EENS_9allocatorIS6_EEE21__on_zero_shared_weakEv, symObjAddr: 0x1EDD0, symBinAddr: 0x100020900, symSize: 0x10 }
  - { offsetInCU: 0x1608C2, offset: 0x16CE2B, size: 0x8, addend: 0x0, symName: __ZN7testing8internal15TestMetaFactoryI62ConnectionCloseFrameTest_ConnectionCloseFrameEncodeDecode_TestED1Ev, symObjAddr: 0x1EE70, symBinAddr: 0x1000209A0, symSize: 0x10 }
  - { offsetInCU: 0x1608EE, offset: 0x16CE57, size: 0x8, addend: 0x0, symName: __ZN7testing8internal15TestMetaFactoryI62ConnectionCloseFrameTest_ConnectionCloseFrameEncodeDecode_TestED0Ev, symObjAddr: 0x1EE80, symBinAddr: 0x1000209B0, symSize: 0x10 }
  - { offsetInCU: 0x160984, offset: 0x16CEED, size: 0x8, addend: 0x0, symName: __ZN7testing8internal15TestMetaFactoryI62ConnectionCloseFrameTest_ConnectionCloseFrameEncodeDecode_TestE17CreateTestFactoryEb, symObjAddr: 0x1EE90, symBinAddr: 0x1000209C0, symSize: 0x30 }
  - { offsetInCU: 0x160A02, offset: 0x16CF6B, size: 0x8, addend: 0x0, symName: __ZN7testing8internal24ParameterizedTestFactoryI62ConnectionCloseFrameTest_ConnectionCloseFrameEncodeDecode_TestED1Ev, symObjAddr: 0x1EEC0, symBinAddr: 0x1000209F0, symSize: 0x10 }
  - { offsetInCU: 0x160A2E, offset: 0x16CF97, size: 0x8, addend: 0x0, symName: __ZN7testing8internal24ParameterizedTestFactoryI62ConnectionCloseFrameTest_ConnectionCloseFrameEncodeDecode_TestED0Ev, symObjAddr: 0x1EED0, symBinAddr: 0x100020A00, symSize: 0x10 }
  - { offsetInCU: 0x160AAB, offset: 0x16D014, size: 0x8, addend: 0x0, symName: __ZN7testing8internal24ParameterizedTestFactoryI62ConnectionCloseFrameTest_ConnectionCloseFrameEncodeDecode_TestE10CreateTestEv, symObjAddr: 0x1EEE0, symBinAddr: 0x100020A10, symSize: 0x60 }
  - { offsetInCU: 0x160B6D, offset: 0x16D0D6, size: 0x8, addend: 0x0, symName: __ZN24ConnectionCloseFrameTestD1Ev, symObjAddr: 0x1EF40, symBinAddr: 0x100419A50, symSize: 0x10 }
  - { offsetInCU: 0x160B8E, offset: 0x16D0F7, size: 0x8, addend: 0x0, symName: __ZN24ConnectionCloseFrameTestD0Ev, symObjAddr: 0x1EF50, symBinAddr: 0x100419A60, symSize: 0x10 }
  - { offsetInCU: 0x160BCC, offset: 0x16D135, size: 0x8, addend: 0x0, symName: __ZThn16_N24ConnectionCloseFrameTestD1Ev, symObjAddr: 0x1EF60, symBinAddr: 0x100419A70, symSize: 0x10 }
  - { offsetInCU: 0x160C20, offset: 0x16D189, size: 0x8, addend: 0x0, symName: __ZThn16_N24ConnectionCloseFrameTestD0Ev, symObjAddr: 0x1EF70, symBinAddr: 0x100419A80, symSize: 0x10 }
  - { offsetInCU: 0x160F43, offset: 0x16D4AC, size: 0x8, addend: 0x0, symName: __ZNSt3__110shared_ptrIN7testing8internal26ParameterizedTestSuiteInfoI30ConnectionCloseFrameDecodeTestE8TestInfoEEC1B8ue170006IS6_vEEPT_, symObjAddr: 0x1F350, symBinAddr: 0x100020E40, symSize: 0x60 }
  - { offsetInCU: 0x16113C, offset: 0x16D6A5, size: 0x8, addend: 0x0, symName: __ZNSt3__16vectorINS_10shared_ptrIN7testing8internal26ParameterizedTestSuiteInfoI30ConnectionCloseFrameDecodeTestE8TestInfoEEENS_9allocatorIS8_EEE24__emplace_back_slow_pathIJPS7_EEEvDpOT_, symObjAddr: 0x1F180, symBinAddr: 0x100020C70, symSize: 0x1D0 }
  - { offsetInCU: 0x161D4A, offset: 0x16E2B3, size: 0x8, addend: 0x0, symName: __ZNKSt3__16vectorINS_10shared_ptrIN7testing8internal26ParameterizedTestSuiteInfoI30ConnectionCloseFrameDecodeTestE8TestInfoEEENS_9allocatorIS8_EEE20__throw_length_errorB8ue170006Ev, symObjAddr: 0x1F4F0, symBinAddr: 0x100020FE0, symSize: 0x10 }
  - { offsetInCU: 0x161D73, offset: 0x16E2DC, size: 0x8, addend: 0x0, symName: __ZN7testing8internal15TestMetaFactoryI66ConnectionCloseFrameDecodeTest_DecodeConnectionCloseFrameFail_TestED1Ev, symObjAddr: 0x1F500, symBinAddr: 0x100020FF0, symSize: 0x10 }
  - { offsetInCU: 0x161D7F, offset: 0x16E2E8, size: 0x8, addend: 0x0, symName: __ZNSt3__114__split_bufferINS_10shared_ptrIN7testing8internal26ParameterizedTestSuiteInfoI30ConnectionCloseFrameDecodeTestE8TestInfoEEERNS_9allocatorIS8_EEED1Ev, symObjAddr: 0x1F470, symBinAddr: 0x100020F60, symSize: 0x80 }
  - { offsetInCU: 0x162313, offset: 0x16E87C, size: 0x8, addend: 0x0, symName: __ZNSt3__110shared_ptrIN7testing8internal26ParameterizedTestSuiteInfoI30ConnectionCloseFrameDecodeTestE8TestInfoEEC1B8ue170006IS6_vEEPT_.cold.1, symObjAddr: 0x39A50, symBinAddr: 0x10041A010, symSize: 0x48 }
  - { offsetInCU: 0x1626AD, offset: 0x16EC16, size: 0x8, addend: 0x0, symName: __ZNSt3__120__shared_ptr_pointerIPN7testing8internal26ParameterizedTestSuiteInfoI30ConnectionCloseFrameDecodeTestE8TestInfoENS_10shared_ptrIS6_E27__shared_ptr_default_deleteIS6_S6_EENS_9allocatorIS6_EEED1Ev, symObjAddr: 0x1F3B0, symBinAddr: 0x100020EA0, symSize: 0x10 }
  - { offsetInCU: 0x162708, offset: 0x16EC71, size: 0x8, addend: 0x0, symName: __ZNSt3__120__shared_ptr_pointerIPN7testing8internal26ParameterizedTestSuiteInfoI30ConnectionCloseFrameDecodeTestE8TestInfoENS_10shared_ptrIS6_E27__shared_ptr_default_deleteIS6_S6_EENS_9allocatorIS6_EEED0Ev, symObjAddr: 0x1F3C0, symBinAddr: 0x100020EB0, symSize: 0x20 }
  - { offsetInCU: 0x162834, offset: 0x16ED9D, size: 0x8, addend: 0x0, symName: __ZNSt3__120__shared_ptr_pointerIPN7testing8internal26ParameterizedTestSuiteInfoI30ConnectionCloseFrameDecodeTestE8TestInfoENS_10shared_ptrIS6_E27__shared_ptr_default_deleteIS6_S6_EENS_9allocatorIS6_EEE16__on_zero_sharedEv, symObjAddr: 0x1F3E0, symBinAddr: 0x100020ED0, symSize: 0x60 }
  - { offsetInCU: 0x162BFF, offset: 0x16F168, size: 0x8, addend: 0x0, symName: __ZNKSt3__120__shared_ptr_pointerIPN7testing8internal26ParameterizedTestSuiteInfoI30ConnectionCloseFrameDecodeTestE8TestInfoENS_10shared_ptrIS6_E27__shared_ptr_default_deleteIS6_S6_EENS_9allocatorIS6_EEE13__get_deleterERKSt9type_info, symObjAddr: 0x1F440, symBinAddr: 0x100020F30, symSize: 0x20 }
  - { offsetInCU: 0x162CC6, offset: 0x16F22F, size: 0x8, addend: 0x0, symName: __ZNSt3__120__shared_ptr_pointerIPN7testing8internal26ParameterizedTestSuiteInfoI30ConnectionCloseFrameDecodeTestE8TestInfoENS_10shared_ptrIS6_E27__shared_ptr_default_deleteIS6_S6_EENS_9allocatorIS6_EEE21__on_zero_shared_weakEv, symObjAddr: 0x1F460, symBinAddr: 0x100020F50, symSize: 0x10 }
  - { offsetInCU: 0x162DA4, offset: 0x16F30D, size: 0x8, addend: 0x0, symName: __ZN7testing8internal15TestMetaFactoryI66ConnectionCloseFrameDecodeTest_DecodeConnectionCloseFrameFail_TestED1Ev, symObjAddr: 0x1F500, symBinAddr: 0x100020FF0, symSize: 0x10 }
  - { offsetInCU: 0x162DD0, offset: 0x16F339, size: 0x8, addend: 0x0, symName: __ZN7testing8internal15TestMetaFactoryI66ConnectionCloseFrameDecodeTest_DecodeConnectionCloseFrameFail_TestED0Ev, symObjAddr: 0x1F510, symBinAddr: 0x100021000, symSize: 0x10 }
  - { offsetInCU: 0x162E66, offset: 0x16F3CF, size: 0x8, addend: 0x0, symName: __ZN7testing8internal15TestMetaFactoryI66ConnectionCloseFrameDecodeTest_DecodeConnectionCloseFrameFail_TestE17CreateTestFactoryE26ConnectionCloseFrameParams, symObjAddr: 0x1F520, symBinAddr: 0x100021010, symSize: 0x30 }
  - { offsetInCU: 0x162EEC, offset: 0x16F455, size: 0x8, addend: 0x0, symName: __ZN7testing8internal24ParameterizedTestFactoryI66ConnectionCloseFrameDecodeTest_DecodeConnectionCloseFrameFail_TestED1Ev, symObjAddr: 0x1F550, symBinAddr: 0x100021040, symSize: 0x10 }
  - { offsetInCU: 0x162F18, offset: 0x16F481, size: 0x8, addend: 0x0, symName: __ZN7testing8internal24ParameterizedTestFactoryI66ConnectionCloseFrameDecodeTest_DecodeConnectionCloseFrameFail_TestED0Ev, symObjAddr: 0x1F560, symBinAddr: 0x100021050, symSize: 0x10 }
  - { offsetInCU: 0x162FC6, offset: 0x16F52F, size: 0x8, addend: 0x0, symName: __ZN7testing8internal24ParameterizedTestFactoryI66ConnectionCloseFrameDecodeTest_DecodeConnectionCloseFrameFail_TestE10CreateTestEv, symObjAddr: 0x1F570, symBinAddr: 0x100021060, symSize: 0x60 }
  - { offsetInCU: 0x163088, offset: 0x16F5F1, size: 0x8, addend: 0x0, symName: __ZN30ConnectionCloseFrameDecodeTestD1Ev, symObjAddr: 0x1F5D0, symBinAddr: 0x100419A90, symSize: 0x10 }
  - { offsetInCU: 0x1630A9, offset: 0x16F612, size: 0x8, addend: 0x0, symName: __ZN30ConnectionCloseFrameDecodeTestD0Ev, symObjAddr: 0x1F5E0, symBinAddr: 0x100419AA0, symSize: 0x10 }
  - { offsetInCU: 0x1630E7, offset: 0x16F650, size: 0x8, addend: 0x0, symName: __ZThn16_N30ConnectionCloseFrameDecodeTestD1Ev, symObjAddr: 0x1F5F0, symBinAddr: 0x100419AB0, symSize: 0x10 }
  - { offsetInCU: 0x16313B, offset: 0x16F6A4, size: 0x8, addend: 0x0, symName: __ZThn16_N30ConnectionCloseFrameDecodeTestD0Ev, symObjAddr: 0x1F600, symBinAddr: 0x100419AC0, symSize: 0x10 }
  - { offsetInCU: 0x163172, offset: 0x16F6DB, size: 0x8, addend: 0x0, symName: __ZN7testing13TestWithParamI26ConnectionCloseFrameParamsED1Ev, symObjAddr: 0x1F610, symBinAddr: 0x100419AD0, symSize: 0x10 }
  - { offsetInCU: 0x163193, offset: 0x16F6FC, size: 0x8, addend: 0x0, symName: __ZN7testing13TestWithParamI26ConnectionCloseFrameParamsED0Ev, symObjAddr: 0x1F620, symBinAddr: 0x100419AE0, symSize: 0x10 }
  - { offsetInCU: 0x1631D1, offset: 0x16F73A, size: 0x8, addend: 0x0, symName: __ZThn16_N7testing13TestWithParamI26ConnectionCloseFrameParamsED1Ev, symObjAddr: 0x1F630, symBinAddr: 0x100419AF0, symSize: 0x10 }
  - { offsetInCU: 0x163225, offset: 0x16F78E, size: 0x8, addend: 0x0, symName: __ZThn16_N7testing13TestWithParamI26ConnectionCloseFrameParamsED0Ev, symObjAddr: 0x1F640, symBinAddr: 0x100419B00, symSize: 0x10 }
  - { offsetInCU: 0x16325C, offset: 0x16F7C5, size: 0x8, addend: 0x0, symName: __ZN7testing18WithParamInterfaceI26ConnectionCloseFrameParamsED1Ev, symObjAddr: 0x1F650, symBinAddr: 0x1000210C0, symSize: 0x10 }
  - { offsetInCU: 0x163285, offset: 0x16F7EE, size: 0x8, addend: 0x0, symName: __ZN7testing18WithParamInterfaceI26ConnectionCloseFrameParamsED0Ev, symObjAddr: 0x1F660, symBinAddr: 0x1000210D0, symSize: 0x10 }
  - { offsetInCU: 0x163693, offset: 0x16FBFC, size: 0x8, addend: 0x0, symName: __ZNKSt3__16vectorI26ConnectionCloseFrameParamsNS_9allocatorIS1_EEE20__throw_length_errorB8ue170006Ev, symObjAddr: 0x1FD60, symBinAddr: 0x1000217D0, symSize: 0x10 }
  - { offsetInCU: 0x1636BC, offset: 0x16FC25, size: 0x8, addend: 0x0, symName: __ZN7testing8internal30ValuesInIteratorRangeGeneratorI26ConnectionCloseFrameParamsE8IteratorD1Ev, symObjAddr: 0x1FD70, symBinAddr: 0x1000217E0, symSize: 0x30 }
  - { offsetInCU: 0x163D47, offset: 0x1702B0, size: 0x8, addend: 0x0, symName: __ZN7testing8internal30ValuesInIteratorRangeGeneratorI26ConnectionCloseFrameParamsED0Ev, symObjAddr: 0x1FCA0, symBinAddr: 0x100021710, symSize: 0x40 }
  - { offsetInCU: 0x163F22, offset: 0x17048B, size: 0x8, addend: 0x0, symName: __ZN7testing8internal30ValuesInIteratorRangeGeneratorI26ConnectionCloseFrameParamsED1Ev, symObjAddr: 0x1FC70, symBinAddr: 0x1000216E0, symSize: 0x30 }
  - { offsetInCU: 0x16422A, offset: 0x170793, size: 0x8, addend: 0x0, symName: __ZNK7testing8internal30ValuesInIteratorRangeGeneratorI26ConnectionCloseFrameParamsE5BeginEv, symObjAddr: 0x1FCE0, symBinAddr: 0x100021750, symSize: 0x40 }
  - { offsetInCU: 0x164371, offset: 0x1708DA, size: 0x8, addend: 0x0, symName: __ZNK7testing8internal30ValuesInIteratorRangeGeneratorI26ConnectionCloseFrameParamsE3EndEv, symObjAddr: 0x1FD20, symBinAddr: 0x100021790, symSize: 0x40 }
  - { offsetInCU: 0x16455B, offset: 0x170AC4, size: 0x8, addend: 0x0, symName: __ZN7testing8internal30ValuesInIteratorRangeGeneratorI26ConnectionCloseFrameParamsE8IteratorD1Ev, symObjAddr: 0x1FD70, symBinAddr: 0x1000217E0, symSize: 0x30 }
  - { offsetInCU: 0x164656, offset: 0x170BBF, size: 0x8, addend: 0x0, symName: __ZN7testing8internal30ValuesInIteratorRangeGeneratorI26ConnectionCloseFrameParamsE8IteratorD0Ev, symObjAddr: 0x1FDA0, symBinAddr: 0x100021810, symSize: 0x40 }
  - { offsetInCU: 0x16475C, offset: 0x170CC5, size: 0x8, addend: 0x0, symName: __ZNK7testing8internal30ValuesInIteratorRangeGeneratorI26ConnectionCloseFrameParamsE8Iterator13BaseGeneratorEv, symObjAddr: 0x1FDE0, symBinAddr: 0x100021850, symSize: 0x10 }
  - { offsetInCU: 0x16479C, offset: 0x170D05, size: 0x8, addend: 0x0, symName: __ZN7testing8internal30ValuesInIteratorRangeGeneratorI26ConnectionCloseFrameParamsE8Iterator7AdvanceEv, symObjAddr: 0x1FDF0, symBinAddr: 0x100021860, symSize: 0x30 }
  - { offsetInCU: 0x16488B, offset: 0x170DF4, size: 0x8, addend: 0x0, symName: __ZNK7testing8internal30ValuesInIteratorRangeGeneratorI26ConnectionCloseFrameParamsE8Iterator5CloneEv, symObjAddr: 0x1FE20, symBinAddr: 0x100021890, symSize: 0x40 }
  - { offsetInCU: 0x1649D7, offset: 0x170F40, size: 0x8, addend: 0x0, symName: __ZNK7testing8internal30ValuesInIteratorRangeGeneratorI26ConnectionCloseFrameParamsE8Iterator7CurrentEv, symObjAddr: 0x1FE60, symBinAddr: 0x1000218D0, symSize: 0x40 }
  - { offsetInCU: 0x164A75, offset: 0x170FDE, size: 0x8, addend: 0x0, symName: __ZNK7testing8internal30ValuesInIteratorRangeGeneratorI26ConnectionCloseFrameParamsE8Iterator6EqualsERKNS0_22ParamIteratorInterfaceIS2_EE, symObjAddr: 0x1FEA0, symBinAddr: 0x100021910, symSize: 0x140 }
  - { offsetInCU: 0x164CC3, offset: 0x17122C, size: 0x8, addend: 0x0, symName: __ZNSt3__120__shared_ptr_pointerIPN7testing8internal23ParamGeneratorInterfaceI26ConnectionCloseFrameParamsEENS_10shared_ptrIKS5_E27__shared_ptr_default_deleteIS8_S5_EENS_9allocatorIS5_EEED1Ev, symObjAddr: 0x20080, symBinAddr: 0x100021AF0, symSize: 0x10 }
  - { offsetInCU: 0x164D1E, offset: 0x171287, size: 0x8, addend: 0x0, symName: __ZNSt3__120__shared_ptr_pointerIPN7testing8internal23ParamGeneratorInterfaceI26ConnectionCloseFrameParamsEENS_10shared_ptrIKS5_E27__shared_ptr_default_deleteIS8_S5_EENS_9allocatorIS5_EEED0Ev, symObjAddr: 0x20090, symBinAddr: 0x100021B00, symSize: 0x20 }
  - { offsetInCU: 0x164D87, offset: 0x1712F0, size: 0x8, addend: 0x0, symName: __ZNSt3__120__shared_ptr_pointerIPN7testing8internal23ParamGeneratorInterfaceI26ConnectionCloseFrameParamsEENS_10shared_ptrIKS5_E27__shared_ptr_default_deleteIS8_S5_EENS_9allocatorIS5_EEE16__on_zero_sharedEv, symObjAddr: 0x200B0, symBinAddr: 0x100021B20, symSize: 0x20 }
  - { offsetInCU: 0x164DDB, offset: 0x171344, size: 0x8, addend: 0x0, symName: __ZNKSt3__120__shared_ptr_pointerIPN7testing8internal23ParamGeneratorInterfaceI26ConnectionCloseFrameParamsEENS_10shared_ptrIKS5_E27__shared_ptr_default_deleteIS8_S5_EENS_9allocatorIS5_EEE13__get_deleterERKSt9type_info, symObjAddr: 0x200D0, symBinAddr: 0x100021B40, symSize: 0x20 }
  - { offsetInCU: 0x164EA2, offset: 0x17140B, size: 0x8, addend: 0x0, symName: __ZNSt3__120__shared_ptr_pointerIPN7testing8internal23ParamGeneratorInterfaceI26ConnectionCloseFrameParamsEENS_10shared_ptrIKS5_E27__shared_ptr_default_deleteIS8_S5_EENS_9allocatorIS5_EEE21__on_zero_shared_weakEv, symObjAddr: 0x200F0, symBinAddr: 0x100021B60, symSize: 0x10 }
  - { offsetInCU: 0x1650EE, offset: 0x171657, size: 0x8, addend: 0x0, symName: __ZNKSt3__121__murmur2_or_cityhashImLm64EEclB8ue170006EPKvm, symObjAddr: 0x203E0, symBinAddr: 0x100021E50, symSize: 0x4B0 }
  - { offsetInCU: 0x165ED9, offset: 0x172442, size: 0x8, addend: 0x0, symName: __ZN7testing8internal26ParameterizedTestSuiteInfoI12AckFrameTestED1Ev, symObjAddr: 0x20890, symBinAddr: 0x100022300, symSize: 0x10 }
  - { offsetInCU: 0x165F11, offset: 0x17247A, size: 0x8, addend: 0x0, symName: __ZN7testing8internal26ParameterizedTestSuiteInfoI12AckFrameTestED2Ev, symObjAddr: 0x21790, symBinAddr: 0x100023200, symSize: 0xF0 }
  - { offsetInCU: 0x166744, offset: 0x172CAD, size: 0x8, addend: 0x0, symName: __ZN7testing8internal26ParameterizedTestSuiteInfoI12AckFrameTestED0Ev, symObjAddr: 0x208A0, symBinAddr: 0x100022310, symSize: 0x20 }
  - { offsetInCU: 0x1667A8, offset: 0x172D11, size: 0x8, addend: 0x0, symName: __ZNK7testing8internal26ParameterizedTestSuiteInfoI12AckFrameTestE16GetTestSuiteNameEv, symObjAddr: 0x208C0, symBinAddr: 0x100022330, symSize: 0x10 }
  - { offsetInCU: 0x1667CD, offset: 0x172D36, size: 0x8, addend: 0x0, symName: __ZNK7testing8internal26ParameterizedTestSuiteInfoI12AckFrameTestE18GetTestSuiteTypeIdEv, symObjAddr: 0x208D0, symBinAddr: 0x100022340, symSize: 0x10 }
  - { offsetInCU: 0x167371, offset: 0x1738DA, size: 0x8, addend: 0x0, symName: __ZN7testing8internal26ParameterizedTestSuiteInfoI12AckFrameTestE13RegisterTestsEv, symObjAddr: 0x208E0, symBinAddr: 0x100022350, symSize: 0xEB0 }
  - { offsetInCU: 0x16B611, offset: 0x177B7A, size: 0x8, addend: 0x0, symName: __ZN7testing8internal26ParameterizedTestSuiteInfoI12AckFrameTestE16IsValidParamNameERKNSt3__112basic_stringIcNS4_11char_traitsIcEENS4_9allocatorIcEEEE, symObjAddr: 0x21880, symBinAddr: 0x1000232F0, symSize: 0xE0 }
  - { offsetInCU: 0x16B865, offset: 0x177DCE, size: 0x8, addend: 0x0, symName: __ZNSt3__16__treeINS_12basic_stringIcNS_11char_traitsIcEENS_9allocatorIcEEEENS_4lessIS6_EENS4_IS6_EEE12__find_equalIS6_EERPNS_16__tree_node_baseIPvEERPNS_15__tree_end_nodeISF_EERKT_, symObjAddr: 0x21B00, symBinAddr: 0x100023570, symSize: 0x120 }
  - { offsetInCU: 0x16BAC6, offset: 0x17802F, size: 0x8, addend: 0x0, symName: __ZN7testing8internal16SuiteApiResolverI12AckFrameTestE19GetSetUpCaseOrSuiteEPKci, symObjAddr: 0x21960, symBinAddr: 0x1000233D0, symSize: 0xD0 }
  - { offsetInCU: 0x16BC6D, offset: 0x1781D6, size: 0x8, addend: 0x0, symName: __ZN7testing8internal16SuiteApiResolverI12AckFrameTestE22GetTearDownCaseOrSuiteEPKci, symObjAddr: 0x21A30, symBinAddr: 0x1000234A0, symSize: 0xD0 }
  - { offsetInCU: 0x16BE14, offset: 0x17837D, size: 0x8, addend: 0x0, symName: __ZNSt3__16__treeINS_12basic_stringIcNS_11char_traitsIcEENS_9allocatorIcEEEENS_4lessIS6_EENS4_IS6_EEE7destroyEPNS_11__tree_nodeIS6_PvEE, symObjAddr: 0x21DC0, symBinAddr: 0x100023830, symSize: 0x50 }
  - { offsetInCU: 0x16C838, offset: 0x178DA1, size: 0x8, addend: 0x0, symName: __ZNSt3__112__hash_tableINS_17__hash_value_typeINS_12basic_stringIcNS_11char_traitsIcEENS_9allocatorIcEEEEmEENS_22__unordered_map_hasherIS7_S8_NS_4hashIS7_EENS_8equal_toIS7_EELb1EEENS_21__unordered_map_equalIS7_S8_SD_SB_Lb1EEENS5_IS8_EEE8__rehashILb1EEEvm, symObjAddr: 0x22260, symBinAddr: 0x100023CD0, symSize: 0x150 }
  - { offsetInCU: 0x16C928, offset: 0x178E91, size: 0x8, addend: 0x0, symName: __ZNSt3__110unique_ptrINS_11__hash_nodeINS_17__hash_value_typeINS_12basic_stringIcNS_11char_traitsIcEENS_9allocatorIcEEEEmEEPvEENS_22__hash_node_destructorINS6_ISB_EEEEED1B8ue170006Ev, symObjAddr: 0x22220, symBinAddr: 0x100023C90, symSize: 0x40 }
  - { offsetInCU: 0x16CD52, offset: 0x1792BB, size: 0x8, addend: 0x0, symName: __ZNSt3__112__hash_tableINS_17__hash_value_typeINS_12basic_stringIcNS_11char_traitsIcEENS_9allocatorIcEEEEmEENS_22__unordered_map_hasherIS7_S8_NS_4hashIS7_EENS_8equal_toIS7_EELb1EEENS_21__unordered_map_equalIS7_S8_SD_SB_Lb1EEENS5_IS8_EEE11__do_rehashILb1EEEvm, symObjAddr: 0x223B0, symBinAddr: 0x100023E20, symSize: 0x1B0 }
  - { offsetInCU: 0x16DA17, offset: 0x179F80, size: 0x8, addend: 0x0, symName: __ZNSt3__16vectorIN7testing8internal26ParameterizedTestSuiteInfoI12AckFrameTestE17InstantiationInfoENS_9allocatorIS6_EEE24__emplace_back_slow_pathIJNS_12basic_stringIcNS_11char_traitsIcEENS7_IcEEEERPFNS2_14ParamGeneratorI15QUIC_FRAME_TYPEEEvERPFSF_RKNS1_13TestParamInfoISH_EEERPKcRiEEEvDpOT_, symObjAddr: 0x22C30, symBinAddr: 0x1000246A0, symSize: 0x230 }
  - { offsetInCU: 0x16E358, offset: 0x17A8C1, size: 0x8, addend: 0x0, symName: __ZNKSt3__16vectorIN7testing8internal26ParameterizedTestSuiteInfoI12AckFrameTestE17InstantiationInfoENS_9allocatorIS6_EEE20__throw_length_errorB8ue170006Ev, symObjAddr: 0x22E60, symBinAddr: 0x1000248D0, symSize: 0x10 }
  - { offsetInCU: 0x16E381, offset: 0x17A8EA, size: 0x8, addend: 0x0, symName: __ZN7testing8internal27CheckedDowncastToActualTypeINS0_26ParameterizedTestSuiteInfoI20ResetStreamFrameTestEENS0_30ParameterizedTestSuiteInfoBaseEEEPT_PT0_, symObjAddr: 0x22E70, symBinAddr: 0x1000248E0, symSize: 0xA0 }
  - { offsetInCU: 0x16E38D, offset: 0x17A8F6, size: 0x8, addend: 0x0, symName: __ZN7testing8internal26ParameterizedTestSuiteInfoI20ResetStreamFrameTestED1Ev, symObjAddr: 0x22F10, symBinAddr: 0x100024980, symSize: 0x10 }
  - { offsetInCU: 0x16E3C5, offset: 0x17A92E, size: 0x8, addend: 0x0, symName: __ZN7testing8internal26ParameterizedTestSuiteInfoI20ResetStreamFrameTestED2Ev, symObjAddr: 0x23E30, symBinAddr: 0x1000258A0, symSize: 0xF0 }
  - { offsetInCU: 0x16EBF8, offset: 0x17B161, size: 0x8, addend: 0x0, symName: __ZN7testing8internal26ParameterizedTestSuiteInfoI20ResetStreamFrameTestED0Ev, symObjAddr: 0x22F20, symBinAddr: 0x100024990, symSize: 0x20 }
  - { offsetInCU: 0x16EC5C, offset: 0x17B1C5, size: 0x8, addend: 0x0, symName: __ZNK7testing8internal26ParameterizedTestSuiteInfoI20ResetStreamFrameTestE16GetTestSuiteNameEv, symObjAddr: 0x22F40, symBinAddr: 0x1000249B0, symSize: 0x10 }
  - { offsetInCU: 0x16EC81, offset: 0x17B1EA, size: 0x8, addend: 0x0, symName: __ZNK7testing8internal26ParameterizedTestSuiteInfoI20ResetStreamFrameTestE18GetTestSuiteTypeIdEv, symObjAddr: 0x22F50, symBinAddr: 0x1000249C0, symSize: 0x10 }
  - { offsetInCU: 0x16EF82, offset: 0x17B4EB, size: 0x8, addend: 0x0, symName: __ZN7testing8internal26ParameterizedTestSuiteInfoI20ResetStreamFrameTestE13RegisterTestsEv, symObjAddr: 0x22F60, symBinAddr: 0x1000249D0, symSize: 0xED0 }
  - { offsetInCU: 0x173222, offset: 0x17F78B, size: 0x8, addend: 0x0, symName: __ZN7testing8internal26ParameterizedTestSuiteInfoI20ResetStreamFrameTestE16IsValidParamNameERKNSt3__112basic_stringIcNS4_11char_traitsIcEENS4_9allocatorIcEEEE, symObjAddr: 0x23F20, symBinAddr: 0x100025990, symSize: 0xE0 }
  - { offsetInCU: 0x173476, offset: 0x17F9DF, size: 0x8, addend: 0x0, symName: __ZN7testing8internal16SuiteApiResolverI20ResetStreamFrameTestE19GetSetUpCaseOrSuiteEPKci, symObjAddr: 0x240F0, symBinAddr: 0x100025B60, symSize: 0xD0 }
  - { offsetInCU: 0x17361D, offset: 0x17FB86, size: 0x8, addend: 0x0, symName: __ZN7testing8internal16SuiteApiResolverI20ResetStreamFrameTestE22GetTearDownCaseOrSuiteEPKci, symObjAddr: 0x241C0, symBinAddr: 0x100025C30, symSize: 0xD0 }
  - { offsetInCU: 0x173F1D, offset: 0x180486, size: 0x8, addend: 0x0, symName: __ZNSt3__16vectorIN7testing8internal26ParameterizedTestSuiteInfoI20ResetStreamFrameTestE17InstantiationInfoENS_9allocatorIS6_EEE24__emplace_back_slow_pathIJNS_12basic_stringIcNS_11char_traitsIcEENS7_IcEEEERPFNS2_14ParamGeneratorI22ResetStreamFrameParamsEEvERPFSF_RKNS1_13TestParamInfoISH_EEERPKcRiEEEvDpOT_, symObjAddr: 0x24290, symBinAddr: 0x100025D00, symSize: 0x230 }
  - { offsetInCU: 0x17485E, offset: 0x180DC7, size: 0x8, addend: 0x0, symName: __ZNKSt3__16vectorIN7testing8internal26ParameterizedTestSuiteInfoI20ResetStreamFrameTestE17InstantiationInfoENS_9allocatorIS6_EEE20__throw_length_errorB8ue170006Ev, symObjAddr: 0x244C0, symBinAddr: 0x100025F30, symSize: 0x10 }
  - { offsetInCU: 0x174887, offset: 0x180DF0, size: 0x8, addend: 0x0, symName: __ZN7testing8internal27CheckedDowncastToActualTypeINS0_26ParameterizedTestSuiteInfoI20StopSendingFrameTestEENS0_30ParameterizedTestSuiteInfoBaseEEEPT_PT0_, symObjAddr: 0x244D0, symBinAddr: 0x100025F40, symSize: 0xA0 }
  - { offsetInCU: 0x174893, offset: 0x180DFC, size: 0x8, addend: 0x0, symName: __ZN7testing8internal26ParameterizedTestSuiteInfoI20StopSendingFrameTestED1Ev, symObjAddr: 0x24570, symBinAddr: 0x100025FE0, symSize: 0x10 }
  - { offsetInCU: 0x1748CB, offset: 0x180E34, size: 0x8, addend: 0x0, symName: __ZN7testing8internal26ParameterizedTestSuiteInfoI20StopSendingFrameTestED2Ev, symObjAddr: 0x25490, symBinAddr: 0x100026F00, symSize: 0xF0 }
  - { offsetInCU: 0x1750FE, offset: 0x181667, size: 0x8, addend: 0x0, symName: __ZN7testing8internal26ParameterizedTestSuiteInfoI20StopSendingFrameTestED0Ev, symObjAddr: 0x24580, symBinAddr: 0x100025FF0, symSize: 0x20 }
  - { offsetInCU: 0x175162, offset: 0x1816CB, size: 0x8, addend: 0x0, symName: __ZNK7testing8internal26ParameterizedTestSuiteInfoI20StopSendingFrameTestE16GetTestSuiteNameEv, symObjAddr: 0x245A0, symBinAddr: 0x100026010, symSize: 0x10 }
  - { offsetInCU: 0x175187, offset: 0x1816F0, size: 0x8, addend: 0x0, symName: __ZNK7testing8internal26ParameterizedTestSuiteInfoI20StopSendingFrameTestE18GetTestSuiteTypeIdEv, symObjAddr: 0x245B0, symBinAddr: 0x100026020, symSize: 0x10 }
  - { offsetInCU: 0x175488, offset: 0x1819F1, size: 0x8, addend: 0x0, symName: __ZN7testing8internal26ParameterizedTestSuiteInfoI20StopSendingFrameTestE13RegisterTestsEv, symObjAddr: 0x245C0, symBinAddr: 0x100026030, symSize: 0xED0 }
  - { offsetInCU: 0x179728, offset: 0x185C91, size: 0x8, addend: 0x0, symName: __ZN7testing8internal26ParameterizedTestSuiteInfoI20StopSendingFrameTestE16IsValidParamNameERKNSt3__112basic_stringIcNS4_11char_traitsIcEENS4_9allocatorIcEEEE, symObjAddr: 0x25580, symBinAddr: 0x100026FF0, symSize: 0xE0 }
  - { offsetInCU: 0x17997C, offset: 0x185EE5, size: 0x8, addend: 0x0, symName: __ZN7testing8internal16SuiteApiResolverI20StopSendingFrameTestE19GetSetUpCaseOrSuiteEPKci, symObjAddr: 0x25750, symBinAddr: 0x1000271C0, symSize: 0xD0 }
  - { offsetInCU: 0x179B23, offset: 0x18608C, size: 0x8, addend: 0x0, symName: __ZN7testing8internal16SuiteApiResolverI20StopSendingFrameTestE22GetTearDownCaseOrSuiteEPKci, symObjAddr: 0x25820, symBinAddr: 0x100027290, symSize: 0xD0 }
  - { offsetInCU: 0x17A423, offset: 0x18698C, size: 0x8, addend: 0x0, symName: __ZNSt3__16vectorIN7testing8internal26ParameterizedTestSuiteInfoI20StopSendingFrameTestE17InstantiationInfoENS_9allocatorIS6_EEE24__emplace_back_slow_pathIJNS_12basic_stringIcNS_11char_traitsIcEENS7_IcEEEERPFNS2_14ParamGeneratorI22StopSendingFrameParamsEEvERPFSF_RKNS1_13TestParamInfoISH_EEERPKcRiEEEvDpOT_, symObjAddr: 0x258F0, symBinAddr: 0x100027360, symSize: 0x230 }
  - { offsetInCU: 0x17AD64, offset: 0x1872CD, size: 0x8, addend: 0x0, symName: __ZNKSt3__16vectorIN7testing8internal26ParameterizedTestSuiteInfoI20StopSendingFrameTestE17InstantiationInfoENS_9allocatorIS6_EEE20__throw_length_errorB8ue170006Ev, symObjAddr: 0x25B20, symBinAddr: 0x100027590, symSize: 0x10 }
  - { offsetInCU: 0x17AD8D, offset: 0x1872F6, size: 0x8, addend: 0x0, symName: __ZN7testing8internal18CmpHelperEQFailureIiiEENS_15AssertionResultEPKcS4_RKT_RKT0_, symObjAddr: 0x25B30, symBinAddr: 0x1000275A0, symSize: 0xC0 }
  - { offsetInCU: 0x17ADAD, offset: 0x187316, size: 0x8, addend: 0x0, symName: __ZN7testing8internal26ParameterizedTestSuiteInfoI15CryptoFrameTestED1Ev, symObjAddr: 0x25C90, symBinAddr: 0x100027700, symSize: 0x10 }
  - { offsetInCU: 0x17ADE5, offset: 0x18734E, size: 0x8, addend: 0x0, symName: __ZN7testing8internal26ParameterizedTestSuiteInfoI15CryptoFrameTestED2Ev, symObjAddr: 0x26BA0, symBinAddr: 0x100028610, symSize: 0xF0 }
  - { offsetInCU: 0x17B618, offset: 0x187B81, size: 0x8, addend: 0x0, symName: __ZN7testing8internal26ParameterizedTestSuiteInfoI15CryptoFrameTestED0Ev, symObjAddr: 0x25CA0, symBinAddr: 0x100027710, symSize: 0x20 }
  - { offsetInCU: 0x17B67C, offset: 0x187BE5, size: 0x8, addend: 0x0, symName: __ZNK7testing8internal26ParameterizedTestSuiteInfoI15CryptoFrameTestE16GetTestSuiteNameEv, symObjAddr: 0x25CC0, symBinAddr: 0x100027730, symSize: 0x10 }
  - { offsetInCU: 0x17B6A1, offset: 0x187C0A, size: 0x8, addend: 0x0, symName: __ZNK7testing8internal26ParameterizedTestSuiteInfoI15CryptoFrameTestE18GetTestSuiteTypeIdEv, symObjAddr: 0x25CD0, symBinAddr: 0x100027740, symSize: 0x10 }
  - { offsetInCU: 0x17B9A2, offset: 0x187F0B, size: 0x8, addend: 0x0, symName: __ZN7testing8internal26ParameterizedTestSuiteInfoI15CryptoFrameTestE13RegisterTestsEv, symObjAddr: 0x25CE0, symBinAddr: 0x100027750, symSize: 0xEC0 }
  - { offsetInCU: 0x17FC42, offset: 0x18C1AB, size: 0x8, addend: 0x0, symName: __ZN7testing8internal26ParameterizedTestSuiteInfoI15CryptoFrameTestE16IsValidParamNameERKNSt3__112basic_stringIcNS4_11char_traitsIcEENS4_9allocatorIcEEEE, symObjAddr: 0x26C90, symBinAddr: 0x100028700, symSize: 0xE0 }
  - { offsetInCU: 0x17FE96, offset: 0x18C3FF, size: 0x8, addend: 0x0, symName: __ZN7testing8internal16SuiteApiResolverI15CryptoFrameTestE19GetSetUpCaseOrSuiteEPKci, symObjAddr: 0x26E60, symBinAddr: 0x1000288D0, symSize: 0xD0 }
  - { offsetInCU: 0x18003D, offset: 0x18C5A6, size: 0x8, addend: 0x0, symName: __ZN7testing8internal16SuiteApiResolverI15CryptoFrameTestE22GetTearDownCaseOrSuiteEPKci, symObjAddr: 0x26F30, symBinAddr: 0x1000289A0, symSize: 0xD0 }
  - { offsetInCU: 0x18093D, offset: 0x18CEA6, size: 0x8, addend: 0x0, symName: __ZNSt3__16vectorIN7testing8internal26ParameterizedTestSuiteInfoI15CryptoFrameTestE17InstantiationInfoENS_9allocatorIS6_EEE24__emplace_back_slow_pathIJNS_12basic_stringIcNS_11char_traitsIcEENS7_IcEEEERPFNS2_14ParamGeneratorI17CryptoFrameParamsEEvERPFSF_RKNS1_13TestParamInfoISH_EEERPKcRiEEEvDpOT_, symObjAddr: 0x27000, symBinAddr: 0x100028A70, symSize: 0x230 }
  - { offsetInCU: 0x18127E, offset: 0x18D7E7, size: 0x8, addend: 0x0, symName: __ZNKSt3__16vectorIN7testing8internal26ParameterizedTestSuiteInfoI15CryptoFrameTestE17InstantiationInfoENS_9allocatorIS6_EEE20__throw_length_errorB8ue170006Ev, symObjAddr: 0x27230, symBinAddr: 0x100028CA0, symSize: 0x10 }
  - { offsetInCU: 0x1812A7, offset: 0x18D810, size: 0x8, addend: 0x0, symName: __ZN7testing8internal27CheckedDowncastToActualTypeINS0_26ParameterizedTestSuiteInfoI17NewTokenFrameTestEENS0_30ParameterizedTestSuiteInfoBaseEEEPT_PT0_, symObjAddr: 0x27240, symBinAddr: 0x100028CB0, symSize: 0xA0 }
  - { offsetInCU: 0x1812B3, offset: 0x18D81C, size: 0x8, addend: 0x0, symName: __ZN7testing8internal26ParameterizedTestSuiteInfoI17NewTokenFrameTestED1Ev, symObjAddr: 0x272E0, symBinAddr: 0x100028D50, symSize: 0x10 }
  - { offsetInCU: 0x1812EB, offset: 0x18D854, size: 0x8, addend: 0x0, symName: __ZN7testing8internal26ParameterizedTestSuiteInfoI17NewTokenFrameTestED2Ev, symObjAddr: 0x28200, symBinAddr: 0x100029C70, symSize: 0xF0 }
  - { offsetInCU: 0x181B1E, offset: 0x18E087, size: 0x8, addend: 0x0, symName: __ZN7testing8internal26ParameterizedTestSuiteInfoI17NewTokenFrameTestED0Ev, symObjAddr: 0x272F0, symBinAddr: 0x100028D60, symSize: 0x20 }
  - { offsetInCU: 0x181B82, offset: 0x18E0EB, size: 0x8, addend: 0x0, symName: __ZNK7testing8internal26ParameterizedTestSuiteInfoI17NewTokenFrameTestE16GetTestSuiteNameEv, symObjAddr: 0x27310, symBinAddr: 0x100028D80, symSize: 0x10 }
  - { offsetInCU: 0x181BA7, offset: 0x18E110, size: 0x8, addend: 0x0, symName: __ZNK7testing8internal26ParameterizedTestSuiteInfoI17NewTokenFrameTestE18GetTestSuiteTypeIdEv, symObjAddr: 0x27320, symBinAddr: 0x100028D90, symSize: 0x10 }
  - { offsetInCU: 0x181EA8, offset: 0x18E411, size: 0x8, addend: 0x0, symName: __ZN7testing8internal26ParameterizedTestSuiteInfoI17NewTokenFrameTestE13RegisterTestsEv, symObjAddr: 0x27330, symBinAddr: 0x100028DA0, symSize: 0xED0 }
  - { offsetInCU: 0x186148, offset: 0x1926B1, size: 0x8, addend: 0x0, symName: __ZN7testing8internal26ParameterizedTestSuiteInfoI17NewTokenFrameTestE16IsValidParamNameERKNSt3__112basic_stringIcNS4_11char_traitsIcEENS4_9allocatorIcEEEE, symObjAddr: 0x282F0, symBinAddr: 0x100029D60, symSize: 0xE0 }
  - { offsetInCU: 0x18639C, offset: 0x192905, size: 0x8, addend: 0x0, symName: __ZN7testing8internal16SuiteApiResolverI17NewTokenFrameTestE19GetSetUpCaseOrSuiteEPKci, symObjAddr: 0x284C0, symBinAddr: 0x100029F30, symSize: 0xD0 }
  - { offsetInCU: 0x186543, offset: 0x192AAC, size: 0x8, addend: 0x0, symName: __ZN7testing8internal16SuiteApiResolverI17NewTokenFrameTestE22GetTearDownCaseOrSuiteEPKci, symObjAddr: 0x28590, symBinAddr: 0x10002A000, symSize: 0xD0 }
  - { offsetInCU: 0x186E43, offset: 0x1933AC, size: 0x8, addend: 0x0, symName: __ZNSt3__16vectorIN7testing8internal26ParameterizedTestSuiteInfoI17NewTokenFrameTestE17InstantiationInfoENS_9allocatorIS6_EEE24__emplace_back_slow_pathIJNS_12basic_stringIcNS_11char_traitsIcEENS7_IcEEEERPFNS2_14ParamGeneratorI19NewTokenFrameParamsEEvERPFSF_RKNS1_13TestParamInfoISH_EEERPKcRiEEEvDpOT_, symObjAddr: 0x28660, symBinAddr: 0x10002A0D0, symSize: 0x230 }
  - { offsetInCU: 0x187784, offset: 0x193CED, size: 0x8, addend: 0x0, symName: __ZNKSt3__16vectorIN7testing8internal26ParameterizedTestSuiteInfoI17NewTokenFrameTestE17InstantiationInfoENS_9allocatorIS6_EEE20__throw_length_errorB8ue170006Ev, symObjAddr: 0x28890, symBinAddr: 0x10002A300, symSize: 0x10 }
  - { offsetInCU: 0x1877AD, offset: 0x193D16, size: 0x8, addend: 0x0, symName: __ZN7testing8internal27CheckedDowncastToActualTypeINS0_26ParameterizedTestSuiteInfoI15StreamFrameTestEENS0_30ParameterizedTestSuiteInfoBaseEEEPT_PT0_, symObjAddr: 0x288A0, symBinAddr: 0x10002A310, symSize: 0xA0 }
  - { offsetInCU: 0x1877B9, offset: 0x193D22, size: 0x8, addend: 0x0, symName: __ZN7testing8internal26ParameterizedTestSuiteInfoI15StreamFrameTestED1Ev, symObjAddr: 0x28940, symBinAddr: 0x10002A3B0, symSize: 0x10 }
  - { offsetInCU: 0x1877F1, offset: 0x193D5A, size: 0x8, addend: 0x0, symName: __ZN7testing8internal26ParameterizedTestSuiteInfoI15StreamFrameTestED2Ev, symObjAddr: 0x29840, symBinAddr: 0x10002B2B0, symSize: 0xF0 }
  - { offsetInCU: 0x188024, offset: 0x19458D, size: 0x8, addend: 0x0, symName: __ZN7testing8internal26ParameterizedTestSuiteInfoI15StreamFrameTestED0Ev, symObjAddr: 0x28950, symBinAddr: 0x10002A3C0, symSize: 0x20 }
  - { offsetInCU: 0x188088, offset: 0x1945F1, size: 0x8, addend: 0x0, symName: __ZNK7testing8internal26ParameterizedTestSuiteInfoI15StreamFrameTestE16GetTestSuiteNameEv, symObjAddr: 0x28970, symBinAddr: 0x10002A3E0, symSize: 0x10 }
  - { offsetInCU: 0x1880AD, offset: 0x194616, size: 0x8, addend: 0x0, symName: __ZNK7testing8internal26ParameterizedTestSuiteInfoI15StreamFrameTestE18GetTestSuiteTypeIdEv, symObjAddr: 0x28980, symBinAddr: 0x10002A3F0, symSize: 0x10 }
  - { offsetInCU: 0x18819E, offset: 0x194707, size: 0x8, addend: 0x0, symName: __ZN7testing8internal26ParameterizedTestSuiteInfoI15StreamFrameTestE13RegisterTestsEv, symObjAddr: 0x28990, symBinAddr: 0x10002A400, symSize: 0xEB0 }
  - { offsetInCU: 0x18C43E, offset: 0x1989A7, size: 0x8, addend: 0x0, symName: __ZN7testing8internal26ParameterizedTestSuiteInfoI15StreamFrameTestE16IsValidParamNameERKNSt3__112basic_stringIcNS4_11char_traitsIcEENS4_9allocatorIcEEEE, symObjAddr: 0x29930, symBinAddr: 0x10002B3A0, symSize: 0xE0 }
  - { offsetInCU: 0x18C692, offset: 0x198BFB, size: 0x8, addend: 0x0, symName: __ZN7testing8internal16SuiteApiResolverI15StreamFrameTestE19GetSetUpCaseOrSuiteEPKci, symObjAddr: 0x29A10, symBinAddr: 0x10002B480, symSize: 0xD0 }
  - { offsetInCU: 0x18C839, offset: 0x198DA2, size: 0x8, addend: 0x0, symName: __ZN7testing8internal16SuiteApiResolverI15StreamFrameTestE22GetTearDownCaseOrSuiteEPKci, symObjAddr: 0x29AE0, symBinAddr: 0x10002B550, symSize: 0xD0 }
  - { offsetInCU: 0x18D19A, offset: 0x199703, size: 0x8, addend: 0x0, symName: __ZNSt3__16vectorIN7testing8internal26ParameterizedTestSuiteInfoI15StreamFrameTestE17InstantiationInfoENS_9allocatorIS6_EEE24__emplace_back_slow_pathIJNS_12basic_stringIcNS_11char_traitsIcEENS7_IcEEEERPFNS2_14ParamGeneratorI15QUIC_FRAME_TYPEEEvERPFSF_RKNS1_13TestParamInfoISH_EEERPKcRiEEEvDpOT_, symObjAddr: 0x29FF0, symBinAddr: 0x10002BA60, symSize: 0x230 }
  - { offsetInCU: 0x18DADB, offset: 0x19A044, size: 0x8, addend: 0x0, symName: __ZNKSt3__16vectorIN7testing8internal26ParameterizedTestSuiteInfoI15StreamFrameTestE17InstantiationInfoENS_9allocatorIS6_EEE20__throw_length_errorB8ue170006Ev, symObjAddr: 0x2A220, symBinAddr: 0x10002BC90, symSize: 0x10 }
  - { offsetInCU: 0x18DB04, offset: 0x19A06D, size: 0x8, addend: 0x0, symName: __ZN7testing8internal27CheckedDowncastToActualTypeINS0_26ParameterizedTestSuiteInfoI16MaxDataFrameTestEENS0_30ParameterizedTestSuiteInfoBaseEEEPT_PT0_, symObjAddr: 0x2A230, symBinAddr: 0x10002BCA0, symSize: 0xA0 }
  - { offsetInCU: 0x18DB10, offset: 0x19A079, size: 0x8, addend: 0x0, symName: __ZN7testing8internal26ParameterizedTestSuiteInfoI16MaxDataFrameTestED1Ev, symObjAddr: 0x2A2D0, symBinAddr: 0x10002BD40, symSize: 0x10 }
  - { offsetInCU: 0x18DB48, offset: 0x19A0B1, size: 0x8, addend: 0x0, symName: __ZN7testing8internal26ParameterizedTestSuiteInfoI16MaxDataFrameTestED2Ev, symObjAddr: 0x2B1D0, symBinAddr: 0x10002CC40, symSize: 0xF0 }
  - { offsetInCU: 0x18E37B, offset: 0x19A8E4, size: 0x8, addend: 0x0, symName: __ZN7testing8internal26ParameterizedTestSuiteInfoI16MaxDataFrameTestED0Ev, symObjAddr: 0x2A2E0, symBinAddr: 0x10002BD50, symSize: 0x20 }
  - { offsetInCU: 0x18E3DF, offset: 0x19A948, size: 0x8, addend: 0x0, symName: __ZNK7testing8internal26ParameterizedTestSuiteInfoI16MaxDataFrameTestE16GetTestSuiteNameEv, symObjAddr: 0x2A300, symBinAddr: 0x10002BD70, symSize: 0x10 }
  - { offsetInCU: 0x18E404, offset: 0x19A96D, size: 0x8, addend: 0x0, symName: __ZNK7testing8internal26ParameterizedTestSuiteInfoI16MaxDataFrameTestE18GetTestSuiteTypeIdEv, symObjAddr: 0x2A310, symBinAddr: 0x10002BD80, symSize: 0x10 }
  - { offsetInCU: 0x18E705, offset: 0x19AC6E, size: 0x8, addend: 0x0, symName: __ZN7testing8internal26ParameterizedTestSuiteInfoI16MaxDataFrameTestE13RegisterTestsEv, symObjAddr: 0x2A320, symBinAddr: 0x10002BD90, symSize: 0xEB0 }
  - { offsetInCU: 0x1929A5, offset: 0x19EF0E, size: 0x8, addend: 0x0, symName: __ZN7testing8internal26ParameterizedTestSuiteInfoI16MaxDataFrameTestE16IsValidParamNameERKNSt3__112basic_stringIcNS4_11char_traitsIcEENS4_9allocatorIcEEEE, symObjAddr: 0x2B2C0, symBinAddr: 0x10002CD30, symSize: 0xE0 }
  - { offsetInCU: 0x192BF9, offset: 0x19F162, size: 0x8, addend: 0x0, symName: __ZN7testing8internal16SuiteApiResolverI16MaxDataFrameTestE19GetSetUpCaseOrSuiteEPKci, symObjAddr: 0x2B490, symBinAddr: 0x10002CF00, symSize: 0xD0 }
  - { offsetInCU: 0x192DA0, offset: 0x19F309, size: 0x8, addend: 0x0, symName: __ZN7testing8internal16SuiteApiResolverI16MaxDataFrameTestE22GetTearDownCaseOrSuiteEPKci, symObjAddr: 0x2B560, symBinAddr: 0x10002CFD0, symSize: 0xD0 }
  - { offsetInCU: 0x1936A0, offset: 0x19FC09, size: 0x8, addend: 0x0, symName: __ZNSt3__16vectorIN7testing8internal26ParameterizedTestSuiteInfoI16MaxDataFrameTestE17InstantiationInfoENS_9allocatorIS6_EEE24__emplace_back_slow_pathIJNS_12basic_stringIcNS_11char_traitsIcEENS7_IcEEEERPFNS2_14ParamGeneratorI18MaxDataFrameParamsEEvERPFSF_RKNS1_13TestParamInfoISH_EEERPKcRiEEEvDpOT_, symObjAddr: 0x2B630, symBinAddr: 0x10002D0A0, symSize: 0x230 }
  - { offsetInCU: 0x193FE1, offset: 0x1A054A, size: 0x8, addend: 0x0, symName: __ZNKSt3__16vectorIN7testing8internal26ParameterizedTestSuiteInfoI16MaxDataFrameTestE17InstantiationInfoENS_9allocatorIS6_EEE20__throw_length_errorB8ue170006Ev, symObjAddr: 0x2B860, symBinAddr: 0x10002D2D0, symSize: 0x10 }
  - { offsetInCU: 0x19400A, offset: 0x1A0573, size: 0x8, addend: 0x0, symName: __ZN7testing8internal27CheckedDowncastToActualTypeINS0_26ParameterizedTestSuiteInfoI22MaxStreamDataFrameTestEENS0_30ParameterizedTestSuiteInfoBaseEEEPT_PT0_, symObjAddr: 0x2B870, symBinAddr: 0x10002D2E0, symSize: 0xA0 }
  - { offsetInCU: 0x194016, offset: 0x1A057F, size: 0x8, addend: 0x0, symName: __ZN7testing8internal26ParameterizedTestSuiteInfoI22MaxStreamDataFrameTestED1Ev, symObjAddr: 0x2B910, symBinAddr: 0x10002D380, symSize: 0x10 }
  - { offsetInCU: 0x19404E, offset: 0x1A05B7, size: 0x8, addend: 0x0, symName: __ZN7testing8internal26ParameterizedTestSuiteInfoI22MaxStreamDataFrameTestED2Ev, symObjAddr: 0x2C830, symBinAddr: 0x10002E2A0, symSize: 0xF0 }
  - { offsetInCU: 0x194881, offset: 0x1A0DEA, size: 0x8, addend: 0x0, symName: __ZN7testing8internal26ParameterizedTestSuiteInfoI22MaxStreamDataFrameTestED0Ev, symObjAddr: 0x2B920, symBinAddr: 0x10002D390, symSize: 0x20 }
  - { offsetInCU: 0x1948E5, offset: 0x1A0E4E, size: 0x8, addend: 0x0, symName: __ZNK7testing8internal26ParameterizedTestSuiteInfoI22MaxStreamDataFrameTestE16GetTestSuiteNameEv, symObjAddr: 0x2B940, symBinAddr: 0x10002D3B0, symSize: 0x10 }
  - { offsetInCU: 0x19490A, offset: 0x1A0E73, size: 0x8, addend: 0x0, symName: __ZNK7testing8internal26ParameterizedTestSuiteInfoI22MaxStreamDataFrameTestE18GetTestSuiteTypeIdEv, symObjAddr: 0x2B950, symBinAddr: 0x10002D3C0, symSize: 0x10 }
  - { offsetInCU: 0x194C0B, offset: 0x1A1174, size: 0x8, addend: 0x0, symName: __ZN7testing8internal26ParameterizedTestSuiteInfoI22MaxStreamDataFrameTestE13RegisterTestsEv, symObjAddr: 0x2B960, symBinAddr: 0x10002D3D0, symSize: 0xED0 }
  - { offsetInCU: 0x198EAB, offset: 0x1A5414, size: 0x8, addend: 0x0, symName: __ZN7testing8internal26ParameterizedTestSuiteInfoI22MaxStreamDataFrameTestE16IsValidParamNameERKNSt3__112basic_stringIcNS4_11char_traitsIcEENS4_9allocatorIcEEEE, symObjAddr: 0x2C920, symBinAddr: 0x10002E390, symSize: 0xE0 }
  - { offsetInCU: 0x1990FF, offset: 0x1A5668, size: 0x8, addend: 0x0, symName: __ZN7testing8internal16SuiteApiResolverI22MaxStreamDataFrameTestE19GetSetUpCaseOrSuiteEPKci, symObjAddr: 0x2CAF0, symBinAddr: 0x10002E560, symSize: 0xD0 }
  - { offsetInCU: 0x1992A6, offset: 0x1A580F, size: 0x8, addend: 0x0, symName: __ZN7testing8internal16SuiteApiResolverI22MaxStreamDataFrameTestE22GetTearDownCaseOrSuiteEPKci, symObjAddr: 0x2CBC0, symBinAddr: 0x10002E630, symSize: 0xD0 }
  - { offsetInCU: 0x199BA6, offset: 0x1A610F, size: 0x8, addend: 0x0, symName: __ZNSt3__16vectorIN7testing8internal26ParameterizedTestSuiteInfoI22MaxStreamDataFrameTestE17InstantiationInfoENS_9allocatorIS6_EEE24__emplace_back_slow_pathIJNS_12basic_stringIcNS_11char_traitsIcEENS7_IcEEEERPFNS2_14ParamGeneratorI24MaxStreamDataFrameParamsEEvERPFSF_RKNS1_13TestParamInfoISH_EEERPKcRiEEEvDpOT_, symObjAddr: 0x2CC90, symBinAddr: 0x10002E700, symSize: 0x230 }
  - { offsetInCU: 0x19A4E7, offset: 0x1A6A50, size: 0x8, addend: 0x0, symName: __ZNKSt3__16vectorIN7testing8internal26ParameterizedTestSuiteInfoI22MaxStreamDataFrameTestE17InstantiationInfoENS_9allocatorIS6_EEE20__throw_length_errorB8ue170006Ev, symObjAddr: 0x2CEC0, symBinAddr: 0x10002E930, symSize: 0x10 }
  - { offsetInCU: 0x19A510, offset: 0x1A6A79, size: 0x8, addend: 0x0, symName: __ZN7testing8internal27CheckedDowncastToActualTypeINS0_26ParameterizedTestSuiteInfoI19MaxStreamsFrameTestEENS0_30ParameterizedTestSuiteInfoBaseEEEPT_PT0_, symObjAddr: 0x2CED0, symBinAddr: 0x10002E940, symSize: 0xA0 }
  - { offsetInCU: 0x19A51C, offset: 0x1A6A85, size: 0x8, addend: 0x0, symName: __ZN7testing8internal26ParameterizedTestSuiteInfoI19MaxStreamsFrameTestED1Ev, symObjAddr: 0x2CF70, symBinAddr: 0x10002E9E0, symSize: 0x10 }
  - { offsetInCU: 0x19A554, offset: 0x1A6ABD, size: 0x8, addend: 0x0, symName: __ZN7testing8internal26ParameterizedTestSuiteInfoI19MaxStreamsFrameTestED2Ev, symObjAddr: 0x2DE70, symBinAddr: 0x10002F8E0, symSize: 0xF0 }
  - { offsetInCU: 0x19AD87, offset: 0x1A72F0, size: 0x8, addend: 0x0, symName: __ZN7testing8internal26ParameterizedTestSuiteInfoI19MaxStreamsFrameTestED0Ev, symObjAddr: 0x2CF80, symBinAddr: 0x10002E9F0, symSize: 0x20 }
  - { offsetInCU: 0x19ADEB, offset: 0x1A7354, size: 0x8, addend: 0x0, symName: __ZNK7testing8internal26ParameterizedTestSuiteInfoI19MaxStreamsFrameTestE16GetTestSuiteNameEv, symObjAddr: 0x2CFA0, symBinAddr: 0x10002EA10, symSize: 0x10 }
  - { offsetInCU: 0x19AE10, offset: 0x1A7379, size: 0x8, addend: 0x0, symName: __ZNK7testing8internal26ParameterizedTestSuiteInfoI19MaxStreamsFrameTestE18GetTestSuiteTypeIdEv, symObjAddr: 0x2CFB0, symBinAddr: 0x10002EA20, symSize: 0x10 }
  - { offsetInCU: 0x19B111, offset: 0x1A767A, size: 0x8, addend: 0x0, symName: __ZN7testing8internal26ParameterizedTestSuiteInfoI19MaxStreamsFrameTestE13RegisterTestsEv, symObjAddr: 0x2CFC0, symBinAddr: 0x10002EA30, symSize: 0xEB0 }
  - { offsetInCU: 0x19F3B1, offset: 0x1AB91A, size: 0x8, addend: 0x0, symName: __ZN7testing8internal26ParameterizedTestSuiteInfoI19MaxStreamsFrameTestE16IsValidParamNameERKNSt3__112basic_stringIcNS4_11char_traitsIcEENS4_9allocatorIcEEEE, symObjAddr: 0x2DF60, symBinAddr: 0x10002F9D0, symSize: 0xE0 }
  - { offsetInCU: 0x19F605, offset: 0x1ABB6E, size: 0x8, addend: 0x0, symName: __ZN7testing8internal16SuiteApiResolverI19MaxStreamsFrameTestE19GetSetUpCaseOrSuiteEPKci, symObjAddr: 0x2E150, symBinAddr: 0x10002FBC0, symSize: 0xD0 }
  - { offsetInCU: 0x19F7AC, offset: 0x1ABD15, size: 0x8, addend: 0x0, symName: __ZN7testing8internal16SuiteApiResolverI19MaxStreamsFrameTestE22GetTearDownCaseOrSuiteEPKci, symObjAddr: 0x2E220, symBinAddr: 0x10002FC90, symSize: 0xD0 }
  - { offsetInCU: 0x1A007D, offset: 0x1AC5E6, size: 0x8, addend: 0x0, symName: __ZNSt3__16vectorIN7testing8internal26ParameterizedTestSuiteInfoI19MaxStreamsFrameTestE17InstantiationInfoENS_9allocatorIS6_EEE24__emplace_back_slow_pathIJNS_12basic_stringIcNS_11char_traitsIcEENS7_IcEEEERPFNS2_14ParamGeneratorIbEEvERPFSF_RKNS1_13TestParamInfoIbEEERPKcRiEEEvDpOT_, symObjAddr: 0x2E2F0, symBinAddr: 0x10002FD60, symSize: 0x230 }
  - { offsetInCU: 0x1A09BE, offset: 0x1ACF27, size: 0x8, addend: 0x0, symName: __ZNKSt3__16vectorIN7testing8internal26ParameterizedTestSuiteInfoI19MaxStreamsFrameTestE17InstantiationInfoENS_9allocatorIS6_EEE20__throw_length_errorB8ue170006Ev, symObjAddr: 0x2E520, symBinAddr: 0x10002FF90, symSize: 0x10 }
  - { offsetInCU: 0x1A09E7, offset: 0x1ACF50, size: 0x8, addend: 0x0, symName: __ZN7testing8internal27CheckedDowncastToActualTypeINS0_26ParameterizedTestSuiteInfoI20DataBlockedFrameTestEENS0_30ParameterizedTestSuiteInfoBaseEEEPT_PT0_, symObjAddr: 0x2E530, symBinAddr: 0x10002FFA0, symSize: 0xA0 }
  - { offsetInCU: 0x1A09F3, offset: 0x1ACF5C, size: 0x8, addend: 0x0, symName: __ZN7testing8internal26ParameterizedTestSuiteInfoI20DataBlockedFrameTestED1Ev, symObjAddr: 0x2E5D0, symBinAddr: 0x100030040, symSize: 0x10 }
  - { offsetInCU: 0x1A0A2B, offset: 0x1ACF94, size: 0x8, addend: 0x0, symName: __ZN7testing8internal26ParameterizedTestSuiteInfoI20DataBlockedFrameTestED2Ev, symObjAddr: 0x2F4D0, symBinAddr: 0x100030F40, symSize: 0xF0 }
  - { offsetInCU: 0x1A125E, offset: 0x1AD7C7, size: 0x8, addend: 0x0, symName: __ZN7testing8internal26ParameterizedTestSuiteInfoI20DataBlockedFrameTestED0Ev, symObjAddr: 0x2E5E0, symBinAddr: 0x100030050, symSize: 0x20 }
  - { offsetInCU: 0x1A12C2, offset: 0x1AD82B, size: 0x8, addend: 0x0, symName: __ZNK7testing8internal26ParameterizedTestSuiteInfoI20DataBlockedFrameTestE16GetTestSuiteNameEv, symObjAddr: 0x2E600, symBinAddr: 0x100030070, symSize: 0x10 }
  - { offsetInCU: 0x1A12E7, offset: 0x1AD850, size: 0x8, addend: 0x0, symName: __ZNK7testing8internal26ParameterizedTestSuiteInfoI20DataBlockedFrameTestE18GetTestSuiteTypeIdEv, symObjAddr: 0x2E610, symBinAddr: 0x100030080, symSize: 0x10 }
  - { offsetInCU: 0x1A15E8, offset: 0x1ADB51, size: 0x8, addend: 0x0, symName: __ZN7testing8internal26ParameterizedTestSuiteInfoI20DataBlockedFrameTestE13RegisterTestsEv, symObjAddr: 0x2E620, symBinAddr: 0x100030090, symSize: 0xEB0 }
  - { offsetInCU: 0x1A5888, offset: 0x1B1DF1, size: 0x8, addend: 0x0, symName: __ZN7testing8internal26ParameterizedTestSuiteInfoI20DataBlockedFrameTestE16IsValidParamNameERKNSt3__112basic_stringIcNS4_11char_traitsIcEENS4_9allocatorIcEEEE, symObjAddr: 0x2F5C0, symBinAddr: 0x100031030, symSize: 0xE0 }
  - { offsetInCU: 0x1A5ADC, offset: 0x1B2045, size: 0x8, addend: 0x0, symName: __ZN7testing8internal16SuiteApiResolverI20DataBlockedFrameTestE19GetSetUpCaseOrSuiteEPKci, symObjAddr: 0x2F790, symBinAddr: 0x100031200, symSize: 0xD0 }
  - { offsetInCU: 0x1A5C83, offset: 0x1B21EC, size: 0x8, addend: 0x0, symName: __ZN7testing8internal16SuiteApiResolverI20DataBlockedFrameTestE22GetTearDownCaseOrSuiteEPKci, symObjAddr: 0x2F860, symBinAddr: 0x1000312D0, symSize: 0xD0 }
  - { offsetInCU: 0x1A6583, offset: 0x1B2AEC, size: 0x8, addend: 0x0, symName: __ZNSt3__16vectorIN7testing8internal26ParameterizedTestSuiteInfoI20DataBlockedFrameTestE17InstantiationInfoENS_9allocatorIS6_EEE24__emplace_back_slow_pathIJNS_12basic_stringIcNS_11char_traitsIcEENS7_IcEEEERPFNS2_14ParamGeneratorI22DataBlockedFrameParamsEEvERPFSF_RKNS1_13TestParamInfoISH_EEERPKcRiEEEvDpOT_, symObjAddr: 0x2F930, symBinAddr: 0x1000313A0, symSize: 0x230 }
  - { offsetInCU: 0x1A6EC4, offset: 0x1B342D, size: 0x8, addend: 0x0, symName: __ZNKSt3__16vectorIN7testing8internal26ParameterizedTestSuiteInfoI20DataBlockedFrameTestE17InstantiationInfoENS_9allocatorIS6_EEE20__throw_length_errorB8ue170006Ev, symObjAddr: 0x2FB60, symBinAddr: 0x1000315D0, symSize: 0x10 }
  - { offsetInCU: 0x1A6EED, offset: 0x1B3456, size: 0x8, addend: 0x0, symName: __ZN7testing8internal27CheckedDowncastToActualTypeINS0_26ParameterizedTestSuiteInfoI26StreamDataBlockedFrameTestEENS0_30ParameterizedTestSuiteInfoBaseEEEPT_PT0_, symObjAddr: 0x2FB70, symBinAddr: 0x1000315E0, symSize: 0xA0 }
  - { offsetInCU: 0x1A6EF9, offset: 0x1B3462, size: 0x8, addend: 0x0, symName: __ZN7testing8internal26ParameterizedTestSuiteInfoI26StreamDataBlockedFrameTestED1Ev, symObjAddr: 0x2FC10, symBinAddr: 0x100031680, symSize: 0x10 }
  - { offsetInCU: 0x1A6F31, offset: 0x1B349A, size: 0x8, addend: 0x0, symName: __ZN7testing8internal26ParameterizedTestSuiteInfoI26StreamDataBlockedFrameTestED2Ev, symObjAddr: 0x30B30, symBinAddr: 0x1000325A0, symSize: 0xF0 }
  - { offsetInCU: 0x1A7764, offset: 0x1B3CCD, size: 0x8, addend: 0x0, symName: __ZN7testing8internal26ParameterizedTestSuiteInfoI26StreamDataBlockedFrameTestED0Ev, symObjAddr: 0x2FC20, symBinAddr: 0x100031690, symSize: 0x20 }
  - { offsetInCU: 0x1A77C8, offset: 0x1B3D31, size: 0x8, addend: 0x0, symName: __ZNK7testing8internal26ParameterizedTestSuiteInfoI26StreamDataBlockedFrameTestE16GetTestSuiteNameEv, symObjAddr: 0x2FC40, symBinAddr: 0x1000316B0, symSize: 0x10 }
  - { offsetInCU: 0x1A77ED, offset: 0x1B3D56, size: 0x8, addend: 0x0, symName: __ZNK7testing8internal26ParameterizedTestSuiteInfoI26StreamDataBlockedFrameTestE18GetTestSuiteTypeIdEv, symObjAddr: 0x2FC50, symBinAddr: 0x1000316C0, symSize: 0x10 }
  - { offsetInCU: 0x1A7AEE, offset: 0x1B4057, size: 0x8, addend: 0x0, symName: __ZN7testing8internal26ParameterizedTestSuiteInfoI26StreamDataBlockedFrameTestE13RegisterTestsEv, symObjAddr: 0x2FC60, symBinAddr: 0x1000316D0, symSize: 0xED0 }
  - { offsetInCU: 0x1ABD8E, offset: 0x1B82F7, size: 0x8, addend: 0x0, symName: __ZN7testing8internal26ParameterizedTestSuiteInfoI26StreamDataBlockedFrameTestE16IsValidParamNameERKNSt3__112basic_stringIcNS4_11char_traitsIcEENS4_9allocatorIcEEEE, symObjAddr: 0x30C20, symBinAddr: 0x100032690, symSize: 0xE0 }
  - { offsetInCU: 0x1ABFE2, offset: 0x1B854B, size: 0x8, addend: 0x0, symName: __ZN7testing8internal16SuiteApiResolverI26StreamDataBlockedFrameTestE19GetSetUpCaseOrSuiteEPKci, symObjAddr: 0x30DF0, symBinAddr: 0x100032860, symSize: 0xD0 }
  - { offsetInCU: 0x1AC189, offset: 0x1B86F2, size: 0x8, addend: 0x0, symName: __ZN7testing8internal16SuiteApiResolverI26StreamDataBlockedFrameTestE22GetTearDownCaseOrSuiteEPKci, symObjAddr: 0x30EC0, symBinAddr: 0x100032930, symSize: 0xD0 }
  - { offsetInCU: 0x1ACA89, offset: 0x1B8FF2, size: 0x8, addend: 0x0, symName: __ZNSt3__16vectorIN7testing8internal26ParameterizedTestSuiteInfoI26StreamDataBlockedFrameTestE17InstantiationInfoENS_9allocatorIS6_EEE24__emplace_back_slow_pathIJNS_12basic_stringIcNS_11char_traitsIcEENS7_IcEEEERPFNS2_14ParamGeneratorI28StreamDataBlockedFrameParamsEEvERPFSF_RKNS1_13TestParamInfoISH_EEERPKcRiEEEvDpOT_, symObjAddr: 0x30F90, symBinAddr: 0x100032A00, symSize: 0x230 }
  - { offsetInCU: 0x1AD3CA, offset: 0x1B9933, size: 0x8, addend: 0x0, symName: __ZNKSt3__16vectorIN7testing8internal26ParameterizedTestSuiteInfoI26StreamDataBlockedFrameTestE17InstantiationInfoENS_9allocatorIS6_EEE20__throw_length_errorB8ue170006Ev, symObjAddr: 0x311C0, symBinAddr: 0x100032C30, symSize: 0x10 }
  - { offsetInCU: 0x1AD3F3, offset: 0x1B995C, size: 0x8, addend: 0x0, symName: __ZN7testing8internal27CheckedDowncastToActualTypeINS0_26ParameterizedTestSuiteInfoI23StreamsBlockedFrameTestEENS0_30ParameterizedTestSuiteInfoBaseEEEPT_PT0_, symObjAddr: 0x311D0, symBinAddr: 0x100032C40, symSize: 0xA0 }
  - { offsetInCU: 0x1AD3FF, offset: 0x1B9968, size: 0x8, addend: 0x0, symName: __ZN7testing8internal26ParameterizedTestSuiteInfoI23StreamsBlockedFrameTestED1Ev, symObjAddr: 0x31270, symBinAddr: 0x100032CE0, symSize: 0x10 }
  - { offsetInCU: 0x1AD437, offset: 0x1B99A0, size: 0x8, addend: 0x0, symName: __ZN7testing8internal26ParameterizedTestSuiteInfoI23StreamsBlockedFrameTestED2Ev, symObjAddr: 0x32170, symBinAddr: 0x100033BE0, symSize: 0xF0 }
  - { offsetInCU: 0x1ADC6A, offset: 0x1BA1D3, size: 0x8, addend: 0x0, symName: __ZN7testing8internal26ParameterizedTestSuiteInfoI23StreamsBlockedFrameTestED0Ev, symObjAddr: 0x31280, symBinAddr: 0x100032CF0, symSize: 0x20 }
  - { offsetInCU: 0x1ADCCE, offset: 0x1BA237, size: 0x8, addend: 0x0, symName: __ZNK7testing8internal26ParameterizedTestSuiteInfoI23StreamsBlockedFrameTestE16GetTestSuiteNameEv, symObjAddr: 0x312A0, symBinAddr: 0x100032D10, symSize: 0x10 }
  - { offsetInCU: 0x1ADCF3, offset: 0x1BA25C, size: 0x8, addend: 0x0, symName: __ZNK7testing8internal26ParameterizedTestSuiteInfoI23StreamsBlockedFrameTestE18GetTestSuiteTypeIdEv, symObjAddr: 0x312B0, symBinAddr: 0x100032D20, symSize: 0x10 }
  - { offsetInCU: 0x1ADDE4, offset: 0x1BA34D, size: 0x8, addend: 0x0, symName: __ZN7testing8internal26ParameterizedTestSuiteInfoI23StreamsBlockedFrameTestE13RegisterTestsEv, symObjAddr: 0x312C0, symBinAddr: 0x100032D30, symSize: 0xEB0 }
  - { offsetInCU: 0x1B2084, offset: 0x1BE5ED, size: 0x8, addend: 0x0, symName: __ZN7testing8internal26ParameterizedTestSuiteInfoI23StreamsBlockedFrameTestE16IsValidParamNameERKNSt3__112basic_stringIcNS4_11char_traitsIcEENS4_9allocatorIcEEEE, symObjAddr: 0x32260, symBinAddr: 0x100033CD0, symSize: 0xE0 }
  - { offsetInCU: 0x1B22D8, offset: 0x1BE841, size: 0x8, addend: 0x0, symName: __ZN7testing8internal16SuiteApiResolverI23StreamsBlockedFrameTestE19GetSetUpCaseOrSuiteEPKci, symObjAddr: 0x32340, symBinAddr: 0x100033DB0, symSize: 0xD0 }
  - { offsetInCU: 0x1B247F, offset: 0x1BE9E8, size: 0x8, addend: 0x0, symName: __ZN7testing8internal16SuiteApiResolverI23StreamsBlockedFrameTestE22GetTearDownCaseOrSuiteEPKci, symObjAddr: 0x32410, symBinAddr: 0x100033E80, symSize: 0xD0 }
  - { offsetInCU: 0x1B2CF1, offset: 0x1BF25A, size: 0x8, addend: 0x0, symName: __ZNSt3__16vectorIN7testing8internal26ParameterizedTestSuiteInfoI23StreamsBlockedFrameTestE17InstantiationInfoENS_9allocatorIS6_EEE24__emplace_back_slow_pathIJNS_12basic_stringIcNS_11char_traitsIcEENS7_IcEEEERPFNS2_14ParamGeneratorIbEEvERPFSF_RKNS1_13TestParamInfoIbEEERPKcRiEEEvDpOT_, symObjAddr: 0x324E0, symBinAddr: 0x100033F50, symSize: 0x230 }
  - { offsetInCU: 0x1B3632, offset: 0x1BFB9B, size: 0x8, addend: 0x0, symName: __ZNKSt3__16vectorIN7testing8internal26ParameterizedTestSuiteInfoI23StreamsBlockedFrameTestE17InstantiationInfoENS_9allocatorIS6_EEE20__throw_length_errorB8ue170006Ev, symObjAddr: 0x32710, symBinAddr: 0x100034180, symSize: 0x10 }
  - { offsetInCU: 0x1B365B, offset: 0x1BFBC4, size: 0x8, addend: 0x0, symName: __ZN7testing8internal27CheckedDowncastToActualTypeINS0_26ParameterizedTestSuiteInfoI24NewConnectionIdFrameTestEENS0_30ParameterizedTestSuiteInfoBaseEEEPT_PT0_, symObjAddr: 0x32720, symBinAddr: 0x100034190, symSize: 0xA0 }
  - { offsetInCU: 0x1B3667, offset: 0x1BFBD0, size: 0x8, addend: 0x0, symName: __ZN7testing8internal26ParameterizedTestSuiteInfoI24NewConnectionIdFrameTestED1Ev, symObjAddr: 0x327C0, symBinAddr: 0x100034230, symSize: 0x10 }
  - { offsetInCU: 0x1B369F, offset: 0x1BFC08, size: 0x8, addend: 0x0, symName: __ZN7testing8internal26ParameterizedTestSuiteInfoI24NewConnectionIdFrameTestED2Ev, symObjAddr: 0x33790, symBinAddr: 0x100035200, symSize: 0xF0 }
  - { offsetInCU: 0x1B3ED2, offset: 0x1C043B, size: 0x8, addend: 0x0, symName: __ZN7testing8internal26ParameterizedTestSuiteInfoI24NewConnectionIdFrameTestED0Ev, symObjAddr: 0x327D0, symBinAddr: 0x100034240, symSize: 0x20 }
  - { offsetInCU: 0x1B3F36, offset: 0x1C049F, size: 0x8, addend: 0x0, symName: __ZNK7testing8internal26ParameterizedTestSuiteInfoI24NewConnectionIdFrameTestE16GetTestSuiteNameEv, symObjAddr: 0x327F0, symBinAddr: 0x100034260, symSize: 0x10 }
  - { offsetInCU: 0x1B3F5B, offset: 0x1C04C4, size: 0x8, addend: 0x0, symName: __ZNK7testing8internal26ParameterizedTestSuiteInfoI24NewConnectionIdFrameTestE18GetTestSuiteTypeIdEv, symObjAddr: 0x32800, symBinAddr: 0x100034270, symSize: 0x10 }
  - { offsetInCU: 0x1B425C, offset: 0x1C07C5, size: 0x8, addend: 0x0, symName: __ZN7testing8internal26ParameterizedTestSuiteInfoI24NewConnectionIdFrameTestE13RegisterTestsEv, symObjAddr: 0x32810, symBinAddr: 0x100034280, symSize: 0xF80 }
  - { offsetInCU: 0x1B84FF, offset: 0x1C4A68, size: 0x8, addend: 0x0, symName: __ZN7testing8internal26ParameterizedTestSuiteInfoI24NewConnectionIdFrameTestE16IsValidParamNameERKNSt3__112basic_stringIcNS4_11char_traitsIcEENS4_9allocatorIcEEEE, symObjAddr: 0x33880, symBinAddr: 0x1000352F0, symSize: 0xE0 }
  - { offsetInCU: 0x1B8753, offset: 0x1C4CBC, size: 0x8, addend: 0x0, symName: __ZN7testing8internal16SuiteApiResolverI24NewConnectionIdFrameTestE19GetSetUpCaseOrSuiteEPKci, symObjAddr: 0x33A50, symBinAddr: 0x1000354C0, symSize: 0xD0 }
  - { offsetInCU: 0x1B88FA, offset: 0x1C4E63, size: 0x8, addend: 0x0, symName: __ZN7testing8internal16SuiteApiResolverI24NewConnectionIdFrameTestE22GetTearDownCaseOrSuiteEPKci, symObjAddr: 0x33B20, symBinAddr: 0x100035590, symSize: 0xD0 }
  - { offsetInCU: 0x1B91FA, offset: 0x1C5763, size: 0x8, addend: 0x0, symName: __ZNSt3__16vectorIN7testing8internal26ParameterizedTestSuiteInfoI24NewConnectionIdFrameTestE17InstantiationInfoENS_9allocatorIS6_EEE24__emplace_back_slow_pathIJNS_12basic_stringIcNS_11char_traitsIcEENS7_IcEEEERPFNS2_14ParamGeneratorI26NewConnectionIdFrameParamsEEvERPFSF_RKNS1_13TestParamInfoISH_EEERPKcRiEEEvDpOT_, symObjAddr: 0x33BF0, symBinAddr: 0x100035660, symSize: 0x230 }
  - { offsetInCU: 0x1B9B3B, offset: 0x1C60A4, size: 0x8, addend: 0x0, symName: __ZNKSt3__16vectorIN7testing8internal26ParameterizedTestSuiteInfoI24NewConnectionIdFrameTestE17InstantiationInfoENS_9allocatorIS6_EEE20__throw_length_errorB8ue170006Ev, symObjAddr: 0x33E20, symBinAddr: 0x100035890, symSize: 0x10 }
  - { offsetInCU: 0x1B9B64, offset: 0x1C60CD, size: 0x8, addend: 0x0, symName: __ZN7testing8internal27CheckedDowncastToActualTypeINS0_26ParameterizedTestSuiteInfoI27RetireConnectionIdFrameTestEENS0_30ParameterizedTestSuiteInfoBaseEEEPT_PT0_, symObjAddr: 0x33E30, symBinAddr: 0x1000358A0, symSize: 0xA0 }
  - { offsetInCU: 0x1B9B70, offset: 0x1C60D9, size: 0x8, addend: 0x0, symName: __ZN7testing8internal26ParameterizedTestSuiteInfoI27RetireConnectionIdFrameTestED1Ev, symObjAddr: 0x33ED0, symBinAddr: 0x100035940, symSize: 0x10 }
  - { offsetInCU: 0x1B9BA8, offset: 0x1C6111, size: 0x8, addend: 0x0, symName: __ZN7testing8internal26ParameterizedTestSuiteInfoI27RetireConnectionIdFrameTestED2Ev, symObjAddr: 0x34DD0, symBinAddr: 0x100036840, symSize: 0xF0 }
  - { offsetInCU: 0x1BA3DB, offset: 0x1C6944, size: 0x8, addend: 0x0, symName: __ZN7testing8internal26ParameterizedTestSuiteInfoI27RetireConnectionIdFrameTestED0Ev, symObjAddr: 0x33EE0, symBinAddr: 0x100035950, symSize: 0x20 }
  - { offsetInCU: 0x1BA43F, offset: 0x1C69A8, size: 0x8, addend: 0x0, symName: __ZNK7testing8internal26ParameterizedTestSuiteInfoI27RetireConnectionIdFrameTestE16GetTestSuiteNameEv, symObjAddr: 0x33F00, symBinAddr: 0x100035970, symSize: 0x10 }
  - { offsetInCU: 0x1BA464, offset: 0x1C69CD, size: 0x8, addend: 0x0, symName: __ZNK7testing8internal26ParameterizedTestSuiteInfoI27RetireConnectionIdFrameTestE18GetTestSuiteTypeIdEv, symObjAddr: 0x33F10, symBinAddr: 0x100035980, symSize: 0x10 }
  - { offsetInCU: 0x1BA765, offset: 0x1C6CCE, size: 0x8, addend: 0x0, symName: __ZN7testing8internal26ParameterizedTestSuiteInfoI27RetireConnectionIdFrameTestE13RegisterTestsEv, symObjAddr: 0x33F20, symBinAddr: 0x100035990, symSize: 0xEB0 }
  - { offsetInCU: 0x1BEA05, offset: 0x1CAF6E, size: 0x8, addend: 0x0, symName: __ZN7testing8internal26ParameterizedTestSuiteInfoI27RetireConnectionIdFrameTestE16IsValidParamNameERKNSt3__112basic_stringIcNS4_11char_traitsIcEENS4_9allocatorIcEEEE, symObjAddr: 0x34EC0, symBinAddr: 0x100036930, symSize: 0xE0 }
  - { offsetInCU: 0x1BEC59, offset: 0x1CB1C2, size: 0x8, addend: 0x0, symName: __ZN7testing8internal16SuiteApiResolverI27RetireConnectionIdFrameTestE19GetSetUpCaseOrSuiteEPKci, symObjAddr: 0x35090, symBinAddr: 0x100036B00, symSize: 0xD0 }
  - { offsetInCU: 0x1BEE00, offset: 0x1CB369, size: 0x8, addend: 0x0, symName: __ZN7testing8internal16SuiteApiResolverI27RetireConnectionIdFrameTestE22GetTearDownCaseOrSuiteEPKci, symObjAddr: 0x35160, symBinAddr: 0x100036BD0, symSize: 0xD0 }
  - { offsetInCU: 0x1BF700, offset: 0x1CBC69, size: 0x8, addend: 0x0, symName: __ZNSt3__16vectorIN7testing8internal26ParameterizedTestSuiteInfoI27RetireConnectionIdFrameTestE17InstantiationInfoENS_9allocatorIS6_EEE24__emplace_back_slow_pathIJNS_12basic_stringIcNS_11char_traitsIcEENS7_IcEEEERPFNS2_14ParamGeneratorI29RetireConnectionIdFrameParamsEEvERPFSF_RKNS1_13TestParamInfoISH_EEERPKcRiEEEvDpOT_, symObjAddr: 0x35230, symBinAddr: 0x100036CA0, symSize: 0x230 }
  - { offsetInCU: 0x1C0041, offset: 0x1CC5AA, size: 0x8, addend: 0x0, symName: __ZNKSt3__16vectorIN7testing8internal26ParameterizedTestSuiteInfoI27RetireConnectionIdFrameTestE17InstantiationInfoENS_9allocatorIS6_EEE20__throw_length_errorB8ue170006Ev, symObjAddr: 0x35460, symBinAddr: 0x100036ED0, symSize: 0x10 }
  - { offsetInCU: 0x1C006A, offset: 0x1CC5D3, size: 0x8, addend: 0x0, symName: __ZN7testing8internal27CheckedDowncastToActualTypeINS0_26ParameterizedTestSuiteInfoI30PathChallengeResponseFrameTestEENS0_30ParameterizedTestSuiteInfoBaseEEEPT_PT0_, symObjAddr: 0x35470, symBinAddr: 0x100036EE0, symSize: 0xA0 }
  - { offsetInCU: 0x1C0076, offset: 0x1CC5DF, size: 0x8, addend: 0x0, symName: __ZN7testing8internal26ParameterizedTestSuiteInfoI30PathChallengeResponseFrameTestED1Ev, symObjAddr: 0x35510, symBinAddr: 0x100036F80, symSize: 0x10 }
  - { offsetInCU: 0x1C00AE, offset: 0x1CC617, size: 0x8, addend: 0x0, symName: __ZN7testing8internal26ParameterizedTestSuiteInfoI30PathChallengeResponseFrameTestED2Ev, symObjAddr: 0x36410, symBinAddr: 0x100037E80, symSize: 0xF0 }
  - { offsetInCU: 0x1C08E1, offset: 0x1CCE4A, size: 0x8, addend: 0x0, symName: __ZN7testing8internal26ParameterizedTestSuiteInfoI30PathChallengeResponseFrameTestED0Ev, symObjAddr: 0x35520, symBinAddr: 0x100036F90, symSize: 0x20 }
  - { offsetInCU: 0x1C0945, offset: 0x1CCEAE, size: 0x8, addend: 0x0, symName: __ZNK7testing8internal26ParameterizedTestSuiteInfoI30PathChallengeResponseFrameTestE16GetTestSuiteNameEv, symObjAddr: 0x35540, symBinAddr: 0x100036FB0, symSize: 0x10 }
  - { offsetInCU: 0x1C096A, offset: 0x1CCED3, size: 0x8, addend: 0x0, symName: __ZNK7testing8internal26ParameterizedTestSuiteInfoI30PathChallengeResponseFrameTestE18GetTestSuiteTypeIdEv, symObjAddr: 0x35550, symBinAddr: 0x100036FC0, symSize: 0x10 }
  - { offsetInCU: 0x1C0A5B, offset: 0x1CCFC4, size: 0x8, addend: 0x0, symName: __ZN7testing8internal26ParameterizedTestSuiteInfoI30PathChallengeResponseFrameTestE13RegisterTestsEv, symObjAddr: 0x35560, symBinAddr: 0x100036FD0, symSize: 0xEB0 }
  - { offsetInCU: 0x1C4CFB, offset: 0x1D1264, size: 0x8, addend: 0x0, symName: __ZN7testing8internal26ParameterizedTestSuiteInfoI30PathChallengeResponseFrameTestE16IsValidParamNameERKNSt3__112basic_stringIcNS4_11char_traitsIcEENS4_9allocatorIcEEEE, symObjAddr: 0x36500, symBinAddr: 0x100037F70, symSize: 0xE0 }
  - { offsetInCU: 0x1C4F4F, offset: 0x1D14B8, size: 0x8, addend: 0x0, symName: __ZN7testing8internal16SuiteApiResolverI30PathChallengeResponseFrameTestE19GetSetUpCaseOrSuiteEPKci, symObjAddr: 0x365E0, symBinAddr: 0x100038050, symSize: 0xD0 }
  - { offsetInCU: 0x1C50F6, offset: 0x1D165F, size: 0x8, addend: 0x0, symName: __ZN7testing8internal16SuiteApiResolverI30PathChallengeResponseFrameTestE22GetTearDownCaseOrSuiteEPKci, symObjAddr: 0x366B0, symBinAddr: 0x100038120, symSize: 0xD0 }
  - { offsetInCU: 0x1C5968, offset: 0x1D1ED1, size: 0x8, addend: 0x0, symName: __ZNSt3__16vectorIN7testing8internal26ParameterizedTestSuiteInfoI30PathChallengeResponseFrameTestE17InstantiationInfoENS_9allocatorIS6_EEE24__emplace_back_slow_pathIJNS_12basic_stringIcNS_11char_traitsIcEENS7_IcEEEERPFNS2_14ParamGeneratorI15QUIC_FRAME_TYPEEEvERPFSF_RKNS1_13TestParamInfoISH_EEERPKcRiEEEvDpOT_, symObjAddr: 0x36780, symBinAddr: 0x1000381F0, symSize: 0x230 }
  - { offsetInCU: 0x1C62A9, offset: 0x1D2812, size: 0x8, addend: 0x0, symName: __ZNKSt3__16vectorIN7testing8internal26ParameterizedTestSuiteInfoI30PathChallengeResponseFrameTestE17InstantiationInfoENS_9allocatorIS6_EEE20__throw_length_errorB8ue170006Ev, symObjAddr: 0x369B0, symBinAddr: 0x100038420, symSize: 0x10 }
  - { offsetInCU: 0x1C62D2, offset: 0x1D283B, size: 0x8, addend: 0x0, symName: __ZN7testing8internal27CheckedDowncastToActualTypeINS0_26ParameterizedTestSuiteInfoI24ConnectionCloseFrameTestEENS0_30ParameterizedTestSuiteInfoBaseEEEPT_PT0_, symObjAddr: 0x369C0, symBinAddr: 0x100038430, symSize: 0xA0 }
  - { offsetInCU: 0x1C62DE, offset: 0x1D2847, size: 0x8, addend: 0x0, symName: __ZN7testing8internal26ParameterizedTestSuiteInfoI24ConnectionCloseFrameTestED1Ev, symObjAddr: 0x36A60, symBinAddr: 0x1000384D0, symSize: 0x10 }
  - { offsetInCU: 0x1C6316, offset: 0x1D287F, size: 0x8, addend: 0x0, symName: __ZN7testing8internal26ParameterizedTestSuiteInfoI24ConnectionCloseFrameTestED2Ev, symObjAddr: 0x37960, symBinAddr: 0x1000393D0, symSize: 0xF0 }
  - { offsetInCU: 0x1C6B49, offset: 0x1D30B2, size: 0x8, addend: 0x0, symName: __ZN7testing8internal26ParameterizedTestSuiteInfoI24ConnectionCloseFrameTestED0Ev, symObjAddr: 0x36A70, symBinAddr: 0x1000384E0, symSize: 0x20 }
  - { offsetInCU: 0x1C6BAD, offset: 0x1D3116, size: 0x8, addend: 0x0, symName: __ZNK7testing8internal26ParameterizedTestSuiteInfoI24ConnectionCloseFrameTestE16GetTestSuiteNameEv, symObjAddr: 0x36A90, symBinAddr: 0x100038500, symSize: 0x10 }
  - { offsetInCU: 0x1C6BD2, offset: 0x1D313B, size: 0x8, addend: 0x0, symName: __ZNK7testing8internal26ParameterizedTestSuiteInfoI24ConnectionCloseFrameTestE18GetTestSuiteTypeIdEv, symObjAddr: 0x36AA0, symBinAddr: 0x100038510, symSize: 0x10 }
  - { offsetInCU: 0x1C6CC3, offset: 0x1D322C, size: 0x8, addend: 0x0, symName: __ZN7testing8internal26ParameterizedTestSuiteInfoI24ConnectionCloseFrameTestE13RegisterTestsEv, symObjAddr: 0x36AB0, symBinAddr: 0x100038520, symSize: 0xEB0 }
  - { offsetInCU: 0x1CAF63, offset: 0x1D74CC, size: 0x8, addend: 0x0, symName: __ZN7testing8internal26ParameterizedTestSuiteInfoI24ConnectionCloseFrameTestE16IsValidParamNameERKNSt3__112basic_stringIcNS4_11char_traitsIcEENS4_9allocatorIcEEEE, symObjAddr: 0x37A50, symBinAddr: 0x1000394C0, symSize: 0xE0 }
  - { offsetInCU: 0x1CB1B7, offset: 0x1D7720, size: 0x8, addend: 0x0, symName: __ZN7testing8internal16SuiteApiResolverI24ConnectionCloseFrameTestE19GetSetUpCaseOrSuiteEPKci, symObjAddr: 0x37B30, symBinAddr: 0x1000395A0, symSize: 0xD0 }
  - { offsetInCU: 0x1CB35E, offset: 0x1D78C7, size: 0x8, addend: 0x0, symName: __ZN7testing8internal16SuiteApiResolverI24ConnectionCloseFrameTestE22GetTearDownCaseOrSuiteEPKci, symObjAddr: 0x37C00, symBinAddr: 0x100039670, symSize: 0xD0 }
  - { offsetInCU: 0x1CBBD0, offset: 0x1D8139, size: 0x8, addend: 0x0, symName: __ZNSt3__16vectorIN7testing8internal26ParameterizedTestSuiteInfoI24ConnectionCloseFrameTestE17InstantiationInfoENS_9allocatorIS6_EEE24__emplace_back_slow_pathIJNS_12basic_stringIcNS_11char_traitsIcEENS7_IcEEEERPFNS2_14ParamGeneratorIbEEvERPFSF_RKNS1_13TestParamInfoIbEEERPKcRiEEEvDpOT_, symObjAddr: 0x37CD0, symBinAddr: 0x100039740, symSize: 0x230 }
  - { offsetInCU: 0x1CC511, offset: 0x1D8A7A, size: 0x8, addend: 0x0, symName: __ZNKSt3__16vectorIN7testing8internal26ParameterizedTestSuiteInfoI24ConnectionCloseFrameTestE17InstantiationInfoENS_9allocatorIS6_EEE20__throw_length_errorB8ue170006Ev, symObjAddr: 0x37F00, symBinAddr: 0x100039970, symSize: 0x10 }
  - { offsetInCU: 0x1CC53A, offset: 0x1D8AA3, size: 0x8, addend: 0x0, symName: __ZN7testing8internal27CheckedDowncastToActualTypeINS0_26ParameterizedTestSuiteInfoI30ConnectionCloseFrameDecodeTestEENS0_30ParameterizedTestSuiteInfoBaseEEEPT_PT0_, symObjAddr: 0x37F10, symBinAddr: 0x100039980, symSize: 0xA0 }
  - { offsetInCU: 0x1CC546, offset: 0x1D8AAF, size: 0x8, addend: 0x0, symName: __ZN7testing8internal26ParameterizedTestSuiteInfoI30ConnectionCloseFrameDecodeTestED1Ev, symObjAddr: 0x37FB0, symBinAddr: 0x100039A20, symSize: 0x10 }
  - { offsetInCU: 0x1CC57E, offset: 0x1D8AE7, size: 0x8, addend: 0x0, symName: __ZN7testing8internal26ParameterizedTestSuiteInfoI30ConnectionCloseFrameDecodeTestED2Ev, symObjAddr: 0x38EB0, symBinAddr: 0x10003A920, symSize: 0xF0 }
  - { offsetInCU: 0x1CCDB1, offset: 0x1D931A, size: 0x8, addend: 0x0, symName: __ZN7testing8internal26ParameterizedTestSuiteInfoI30ConnectionCloseFrameDecodeTestED0Ev, symObjAddr: 0x37FC0, symBinAddr: 0x100039A30, symSize: 0x20 }
  - { offsetInCU: 0x1CCE15, offset: 0x1D937E, size: 0x8, addend: 0x0, symName: __ZNK7testing8internal26ParameterizedTestSuiteInfoI30ConnectionCloseFrameDecodeTestE16GetTestSuiteNameEv, symObjAddr: 0x37FE0, symBinAddr: 0x100039A50, symSize: 0x10 }
  - { offsetInCU: 0x1CCE3A, offset: 0x1D93A3, size: 0x8, addend: 0x0, symName: __ZNK7testing8internal26ParameterizedTestSuiteInfoI30ConnectionCloseFrameDecodeTestE18GetTestSuiteTypeIdEv, symObjAddr: 0x37FF0, symBinAddr: 0x100039A60, symSize: 0x10 }
  - { offsetInCU: 0x1CD13B, offset: 0x1D96A4, size: 0x8, addend: 0x0, symName: __ZN7testing8internal26ParameterizedTestSuiteInfoI30ConnectionCloseFrameDecodeTestE13RegisterTestsEv, symObjAddr: 0x38000, symBinAddr: 0x100039A70, symSize: 0xEB0 }
  - { offsetInCU: 0x1D13DB, offset: 0x1DD944, size: 0x8, addend: 0x0, symName: __ZN7testing8internal26ParameterizedTestSuiteInfoI30ConnectionCloseFrameDecodeTestE16IsValidParamNameERKNSt3__112basic_stringIcNS4_11char_traitsIcEENS4_9allocatorIcEEEE, symObjAddr: 0x38FA0, symBinAddr: 0x10003AA10, symSize: 0xE0 }
  - { offsetInCU: 0x1D162F, offset: 0x1DDB98, size: 0x8, addend: 0x0, symName: __ZN7testing8internal16SuiteApiResolverI30ConnectionCloseFrameDecodeTestE19GetSetUpCaseOrSuiteEPKci, symObjAddr: 0x39170, symBinAddr: 0x10003ABE0, symSize: 0xD0 }
  - { offsetInCU: 0x1D17D6, offset: 0x1DDD3F, size: 0x8, addend: 0x0, symName: __ZN7testing8internal16SuiteApiResolverI30ConnectionCloseFrameDecodeTestE22GetTearDownCaseOrSuiteEPKci, symObjAddr: 0x39240, symBinAddr: 0x10003ACB0, symSize: 0xD0 }
  - { offsetInCU: 0x1D20D6, offset: 0x1DE63F, size: 0x8, addend: 0x0, symName: __ZNSt3__16vectorIN7testing8internal26ParameterizedTestSuiteInfoI30ConnectionCloseFrameDecodeTestE17InstantiationInfoENS_9allocatorIS6_EEE24__emplace_back_slow_pathIJNS_12basic_stringIcNS_11char_traitsIcEENS7_IcEEEERPFNS2_14ParamGeneratorI26ConnectionCloseFrameParamsEEvERPFSF_RKNS1_13TestParamInfoISH_EEERPKcRiEEEvDpOT_, symObjAddr: 0x39310, symBinAddr: 0x10003AD80, symSize: 0x230 }
  - { offsetInCU: 0x1D2A17, offset: 0x1DEF80, size: 0x8, addend: 0x0, symName: __ZNKSt3__16vectorIN7testing8internal26ParameterizedTestSuiteInfoI30ConnectionCloseFrameDecodeTestE17InstantiationInfoENS_9allocatorIS6_EEE20__throw_length_errorB8ue170006Ev, symObjAddr: 0x39540, symBinAddr: 0x10003AFB0, symSize: 0x10 }
  - { offsetInCU: 0x1D2A40, offset: 0x1DEFA9, size: 0x8, addend: 0x0, symName: __ZNSt3__110shared_ptrIN7testing8internal26ParameterizedTestSuiteInfoI12AckFrameTestE8TestInfoEEC1B8ue170006IS6_vEEPT_.cold.1, symObjAddr: 0x39550, symBinAddr: 0x100419B10, symSize: 0x50 }
  - { offsetInCU: 0x4D, offset: 0x1DF4D8, size: 0x8, addend: 0x0, symName: __ZN41PacketNumberTest_WellKnownDecompress_Test10test_info_E, symObjAddr: 0x3DDB8, symBinAddr: 0x1004FC7E8, symSize: 0x0 }
  - { offsetInCU: 0xAEAD, offset: 0x1EA338, size: 0x8, addend: 0x0, symName: __ZN41PacketNumberTest_WellKnownDecompress_Test8TestBodyEv, symObjAddr: 0x1A0, symBinAddr: 0x10003DE80, symSize: 0x2D0 }
  - { offsetInCU: 0xB912, offset: 0x1EAD9D, size: 0x8, addend: 0x0, symName: __ZN41PacketNumberTest_WellKnownDecompress_TestD1Ev, symObjAddr: 0x4B0, symBinAddr: 0x10003E150, symSize: 0x10 }
  - { offsetInCU: 0xB96B, offset: 0x1EADF6, size: 0x8, addend: 0x0, symName: __ZN41PacketNumberTest_WellKnownDecompress_TestD0Ev, symObjAddr: 0x4C0, symBinAddr: 0x10003E160, symSize: 0x20 }
  - { offsetInCU: 0xB9D7, offset: 0x1EAE62, size: 0x8, addend: 0x0, symName: __ZN7testing8internal15TestFactoryImplI41PacketNumberTest_WellKnownDecompress_TestED1Ev, symObjAddr: 0x500, symBinAddr: 0x10003E180, symSize: 0x10 }
  - { offsetInCU: 0xBA03, offset: 0x1EAE8E, size: 0x8, addend: 0x0, symName: __ZN7testing8internal15TestFactoryImplI41PacketNumberTest_WellKnownDecompress_TestED0Ev, symObjAddr: 0x510, symBinAddr: 0x10003E190, symSize: 0x10 }
  - { offsetInCU: 0xBA63, offset: 0x1EAEEE, size: 0x8, addend: 0x0, symName: __ZN7testing8internal15TestFactoryImplI41PacketNumberTest_WellKnownDecompress_TestE10CreateTestEv, symObjAddr: 0x520, symBinAddr: 0x10003E1A0, symSize: 0x50 }
  - { offsetInCU: 0x4D, offset: 0x1EB3BA, size: 0x8, addend: 0x0, symName: __ZN36PartitionTest_RandomPartitionId_Test10test_info_E, symObjAddr: 0x3D7E0, symBinAddr: 0x1004FC7F0, symSize: 0x0 }
  - { offsetInCU: 0x22A, offset: 0x1EB597, size: 0x8, addend: 0x0, symName: __ZN7testing8internal18CmpHelperEQFailureIttEENS_15AssertionResultEPKcS4_RKT_RKT0_, symObjAddr: 0x7A0, symBinAddr: 0x10003E670, symSize: 0xC0 }
  - { offsetInCU: 0x139B, offset: 0x1EC708, size: 0x8, addend: 0x0, symName: __ZN7testing13PrintToStringItEENSt3__112basic_stringIcNS1_11char_traitsIcEENS1_9allocatorIcEEEERKT_, symObjAddr: 0x860, symBinAddr: 0x10003E730, symSize: 0xF0 }
  - { offsetInCU: 0xB362, offset: 0x1F66CF, size: 0x8, addend: 0x0, symName: __ZN36PartitionTest_RandomPartitionId_Test8TestBodyEv, symObjAddr: 0x1A0, symBinAddr: 0x10003E360, symSize: 0x270 }
  - { offsetInCU: 0xBD9E, offset: 0x1F710B, size: 0x8, addend: 0x0, symName: __ZN36PartitionTest_RandomPartitionId_Test8TestBodyEv.cold.1, symObjAddr: 0xB00, symBinAddr: 0x10041A060, symSize: 0x26 }
  - { offsetInCU: 0xBF41, offset: 0x1F72AE, size: 0x8, addend: 0x0, symName: __ZN36PartitionTest_RandomPartitionId_TestD1Ev, symObjAddr: 0x410, symBinAddr: 0x10003E5D0, symSize: 0x10 }
  - { offsetInCU: 0xBF9A, offset: 0x1F7307, size: 0x8, addend: 0x0, symName: __ZN36PartitionTest_RandomPartitionId_TestD0Ev, symObjAddr: 0x420, symBinAddr: 0x10003E5E0, symSize: 0x20 }
  - { offsetInCU: 0xC006, offset: 0x1F7373, size: 0x8, addend: 0x0, symName: __ZN7testing8internal15TestFactoryImplI36PartitionTest_RandomPartitionId_TestED1Ev, symObjAddr: 0x460, symBinAddr: 0x10003E600, symSize: 0x10 }
  - { offsetInCU: 0xC032, offset: 0x1F739F, size: 0x8, addend: 0x0, symName: __ZN7testing8internal15TestFactoryImplI36PartitionTest_RandomPartitionId_TestED0Ev, symObjAddr: 0x470, symBinAddr: 0x10003E610, symSize: 0x10 }
  - { offsetInCU: 0xC092, offset: 0x1F73FF, size: 0x8, addend: 0x0, symName: __ZN7testing8internal15TestFactoryImplI36PartitionTest_RandomPartitionId_TestE10CreateTestEv, symObjAddr: 0x480, symBinAddr: 0x10003E620, symSize: 0x50 }
  - { offsetInCU: 0x4D, offset: 0x1F7885, size: 0x8, addend: 0x0, symName: __ZN24RangeTest_AddSingle_Test10test_info_E, symObjAddr: 0x1207B0, symBinAddr: 0x1004FC7F8, symSize: 0x0 }
  - { offsetInCU: 0x75F, offset: 0x1F7F97, size: 0x8, addend: 0x0, symName: __ZN7testing8internal18CmpHelperEQFailureIyjEENS_15AssertionResultEPKcS4_RKT_RKT0_, symObjAddr: 0x12CD0, symBinAddr: 0x100050C60, symSize: 0xC0 }
  - { offsetInCU: 0xE19, offset: 0x1F8651, size: 0x8, addend: 0x0, symName: __ZN7testing8internal18CmpHelperEQFailureIihEENS_15AssertionResultEPKcS4_RKT_RKT0_, symObjAddr: 0x11280, symBinAddr: 0x10004FA20, symSize: 0xC0 }
  - { offsetInCU: 0x18AE, offset: 0x1F90E6, size: 0x8, addend: 0x0, symName: __ZN7testing8internal18CmpHelperEQFailureIjmEENS_15AssertionResultEPKcS4_RKT_RKT0_, symObjAddr: 0x12F40, symBinAddr: 0x100050D20, symSize: 0xC0 }
  - { offsetInCU: 0x496D, offset: 0x1FC1A5, size: 0x8, addend: 0x0, symName: __ZN7testing13PrintToStringImEENSt3__112basic_stringIcNS1_11char_traitsIcEENS1_9allocatorIcEEEERKT_, symObjAddr: 0x13000, symBinAddr: 0x100050DE0, symSize: 0xF0 }
  - { offsetInCU: 0xC59A, offset: 0x203DD2, size: 0x8, addend: 0x0, symName: __ZN35RangeTest_AddTwoAdjacentBefore_Test10test_info_E, symObjAddr: 0x1207B8, symBinAddr: 0x1004FC800, symSize: 0x0 }
  - { offsetInCU: 0xC680, offset: 0x203EB8, size: 0x8, addend: 0x0, symName: __ZN34RangeTest_AddTwoAdjacentAfter_Test10test_info_E, symObjAddr: 0x1207C0, symBinAddr: 0x1004FC808, symSize: 0x0 }
  - { offsetInCU: 0xC766, offset: 0x203F9E, size: 0x8, addend: 0x0, symName: __ZN35RangeTest_AddTwoSeparateBefore_Test10test_info_E, symObjAddr: 0x1207C8, symBinAddr: 0x1004FC810, symSize: 0x0 }
  - { offsetInCU: 0xC84C, offset: 0x204084, size: 0x8, addend: 0x0, symName: __ZN34RangeTest_AddTwoSeparateAfter_Test10test_info_E, symObjAddr: 0x1207D0, symBinAddr: 0x1004FC818, symSize: 0x0 }
  - { offsetInCU: 0xC932, offset: 0x20416A, size: 0x8, addend: 0x0, symName: __ZN28RangeTest_AddThreeMerge_Test10test_info_E, symObjAddr: 0x1207D8, symBinAddr: 0x1004FC820, symSize: 0x0 }
  - { offsetInCU: 0xCA18, offset: 0x204250, size: 0x8, addend: 0x0, symName: __ZN25RangeTest_AddBetween_Test10test_info_E, symObjAddr: 0x1207E0, symBinAddr: 0x1004FC828, symSize: 0x0 }
  - { offsetInCU: 0xCAFE, offset: 0x204336, size: 0x8, addend: 0x0, symName: __ZN29RangeTest_AddRangeSingle_Test10test_info_E, symObjAddr: 0x1207E8, symBinAddr: 0x1004FC830, symSize: 0x0 }
  - { offsetInCU: 0xCBE4, offset: 0x20441C, size: 0x8, addend: 0x0, symName: __ZN30RangeTest_AddRangeBetween_Test10test_info_E, symObjAddr: 0x1207F0, symBinAddr: 0x1004FC838, symSize: 0x0 }
  - { offsetInCU: 0xCCCA, offset: 0x204502, size: 0x8, addend: 0x0, symName: __ZN40RangeTest_AddRangeTwoAdjacentBefore_Test10test_info_E, symObjAddr: 0x1207F8, symBinAddr: 0x1004FC840, symSize: 0x0 }
  - { offsetInCU: 0xCDB0, offset: 0x2045E8, size: 0x8, addend: 0x0, symName: __ZN39RangeTest_AddRangeTwoAdjacentAfter_Test10test_info_E, symObjAddr: 0x120800, symBinAddr: 0x1004FC848, symSize: 0x0 }
  - { offsetInCU: 0xCE96, offset: 0x2046CE, size: 0x8, addend: 0x0, symName: __ZN40RangeTest_AddRangeTwoSeparateBefore_Test10test_info_E, symObjAddr: 0x120808, symBinAddr: 0x1004FC850, symSize: 0x0 }
  - { offsetInCU: 0xCF7C, offset: 0x2047B4, size: 0x8, addend: 0x0, symName: __ZN39RangeTest_AddRangeTwoSeparateAfter_Test10test_info_E, symObjAddr: 0x120810, symBinAddr: 0x1004FC858, symSize: 0x0 }
  - { offsetInCU: 0xD062, offset: 0x20489A, size: 0x8, addend: 0x0, symName: __ZN40RangeTest_AddRangeTwoOverlapBefore1_Test10test_info_E, symObjAddr: 0x120818, symBinAddr: 0x1004FC860, symSize: 0x0 }
  - { offsetInCU: 0xD148, offset: 0x204980, size: 0x8, addend: 0x0, symName: __ZN40RangeTest_AddRangeTwoOverlapBefore2_Test10test_info_E, symObjAddr: 0x120820, symBinAddr: 0x1004FC868, symSize: 0x0 }
  - { offsetInCU: 0xD22E, offset: 0x204A66, size: 0x8, addend: 0x0, symName: __ZN40RangeTest_AddRangeTwoOverlapBefore3_Test10test_info_E, symObjAddr: 0x120828, symBinAddr: 0x1004FC870, symSize: 0x0 }
  - { offsetInCU: 0xD314, offset: 0x204B4C, size: 0x8, addend: 0x0, symName: __ZN39RangeTest_AddRangeTwoOverlapAfter1_Test10test_info_E, symObjAddr: 0x120830, symBinAddr: 0x1004FC878, symSize: 0x0 }
  - { offsetInCU: 0xD3FA, offset: 0x204C32, size: 0x8, addend: 0x0, symName: __ZN39RangeTest_AddRangeTwoOverlapAfter2_Test10test_info_E, symObjAddr: 0x120838, symBinAddr: 0x1004FC880, symSize: 0x0 }
  - { offsetInCU: 0xD4EA, offset: 0x204D22, size: 0x8, addend: 0x0, symName: __ZN33RangeTest_AddRangeThreeMerge_Test10test_info_E, symObjAddr: 0x120840, symBinAddr: 0x1004FC888, symSize: 0x0 }
  - { offsetInCU: 0xD5DA, offset: 0x204E12, size: 0x8, addend: 0x0, symName: __ZN52RangeTest_AddRangeThreeOverlapAndAdjacentAfter1_Test10test_info_E, symObjAddr: 0x120848, symBinAddr: 0x1004FC890, symSize: 0x0 }
  - { offsetInCU: 0xD6CA, offset: 0x204F02, size: 0x8, addend: 0x0, symName: __ZN52RangeTest_AddRangeThreeOverlapAndAdjacentAfter2_Test10test_info_E, symObjAddr: 0x120850, symBinAddr: 0x1004FC898, symSize: 0x0 }
  - { offsetInCU: 0xD7BA, offset: 0x204FF2, size: 0x8, addend: 0x0, symName: __ZN52RangeTest_AddRangeThreeOverlapAndAdjacentAfter3_Test10test_info_E, symObjAddr: 0x120858, symBinAddr: 0x1004FC8A0, symSize: 0x0 }
  - { offsetInCU: 0xD8AA, offset: 0x2050E2, size: 0x8, addend: 0x0, symName: __ZN52RangeTest_AddRangeThreeOverlapAndAdjacentAfter4_Test10test_info_E, symObjAddr: 0x120860, symBinAddr: 0x1004FC8A8, symSize: 0x0 }
  - { offsetInCU: 0xD99A, offset: 0x2051D2, size: 0x8, addend: 0x0, symName: __ZN32RangeTest_RemoveRangeBefore_Test10test_info_E, symObjAddr: 0x120868, symBinAddr: 0x1004FC8B0, symSize: 0x0 }
  - { offsetInCU: 0xDA8A, offset: 0x2052C2, size: 0x8, addend: 0x0, symName: __ZN31RangeTest_RemoveRangeAfter_Test10test_info_E, symObjAddr: 0x120870, symBinAddr: 0x1004FC8B8, symSize: 0x0 }
  - { offsetInCU: 0xDB7A, offset: 0x2053B2, size: 0x8, addend: 0x0, symName: __ZN31RangeTest_RemoveRangeFront_Test10test_info_E, symObjAddr: 0x120878, symBinAddr: 0x1004FC8C0, symSize: 0x0 }
  - { offsetInCU: 0xDC6A, offset: 0x2054A2, size: 0x8, addend: 0x0, symName: __ZN30RangeTest_RemoveRangeBack_Test10test_info_E, symObjAddr: 0x120880, symBinAddr: 0x1004FC8C8, symSize: 0x0 }
  - { offsetInCU: 0xDD5A, offset: 0x205592, size: 0x8, addend: 0x0, symName: __ZN29RangeTest_RemoveRangeAll_Test10test_info_E, symObjAddr: 0x120888, symBinAddr: 0x1004FC8D0, symSize: 0x0 }
  - { offsetInCU: 0xDE4A, offset: 0x205682, size: 0x8, addend: 0x0, symName: __ZN29RangeTest_ExampleAckTest_Test10test_info_E, symObjAddr: 0x120890, symBinAddr: 0x1004FC8D8, symSize: 0x0 }
  - { offsetInCU: 0xDF3A, offset: 0x205772, size: 0x8, addend: 0x0, symName: __ZN37RangeTest_ExampleAckWithLossTest_Test10test_info_E, symObjAddr: 0x120898, symBinAddr: 0x1004FC8E0, symSize: 0x0 }
  - { offsetInCU: 0xE02A, offset: 0x205862, size: 0x8, addend: 0x0, symName: __ZN22RangeTest_AddLots_Test10test_info_E, symObjAddr: 0x1208A0, symBinAddr: 0x1004FC8E8, symSize: 0x0 }
  - { offsetInCU: 0xE11A, offset: 0x205952, size: 0x8, addend: 0x0, symName: __ZN21RangeTest_HitMax_Test10test_info_E, symObjAddr: 0x1208A8, symBinAddr: 0x1004FC8F0, symSize: 0x0 }
  - { offsetInCU: 0xE20A, offset: 0x205A42, size: 0x8, addend: 0x0, symName: __ZN25RangeTest_SearchZero_Test10test_info_E, symObjAddr: 0x1208B0, symBinAddr: 0x1004FC8F8, symSize: 0x0 }
  - { offsetInCU: 0xE2FA, offset: 0x205B32, size: 0x8, addend: 0x0, symName: __ZN24RangeTest_SearchOne_Test10test_info_E, symObjAddr: 0x1208B8, symBinAddr: 0x1004FC900, symSize: 0x0 }
  - { offsetInCU: 0xE3EA, offset: 0x205C22, size: 0x8, addend: 0x0, symName: __ZN24RangeTest_SearchTwo_Test10test_info_E, symObjAddr: 0x1208C0, symBinAddr: 0x1004FC908, symSize: 0x0 }
  - { offsetInCU: 0xE4DA, offset: 0x205D12, size: 0x8, addend: 0x0, symName: __ZN26RangeTest_SearchThree_Test10test_info_E, symObjAddr: 0x1208C8, symBinAddr: 0x1004FC910, symSize: 0x0 }
  - { offsetInCU: 0xE5CA, offset: 0x205E02, size: 0x8, addend: 0x0, symName: __ZN25RangeTest_SearchFour_Test10test_info_E, symObjAddr: 0x1208D0, symBinAddr: 0x1004FC918, symSize: 0x0 }
  - { offsetInCU: 0xE6BA, offset: 0x205EF2, size: 0x8, addend: 0x0, symName: __ZN30RangeTest_SearchRangeZero_Test10test_info_E, symObjAddr: 0x1208D8, symBinAddr: 0x1004FC920, symSize: 0x0 }
  - { offsetInCU: 0xE7AA, offset: 0x205FE2, size: 0x8, addend: 0x0, symName: __ZN29RangeTest_SearchRangeOne_Test10test_info_E, symObjAddr: 0x1208E0, symBinAddr: 0x1004FC928, symSize: 0x0 }
  - { offsetInCU: 0xE89A, offset: 0x2060D2, size: 0x8, addend: 0x0, symName: __ZN29RangeTest_SearchRangeTwo_Test10test_info_E, symObjAddr: 0x1208E8, symBinAddr: 0x1004FC930, symSize: 0x0 }
  - { offsetInCU: 0xE98A, offset: 0x2061C2, size: 0x8, addend: 0x0, symName: __ZN31RangeTest_SearchRangeThree_Test10test_info_E, symObjAddr: 0x1208F0, symBinAddr: 0x1004FC938, symSize: 0x0 }
  - { offsetInCU: 0x11052, offset: 0x20888A, size: 0x8, addend: 0x0, symName: __ZN24RangeTest_AddSingle_Test8TestBodyEv, symObjAddr: 0x1A0, symBinAddr: 0x10003E9A0, symSize: 0x340 }
  - { offsetInCU: 0x11B91, offset: 0x2093C9, size: 0x8, addend: 0x0, symName: __ZN10SmartRange3AddEy, symObjAddr: 0x4E0, symBinAddr: 0x10003ECE0, symSize: 0x140 }
  - { offsetInCU: 0x123EC, offset: 0x209C24, size: 0x8, addend: 0x0, symName: __ZN10SmartRange3MinEv, symObjAddr: 0x660, symBinAddr: 0x10003EE20, symSize: 0x140 }
  - { offsetInCU: 0x129F4, offset: 0x20A22C, size: 0x8, addend: 0x0, symName: __ZN10SmartRange3MaxEv, symObjAddr: 0x7A0, symBinAddr: 0x10003EF60, symSize: 0x140 }
  - { offsetInCU: 0x13431, offset: 0x20AC69, size: 0x8, addend: 0x0, symName: __ZN35RangeTest_AddTwoAdjacentBefore_Test8TestBodyEv, symObjAddr: 0x8E0, symBinAddr: 0x10003F0A0, symSize: 0x350 }
  - { offsetInCU: 0x13F77, offset: 0x20B7AF, size: 0x8, addend: 0x0, symName: __ZN34RangeTest_AddTwoAdjacentAfter_Test8TestBodyEv, symObjAddr: 0xC30, symBinAddr: 0x10003F3F0, symSize: 0x350 }
  - { offsetInCU: 0x14ABD, offset: 0x20C2F5, size: 0x8, addend: 0x0, symName: __ZN35RangeTest_AddTwoSeparateBefore_Test8TestBodyEv, symObjAddr: 0xF80, symBinAddr: 0x10003F740, symSize: 0x350 }
  - { offsetInCU: 0x15603, offset: 0x20CE3B, size: 0x8, addend: 0x0, symName: __ZN34RangeTest_AddTwoSeparateAfter_Test8TestBodyEv, symObjAddr: 0x12D0, symBinAddr: 0x10003FA90, symSize: 0x350 }
  - { offsetInCU: 0x16149, offset: 0x20D981, size: 0x8, addend: 0x0, symName: __ZN28RangeTest_AddThreeMerge_Test8TestBodyEv, symObjAddr: 0x1620, symBinAddr: 0x10003FDE0, symSize: 0x360 }
  - { offsetInCU: 0x16CAD, offset: 0x20E4E5, size: 0x8, addend: 0x0, symName: __ZN25RangeTest_AddBetween_Test8TestBodyEv, symObjAddr: 0x1980, symBinAddr: 0x100040140, symSize: 0x360 }
  - { offsetInCU: 0x17811, offset: 0x20F049, size: 0x8, addend: 0x0, symName: __ZN29RangeTest_AddRangeSingle_Test8TestBodyEv, symObjAddr: 0x1CE0, symBinAddr: 0x1000404A0, symSize: 0x350 }
  - { offsetInCU: 0x18340, offset: 0x20FB78, size: 0x8, addend: 0x0, symName: __ZN10SmartRange3AddEyy, symObjAddr: 0x2030, symBinAddr: 0x1000407F0, symSize: 0x140 }
  - { offsetInCU: 0x18C2D, offset: 0x210465, size: 0x8, addend: 0x0, symName: __ZN30RangeTest_AddRangeBetween_Test8TestBodyEv, symObjAddr: 0x2170, symBinAddr: 0x100040930, symSize: 0x370 }
  - { offsetInCU: 0x197A8, offset: 0x210FE0, size: 0x8, addend: 0x0, symName: __ZN40RangeTest_AddRangeTwoAdjacentBefore_Test8TestBodyEv, symObjAddr: 0x24E0, symBinAddr: 0x100040CA0, symSize: 0x360 }
  - { offsetInCU: 0x1A2FD, offset: 0x211B35, size: 0x8, addend: 0x0, symName: __ZN39RangeTest_AddRangeTwoAdjacentAfter_Test8TestBodyEv, symObjAddr: 0x2840, symBinAddr: 0x100041000, symSize: 0x360 }
  - { offsetInCU: 0x1AE52, offset: 0x21268A, size: 0x8, addend: 0x0, symName: __ZN40RangeTest_AddRangeTwoSeparateBefore_Test8TestBodyEv, symObjAddr: 0x2BA0, symBinAddr: 0x100041360, symSize: 0x360 }
  - { offsetInCU: 0x1B9A7, offset: 0x2131DF, size: 0x8, addend: 0x0, symName: __ZN39RangeTest_AddRangeTwoSeparateAfter_Test8TestBodyEv, symObjAddr: 0x2F00, symBinAddr: 0x1000416C0, symSize: 0x360 }
  - { offsetInCU: 0x1C4FC, offset: 0x213D34, size: 0x8, addend: 0x0, symName: __ZN40RangeTest_AddRangeTwoOverlapBefore1_Test8TestBodyEv, symObjAddr: 0x3260, symBinAddr: 0x100041A20, symSize: 0x360 }
  - { offsetInCU: 0x1D052, offset: 0x21488A, size: 0x8, addend: 0x0, symName: __ZN40RangeTest_AddRangeTwoOverlapBefore2_Test8TestBodyEv, symObjAddr: 0x35C0, symBinAddr: 0x100041D80, symSize: 0x360 }
  - { offsetInCU: 0x1DBA8, offset: 0x2153E0, size: 0x8, addend: 0x0, symName: __ZN40RangeTest_AddRangeTwoOverlapBefore3_Test8TestBodyEv, symObjAddr: 0x3920, symBinAddr: 0x1000420E0, symSize: 0x360 }
  - { offsetInCU: 0x1E6FE, offset: 0x215F36, size: 0x8, addend: 0x0, symName: __ZN39RangeTest_AddRangeTwoOverlapAfter1_Test8TestBodyEv, symObjAddr: 0x3C80, symBinAddr: 0x100042440, symSize: 0x360 }
  - { offsetInCU: 0x1F254, offset: 0x216A8C, size: 0x8, addend: 0x0, symName: __ZN39RangeTest_AddRangeTwoOverlapAfter2_Test8TestBodyEv, symObjAddr: 0x3FE0, symBinAddr: 0x1000427A0, symSize: 0x360 }
  - { offsetInCU: 0x1FDBC, offset: 0x2175F4, size: 0x8, addend: 0x0, symName: __ZN33RangeTest_AddRangeThreeMerge_Test8TestBodyEv, symObjAddr: 0x4340, symBinAddr: 0x100042B00, symSize: 0x370 }
  - { offsetInCU: 0x2094A, offset: 0x218182, size: 0x8, addend: 0x0, symName: __ZN52RangeTest_AddRangeThreeOverlapAndAdjacentAfter1_Test8TestBodyEv, symObjAddr: 0x46B0, symBinAddr: 0x100042E70, symSize: 0x370 }
  - { offsetInCU: 0x214D7, offset: 0x218D0F, size: 0x8, addend: 0x0, symName: __ZN52RangeTest_AddRangeThreeOverlapAndAdjacentAfter2_Test8TestBodyEv, symObjAddr: 0x4A20, symBinAddr: 0x1000431E0, symSize: 0x370 }
  - { offsetInCU: 0x22064, offset: 0x21989C, size: 0x8, addend: 0x0, symName: __ZN52RangeTest_AddRangeThreeOverlapAndAdjacentAfter3_Test8TestBodyEv, symObjAddr: 0x4D90, symBinAddr: 0x100043550, symSize: 0x370 }
  - { offsetInCU: 0x22BF3, offset: 0x21A42B, size: 0x8, addend: 0x0, symName: __ZN52RangeTest_AddRangeThreeOverlapAndAdjacentAfter4_Test8TestBodyEv, symObjAddr: 0x5100, symBinAddr: 0x1000438C0, symSize: 0x370 }
  - { offsetInCU: 0x23781, offset: 0x21AFB9, size: 0x8, addend: 0x0, symName: __ZN32RangeTest_RemoveRangeBefore_Test8TestBodyEv, symObjAddr: 0x5470, symBinAddr: 0x100043C30, symSize: 0x8D0 }
  - { offsetInCU: 0x25A0D, offset: 0x21D245, size: 0x8, addend: 0x0, symName: __ZN10SmartRange6RemoveEyy, symObjAddr: 0x5D40, symBinAddr: 0x100044500, symSize: 0x140 }
  - { offsetInCU: 0x262E0, offset: 0x21DB18, size: 0x8, addend: 0x0, symName: __ZN31RangeTest_RemoveRangeAfter_Test8TestBodyEv, symObjAddr: 0x5E80, symBinAddr: 0x100044640, symSize: 0x8E0 }
  - { offsetInCU: 0x28570, offset: 0x21FDA8, size: 0x8, addend: 0x0, symName: __ZN31RangeTest_RemoveRangeFront_Test8TestBodyEv, symObjAddr: 0x6760, symBinAddr: 0x100044F20, symSize: 0x610 }
  - { offsetInCU: 0x29C57, offset: 0x22148F, size: 0x8, addend: 0x0, symName: __ZN30RangeTest_RemoveRangeBack_Test8TestBodyEv, symObjAddr: 0x6D70, symBinAddr: 0x100045530, symSize: 0x610 }
  - { offsetInCU: 0x2B33F, offset: 0x222B77, size: 0x8, addend: 0x0, symName: __ZN29RangeTest_RemoveRangeAll_Test8TestBodyEv, symObjAddr: 0x7380, symBinAddr: 0x100045B40, symSize: 0x440 }
  - { offsetInCU: 0x2C299, offset: 0x223AD1, size: 0x8, addend: 0x0, symName: __ZN29RangeTest_ExampleAckTest_Test8TestBodyEv, symObjAddr: 0x77C0, symBinAddr: 0x100045F80, symSize: 0x790 }
  - { offsetInCU: 0x2DF8B, offset: 0x2257C3, size: 0x8, addend: 0x0, symName: __ZN37RangeTest_ExampleAckWithLossTest_Test8TestBodyEv, symObjAddr: 0x7F50, symBinAddr: 0x100046710, symSize: 0x870 }
  - { offsetInCU: 0x3008F, offset: 0x2278C7, size: 0x8, addend: 0x0, symName: __ZN22RangeTest_AddLots_Test8TestBodyEv, symObjAddr: 0x87C0, symBinAddr: 0x100046F80, symSize: 0x2B0 }
  - { offsetInCU: 0x308E2, offset: 0x22811A, size: 0x8, addend: 0x0, symName: __ZN21RangeTest_HitMax_Test8TestBodyEv, symObjAddr: 0x8A70, symBinAddr: 0x100047230, symSize: 0xBA0 }
  - { offsetInCU: 0x33783, offset: 0x22AFBB, size: 0x8, addend: 0x0, symName: __ZN25RangeTest_SearchZero_Test8TestBodyEv, symObjAddr: 0x9610, symBinAddr: 0x100047DD0, symSize: 0x290 }
  - { offsetInCU: 0x343F8, offset: 0x22BC30, size: 0x8, addend: 0x0, symName: __ZN10SmartRange4FindEy, symObjAddr: 0x98A0, symBinAddr: 0x100048060, symSize: 0x150 }
  - { offsetInCU: 0x34662, offset: 0x22BE9A, size: 0x8, addend: 0x0, symName: __ZN7testing8internal8EqHelper7CompareIjmLPv0EEENS_15AssertionResultEPKcS6_RKT_RKT0_, symObjAddr: 0x99F0, symBinAddr: 0x1000481B0, symSize: 0x30 }
  - { offsetInCU: 0x3475A, offset: 0x22BF92, size: 0x8, addend: 0x0, symName: __ZN24RangeTest_SearchOne_Test8TestBodyEv, symObjAddr: 0x9A20, symBinAddr: 0x1000481E0, symSize: 0x870 }
  - { offsetInCU: 0x3620B, offset: 0x22DA43, size: 0x8, addend: 0x0, symName: __ZN7testing8internal8EqHelper7CompareIiiLPv0EEENS_15AssertionResultEPKcS6_RKT_RKT0_, symObjAddr: 0xA290, symBinAddr: 0x100048A50, symSize: 0x30 }
  - { offsetInCU: 0x362B3, offset: 0x22DAEB, size: 0x8, addend: 0x0, symName: __ZN24RangeTest_SearchTwo_Test8TestBodyEv, symObjAddr: 0xA2C0, symBinAddr: 0x100048A80, symSize: 0x8A0 }
  - { offsetInCU: 0x37D60, offset: 0x22F598, size: 0x8, addend: 0x0, symName: __ZN26RangeTest_SearchThree_Test8TestBodyEv, symObjAddr: 0xAB60, symBinAddr: 0x100049320, symSize: 0xC00 }
  - { offsetInCU: 0x3A51B, offset: 0x231D53, size: 0x8, addend: 0x0, symName: __ZN25RangeTest_SearchFour_Test8TestBodyEv, symObjAddr: 0xB760, symBinAddr: 0x100049F20, symSize: 0xD90 }
  - { offsetInCU: 0x3CE29, offset: 0x234661, size: 0x8, addend: 0x0, symName: __ZN30RangeTest_SearchRangeZero_Test8TestBodyEv, symObjAddr: 0xC4F0, symBinAddr: 0x10004ACB0, symSize: 0x2A0 }
  - { offsetInCU: 0x3DAA4, offset: 0x2352DC, size: 0x8, addend: 0x0, symName: __ZN10SmartRange9FindRangeEyy, symObjAddr: 0xC790, symBinAddr: 0x10004AF50, symSize: 0x150 }
  - { offsetInCU: 0x3DC02, offset: 0x23543A, size: 0x8, addend: 0x0, symName: __ZN29RangeTest_SearchRangeOne_Test8TestBodyEv, symObjAddr: 0xC8E0, symBinAddr: 0x10004B0A0, symSize: 0xC10 }
  - { offsetInCU: 0x403AD, offset: 0x237BE5, size: 0x8, addend: 0x0, symName: __ZN29RangeTest_SearchRangeTwo_Test8TestBodyEv, symObjAddr: 0xD4F0, symBinAddr: 0x10004BCB0, symSize: 0x1730 }
  - { offsetInCU: 0x4432F, offset: 0x23BB67, size: 0x8, addend: 0x0, symName: __ZN31RangeTest_SearchRangeThree_Test8TestBodyEv, symObjAddr: 0xEC20, symBinAddr: 0x10004D3E0, symSize: 0x1E20 }
  - { offsetInCU: 0x492F0, offset: 0x240B28, size: 0x8, addend: 0x0, symName: __ZN24RangeTest_AddSingle_TestD1Ev, symObjAddr: 0x10A40, symBinAddr: 0x10004F200, symSize: 0x10 }
  - { offsetInCU: 0x49349, offset: 0x240B81, size: 0x8, addend: 0x0, symName: __ZN24RangeTest_AddSingle_TestD0Ev, symObjAddr: 0x10A50, symBinAddr: 0x10004F210, symSize: 0x20 }
  - { offsetInCU: 0x493CF, offset: 0x240C07, size: 0x8, addend: 0x0, symName: __ZN35RangeTest_AddTwoAdjacentBefore_TestD1Ev, symObjAddr: 0x10A80, symBinAddr: 0x10004F230, symSize: 0x10 }
  - { offsetInCU: 0x49428, offset: 0x240C60, size: 0x8, addend: 0x0, symName: __ZN35RangeTest_AddTwoAdjacentBefore_TestD0Ev, symObjAddr: 0x10A90, symBinAddr: 0x10004F240, symSize: 0x20 }
  - { offsetInCU: 0x494AE, offset: 0x240CE6, size: 0x8, addend: 0x0, symName: __ZN34RangeTest_AddTwoAdjacentAfter_TestD1Ev, symObjAddr: 0x10AB0, symBinAddr: 0x10004F260, symSize: 0x10 }
  - { offsetInCU: 0x49507, offset: 0x240D3F, size: 0x8, addend: 0x0, symName: __ZN34RangeTest_AddTwoAdjacentAfter_TestD0Ev, symObjAddr: 0x10AC0, symBinAddr: 0x10004F270, symSize: 0x20 }
  - { offsetInCU: 0x4958D, offset: 0x240DC5, size: 0x8, addend: 0x0, symName: __ZN35RangeTest_AddTwoSeparateBefore_TestD1Ev, symObjAddr: 0x10AE0, symBinAddr: 0x10004F290, symSize: 0x10 }
  - { offsetInCU: 0x495E6, offset: 0x240E1E, size: 0x8, addend: 0x0, symName: __ZN35RangeTest_AddTwoSeparateBefore_TestD0Ev, symObjAddr: 0x10AF0, symBinAddr: 0x10004F2A0, symSize: 0x20 }
  - { offsetInCU: 0x4966C, offset: 0x240EA4, size: 0x8, addend: 0x0, symName: __ZN34RangeTest_AddTwoSeparateAfter_TestD1Ev, symObjAddr: 0x10B10, symBinAddr: 0x10004F2C0, symSize: 0x10 }
  - { offsetInCU: 0x496C5, offset: 0x240EFD, size: 0x8, addend: 0x0, symName: __ZN34RangeTest_AddTwoSeparateAfter_TestD0Ev, symObjAddr: 0x10B20, symBinAddr: 0x10004F2D0, symSize: 0x20 }
  - { offsetInCU: 0x4974B, offset: 0x240F83, size: 0x8, addend: 0x0, symName: __ZN28RangeTest_AddThreeMerge_TestD1Ev, symObjAddr: 0x10B40, symBinAddr: 0x10004F2F0, symSize: 0x10 }
  - { offsetInCU: 0x497A4, offset: 0x240FDC, size: 0x8, addend: 0x0, symName: __ZN28RangeTest_AddThreeMerge_TestD0Ev, symObjAddr: 0x10B50, symBinAddr: 0x10004F300, symSize: 0x20 }
  - { offsetInCU: 0x4982A, offset: 0x241062, size: 0x8, addend: 0x0, symName: __ZN25RangeTest_AddBetween_TestD1Ev, symObjAddr: 0x10B70, symBinAddr: 0x10004F320, symSize: 0x10 }
  - { offsetInCU: 0x49883, offset: 0x2410BB, size: 0x8, addend: 0x0, symName: __ZN25RangeTest_AddBetween_TestD0Ev, symObjAddr: 0x10B80, symBinAddr: 0x10004F330, symSize: 0x20 }
  - { offsetInCU: 0x49909, offset: 0x241141, size: 0x8, addend: 0x0, symName: __ZN29RangeTest_AddRangeSingle_TestD1Ev, symObjAddr: 0x10BA0, symBinAddr: 0x10004F350, symSize: 0x10 }
  - { offsetInCU: 0x49962, offset: 0x24119A, size: 0x8, addend: 0x0, symName: __ZN29RangeTest_AddRangeSingle_TestD0Ev, symObjAddr: 0x10BB0, symBinAddr: 0x10004F360, symSize: 0x20 }
  - { offsetInCU: 0x499E8, offset: 0x241220, size: 0x8, addend: 0x0, symName: __ZN30RangeTest_AddRangeBetween_TestD1Ev, symObjAddr: 0x10BD0, symBinAddr: 0x10004F380, symSize: 0x10 }
  - { offsetInCU: 0x49A41, offset: 0x241279, size: 0x8, addend: 0x0, symName: __ZN30RangeTest_AddRangeBetween_TestD0Ev, symObjAddr: 0x10BE0, symBinAddr: 0x10004F390, symSize: 0x20 }
  - { offsetInCU: 0x49AC7, offset: 0x2412FF, size: 0x8, addend: 0x0, symName: __ZN40RangeTest_AddRangeTwoAdjacentBefore_TestD1Ev, symObjAddr: 0x10C00, symBinAddr: 0x10004F3B0, symSize: 0x10 }
  - { offsetInCU: 0x49B20, offset: 0x241358, size: 0x8, addend: 0x0, symName: __ZN40RangeTest_AddRangeTwoAdjacentBefore_TestD0Ev, symObjAddr: 0x10C10, symBinAddr: 0x10004F3C0, symSize: 0x20 }
  - { offsetInCU: 0x49BA6, offset: 0x2413DE, size: 0x8, addend: 0x0, symName: __ZN39RangeTest_AddRangeTwoAdjacentAfter_TestD1Ev, symObjAddr: 0x10C30, symBinAddr: 0x10004F3E0, symSize: 0x10 }
  - { offsetInCU: 0x49BFF, offset: 0x241437, size: 0x8, addend: 0x0, symName: __ZN39RangeTest_AddRangeTwoAdjacentAfter_TestD0Ev, symObjAddr: 0x10C40, symBinAddr: 0x10004F3F0, symSize: 0x20 }
  - { offsetInCU: 0x49C85, offset: 0x2414BD, size: 0x8, addend: 0x0, symName: __ZN40RangeTest_AddRangeTwoSeparateBefore_TestD1Ev, symObjAddr: 0x10C60, symBinAddr: 0x10004F410, symSize: 0x10 }
  - { offsetInCU: 0x49CDE, offset: 0x241516, size: 0x8, addend: 0x0, symName: __ZN40RangeTest_AddRangeTwoSeparateBefore_TestD0Ev, symObjAddr: 0x10C70, symBinAddr: 0x10004F420, symSize: 0x20 }
  - { offsetInCU: 0x49D64, offset: 0x24159C, size: 0x8, addend: 0x0, symName: __ZN39RangeTest_AddRangeTwoSeparateAfter_TestD1Ev, symObjAddr: 0x10C90, symBinAddr: 0x10004F440, symSize: 0x10 }
  - { offsetInCU: 0x49DBD, offset: 0x2415F5, size: 0x8, addend: 0x0, symName: __ZN39RangeTest_AddRangeTwoSeparateAfter_TestD0Ev, symObjAddr: 0x10CA0, symBinAddr: 0x10004F450, symSize: 0x20 }
  - { offsetInCU: 0x49E43, offset: 0x24167B, size: 0x8, addend: 0x0, symName: __ZN40RangeTest_AddRangeTwoOverlapBefore1_TestD1Ev, symObjAddr: 0x10CC0, symBinAddr: 0x10004F470, symSize: 0x10 }
  - { offsetInCU: 0x49E9C, offset: 0x2416D4, size: 0x8, addend: 0x0, symName: __ZN40RangeTest_AddRangeTwoOverlapBefore1_TestD0Ev, symObjAddr: 0x10CD0, symBinAddr: 0x10004F480, symSize: 0x20 }
  - { offsetInCU: 0x49F22, offset: 0x24175A, size: 0x8, addend: 0x0, symName: __ZN40RangeTest_AddRangeTwoOverlapBefore2_TestD1Ev, symObjAddr: 0x10CF0, symBinAddr: 0x10004F4A0, symSize: 0x10 }
  - { offsetInCU: 0x49F7B, offset: 0x2417B3, size: 0x8, addend: 0x0, symName: __ZN40RangeTest_AddRangeTwoOverlapBefore2_TestD0Ev, symObjAddr: 0x10D00, symBinAddr: 0x10004F4B0, symSize: 0x20 }
  - { offsetInCU: 0x4A001, offset: 0x241839, size: 0x8, addend: 0x0, symName: __ZN40RangeTest_AddRangeTwoOverlapBefore3_TestD1Ev, symObjAddr: 0x10D20, symBinAddr: 0x10004F4D0, symSize: 0x10 }
  - { offsetInCU: 0x4A05A, offset: 0x241892, size: 0x8, addend: 0x0, symName: __ZN40RangeTest_AddRangeTwoOverlapBefore3_TestD0Ev, symObjAddr: 0x10D30, symBinAddr: 0x10004F4E0, symSize: 0x20 }
  - { offsetInCU: 0x4A0E0, offset: 0x241918, size: 0x8, addend: 0x0, symName: __ZN39RangeTest_AddRangeTwoOverlapAfter1_TestD1Ev, symObjAddr: 0x10D50, symBinAddr: 0x10004F500, symSize: 0x10 }
  - { offsetInCU: 0x4A139, offset: 0x241971, size: 0x8, addend: 0x0, symName: __ZN39RangeTest_AddRangeTwoOverlapAfter1_TestD0Ev, symObjAddr: 0x10D60, symBinAddr: 0x10004F510, symSize: 0x20 }
  - { offsetInCU: 0x4A1BF, offset: 0x2419F7, size: 0x8, addend: 0x0, symName: __ZN39RangeTest_AddRangeTwoOverlapAfter2_TestD1Ev, symObjAddr: 0x10D80, symBinAddr: 0x10004F530, symSize: 0x10 }
  - { offsetInCU: 0x4A219, offset: 0x241A51, size: 0x8, addend: 0x0, symName: __ZN39RangeTest_AddRangeTwoOverlapAfter2_TestD0Ev, symObjAddr: 0x10D90, symBinAddr: 0x10004F540, symSize: 0x20 }
  - { offsetInCU: 0x4A2A1, offset: 0x241AD9, size: 0x8, addend: 0x0, symName: __ZN33RangeTest_AddRangeThreeMerge_TestD1Ev, symObjAddr: 0x10DB0, symBinAddr: 0x10004F560, symSize: 0x10 }
  - { offsetInCU: 0x4A2FB, offset: 0x241B33, size: 0x8, addend: 0x0, symName: __ZN33RangeTest_AddRangeThreeMerge_TestD0Ev, symObjAddr: 0x10DC0, symBinAddr: 0x10004F570, symSize: 0x20 }
  - { offsetInCU: 0x4A383, offset: 0x241BBB, size: 0x8, addend: 0x0, symName: __ZN52RangeTest_AddRangeThreeOverlapAndAdjacentAfter1_TestD1Ev, symObjAddr: 0x10DE0, symBinAddr: 0x10004F590, symSize: 0x10 }
  - { offsetInCU: 0x4A3DD, offset: 0x241C15, size: 0x8, addend: 0x0, symName: __ZN52RangeTest_AddRangeThreeOverlapAndAdjacentAfter1_TestD0Ev, symObjAddr: 0x10DF0, symBinAddr: 0x10004F5A0, symSize: 0x20 }
  - { offsetInCU: 0x4A465, offset: 0x241C9D, size: 0x8, addend: 0x0, symName: __ZN52RangeTest_AddRangeThreeOverlapAndAdjacentAfter2_TestD1Ev, symObjAddr: 0x10E10, symBinAddr: 0x10004F5C0, symSize: 0x10 }
  - { offsetInCU: 0x4A4BF, offset: 0x241CF7, size: 0x8, addend: 0x0, symName: __ZN52RangeTest_AddRangeThreeOverlapAndAdjacentAfter2_TestD0Ev, symObjAddr: 0x10E20, symBinAddr: 0x10004F5D0, symSize: 0x20 }
  - { offsetInCU: 0x4A547, offset: 0x241D7F, size: 0x8, addend: 0x0, symName: __ZN52RangeTest_AddRangeThreeOverlapAndAdjacentAfter3_TestD1Ev, symObjAddr: 0x10E40, symBinAddr: 0x10004F5F0, symSize: 0x10 }
  - { offsetInCU: 0x4A5A1, offset: 0x241DD9, size: 0x8, addend: 0x0, symName: __ZN52RangeTest_AddRangeThreeOverlapAndAdjacentAfter3_TestD0Ev, symObjAddr: 0x10E50, symBinAddr: 0x10004F600, symSize: 0x20 }
  - { offsetInCU: 0x4A629, offset: 0x241E61, size: 0x8, addend: 0x0, symName: __ZN52RangeTest_AddRangeThreeOverlapAndAdjacentAfter4_TestD1Ev, symObjAddr: 0x10E70, symBinAddr: 0x10004F620, symSize: 0x10 }
  - { offsetInCU: 0x4A683, offset: 0x241EBB, size: 0x8, addend: 0x0, symName: __ZN52RangeTest_AddRangeThreeOverlapAndAdjacentAfter4_TestD0Ev, symObjAddr: 0x10E80, symBinAddr: 0x10004F630, symSize: 0x20 }
  - { offsetInCU: 0x4A70B, offset: 0x241F43, size: 0x8, addend: 0x0, symName: __ZN32RangeTest_RemoveRangeBefore_TestD1Ev, symObjAddr: 0x10EA0, symBinAddr: 0x10004F650, symSize: 0x10 }
  - { offsetInCU: 0x4A765, offset: 0x241F9D, size: 0x8, addend: 0x0, symName: __ZN32RangeTest_RemoveRangeBefore_TestD0Ev, symObjAddr: 0x10EB0, symBinAddr: 0x10004F660, symSize: 0x20 }
  - { offsetInCU: 0x4A7ED, offset: 0x242025, size: 0x8, addend: 0x0, symName: __ZN31RangeTest_RemoveRangeAfter_TestD1Ev, symObjAddr: 0x10ED0, symBinAddr: 0x10004F680, symSize: 0x10 }
  - { offsetInCU: 0x4A847, offset: 0x24207F, size: 0x8, addend: 0x0, symName: __ZN31RangeTest_RemoveRangeAfter_TestD0Ev, symObjAddr: 0x10EE0, symBinAddr: 0x10004F690, symSize: 0x20 }
  - { offsetInCU: 0x4A8CF, offset: 0x242107, size: 0x8, addend: 0x0, symName: __ZN31RangeTest_RemoveRangeFront_TestD1Ev, symObjAddr: 0x10F00, symBinAddr: 0x10004F6B0, symSize: 0x10 }
  - { offsetInCU: 0x4A929, offset: 0x242161, size: 0x8, addend: 0x0, symName: __ZN31RangeTest_RemoveRangeFront_TestD0Ev, symObjAddr: 0x10F10, symBinAddr: 0x10004F6C0, symSize: 0x20 }
  - { offsetInCU: 0x4A9B1, offset: 0x2421E9, size: 0x8, addend: 0x0, symName: __ZN30RangeTest_RemoveRangeBack_TestD1Ev, symObjAddr: 0x10F30, symBinAddr: 0x10004F6E0, symSize: 0x10 }
  - { offsetInCU: 0x4AA0B, offset: 0x242243, size: 0x8, addend: 0x0, symName: __ZN30RangeTest_RemoveRangeBack_TestD0Ev, symObjAddr: 0x10F40, symBinAddr: 0x10004F6F0, symSize: 0x20 }
  - { offsetInCU: 0x4AA93, offset: 0x2422CB, size: 0x8, addend: 0x0, symName: __ZN29RangeTest_RemoveRangeAll_TestD1Ev, symObjAddr: 0x10F60, symBinAddr: 0x10004F710, symSize: 0x10 }
  - { offsetInCU: 0x4AAED, offset: 0x242325, size: 0x8, addend: 0x0, symName: __ZN29RangeTest_RemoveRangeAll_TestD0Ev, symObjAddr: 0x10F70, symBinAddr: 0x10004F720, symSize: 0x20 }
  - { offsetInCU: 0x4AB75, offset: 0x2423AD, size: 0x8, addend: 0x0, symName: __ZN29RangeTest_ExampleAckTest_TestD1Ev, symObjAddr: 0x10F90, symBinAddr: 0x10004F740, symSize: 0x10 }
  - { offsetInCU: 0x4ABCF, offset: 0x242407, size: 0x8, addend: 0x0, symName: __ZN29RangeTest_ExampleAckTest_TestD0Ev, symObjAddr: 0x10FA0, symBinAddr: 0x10004F750, symSize: 0x20 }
  - { offsetInCU: 0x4AC57, offset: 0x24248F, size: 0x8, addend: 0x0, symName: __ZN37RangeTest_ExampleAckWithLossTest_TestD1Ev, symObjAddr: 0x10FC0, symBinAddr: 0x10004F770, symSize: 0x10 }
  - { offsetInCU: 0x4ACB1, offset: 0x2424E9, size: 0x8, addend: 0x0, symName: __ZN37RangeTest_ExampleAckWithLossTest_TestD0Ev, symObjAddr: 0x10FD0, symBinAddr: 0x10004F780, symSize: 0x20 }
  - { offsetInCU: 0x4AD39, offset: 0x242571, size: 0x8, addend: 0x0, symName: __ZN22RangeTest_AddLots_TestD1Ev, symObjAddr: 0x10FF0, symBinAddr: 0x10004F7A0, symSize: 0x10 }
  - { offsetInCU: 0x4AD93, offset: 0x2425CB, size: 0x8, addend: 0x0, symName: __ZN22RangeTest_AddLots_TestD0Ev, symObjAddr: 0x11000, symBinAddr: 0x10004F7B0, symSize: 0x20 }
  - { offsetInCU: 0x4AE1B, offset: 0x242653, size: 0x8, addend: 0x0, symName: __ZN21RangeTest_HitMax_TestD1Ev, symObjAddr: 0x11020, symBinAddr: 0x10004F7D0, symSize: 0x10 }
  - { offsetInCU: 0x4AE75, offset: 0x2426AD, size: 0x8, addend: 0x0, symName: __ZN21RangeTest_HitMax_TestD0Ev, symObjAddr: 0x11030, symBinAddr: 0x10004F7E0, symSize: 0x20 }
  - { offsetInCU: 0x4AEFD, offset: 0x242735, size: 0x8, addend: 0x0, symName: __ZN25RangeTest_SearchZero_TestD1Ev, symObjAddr: 0x11050, symBinAddr: 0x10004F800, symSize: 0x10 }
  - { offsetInCU: 0x4AF57, offset: 0x24278F, size: 0x8, addend: 0x0, symName: __ZN25RangeTest_SearchZero_TestD0Ev, symObjAddr: 0x11060, symBinAddr: 0x10004F810, symSize: 0x20 }
  - { offsetInCU: 0x4AFDF, offset: 0x242817, size: 0x8, addend: 0x0, symName: __ZN24RangeTest_SearchOne_TestD1Ev, symObjAddr: 0x11080, symBinAddr: 0x10004F830, symSize: 0x10 }
  - { offsetInCU: 0x4B039, offset: 0x242871, size: 0x8, addend: 0x0, symName: __ZN24RangeTest_SearchOne_TestD0Ev, symObjAddr: 0x11090, symBinAddr: 0x10004F840, symSize: 0x20 }
  - { offsetInCU: 0x4B0C1, offset: 0x2428F9, size: 0x8, addend: 0x0, symName: __ZN24RangeTest_SearchTwo_TestD1Ev, symObjAddr: 0x110B0, symBinAddr: 0x10004F860, symSize: 0x10 }
  - { offsetInCU: 0x4B11B, offset: 0x242953, size: 0x8, addend: 0x0, symName: __ZN24RangeTest_SearchTwo_TestD0Ev, symObjAddr: 0x110C0, symBinAddr: 0x10004F870, symSize: 0x20 }
  - { offsetInCU: 0x4B1A3, offset: 0x2429DB, size: 0x8, addend: 0x0, symName: __ZN26RangeTest_SearchThree_TestD1Ev, symObjAddr: 0x110E0, symBinAddr: 0x10004F890, symSize: 0x10 }
  - { offsetInCU: 0x4B1FD, offset: 0x242A35, size: 0x8, addend: 0x0, symName: __ZN26RangeTest_SearchThree_TestD0Ev, symObjAddr: 0x110F0, symBinAddr: 0x10004F8A0, symSize: 0x20 }
  - { offsetInCU: 0x4B285, offset: 0x242ABD, size: 0x8, addend: 0x0, symName: __ZN25RangeTest_SearchFour_TestD1Ev, symObjAddr: 0x11110, symBinAddr: 0x10004F8C0, symSize: 0x10 }
  - { offsetInCU: 0x4B2DF, offset: 0x242B17, size: 0x8, addend: 0x0, symName: __ZN25RangeTest_SearchFour_TestD0Ev, symObjAddr: 0x11120, symBinAddr: 0x10004F8D0, symSize: 0x20 }
  - { offsetInCU: 0x4B367, offset: 0x242B9F, size: 0x8, addend: 0x0, symName: __ZN30RangeTest_SearchRangeZero_TestD1Ev, symObjAddr: 0x11140, symBinAddr: 0x10004F8F0, symSize: 0x10 }
  - { offsetInCU: 0x4B3C1, offset: 0x242BF9, size: 0x8, addend: 0x0, symName: __ZN30RangeTest_SearchRangeZero_TestD0Ev, symObjAddr: 0x11150, symBinAddr: 0x10004F900, symSize: 0x20 }
  - { offsetInCU: 0x4B449, offset: 0x242C81, size: 0x8, addend: 0x0, symName: __ZN29RangeTest_SearchRangeOne_TestD1Ev, symObjAddr: 0x11170, symBinAddr: 0x10004F920, symSize: 0x10 }
  - { offsetInCU: 0x4B4A3, offset: 0x242CDB, size: 0x8, addend: 0x0, symName: __ZN29RangeTest_SearchRangeOne_TestD0Ev, symObjAddr: 0x11180, symBinAddr: 0x10004F930, symSize: 0x20 }
  - { offsetInCU: 0x4B52B, offset: 0x242D63, size: 0x8, addend: 0x0, symName: __ZN29RangeTest_SearchRangeTwo_TestD1Ev, symObjAddr: 0x111A0, symBinAddr: 0x10004F950, symSize: 0x10 }
  - { offsetInCU: 0x4B585, offset: 0x242DBD, size: 0x8, addend: 0x0, symName: __ZN29RangeTest_SearchRangeTwo_TestD0Ev, symObjAddr: 0x111B0, symBinAddr: 0x10004F960, symSize: 0x20 }
  - { offsetInCU: 0x4B60D, offset: 0x242E45, size: 0x8, addend: 0x0, symName: __ZN31RangeTest_SearchRangeThree_TestD1Ev, symObjAddr: 0x111D0, symBinAddr: 0x10004F980, symSize: 0x10 }
  - { offsetInCU: 0x4B667, offset: 0x242E9F, size: 0x8, addend: 0x0, symName: __ZN31RangeTest_SearchRangeThree_TestD0Ev, symObjAddr: 0x111E0, symBinAddr: 0x10004F990, symSize: 0x20 }
  - { offsetInCU: 0x4B6D5, offset: 0x242F0D, size: 0x8, addend: 0x0, symName: __ZN7testing8internal15TestFactoryImplI24RangeTest_AddSingle_TestED1Ev, symObjAddr: 0x11210, symBinAddr: 0x10004F9B0, symSize: 0x10 }
  - { offsetInCU: 0x4B701, offset: 0x242F39, size: 0x8, addend: 0x0, symName: __ZN7testing8internal15TestFactoryImplI24RangeTest_AddSingle_TestED0Ev, symObjAddr: 0x11220, symBinAddr: 0x10004F9C0, symSize: 0x10 }
  - { offsetInCU: 0x4B761, offset: 0x242F99, size: 0x8, addend: 0x0, symName: __ZN7testing8internal15TestFactoryImplI24RangeTest_AddSingle_TestE10CreateTestEv, symObjAddr: 0x11230, symBinAddr: 0x10004F9D0, symSize: 0x50 }
  - { offsetInCU: 0x4BBD1, offset: 0x243409, size: 0x8, addend: 0x0, symName: __ZN7testing8internal15TestFactoryImplI35RangeTest_AddTwoAdjacentBefore_TestED1Ev, symObjAddr: 0x116D0, symBinAddr: 0x10004FAE0, symSize: 0x10 }
  - { offsetInCU: 0x4BBFD, offset: 0x243435, size: 0x8, addend: 0x0, symName: __ZN7testing8internal15TestFactoryImplI35RangeTest_AddTwoAdjacentBefore_TestED0Ev, symObjAddr: 0x116E0, symBinAddr: 0x10004FAF0, symSize: 0x10 }
  - { offsetInCU: 0x4BC5D, offset: 0x243495, size: 0x8, addend: 0x0, symName: __ZN7testing8internal15TestFactoryImplI35RangeTest_AddTwoAdjacentBefore_TestE10CreateTestEv, symObjAddr: 0x116F0, symBinAddr: 0x10004FB00, symSize: 0x50 }
  - { offsetInCU: 0x4BCC6, offset: 0x2434FE, size: 0x8, addend: 0x0, symName: __ZN7testing8internal15TestFactoryImplI34RangeTest_AddTwoAdjacentAfter_TestED1Ev, symObjAddr: 0x11740, symBinAddr: 0x10004FB50, symSize: 0x10 }
  - { offsetInCU: 0x4BCF2, offset: 0x24352A, size: 0x8, addend: 0x0, symName: __ZN7testing8internal15TestFactoryImplI34RangeTest_AddTwoAdjacentAfter_TestED0Ev, symObjAddr: 0x11750, symBinAddr: 0x10004FB60, symSize: 0x10 }
  - { offsetInCU: 0x4BD52, offset: 0x24358A, size: 0x8, addend: 0x0, symName: __ZN7testing8internal15TestFactoryImplI34RangeTest_AddTwoAdjacentAfter_TestE10CreateTestEv, symObjAddr: 0x11760, symBinAddr: 0x10004FB70, symSize: 0x50 }
  - { offsetInCU: 0x4BDBB, offset: 0x2435F3, size: 0x8, addend: 0x0, symName: __ZN7testing8internal15TestFactoryImplI35RangeTest_AddTwoSeparateBefore_TestED1Ev, symObjAddr: 0x117B0, symBinAddr: 0x10004FBC0, symSize: 0x10 }
  - { offsetInCU: 0x4BDE7, offset: 0x24361F, size: 0x8, addend: 0x0, symName: __ZN7testing8internal15TestFactoryImplI35RangeTest_AddTwoSeparateBefore_TestED0Ev, symObjAddr: 0x117C0, symBinAddr: 0x10004FBD0, symSize: 0x10 }
  - { offsetInCU: 0x4BE47, offset: 0x24367F, size: 0x8, addend: 0x0, symName: __ZN7testing8internal15TestFactoryImplI35RangeTest_AddTwoSeparateBefore_TestE10CreateTestEv, symObjAddr: 0x117D0, symBinAddr: 0x10004FBE0, symSize: 0x50 }
  - { offsetInCU: 0x4BEB0, offset: 0x2436E8, size: 0x8, addend: 0x0, symName: __ZN7testing8internal15TestFactoryImplI34RangeTest_AddTwoSeparateAfter_TestED1Ev, symObjAddr: 0x11820, symBinAddr: 0x10004FC30, symSize: 0x10 }
  - { offsetInCU: 0x4BEDC, offset: 0x243714, size: 0x8, addend: 0x0, symName: __ZN7testing8internal15TestFactoryImplI34RangeTest_AddTwoSeparateAfter_TestED0Ev, symObjAddr: 0x11830, symBinAddr: 0x10004FC40, symSize: 0x10 }
  - { offsetInCU: 0x4BF3C, offset: 0x243774, size: 0x8, addend: 0x0, symName: __ZN7testing8internal15TestFactoryImplI34RangeTest_AddTwoSeparateAfter_TestE10CreateTestEv, symObjAddr: 0x11840, symBinAddr: 0x10004FC50, symSize: 0x50 }
  - { offsetInCU: 0x4BFA5, offset: 0x2437DD, size: 0x8, addend: 0x0, symName: __ZN7testing8internal15TestFactoryImplI28RangeTest_AddThreeMerge_TestED1Ev, symObjAddr: 0x11890, symBinAddr: 0x10004FCA0, symSize: 0x10 }
  - { offsetInCU: 0x4BFD1, offset: 0x243809, size: 0x8, addend: 0x0, symName: __ZN7testing8internal15TestFactoryImplI28RangeTest_AddThreeMerge_TestED0Ev, symObjAddr: 0x118A0, symBinAddr: 0x10004FCB0, symSize: 0x10 }
  - { offsetInCU: 0x4C031, offset: 0x243869, size: 0x8, addend: 0x0, symName: __ZN7testing8internal15TestFactoryImplI28RangeTest_AddThreeMerge_TestE10CreateTestEv, symObjAddr: 0x118B0, symBinAddr: 0x10004FCC0, symSize: 0x50 }
  - { offsetInCU: 0x4C09A, offset: 0x2438D2, size: 0x8, addend: 0x0, symName: __ZN7testing8internal15TestFactoryImplI25RangeTest_AddBetween_TestED1Ev, symObjAddr: 0x11900, symBinAddr: 0x10004FD10, symSize: 0x10 }
  - { offsetInCU: 0x4C0C6, offset: 0x2438FE, size: 0x8, addend: 0x0, symName: __ZN7testing8internal15TestFactoryImplI25RangeTest_AddBetween_TestED0Ev, symObjAddr: 0x11910, symBinAddr: 0x10004FD20, symSize: 0x10 }
  - { offsetInCU: 0x4C126, offset: 0x24395E, size: 0x8, addend: 0x0, symName: __ZN7testing8internal15TestFactoryImplI25RangeTest_AddBetween_TestE10CreateTestEv, symObjAddr: 0x11920, symBinAddr: 0x10004FD30, symSize: 0x50 }
  - { offsetInCU: 0x4C18F, offset: 0x2439C7, size: 0x8, addend: 0x0, symName: __ZN7testing8internal15TestFactoryImplI29RangeTest_AddRangeSingle_TestED1Ev, symObjAddr: 0x11970, symBinAddr: 0x10004FD80, symSize: 0x10 }
  - { offsetInCU: 0x4C1BB, offset: 0x2439F3, size: 0x8, addend: 0x0, symName: __ZN7testing8internal15TestFactoryImplI29RangeTest_AddRangeSingle_TestED0Ev, symObjAddr: 0x11980, symBinAddr: 0x10004FD90, symSize: 0x10 }
  - { offsetInCU: 0x4C21B, offset: 0x243A53, size: 0x8, addend: 0x0, symName: __ZN7testing8internal15TestFactoryImplI29RangeTest_AddRangeSingle_TestE10CreateTestEv, symObjAddr: 0x11990, symBinAddr: 0x10004FDA0, symSize: 0x50 }
  - { offsetInCU: 0x4C284, offset: 0x243ABC, size: 0x8, addend: 0x0, symName: __ZN7testing8internal15TestFactoryImplI30RangeTest_AddRangeBetween_TestED1Ev, symObjAddr: 0x119E0, symBinAddr: 0x10004FDF0, symSize: 0x10 }
  - { offsetInCU: 0x4C2B0, offset: 0x243AE8, size: 0x8, addend: 0x0, symName: __ZN7testing8internal15TestFactoryImplI30RangeTest_AddRangeBetween_TestED0Ev, symObjAddr: 0x119F0, symBinAddr: 0x10004FE00, symSize: 0x10 }
  - { offsetInCU: 0x4C310, offset: 0x243B48, size: 0x8, addend: 0x0, symName: __ZN7testing8internal15TestFactoryImplI30RangeTest_AddRangeBetween_TestE10CreateTestEv, symObjAddr: 0x11A00, symBinAddr: 0x10004FE10, symSize: 0x50 }
  - { offsetInCU: 0x4C379, offset: 0x243BB1, size: 0x8, addend: 0x0, symName: __ZN7testing8internal15TestFactoryImplI40RangeTest_AddRangeTwoAdjacentBefore_TestED1Ev, symObjAddr: 0x11A50, symBinAddr: 0x10004FE60, symSize: 0x10 }
  - { offsetInCU: 0x4C3A5, offset: 0x243BDD, size: 0x8, addend: 0x0, symName: __ZN7testing8internal15TestFactoryImplI40RangeTest_AddRangeTwoAdjacentBefore_TestED0Ev, symObjAddr: 0x11A60, symBinAddr: 0x10004FE70, symSize: 0x10 }
  - { offsetInCU: 0x4C405, offset: 0x243C3D, size: 0x8, addend: 0x0, symName: __ZN7testing8internal15TestFactoryImplI40RangeTest_AddRangeTwoAdjacentBefore_TestE10CreateTestEv, symObjAddr: 0x11A70, symBinAddr: 0x10004FE80, symSize: 0x50 }
  - { offsetInCU: 0x4C46E, offset: 0x243CA6, size: 0x8, addend: 0x0, symName: __ZN7testing8internal15TestFactoryImplI39RangeTest_AddRangeTwoAdjacentAfter_TestED1Ev, symObjAddr: 0x11AC0, symBinAddr: 0x10004FED0, symSize: 0x10 }
  - { offsetInCU: 0x4C49A, offset: 0x243CD2, size: 0x8, addend: 0x0, symName: __ZN7testing8internal15TestFactoryImplI39RangeTest_AddRangeTwoAdjacentAfter_TestED0Ev, symObjAddr: 0x11AD0, symBinAddr: 0x10004FEE0, symSize: 0x10 }
  - { offsetInCU: 0x4C4FA, offset: 0x243D32, size: 0x8, addend: 0x0, symName: __ZN7testing8internal15TestFactoryImplI39RangeTest_AddRangeTwoAdjacentAfter_TestE10CreateTestEv, symObjAddr: 0x11AE0, symBinAddr: 0x10004FEF0, symSize: 0x50 }
  - { offsetInCU: 0x4C563, offset: 0x243D9B, size: 0x8, addend: 0x0, symName: __ZN7testing8internal15TestFactoryImplI40RangeTest_AddRangeTwoSeparateBefore_TestED1Ev, symObjAddr: 0x11B30, symBinAddr: 0x10004FF40, symSize: 0x10 }
  - { offsetInCU: 0x4C58F, offset: 0x243DC7, size: 0x8, addend: 0x0, symName: __ZN7testing8internal15TestFactoryImplI40RangeTest_AddRangeTwoSeparateBefore_TestED0Ev, symObjAddr: 0x11B40, symBinAddr: 0x10004FF50, symSize: 0x10 }
  - { offsetInCU: 0x4C5EF, offset: 0x243E27, size: 0x8, addend: 0x0, symName: __ZN7testing8internal15TestFactoryImplI40RangeTest_AddRangeTwoSeparateBefore_TestE10CreateTestEv, symObjAddr: 0x11B50, symBinAddr: 0x10004FF60, symSize: 0x50 }
  - { offsetInCU: 0x4C658, offset: 0x243E90, size: 0x8, addend: 0x0, symName: __ZN7testing8internal15TestFactoryImplI39RangeTest_AddRangeTwoSeparateAfter_TestED1Ev, symObjAddr: 0x11BA0, symBinAddr: 0x10004FFB0, symSize: 0x10 }
  - { offsetInCU: 0x4C684, offset: 0x243EBC, size: 0x8, addend: 0x0, symName: __ZN7testing8internal15TestFactoryImplI39RangeTest_AddRangeTwoSeparateAfter_TestED0Ev, symObjAddr: 0x11BB0, symBinAddr: 0x10004FFC0, symSize: 0x10 }
  - { offsetInCU: 0x4C6E4, offset: 0x243F1C, size: 0x8, addend: 0x0, symName: __ZN7testing8internal15TestFactoryImplI39RangeTest_AddRangeTwoSeparateAfter_TestE10CreateTestEv, symObjAddr: 0x11BC0, symBinAddr: 0x10004FFD0, symSize: 0x50 }
  - { offsetInCU: 0x4C74D, offset: 0x243F85, size: 0x8, addend: 0x0, symName: __ZN7testing8internal15TestFactoryImplI40RangeTest_AddRangeTwoOverlapBefore1_TestED1Ev, symObjAddr: 0x11C10, symBinAddr: 0x100050020, symSize: 0x10 }
  - { offsetInCU: 0x4C779, offset: 0x243FB1, size: 0x8, addend: 0x0, symName: __ZN7testing8internal15TestFactoryImplI40RangeTest_AddRangeTwoOverlapBefore1_TestED0Ev, symObjAddr: 0x11C20, symBinAddr: 0x100050030, symSize: 0x10 }
  - { offsetInCU: 0x4C7D9, offset: 0x244011, size: 0x8, addend: 0x0, symName: __ZN7testing8internal15TestFactoryImplI40RangeTest_AddRangeTwoOverlapBefore1_TestE10CreateTestEv, symObjAddr: 0x11C30, symBinAddr: 0x100050040, symSize: 0x50 }
  - { offsetInCU: 0x4C842, offset: 0x24407A, size: 0x8, addend: 0x0, symName: __ZN7testing8internal15TestFactoryImplI40RangeTest_AddRangeTwoOverlapBefore2_TestED1Ev, symObjAddr: 0x11C80, symBinAddr: 0x100050090, symSize: 0x10 }
  - { offsetInCU: 0x4C86E, offset: 0x2440A6, size: 0x8, addend: 0x0, symName: __ZN7testing8internal15TestFactoryImplI40RangeTest_AddRangeTwoOverlapBefore2_TestED0Ev, symObjAddr: 0x11C90, symBinAddr: 0x1000500A0, symSize: 0x10 }
  - { offsetInCU: 0x4C8CE, offset: 0x244106, size: 0x8, addend: 0x0, symName: __ZN7testing8internal15TestFactoryImplI40RangeTest_AddRangeTwoOverlapBefore2_TestE10CreateTestEv, symObjAddr: 0x11CA0, symBinAddr: 0x1000500B0, symSize: 0x50 }
  - { offsetInCU: 0x4C937, offset: 0x24416F, size: 0x8, addend: 0x0, symName: __ZN7testing8internal15TestFactoryImplI40RangeTest_AddRangeTwoOverlapBefore3_TestED1Ev, symObjAddr: 0x11CF0, symBinAddr: 0x100050100, symSize: 0x10 }
  - { offsetInCU: 0x4C963, offset: 0x24419B, size: 0x8, addend: 0x0, symName: __ZN7testing8internal15TestFactoryImplI40RangeTest_AddRangeTwoOverlapBefore3_TestED0Ev, symObjAddr: 0x11D00, symBinAddr: 0x100050110, symSize: 0x10 }
  - { offsetInCU: 0x4C9C3, offset: 0x2441FB, size: 0x8, addend: 0x0, symName: __ZN7testing8internal15TestFactoryImplI40RangeTest_AddRangeTwoOverlapBefore3_TestE10CreateTestEv, symObjAddr: 0x11D10, symBinAddr: 0x100050120, symSize: 0x50 }
  - { offsetInCU: 0x4CA2C, offset: 0x244264, size: 0x8, addend: 0x0, symName: __ZN7testing8internal15TestFactoryImplI39RangeTest_AddRangeTwoOverlapAfter1_TestED1Ev, symObjAddr: 0x11D60, symBinAddr: 0x100050170, symSize: 0x10 }
  - { offsetInCU: 0x4CA58, offset: 0x244290, size: 0x8, addend: 0x0, symName: __ZN7testing8internal15TestFactoryImplI39RangeTest_AddRangeTwoOverlapAfter1_TestED0Ev, symObjAddr: 0x11D70, symBinAddr: 0x100050180, symSize: 0x10 }
  - { offsetInCU: 0x4CAB8, offset: 0x2442F0, size: 0x8, addend: 0x0, symName: __ZN7testing8internal15TestFactoryImplI39RangeTest_AddRangeTwoOverlapAfter1_TestE10CreateTestEv, symObjAddr: 0x11D80, symBinAddr: 0x100050190, symSize: 0x50 }
  - { offsetInCU: 0x4CB21, offset: 0x244359, size: 0x8, addend: 0x0, symName: __ZN7testing8internal15TestFactoryImplI39RangeTest_AddRangeTwoOverlapAfter2_TestED1Ev, symObjAddr: 0x11DD0, symBinAddr: 0x1000501E0, symSize: 0x10 }
  - { offsetInCU: 0x4CB4D, offset: 0x244385, size: 0x8, addend: 0x0, symName: __ZN7testing8internal15TestFactoryImplI39RangeTest_AddRangeTwoOverlapAfter2_TestED0Ev, symObjAddr: 0x11DE0, symBinAddr: 0x1000501F0, symSize: 0x10 }
  - { offsetInCU: 0x4CBAD, offset: 0x2443E5, size: 0x8, addend: 0x0, symName: __ZN7testing8internal15TestFactoryImplI39RangeTest_AddRangeTwoOverlapAfter2_TestE10CreateTestEv, symObjAddr: 0x11DF0, symBinAddr: 0x100050200, symSize: 0x50 }
  - { offsetInCU: 0x4CC17, offset: 0x24444F, size: 0x8, addend: 0x0, symName: __ZN7testing8internal15TestFactoryImplI33RangeTest_AddRangeThreeMerge_TestED1Ev, symObjAddr: 0x11E40, symBinAddr: 0x100050250, symSize: 0x10 }
  - { offsetInCU: 0x4CC43, offset: 0x24447B, size: 0x8, addend: 0x0, symName: __ZN7testing8internal15TestFactoryImplI33RangeTest_AddRangeThreeMerge_TestED0Ev, symObjAddr: 0x11E50, symBinAddr: 0x100050260, symSize: 0x10 }
  - { offsetInCU: 0x4CCA3, offset: 0x2444DB, size: 0x8, addend: 0x0, symName: __ZN7testing8internal15TestFactoryImplI33RangeTest_AddRangeThreeMerge_TestE10CreateTestEv, symObjAddr: 0x11E60, symBinAddr: 0x100050270, symSize: 0x50 }
  - { offsetInCU: 0x4CD0D, offset: 0x244545, size: 0x8, addend: 0x0, symName: __ZN7testing8internal15TestFactoryImplI52RangeTest_AddRangeThreeOverlapAndAdjacentAfter1_TestED1Ev, symObjAddr: 0x11EB0, symBinAddr: 0x1000502C0, symSize: 0x10 }
  - { offsetInCU: 0x4CD39, offset: 0x244571, size: 0x8, addend: 0x0, symName: __ZN7testing8internal15TestFactoryImplI52RangeTest_AddRangeThreeOverlapAndAdjacentAfter1_TestED0Ev, symObjAddr: 0x11EC0, symBinAddr: 0x1000502D0, symSize: 0x10 }
  - { offsetInCU: 0x4CD99, offset: 0x2445D1, size: 0x8, addend: 0x0, symName: __ZN7testing8internal15TestFactoryImplI52RangeTest_AddRangeThreeOverlapAndAdjacentAfter1_TestE10CreateTestEv, symObjAddr: 0x11ED0, symBinAddr: 0x1000502E0, symSize: 0x50 }
  - { offsetInCU: 0x4CE03, offset: 0x24463B, size: 0x8, addend: 0x0, symName: __ZN7testing8internal15TestFactoryImplI52RangeTest_AddRangeThreeOverlapAndAdjacentAfter2_TestED1Ev, symObjAddr: 0x11F20, symBinAddr: 0x100050330, symSize: 0x10 }
  - { offsetInCU: 0x4CE2F, offset: 0x244667, size: 0x8, addend: 0x0, symName: __ZN7testing8internal15TestFactoryImplI52RangeTest_AddRangeThreeOverlapAndAdjacentAfter2_TestED0Ev, symObjAddr: 0x11F30, symBinAddr: 0x100050340, symSize: 0x10 }
  - { offsetInCU: 0x4CE8F, offset: 0x2446C7, size: 0x8, addend: 0x0, symName: __ZN7testing8internal15TestFactoryImplI52RangeTest_AddRangeThreeOverlapAndAdjacentAfter2_TestE10CreateTestEv, symObjAddr: 0x11F40, symBinAddr: 0x100050350, symSize: 0x50 }
  - { offsetInCU: 0x4CEF9, offset: 0x244731, size: 0x8, addend: 0x0, symName: __ZN7testing8internal15TestFactoryImplI52RangeTest_AddRangeThreeOverlapAndAdjacentAfter3_TestED1Ev, symObjAddr: 0x11F90, symBinAddr: 0x1000503A0, symSize: 0x10 }
  - { offsetInCU: 0x4CF25, offset: 0x24475D, size: 0x8, addend: 0x0, symName: __ZN7testing8internal15TestFactoryImplI52RangeTest_AddRangeThreeOverlapAndAdjacentAfter3_TestED0Ev, symObjAddr: 0x11FA0, symBinAddr: 0x1000503B0, symSize: 0x10 }
  - { offsetInCU: 0x4CF85, offset: 0x2447BD, size: 0x8, addend: 0x0, symName: __ZN7testing8internal15TestFactoryImplI52RangeTest_AddRangeThreeOverlapAndAdjacentAfter3_TestE10CreateTestEv, symObjAddr: 0x11FB0, symBinAddr: 0x1000503C0, symSize: 0x50 }
  - { offsetInCU: 0x4CFEF, offset: 0x244827, size: 0x8, addend: 0x0, symName: __ZN7testing8internal15TestFactoryImplI52RangeTest_AddRangeThreeOverlapAndAdjacentAfter4_TestED1Ev, symObjAddr: 0x12000, symBinAddr: 0x100050410, symSize: 0x10 }
  - { offsetInCU: 0x4D01B, offset: 0x244853, size: 0x8, addend: 0x0, symName: __ZN7testing8internal15TestFactoryImplI52RangeTest_AddRangeThreeOverlapAndAdjacentAfter4_TestED0Ev, symObjAddr: 0x12010, symBinAddr: 0x100050420, symSize: 0x10 }
  - { offsetInCU: 0x4D07B, offset: 0x2448B3, size: 0x8, addend: 0x0, symName: __ZN7testing8internal15TestFactoryImplI52RangeTest_AddRangeThreeOverlapAndAdjacentAfter4_TestE10CreateTestEv, symObjAddr: 0x12020, symBinAddr: 0x100050430, symSize: 0x50 }
  - { offsetInCU: 0x4D0E5, offset: 0x24491D, size: 0x8, addend: 0x0, symName: __ZN7testing8internal15TestFactoryImplI32RangeTest_RemoveRangeBefore_TestED1Ev, symObjAddr: 0x12070, symBinAddr: 0x100050480, symSize: 0x10 }
  - { offsetInCU: 0x4D111, offset: 0x244949, size: 0x8, addend: 0x0, symName: __ZN7testing8internal15TestFactoryImplI32RangeTest_RemoveRangeBefore_TestED0Ev, symObjAddr: 0x12080, symBinAddr: 0x100050490, symSize: 0x10 }
  - { offsetInCU: 0x4D171, offset: 0x2449A9, size: 0x8, addend: 0x0, symName: __ZN7testing8internal15TestFactoryImplI32RangeTest_RemoveRangeBefore_TestE10CreateTestEv, symObjAddr: 0x12090, symBinAddr: 0x1000504A0, symSize: 0x50 }
  - { offsetInCU: 0x4D1DB, offset: 0x244A13, size: 0x8, addend: 0x0, symName: __ZN7testing8internal15TestFactoryImplI31RangeTest_RemoveRangeAfter_TestED1Ev, symObjAddr: 0x120E0, symBinAddr: 0x1000504F0, symSize: 0x10 }
  - { offsetInCU: 0x4D207, offset: 0x244A3F, size: 0x8, addend: 0x0, symName: __ZN7testing8internal15TestFactoryImplI31RangeTest_RemoveRangeAfter_TestED0Ev, symObjAddr: 0x120F0, symBinAddr: 0x100050500, symSize: 0x10 }
  - { offsetInCU: 0x4D267, offset: 0x244A9F, size: 0x8, addend: 0x0, symName: __ZN7testing8internal15TestFactoryImplI31RangeTest_RemoveRangeAfter_TestE10CreateTestEv, symObjAddr: 0x12100, symBinAddr: 0x100050510, symSize: 0x50 }
  - { offsetInCU: 0x4D2D1, offset: 0x244B09, size: 0x8, addend: 0x0, symName: __ZN7testing8internal15TestFactoryImplI31RangeTest_RemoveRangeFront_TestED1Ev, symObjAddr: 0x12150, symBinAddr: 0x100050560, symSize: 0x10 }
  - { offsetInCU: 0x4D2FD, offset: 0x244B35, size: 0x8, addend: 0x0, symName: __ZN7testing8internal15TestFactoryImplI31RangeTest_RemoveRangeFront_TestED0Ev, symObjAddr: 0x12160, symBinAddr: 0x100050570, symSize: 0x10 }
  - { offsetInCU: 0x4D35D, offset: 0x244B95, size: 0x8, addend: 0x0, symName: __ZN7testing8internal15TestFactoryImplI31RangeTest_RemoveRangeFront_TestE10CreateTestEv, symObjAddr: 0x12170, symBinAddr: 0x100050580, symSize: 0x50 }
  - { offsetInCU: 0x4D3C7, offset: 0x244BFF, size: 0x8, addend: 0x0, symName: __ZN7testing8internal15TestFactoryImplI30RangeTest_RemoveRangeBack_TestED1Ev, symObjAddr: 0x121C0, symBinAddr: 0x1000505D0, symSize: 0x10 }
  - { offsetInCU: 0x4D3F3, offset: 0x244C2B, size: 0x8, addend: 0x0, symName: __ZN7testing8internal15TestFactoryImplI30RangeTest_RemoveRangeBack_TestED0Ev, symObjAddr: 0x121D0, symBinAddr: 0x1000505E0, symSize: 0x10 }
  - { offsetInCU: 0x4D453, offset: 0x244C8B, size: 0x8, addend: 0x0, symName: __ZN7testing8internal15TestFactoryImplI30RangeTest_RemoveRangeBack_TestE10CreateTestEv, symObjAddr: 0x121E0, symBinAddr: 0x1000505F0, symSize: 0x50 }
  - { offsetInCU: 0x4D4BD, offset: 0x244CF5, size: 0x8, addend: 0x0, symName: __ZN7testing8internal15TestFactoryImplI29RangeTest_RemoveRangeAll_TestED1Ev, symObjAddr: 0x12230, symBinAddr: 0x100050640, symSize: 0x10 }
  - { offsetInCU: 0x4D4E9, offset: 0x244D21, size: 0x8, addend: 0x0, symName: __ZN7testing8internal15TestFactoryImplI29RangeTest_RemoveRangeAll_TestED0Ev, symObjAddr: 0x12240, symBinAddr: 0x100050650, symSize: 0x10 }
  - { offsetInCU: 0x4D549, offset: 0x244D81, size: 0x8, addend: 0x0, symName: __ZN7testing8internal15TestFactoryImplI29RangeTest_RemoveRangeAll_TestE10CreateTestEv, symObjAddr: 0x12250, symBinAddr: 0x100050660, symSize: 0x50 }
  - { offsetInCU: 0x4D5B3, offset: 0x244DEB, size: 0x8, addend: 0x0, symName: __ZN7testing8internal15TestFactoryImplI29RangeTest_ExampleAckTest_TestED1Ev, symObjAddr: 0x122A0, symBinAddr: 0x1000506B0, symSize: 0x10 }
  - { offsetInCU: 0x4D5DF, offset: 0x244E17, size: 0x8, addend: 0x0, symName: __ZN7testing8internal15TestFactoryImplI29RangeTest_ExampleAckTest_TestED0Ev, symObjAddr: 0x122B0, symBinAddr: 0x1000506C0, symSize: 0x10 }
  - { offsetInCU: 0x4D63F, offset: 0x244E77, size: 0x8, addend: 0x0, symName: __ZN7testing8internal15TestFactoryImplI29RangeTest_ExampleAckTest_TestE10CreateTestEv, symObjAddr: 0x122C0, symBinAddr: 0x1000506D0, symSize: 0x50 }
  - { offsetInCU: 0x4D6A9, offset: 0x244EE1, size: 0x8, addend: 0x0, symName: __ZN7testing8internal15TestFactoryImplI37RangeTest_ExampleAckWithLossTest_TestED1Ev, symObjAddr: 0x12310, symBinAddr: 0x100050720, symSize: 0x10 }
  - { offsetInCU: 0x4D6D5, offset: 0x244F0D, size: 0x8, addend: 0x0, symName: __ZN7testing8internal15TestFactoryImplI37RangeTest_ExampleAckWithLossTest_TestED0Ev, symObjAddr: 0x12320, symBinAddr: 0x100050730, symSize: 0x10 }
  - { offsetInCU: 0x4D735, offset: 0x244F6D, size: 0x8, addend: 0x0, symName: __ZN7testing8internal15TestFactoryImplI37RangeTest_ExampleAckWithLossTest_TestE10CreateTestEv, symObjAddr: 0x12330, symBinAddr: 0x100050740, symSize: 0x50 }
  - { offsetInCU: 0x4D79F, offset: 0x244FD7, size: 0x8, addend: 0x0, symName: __ZN7testing8internal15TestFactoryImplI22RangeTest_AddLots_TestED1Ev, symObjAddr: 0x12380, symBinAddr: 0x100050790, symSize: 0x10 }
  - { offsetInCU: 0x4D7CB, offset: 0x245003, size: 0x8, addend: 0x0, symName: __ZN7testing8internal15TestFactoryImplI22RangeTest_AddLots_TestED0Ev, symObjAddr: 0x12390, symBinAddr: 0x1000507A0, symSize: 0x10 }
  - { offsetInCU: 0x4D82B, offset: 0x245063, size: 0x8, addend: 0x0, symName: __ZN7testing8internal15TestFactoryImplI22RangeTest_AddLots_TestE10CreateTestEv, symObjAddr: 0x123A0, symBinAddr: 0x1000507B0, symSize: 0x50 }
  - { offsetInCU: 0x4D895, offset: 0x2450CD, size: 0x8, addend: 0x0, symName: __ZN7testing8internal15TestFactoryImplI21RangeTest_HitMax_TestED1Ev, symObjAddr: 0x123F0, symBinAddr: 0x100050800, symSize: 0x10 }
  - { offsetInCU: 0x4D8C1, offset: 0x2450F9, size: 0x8, addend: 0x0, symName: __ZN7testing8internal15TestFactoryImplI21RangeTest_HitMax_TestED0Ev, symObjAddr: 0x12400, symBinAddr: 0x100050810, symSize: 0x10 }
  - { offsetInCU: 0x4D921, offset: 0x245159, size: 0x8, addend: 0x0, symName: __ZN7testing8internal15TestFactoryImplI21RangeTest_HitMax_TestE10CreateTestEv, symObjAddr: 0x12410, symBinAddr: 0x100050820, symSize: 0x50 }
  - { offsetInCU: 0x4D98B, offset: 0x2451C3, size: 0x8, addend: 0x0, symName: __ZN7testing8internal15TestFactoryImplI25RangeTest_SearchZero_TestED1Ev, symObjAddr: 0x12460, symBinAddr: 0x100050870, symSize: 0x10 }
  - { offsetInCU: 0x4D9B7, offset: 0x2451EF, size: 0x8, addend: 0x0, symName: __ZN7testing8internal15TestFactoryImplI25RangeTest_SearchZero_TestED0Ev, symObjAddr: 0x12470, symBinAddr: 0x100050880, symSize: 0x10 }
  - { offsetInCU: 0x4DA17, offset: 0x24524F, size: 0x8, addend: 0x0, symName: __ZN7testing8internal15TestFactoryImplI25RangeTest_SearchZero_TestE10CreateTestEv, symObjAddr: 0x12480, symBinAddr: 0x100050890, symSize: 0x50 }
  - { offsetInCU: 0x4DA81, offset: 0x2452B9, size: 0x8, addend: 0x0, symName: __ZN7testing8internal15TestFactoryImplI24RangeTest_SearchOne_TestED1Ev, symObjAddr: 0x124D0, symBinAddr: 0x1000508E0, symSize: 0x10 }
  - { offsetInCU: 0x4DAAD, offset: 0x2452E5, size: 0x8, addend: 0x0, symName: __ZN7testing8internal15TestFactoryImplI24RangeTest_SearchOne_TestED0Ev, symObjAddr: 0x124E0, symBinAddr: 0x1000508F0, symSize: 0x10 }
  - { offsetInCU: 0x4DB0D, offset: 0x245345, size: 0x8, addend: 0x0, symName: __ZN7testing8internal15TestFactoryImplI24RangeTest_SearchOne_TestE10CreateTestEv, symObjAddr: 0x124F0, symBinAddr: 0x100050900, symSize: 0x50 }
  - { offsetInCU: 0x4DB77, offset: 0x2453AF, size: 0x8, addend: 0x0, symName: __ZN7testing8internal15TestFactoryImplI24RangeTest_SearchTwo_TestED1Ev, symObjAddr: 0x12540, symBinAddr: 0x100050950, symSize: 0x10 }
  - { offsetInCU: 0x4DBA3, offset: 0x2453DB, size: 0x8, addend: 0x0, symName: __ZN7testing8internal15TestFactoryImplI24RangeTest_SearchTwo_TestED0Ev, symObjAddr: 0x12550, symBinAddr: 0x100050960, symSize: 0x10 }
  - { offsetInCU: 0x4DC03, offset: 0x24543B, size: 0x8, addend: 0x0, symName: __ZN7testing8internal15TestFactoryImplI24RangeTest_SearchTwo_TestE10CreateTestEv, symObjAddr: 0x12560, symBinAddr: 0x100050970, symSize: 0x50 }
  - { offsetInCU: 0x4DC6D, offset: 0x2454A5, size: 0x8, addend: 0x0, symName: __ZN7testing8internal15TestFactoryImplI26RangeTest_SearchThree_TestED1Ev, symObjAddr: 0x125B0, symBinAddr: 0x1000509C0, symSize: 0x10 }
  - { offsetInCU: 0x4DC99, offset: 0x2454D1, size: 0x8, addend: 0x0, symName: __ZN7testing8internal15TestFactoryImplI26RangeTest_SearchThree_TestED0Ev, symObjAddr: 0x125C0, symBinAddr: 0x1000509D0, symSize: 0x10 }
  - { offsetInCU: 0x4DCF9, offset: 0x245531, size: 0x8, addend: 0x0, symName: __ZN7testing8internal15TestFactoryImplI26RangeTest_SearchThree_TestE10CreateTestEv, symObjAddr: 0x125D0, symBinAddr: 0x1000509E0, symSize: 0x50 }
  - { offsetInCU: 0x4DD63, offset: 0x24559B, size: 0x8, addend: 0x0, symName: __ZN7testing8internal15TestFactoryImplI25RangeTest_SearchFour_TestED1Ev, symObjAddr: 0x12620, symBinAddr: 0x100050A30, symSize: 0x10 }
  - { offsetInCU: 0x4DD8F, offset: 0x2455C7, size: 0x8, addend: 0x0, symName: __ZN7testing8internal15TestFactoryImplI25RangeTest_SearchFour_TestED0Ev, symObjAddr: 0x12630, symBinAddr: 0x100050A40, symSize: 0x10 }
  - { offsetInCU: 0x4DDEF, offset: 0x245627, size: 0x8, addend: 0x0, symName: __ZN7testing8internal15TestFactoryImplI25RangeTest_SearchFour_TestE10CreateTestEv, symObjAddr: 0x12640, symBinAddr: 0x100050A50, symSize: 0x50 }
  - { offsetInCU: 0x4DE59, offset: 0x245691, size: 0x8, addend: 0x0, symName: __ZN7testing8internal15TestFactoryImplI30RangeTest_SearchRangeZero_TestED1Ev, symObjAddr: 0x12690, symBinAddr: 0x100050AA0, symSize: 0x10 }
  - { offsetInCU: 0x4DE85, offset: 0x2456BD, size: 0x8, addend: 0x0, symName: __ZN7testing8internal15TestFactoryImplI30RangeTest_SearchRangeZero_TestED0Ev, symObjAddr: 0x126A0, symBinAddr: 0x100050AB0, symSize: 0x10 }
  - { offsetInCU: 0x4DEE5, offset: 0x24571D, size: 0x8, addend: 0x0, symName: __ZN7testing8internal15TestFactoryImplI30RangeTest_SearchRangeZero_TestE10CreateTestEv, symObjAddr: 0x126B0, symBinAddr: 0x100050AC0, symSize: 0x50 }
  - { offsetInCU: 0x4DF4F, offset: 0x245787, size: 0x8, addend: 0x0, symName: __ZN7testing8internal15TestFactoryImplI29RangeTest_SearchRangeOne_TestED1Ev, symObjAddr: 0x12700, symBinAddr: 0x100050B10, symSize: 0x10 }
  - { offsetInCU: 0x4DF7B, offset: 0x2457B3, size: 0x8, addend: 0x0, symName: __ZN7testing8internal15TestFactoryImplI29RangeTest_SearchRangeOne_TestED0Ev, symObjAddr: 0x12710, symBinAddr: 0x100050B20, symSize: 0x10 }
  - { offsetInCU: 0x4DFDB, offset: 0x245813, size: 0x8, addend: 0x0, symName: __ZN7testing8internal15TestFactoryImplI29RangeTest_SearchRangeOne_TestE10CreateTestEv, symObjAddr: 0x12720, symBinAddr: 0x100050B30, symSize: 0x50 }
  - { offsetInCU: 0x4E045, offset: 0x24587D, size: 0x8, addend: 0x0, symName: __ZN7testing8internal15TestFactoryImplI29RangeTest_SearchRangeTwo_TestED1Ev, symObjAddr: 0x12770, symBinAddr: 0x100050B80, symSize: 0x10 }
  - { offsetInCU: 0x4E071, offset: 0x2458A9, size: 0x8, addend: 0x0, symName: __ZN7testing8internal15TestFactoryImplI29RangeTest_SearchRangeTwo_TestED0Ev, symObjAddr: 0x12780, symBinAddr: 0x100050B90, symSize: 0x10 }
  - { offsetInCU: 0x4E0D1, offset: 0x245909, size: 0x8, addend: 0x0, symName: __ZN7testing8internal15TestFactoryImplI29RangeTest_SearchRangeTwo_TestE10CreateTestEv, symObjAddr: 0x12790, symBinAddr: 0x100050BA0, symSize: 0x50 }
  - { offsetInCU: 0x4E13B, offset: 0x245973, size: 0x8, addend: 0x0, symName: __ZN7testing8internal15TestFactoryImplI31RangeTest_SearchRangeThree_TestED1Ev, symObjAddr: 0x127E0, symBinAddr: 0x100050BF0, symSize: 0x10 }
  - { offsetInCU: 0x4E167, offset: 0x24599F, size: 0x8, addend: 0x0, symName: __ZN7testing8internal15TestFactoryImplI31RangeTest_SearchRangeThree_TestED0Ev, symObjAddr: 0x127F0, symBinAddr: 0x100050C00, symSize: 0x10 }
  - { offsetInCU: 0x4E1C7, offset: 0x2459FF, size: 0x8, addend: 0x0, symName: __ZN7testing8internal15TestFactoryImplI31RangeTest_SearchRangeThree_TestE10CreateTestEv, symObjAddr: 0x12800, symBinAddr: 0x100050C10, symSize: 0x50 }
  - { offsetInCU: 0x3A, offset: 0x245D57, size: 0x8, addend: 0x0, symName: __ZN19WithMode_Alloc_Test24gtest_registering_dummy_E, symObjAddr: 0x1913C0, symBinAddr: 0x1004FC940, symSize: 0x0 }
  - { offsetInCU: 0x15F, offset: 0x245E7C, size: 0x8, addend: 0x0, symName: __ZN7testing8internal12TypeIdHelperI8WithModeE6dummy_E, symObjAddr: 0x1A9E0, symBinAddr: 0x1004F6910, symSize: 0x0 }
  - { offsetInCU: 0x12FA, offset: 0x247017, size: 0x8, addend: 0x0, symName: __ZN7testing8internal18CmpHelperEQFailureIbbEENS_15AssertionResultEPKcS4_RKT_RKT0_, symObjAddr: 0x14220, symBinAddr: 0x100066260, symSize: 0xC0 }
  - { offsetInCU: 0x1D0B, offset: 0x247A28, size: 0x8, addend: 0x0, symName: __ZN7testing8internal18CmpHelperEQFailureImjEENS_15AssertionResultEPKcS4_RKT_RKT0_, symObjAddr: 0x145A0, symBinAddr: 0x100066320, symSize: 0xC0 }
  - { offsetInCU: 0x234D, offset: 0x24806A, size: 0x8, addend: 0x0, symName: __ZN7testing8internal18CmpHelperEQFailureItjEENS_15AssertionResultEPKcS4_RKT_RKT0_, symObjAddr: 0x14750, symBinAddr: 0x1000663E0, symSize: 0xC0 }
  - { offsetInCU: 0x34A5, offset: 0x2491C2, size: 0x8, addend: 0x0, symName: __ZN7testing8internal18CmpHelperEQFailureImyEENS_15AssertionResultEPKcS4_RKT_RKT0_, symObjAddr: 0x14900, symBinAddr: 0x1000664A0, symSize: 0xC0 }
  - { offsetInCU: 0x3AE7, offset: 0x249804, size: 0x8, addend: 0x0, symName: __ZN7testing8internal27CheckedDowncastToActualTypeINS0_26ParameterizedTestSuiteInfoI8WithModeEENS0_30ParameterizedTestSuiteInfoBaseEEEPT_PT0_, symObjAddr: 0x11BF0, symBinAddr: 0x100064F30, symSize: 0xA0 }
  - { offsetInCU: 0x4FF2, offset: 0x24AD0F, size: 0x8, addend: 0x0, symName: __ZN7testing8internal27CheckedDowncastToActualTypeIKNS0_30ValuesInIteratorRangeGeneratorI18QUIC_RECV_BUF_MODEE8IteratorEKNS0_22ParamIteratorInterfaceIS3_EEEEPT_PT0_, symObjAddr: 0x116F0, symBinAddr: 0x100064D20, symSize: 0xA0 }
  - { offsetInCU: 0x58F4, offset: 0x24B611, size: 0x8, addend: 0x0, symName: __ZN7testing18WithParamInterfaceI18QUIC_RECV_BUF_MODEE10parameter_E, symObjAddr: 0x1A9D8, symBinAddr: 0x1004F6908, symSize: 0x0 }
  - { offsetInCU: 0x5D49, offset: 0x24BA66, size: 0x8, addend: 0x0, symName: __ZN7testing8ValuesInINSt3__111__wrap_iterIPK18QUIC_RECV_BUF_MODEEEEENS_8internal14ParamGeneratorINS1_15iterator_traitsIT_E10value_typeEEESA_SA_, symObjAddr: 0x11270, symBinAddr: 0x1000648A0, symSize: 0x110 }
  - { offsetInCU: 0x650B, offset: 0x24C228, size: 0x8, addend: 0x0, symName: __ZN7testing13PrintToStringI18QUIC_RECV_BUF_MODEEENSt3__112basic_stringIcNS2_11char_traitsIcEENS2_9allocatorIcEEEERKT_, symObjAddr: 0x11AF0, symBinAddr: 0x100064E40, symSize: 0xF0 }
  - { offsetInCU: 0x1C32B, offset: 0x262048, size: 0x8, addend: 0x0, symName: __ZN28WithMode_AllocWithChunk_Test24gtest_registering_dummy_E, symObjAddr: 0x1913C4, symBinAddr: 0x1004FC944, symSize: 0x0 }
  - { offsetInCU: 0x1C3B7, offset: 0x2620D4, size: 0x8, addend: 0x0, symName: __ZN34WithMode_WriteFrontAndReadAll_Test24gtest_registering_dummy_E, symObjAddr: 0x1913C8, symBinAddr: 0x1004FC948, symSize: 0x0 }
  - { offsetInCU: 0x1C443, offset: 0x262160, size: 0x8, addend: 0x0, symName: __ZN38WithMode_WriteFrontAndReadPartial_Test24gtest_registering_dummy_E, symObjAddr: 0x1913CC, symBinAddr: 0x1004FC94C, symSize: 0x0 }
  - { offsetInCU: 0x1C4CF, offset: 0x2621EC, size: 0x8, addend: 0x0, symName: __ZN22WithMode_WriteGap_Test24gtest_registering_dummy_E, symObjAddr: 0x1913D0, symBinAddr: 0x1004FC950, symSize: 0x0 }
  - { offsetInCU: 0x1C55B, offset: 0x262278, size: 0x8, addend: 0x0, symName: __ZN23WithMode_DrainZero_Test24gtest_registering_dummy_E, symObjAddr: 0x1913D4, symBinAddr: 0x1004FC954, symSize: 0x0 }
  - { offsetInCU: 0x1C5E7, offset: 0x262304, size: 0x8, addend: 0x0, symName: __ZN26WithMode_WriteFillGap_Test24gtest_registering_dummy_E, symObjAddr: 0x1913D8, symBinAddr: 0x1004FC958, symSize: 0x0 }
  - { offsetInCU: 0x1C673, offset: 0x262390, size: 0x8, addend: 0x0, symName: __ZN23WithMode_Overwrite_Test24gtest_registering_dummy_E, symObjAddr: 0x1913DC, symBinAddr: 0x1004FC95C, symSize: 0x0 }
  - { offsetInCU: 0x1C6FF, offset: 0x26241C, size: 0x8, addend: 0x0, symName: __ZN30WithMode_OverwritePartial_Test24gtest_registering_dummy_E, symObjAddr: 0x1913E0, symBinAddr: 0x1004FC960, symSize: 0x0 }
  - { offsetInCU: 0x1C78F, offset: 0x2624AC, size: 0x8, addend: 0x0, symName: __ZN26WithMode_WriteTooMuch_Test24gtest_registering_dummy_E, symObjAddr: 0x1913E4, symBinAddr: 0x1004FC964, symSize: 0x0 }
  - { offsetInCU: 0x1C81F, offset: 0x26253C, size: 0x8, addend: 0x0, symName: __ZN27WithMode_WriteTooMuch2_Test24gtest_registering_dummy_E, symObjAddr: 0x1913E8, symBinAddr: 0x1004FC968, symSize: 0x0 }
  - { offsetInCU: 0x1C8AF, offset: 0x2625CC, size: 0x8, addend: 0x0, symName: __ZN35WithMode_WriteWhilePendingRead_Test24gtest_registering_dummy_E, symObjAddr: 0x1913EC, symBinAddr: 0x1004FC96C, symSize: 0x0 }
  - { offsetInCU: 0x1C93F, offset: 0x26265C, size: 0x8, addend: 0x0, symName: __ZN40WithMode_WriteLargeWhilePendingRead_Test24gtest_registering_dummy_E, symObjAddr: 0x1913F0, symBinAddr: 0x1004FC970, symSize: 0x0 }
  - { offsetInCU: 0x1C9CF, offset: 0x2626EC, size: 0x8, addend: 0x0, symName: __ZN24WithMode_WriteLarge_Test24gtest_registering_dummy_E, symObjAddr: 0x1913F4, symBinAddr: 0x1004FC974, symSize: 0x0 }
  - { offsetInCU: 0x1CA5F, offset: 0x26277C, size: 0x8, addend: 0x0, symName: __ZN29WithMode_MultiWriteLarge_Test24gtest_registering_dummy_E, symObjAddr: 0x1913F8, symBinAddr: 0x1004FC978, symSize: 0x0 }
  - { offsetInCU: 0x1CAEF, offset: 0x26280C, size: 0x8, addend: 0x0, symName: __ZN25WithMode_ReadPartial_Test24gtest_registering_dummy_E, symObjAddr: 0x1913FC, symBinAddr: 0x1004FC97C, symSize: 0x0 }
  - { offsetInCU: 0x1CB7F, offset: 0x26289C, size: 0x8, addend: 0x0, symName: __ZN35WithMode_ReadPendingMultiWrite_Test24gtest_registering_dummy_E, symObjAddr: 0x191400, symBinAddr: 0x1004FC980, symSize: 0x0 }
  - { offsetInCU: 0x1CC0F, offset: 0x26292C, size: 0x8, addend: 0x0, symName: __ZN24WithMode_RecvCrypto_Test24gtest_registering_dummy_E, symObjAddr: 0x191404, symBinAddr: 0x1004FC984, symSize: 0x0 }
  - { offsetInCU: 0x1CC9F, offset: 0x2629BC, size: 0x8, addend: 0x0, symName: __ZN43WithMode_DrainFrontChunkWithPendingGap_Test24gtest_registering_dummy_E, symObjAddr: 0x191408, symBinAddr: 0x1004FC988, symSize: 0x0 }
  - { offsetInCU: 0x1FE47, offset: 0x265B64, size: 0x8, addend: 0x0, symName: __ZN19WithMode_Alloc_Test13AddToRegistryEv, symObjAddr: 0x0, symBinAddr: 0x100053B60, symSize: 0x1F0 }
  - { offsetInCU: 0x20EA6, offset: 0x266BC3, size: 0x8, addend: 0x0, symName: __ZN7testing8internal30ParameterizedTestSuiteRegistry25GetTestSuitePatternHolderI8WithModeEEPNS0_26ParameterizedTestSuiteInfoIT_EENSt3__112basic_stringIcNS8_11char_traitsIcEENS8_9allocatorIcEEEENS0_12CodeLocationE, symObjAddr: 0xE940, symBinAddr: 0x100062430, symSize: 0x340 }
  - { offsetInCU: 0x21F41, offset: 0x267C5E, size: 0x8, addend: 0x0, symName: __ZN7testing8internal26ParameterizedTestSuiteInfoI8WithModeE14AddTestPatternEPKcS5_PNS0_19TestMetaFactoryBaseI18QUIC_RECV_BUF_MODEEENS0_12CodeLocationE, symObjAddr: 0xF570, symBinAddr: 0x100063050, symSize: 0x200 }
  - { offsetInCU: 0x22E0C, offset: 0x268B29, size: 0x8, addend: 0x0, symName: __ZN19WithMode_Alloc_Test8TestBodyEv, symObjAddr: 0x1F0, symBinAddr: 0x100053D50, symSize: 0x210 }
  - { offsetInCU: 0x23561, offset: 0x26927E, size: 0x8, addend: 0x0, symName: __ZN7testing18WithParamInterfaceI18QUIC_RECV_BUF_MODEE8GetParamEv, symObjAddr: 0x430, symBinAddr: 0x100053F90, symSize: 0xB0 }
  - { offsetInCU: 0x2366D, offset: 0x26938A, size: 0x8, addend: 0x0, symName: __ZN10RecvBuffer4DumpEv, symObjAddr: 0xFD30, symBinAddr: 0x1000636C0, symSize: 0x1B0 }
  - { offsetInCU: 0x2383E, offset: 0x26955B, size: 0x8, addend: 0x0, symName: __ZN10RecvBufferD1Ev, symObjAddr: 0x520, symBinAddr: 0x100054040, symSize: 0x40 }
  - { offsetInCU: 0x238AA, offset: 0x2695C7, size: 0x8, addend: 0x0, symName: __ZN7testing8internal8EqHelper7CompareIjjLPv0EEENS_15AssertionResultEPKcS6_RKT_RKT0_, symObjAddr: 0x400, symBinAddr: 0x100053F60, symSize: 0x30 }
  - { offsetInCU: 0x239A4, offset: 0x2696C1, size: 0x8, addend: 0x0, symName: __ZN28WithMode_AllocWithChunk_Test13AddToRegistryEv, symObjAddr: 0x560, symBinAddr: 0x100054080, symSize: 0x1F0 }
  - { offsetInCU: 0x2494A, offset: 0x26A667, size: 0x8, addend: 0x0, symName: __ZN28WithMode_AllocWithChunk_Test8TestBodyEv, symObjAddr: 0x750, symBinAddr: 0x100054270, symSize: 0x220 }
  - { offsetInCU: 0x253F6, offset: 0x26B113, size: 0x8, addend: 0x0, symName: __Z19TestSingleWriteRead18QUIC_RECV_BUF_MODEtyy, symObjAddr: 0x970, symBinAddr: 0x100054490, symSize: 0xE90 }
  - { offsetInCU: 0x28474, offset: 0x26E191, size: 0x8, addend: 0x0, symName: __ZN10RecvBuffer5WriteEytPyPh, symObjAddr: 0x1800, symBinAddr: 0x100055320, symSize: 0xF0 }
  - { offsetInCU: 0x285D7, offset: 0x26E2F4, size: 0x8, addend: 0x0, symName: __ZN10RecvBuffer4ReadEPyPjP11QUIC_BUFFER, symObjAddr: 0x1920, symBinAddr: 0x100055410, symSize: 0xB0 }
  - { offsetInCU: 0x287B0, offset: 0x26E4CD, size: 0x8, addend: 0x0, symName: __ZN10RecvBuffer14ValidateBufferEPKhjy, symObjAddr: 0xFFB0, symBinAddr: 0x100063940, symSize: 0x190 }
  - { offsetInCU: 0x28FE9, offset: 0x26ED06, size: 0x8, addend: 0x0, symName: __ZN7testing8internal8EqHelper7CompareImjLPv0EEENS_15AssertionResultEPKcS6_RKT_RKT0_, symObjAddr: 0x19D0, symBinAddr: 0x1000554C0, symSize: 0x30 }
  - { offsetInCU: 0x29091, offset: 0x26EDAE, size: 0x8, addend: 0x0, symName: __ZN10RecvBuffer5DrainEy, symObjAddr: 0x1A00, symBinAddr: 0x1000554F0, symSize: 0x50 }
  - { offsetInCU: 0x2914A, offset: 0x26EE67, size: 0x8, addend: 0x0, symName: __ZN34WithMode_WriteFrontAndReadAll_Test13AddToRegistryEv, symObjAddr: 0x1A50, symBinAddr: 0x100055540, symSize: 0x1F0 }
  - { offsetInCU: 0x2A0F0, offset: 0x26FE0D, size: 0x8, addend: 0x0, symName: __ZN34WithMode_WriteFrontAndReadAll_Test8TestBodyEv, symObjAddr: 0x1C40, symBinAddr: 0x100055730, symSize: 0x20 }
  - { offsetInCU: 0x2A18F, offset: 0x26FEAC, size: 0x8, addend: 0x0, symName: __ZN38WithMode_WriteFrontAndReadPartial_Test13AddToRegistryEv, symObjAddr: 0x1C60, symBinAddr: 0x100055750, symSize: 0x1F0 }
  - { offsetInCU: 0x2B135, offset: 0x270E52, size: 0x8, addend: 0x0, symName: __ZN38WithMode_WriteFrontAndReadPartial_Test8TestBodyEv, symObjAddr: 0x1E50, symBinAddr: 0x100055940, symSize: 0x20 }
  - { offsetInCU: 0x2B1D4, offset: 0x270EF1, size: 0x8, addend: 0x0, symName: __ZN22WithMode_WriteGap_Test13AddToRegistryEv, symObjAddr: 0x1E70, symBinAddr: 0x100055960, symSize: 0x1F0 }
  - { offsetInCU: 0x2C17A, offset: 0x271E97, size: 0x8, addend: 0x0, symName: __ZN22WithMode_WriteGap_Test8TestBodyEv, symObjAddr: 0x2060, symBinAddr: 0x100055B50, symSize: 0x20 }
  - { offsetInCU: 0x2C219, offset: 0x271F36, size: 0x8, addend: 0x0, symName: __ZN23WithMode_DrainZero_Test13AddToRegistryEv, symObjAddr: 0x2080, symBinAddr: 0x100055B70, symSize: 0x1F0 }
  - { offsetInCU: 0x2D1BF, offset: 0x272EDC, size: 0x8, addend: 0x0, symName: __ZN23WithMode_DrainZero_Test8TestBodyEv, symObjAddr: 0x2270, symBinAddr: 0x100055D60, symSize: 0x20 }
  - { offsetInCU: 0x2D25E, offset: 0x272F7B, size: 0x8, addend: 0x0, symName: __ZN26WithMode_WriteFillGap_Test13AddToRegistryEv, symObjAddr: 0x2290, symBinAddr: 0x100055D80, symSize: 0x1F0 }
  - { offsetInCU: 0x2E27C, offset: 0x273F99, size: 0x8, addend: 0x0, symName: __ZN26WithMode_WriteFillGap_Test8TestBodyEv, symObjAddr: 0x2480, symBinAddr: 0x100055F70, symSize: 0xD00 }
  - { offsetInCU: 0x30E86, offset: 0x276BA3, size: 0x8, addend: 0x0, symName: __ZN23WithMode_Overwrite_Test13AddToRegistryEv, symObjAddr: 0x3180, symBinAddr: 0x100056C70, symSize: 0x1F0 }
  - { offsetInCU: 0x31E2C, offset: 0x277B49, size: 0x8, addend: 0x0, symName: __ZN23WithMode_Overwrite_Test8TestBodyEv, symObjAddr: 0x3370, symBinAddr: 0x100056E60, symSize: 0x8C0 }
  - { offsetInCU: 0x337F6, offset: 0x279513, size: 0x8, addend: 0x0, symName: __ZN30WithMode_OverwritePartial_Test13AddToRegistryEv, symObjAddr: 0x3C30, symBinAddr: 0x100057720, symSize: 0x1F0 }
  - { offsetInCU: 0x347A8, offset: 0x27A4C5, size: 0x8, addend: 0x0, symName: __ZN30WithMode_OverwritePartial_Test8TestBodyEv, symObjAddr: 0x3E20, symBinAddr: 0x100057910, symSize: 0x8E0 }
  - { offsetInCU: 0x361A1, offset: 0x27BEBE, size: 0x8, addend: 0x0, symName: __ZN26WithMode_WriteTooMuch_Test13AddToRegistryEv, symObjAddr: 0x4700, symBinAddr: 0x1000581F0, symSize: 0x1F0 }
  - { offsetInCU: 0x37153, offset: 0x27CE70, size: 0x8, addend: 0x0, symName: __ZN26WithMode_WriteTooMuch_Test8TestBodyEv, symObjAddr: 0x48F0, symBinAddr: 0x1000583E0, symSize: 0x460 }
  - { offsetInCU: 0x381CA, offset: 0x27DEE7, size: 0x8, addend: 0x0, symName: __ZN27WithMode_WriteTooMuch2_Test13AddToRegistryEv, symObjAddr: 0x4D50, symBinAddr: 0x100058840, symSize: 0x1F0 }
  - { offsetInCU: 0x3917C, offset: 0x27EE99, size: 0x8, addend: 0x0, symName: __ZN27WithMode_WriteTooMuch2_Test8TestBodyEv, symObjAddr: 0x4F40, symBinAddr: 0x100058A30, symSize: 0x460 }
  - { offsetInCU: 0x3A1F5, offset: 0x27FF12, size: 0x8, addend: 0x0, symName: __ZN35WithMode_WriteWhilePendingRead_Test13AddToRegistryEv, symObjAddr: 0x53A0, symBinAddr: 0x100058E90, symSize: 0x1F0 }
  - { offsetInCU: 0x3B1A7, offset: 0x280EC4, size: 0x8, addend: 0x0, symName: __ZN35WithMode_WriteWhilePendingRead_Test8TestBodyEv, symObjAddr: 0x5590, symBinAddr: 0x100059080, symSize: 0xF20 }
  - { offsetInCU: 0x3DE33, offset: 0x283B50, size: 0x8, addend: 0x0, symName: __ZN40WithMode_WriteLargeWhilePendingRead_Test13AddToRegistryEv, symObjAddr: 0x64B0, symBinAddr: 0x100059FA0, symSize: 0x1F0 }
  - { offsetInCU: 0x3EDE5, offset: 0x284B02, size: 0x8, addend: 0x0, symName: __ZN40WithMode_WriteLargeWhilePendingRead_Test8TestBodyEv, symObjAddr: 0x66A0, symBinAddr: 0x10005A190, symSize: 0xF70 }
  - { offsetInCU: 0x41A9E, offset: 0x2877BB, size: 0x8, addend: 0x0, symName: __ZN24WithMode_WriteLarge_Test13AddToRegistryEv, symObjAddr: 0x7610, symBinAddr: 0x10005B100, symSize: 0x1F0 }
  - { offsetInCU: 0x42A50, offset: 0x28876D, size: 0x8, addend: 0x0, symName: __ZN24WithMode_WriteLarge_Test8TestBodyEv, symObjAddr: 0x7800, symBinAddr: 0x10005B2F0, symSize: 0x6A0 }
  - { offsetInCU: 0x43D47, offset: 0x289A64, size: 0x8, addend: 0x0, symName: __ZN29WithMode_MultiWriteLarge_Test13AddToRegistryEv, symObjAddr: 0x7EA0, symBinAddr: 0x10005B990, symSize: 0x1F0 }
  - { offsetInCU: 0x44CF9, offset: 0x28AA16, size: 0x8, addend: 0x0, symName: __ZN29WithMode_MultiWriteLarge_Test8TestBodyEv, symObjAddr: 0x8090, symBinAddr: 0x10005BB80, symSize: 0xE00 }
  - { offsetInCU: 0x4771A, offset: 0x28D437, size: 0x8, addend: 0x0, symName: __ZN25WithMode_ReadPartial_Test13AddToRegistryEv, symObjAddr: 0x8E90, symBinAddr: 0x10005C980, symSize: 0x1F0 }
  - { offsetInCU: 0x486CC, offset: 0x28E3E9, size: 0x8, addend: 0x0, symName: __ZN25WithMode_ReadPartial_Test8TestBodyEv, symObjAddr: 0x9080, symBinAddr: 0x10005CB70, symSize: 0x1AB0 }
  - { offsetInCU: 0x4D0F5, offset: 0x292E12, size: 0x8, addend: 0x0, symName: __ZN35WithMode_ReadPendingMultiWrite_Test13AddToRegistryEv, symObjAddr: 0xAB30, symBinAddr: 0x10005E620, symSize: 0x1F0 }
  - { offsetInCU: 0x4E0A7, offset: 0x293DC4, size: 0x8, addend: 0x0, symName: __ZN35WithMode_ReadPendingMultiWrite_Test8TestBodyEv, symObjAddr: 0xAD20, symBinAddr: 0x10005E810, symSize: 0x14E0 }
  - { offsetInCU: 0x51C44, offset: 0x297961, size: 0x8, addend: 0x0, symName: __ZN24WithMode_RecvCrypto_Test13AddToRegistryEv, symObjAddr: 0xC200, symBinAddr: 0x10005FCF0, symSize: 0x1F0 }
  - { offsetInCU: 0x52BF6, offset: 0x298913, size: 0x8, addend: 0x0, symName: __ZN24WithMode_RecvCrypto_Test8TestBodyEv, symObjAddr: 0xC3F0, symBinAddr: 0x10005FEE0, symSize: 0x1390 }
  - { offsetInCU: 0x55FFA, offset: 0x29BD17, size: 0x8, addend: 0x0, symName: __ZN43WithMode_DrainFrontChunkWithPendingGap_Test13AddToRegistryEv, symObjAddr: 0xD780, symBinAddr: 0x100061270, symSize: 0x1F0 }
  - { offsetInCU: 0x56FFC, offset: 0x29CD19, size: 0x8, addend: 0x0, symName: __ZN43WithMode_DrainFrontChunkWithPendingGap_Test8TestBodyEv, symObjAddr: 0xD970, symBinAddr: 0x100061460, symSize: 0xFA0 }
  - { offsetInCU: 0x59AF9, offset: 0x29F816, size: 0x8, addend: 0x0, symName: __ZN7testing8internal8EqHelper7CompareImyLPv0EEENS_15AssertionResultEPKcS6_RKT_RKT0_, symObjAddr: 0xE910, symBinAddr: 0x100062400, symSize: 0x30 }
  - { offsetInCU: 0x5AA47, offset: 0x2A0764, size: 0x8, addend: 0x0, symName: __ZNSt3__120__shared_ptr_pointerIPN7testing8internal23ParamGeneratorInterfaceI18QUIC_RECV_BUF_MODEEENS_10shared_ptrIKS5_E27__shared_ptr_default_deleteIS8_S5_EENS_9allocatorIS5_EEED1Ev, symObjAddr: 0x11A70, symBinAddr: 0x100064DC0, symSize: 0x10 }
  - { offsetInCU: 0x5AD38, offset: 0x2A0A55, size: 0x8, addend: 0x0, symName: __ZL43gtest_RecvBufferTestWithMode_EvalGenerator_v, symObjAddr: 0xEC80, symBinAddr: 0x100062770, symSize: 0x60 }
  - { offsetInCU: 0x5B280, offset: 0x2A0F9D, size: 0x8, addend: 0x0, symName: __ZL46gtest_RecvBufferTestWithMode_EvalGenerateName_RKN7testing13TestParamInfoI18QUIC_RECV_BUF_MODEEE, symObjAddr: 0xECE0, symBinAddr: 0x1000627D0, symSize: 0x30 }
  - { offsetInCU: 0x5B37F, offset: 0x2A109C, size: 0x8, addend: 0x0, symName: __ZN19WithMode_Alloc_TestD1Ev, symObjAddr: 0xED10, symBinAddr: 0x100062800, symSize: 0x10 }
  - { offsetInCU: 0x5B416, offset: 0x2A1133, size: 0x8, addend: 0x0, symName: __ZN19WithMode_Alloc_TestD0Ev, symObjAddr: 0xED20, symBinAddr: 0x100062810, symSize: 0x20 }
  - { offsetInCU: 0x5B4B1, offset: 0x2A11CE, size: 0x8, addend: 0x0, symName: __ZThn16_N19WithMode_Alloc_TestD1Ev, symObjAddr: 0xED50, symBinAddr: 0x100062830, symSize: 0x10 }
  - { offsetInCU: 0x5B55B, offset: 0x2A1278, size: 0x8, addend: 0x0, symName: __ZThn16_N19WithMode_Alloc_TestD0Ev, symObjAddr: 0xED60, symBinAddr: 0x100062840, symSize: 0x30 }
  - { offsetInCU: 0x5B62A, offset: 0x2A1347, size: 0x8, addend: 0x0, symName: __ZN28WithMode_AllocWithChunk_TestD1Ev, symObjAddr: 0xED90, symBinAddr: 0x100062870, symSize: 0x10 }
  - { offsetInCU: 0x5B6C1, offset: 0x2A13DE, size: 0x8, addend: 0x0, symName: __ZN28WithMode_AllocWithChunk_TestD0Ev, symObjAddr: 0xEDA0, symBinAddr: 0x100062880, symSize: 0x20 }
  - { offsetInCU: 0x5B75C, offset: 0x2A1479, size: 0x8, addend: 0x0, symName: __ZThn16_N28WithMode_AllocWithChunk_TestD1Ev, symObjAddr: 0xEDC0, symBinAddr: 0x1000628A0, symSize: 0x10 }
  - { offsetInCU: 0x5B806, offset: 0x2A1523, size: 0x8, addend: 0x0, symName: __ZThn16_N28WithMode_AllocWithChunk_TestD0Ev, symObjAddr: 0xEDD0, symBinAddr: 0x1000628B0, symSize: 0x30 }
  - { offsetInCU: 0x5B8D5, offset: 0x2A15F2, size: 0x8, addend: 0x0, symName: __ZN34WithMode_WriteFrontAndReadAll_TestD1Ev, symObjAddr: 0xEE00, symBinAddr: 0x1000628E0, symSize: 0x10 }
  - { offsetInCU: 0x5B96C, offset: 0x2A1689, size: 0x8, addend: 0x0, symName: __ZN34WithMode_WriteFrontAndReadAll_TestD0Ev, symObjAddr: 0xEE10, symBinAddr: 0x1000628F0, symSize: 0x20 }
  - { offsetInCU: 0x5BA07, offset: 0x2A1724, size: 0x8, addend: 0x0, symName: __ZThn16_N34WithMode_WriteFrontAndReadAll_TestD1Ev, symObjAddr: 0xEE30, symBinAddr: 0x100062910, symSize: 0x10 }
  - { offsetInCU: 0x5BAB1, offset: 0x2A17CE, size: 0x8, addend: 0x0, symName: __ZThn16_N34WithMode_WriteFrontAndReadAll_TestD0Ev, symObjAddr: 0xEE40, symBinAddr: 0x100062920, symSize: 0x30 }
  - { offsetInCU: 0x5BB80, offset: 0x2A189D, size: 0x8, addend: 0x0, symName: __ZN38WithMode_WriteFrontAndReadPartial_TestD1Ev, symObjAddr: 0xEE70, symBinAddr: 0x100062950, symSize: 0x10 }
  - { offsetInCU: 0x5BC17, offset: 0x2A1934, size: 0x8, addend: 0x0, symName: __ZN38WithMode_WriteFrontAndReadPartial_TestD0Ev, symObjAddr: 0xEE80, symBinAddr: 0x100062960, symSize: 0x20 }
  - { offsetInCU: 0x5BCB2, offset: 0x2A19CF, size: 0x8, addend: 0x0, symName: __ZThn16_N38WithMode_WriteFrontAndReadPartial_TestD1Ev, symObjAddr: 0xEEA0, symBinAddr: 0x100062980, symSize: 0x10 }
  - { offsetInCU: 0x5BD5C, offset: 0x2A1A79, size: 0x8, addend: 0x0, symName: __ZThn16_N38WithMode_WriteFrontAndReadPartial_TestD0Ev, symObjAddr: 0xEEB0, symBinAddr: 0x100062990, symSize: 0x30 }
  - { offsetInCU: 0x5BE2B, offset: 0x2A1B48, size: 0x8, addend: 0x0, symName: __ZN22WithMode_WriteGap_TestD1Ev, symObjAddr: 0xEEE0, symBinAddr: 0x1000629C0, symSize: 0x10 }
  - { offsetInCU: 0x5BEC2, offset: 0x2A1BDF, size: 0x8, addend: 0x0, symName: __ZN22WithMode_WriteGap_TestD0Ev, symObjAddr: 0xEEF0, symBinAddr: 0x1000629D0, symSize: 0x20 }
  - { offsetInCU: 0x5BF5D, offset: 0x2A1C7A, size: 0x8, addend: 0x0, symName: __ZThn16_N22WithMode_WriteGap_TestD1Ev, symObjAddr: 0xEF10, symBinAddr: 0x1000629F0, symSize: 0x10 }
  - { offsetInCU: 0x5C007, offset: 0x2A1D24, size: 0x8, addend: 0x0, symName: __ZThn16_N22WithMode_WriteGap_TestD0Ev, symObjAddr: 0xEF20, symBinAddr: 0x100062A00, symSize: 0x30 }
  - { offsetInCU: 0x5C0D6, offset: 0x2A1DF3, size: 0x8, addend: 0x0, symName: __ZN23WithMode_DrainZero_TestD1Ev, symObjAddr: 0xEF50, symBinAddr: 0x100062A30, symSize: 0x10 }
  - { offsetInCU: 0x5C16D, offset: 0x2A1E8A, size: 0x8, addend: 0x0, symName: __ZN23WithMode_DrainZero_TestD0Ev, symObjAddr: 0xEF60, symBinAddr: 0x100062A40, symSize: 0x20 }
  - { offsetInCU: 0x5C208, offset: 0x2A1F25, size: 0x8, addend: 0x0, symName: __ZThn16_N23WithMode_DrainZero_TestD1Ev, symObjAddr: 0xEF80, symBinAddr: 0x100062A60, symSize: 0x10 }
  - { offsetInCU: 0x5C2B2, offset: 0x2A1FCF, size: 0x8, addend: 0x0, symName: __ZThn16_N23WithMode_DrainZero_TestD0Ev, symObjAddr: 0xEF90, symBinAddr: 0x100062A70, symSize: 0x30 }
  - { offsetInCU: 0x5C381, offset: 0x2A209E, size: 0x8, addend: 0x0, symName: __ZN26WithMode_WriteFillGap_TestD1Ev, symObjAddr: 0xEFC0, symBinAddr: 0x100062AA0, symSize: 0x10 }
  - { offsetInCU: 0x5C418, offset: 0x2A2135, size: 0x8, addend: 0x0, symName: __ZN26WithMode_WriteFillGap_TestD0Ev, symObjAddr: 0xEFD0, symBinAddr: 0x100062AB0, symSize: 0x20 }
  - { offsetInCU: 0x5C4B3, offset: 0x2A21D0, size: 0x8, addend: 0x0, symName: __ZThn16_N26WithMode_WriteFillGap_TestD1Ev, symObjAddr: 0xEFF0, symBinAddr: 0x100062AD0, symSize: 0x10 }
  - { offsetInCU: 0x5C55D, offset: 0x2A227A, size: 0x8, addend: 0x0, symName: __ZThn16_N26WithMode_WriteFillGap_TestD0Ev, symObjAddr: 0xF000, symBinAddr: 0x100062AE0, symSize: 0x30 }
  - { offsetInCU: 0x5C62C, offset: 0x2A2349, size: 0x8, addend: 0x0, symName: __ZN23WithMode_Overwrite_TestD1Ev, symObjAddr: 0xF030, symBinAddr: 0x100062B10, symSize: 0x10 }
  - { offsetInCU: 0x5C6C3, offset: 0x2A23E0, size: 0x8, addend: 0x0, symName: __ZN23WithMode_Overwrite_TestD0Ev, symObjAddr: 0xF040, symBinAddr: 0x100062B20, symSize: 0x20 }
  - { offsetInCU: 0x5C75E, offset: 0x2A247B, size: 0x8, addend: 0x0, symName: __ZThn16_N23WithMode_Overwrite_TestD1Ev, symObjAddr: 0xF060, symBinAddr: 0x100062B40, symSize: 0x10 }
  - { offsetInCU: 0x5C808, offset: 0x2A2525, size: 0x8, addend: 0x0, symName: __ZThn16_N23WithMode_Overwrite_TestD0Ev, symObjAddr: 0xF070, symBinAddr: 0x100062B50, symSize: 0x30 }
  - { offsetInCU: 0x5C8D8, offset: 0x2A25F5, size: 0x8, addend: 0x0, symName: __ZN30WithMode_OverwritePartial_TestD1Ev, symObjAddr: 0xF0A0, symBinAddr: 0x100062B80, symSize: 0x10 }
  - { offsetInCU: 0x5C972, offset: 0x2A268F, size: 0x8, addend: 0x0, symName: __ZN30WithMode_OverwritePartial_TestD0Ev, symObjAddr: 0xF0B0, symBinAddr: 0x100062B90, symSize: 0x20 }
  - { offsetInCU: 0x5CA10, offset: 0x2A272D, size: 0x8, addend: 0x0, symName: __ZThn16_N30WithMode_OverwritePartial_TestD1Ev, symObjAddr: 0xF0D0, symBinAddr: 0x100062BB0, symSize: 0x10 }
  - { offsetInCU: 0x5CABE, offset: 0x2A27DB, size: 0x8, addend: 0x0, symName: __ZThn16_N30WithMode_OverwritePartial_TestD0Ev, symObjAddr: 0xF0E0, symBinAddr: 0x100062BC0, symSize: 0x30 }
  - { offsetInCU: 0x5CB92, offset: 0x2A28AF, size: 0x8, addend: 0x0, symName: __ZN26WithMode_WriteTooMuch_TestD1Ev, symObjAddr: 0xF110, symBinAddr: 0x100062BF0, symSize: 0x10 }
  - { offsetInCU: 0x5CC2C, offset: 0x2A2949, size: 0x8, addend: 0x0, symName: __ZN26WithMode_WriteTooMuch_TestD0Ev, symObjAddr: 0xF120, symBinAddr: 0x100062C00, symSize: 0x20 }
  - { offsetInCU: 0x5CCCA, offset: 0x2A29E7, size: 0x8, addend: 0x0, symName: __ZThn16_N26WithMode_WriteTooMuch_TestD1Ev, symObjAddr: 0xF140, symBinAddr: 0x100062C20, symSize: 0x10 }
  - { offsetInCU: 0x5CD78, offset: 0x2A2A95, size: 0x8, addend: 0x0, symName: __ZThn16_N26WithMode_WriteTooMuch_TestD0Ev, symObjAddr: 0xF150, symBinAddr: 0x100062C30, symSize: 0x30 }
  - { offsetInCU: 0x5CE4C, offset: 0x2A2B69, size: 0x8, addend: 0x0, symName: __ZN27WithMode_WriteTooMuch2_TestD1Ev, symObjAddr: 0xF180, symBinAddr: 0x100062C60, symSize: 0x10 }
  - { offsetInCU: 0x5CEE6, offset: 0x2A2C03, size: 0x8, addend: 0x0, symName: __ZN27WithMode_WriteTooMuch2_TestD0Ev, symObjAddr: 0xF190, symBinAddr: 0x100062C70, symSize: 0x20 }
  - { offsetInCU: 0x5CF84, offset: 0x2A2CA1, size: 0x8, addend: 0x0, symName: __ZThn16_N27WithMode_WriteTooMuch2_TestD1Ev, symObjAddr: 0xF1B0, symBinAddr: 0x100062C90, symSize: 0x10 }
  - { offsetInCU: 0x5D032, offset: 0x2A2D4F, size: 0x8, addend: 0x0, symName: __ZThn16_N27WithMode_WriteTooMuch2_TestD0Ev, symObjAddr: 0xF1C0, symBinAddr: 0x100062CA0, symSize: 0x30 }
  - { offsetInCU: 0x5D106, offset: 0x2A2E23, size: 0x8, addend: 0x0, symName: __ZN35WithMode_WriteWhilePendingRead_TestD1Ev, symObjAddr: 0xF1F0, symBinAddr: 0x100062CD0, symSize: 0x10 }
  - { offsetInCU: 0x5D1A0, offset: 0x2A2EBD, size: 0x8, addend: 0x0, symName: __ZN35WithMode_WriteWhilePendingRead_TestD0Ev, symObjAddr: 0xF200, symBinAddr: 0x100062CE0, symSize: 0x20 }
  - { offsetInCU: 0x5D23E, offset: 0x2A2F5B, size: 0x8, addend: 0x0, symName: __ZThn16_N35WithMode_WriteWhilePendingRead_TestD1Ev, symObjAddr: 0xF220, symBinAddr: 0x100062D00, symSize: 0x10 }
  - { offsetInCU: 0x5D2EC, offset: 0x2A3009, size: 0x8, addend: 0x0, symName: __ZThn16_N35WithMode_WriteWhilePendingRead_TestD0Ev, symObjAddr: 0xF230, symBinAddr: 0x100062D10, symSize: 0x30 }
  - { offsetInCU: 0x5D3C0, offset: 0x2A30DD, size: 0x8, addend: 0x0, symName: __ZN40WithMode_WriteLargeWhilePendingRead_TestD1Ev, symObjAddr: 0xF260, symBinAddr: 0x100062D40, symSize: 0x10 }
  - { offsetInCU: 0x5D45A, offset: 0x2A3177, size: 0x8, addend: 0x0, symName: __ZN40WithMode_WriteLargeWhilePendingRead_TestD0Ev, symObjAddr: 0xF270, symBinAddr: 0x100062D50, symSize: 0x20 }
  - { offsetInCU: 0x5D4F8, offset: 0x2A3215, size: 0x8, addend: 0x0, symName: __ZThn16_N40WithMode_WriteLargeWhilePendingRead_TestD1Ev, symObjAddr: 0xF290, symBinAddr: 0x100062D70, symSize: 0x10 }
  - { offsetInCU: 0x5D5A6, offset: 0x2A32C3, size: 0x8, addend: 0x0, symName: __ZThn16_N40WithMode_WriteLargeWhilePendingRead_TestD0Ev, symObjAddr: 0xF2A0, symBinAddr: 0x100062D80, symSize: 0x30 }
  - { offsetInCU: 0x5D67A, offset: 0x2A3397, size: 0x8, addend: 0x0, symName: __ZN24WithMode_WriteLarge_TestD1Ev, symObjAddr: 0xF2D0, symBinAddr: 0x100062DB0, symSize: 0x10 }
  - { offsetInCU: 0x5D714, offset: 0x2A3431, size: 0x8, addend: 0x0, symName: __ZN24WithMode_WriteLarge_TestD0Ev, symObjAddr: 0xF2E0, symBinAddr: 0x100062DC0, symSize: 0x20 }
  - { offsetInCU: 0x5D7B2, offset: 0x2A34CF, size: 0x8, addend: 0x0, symName: __ZThn16_N24WithMode_WriteLarge_TestD1Ev, symObjAddr: 0xF300, symBinAddr: 0x100062DE0, symSize: 0x10 }
  - { offsetInCU: 0x5D860, offset: 0x2A357D, size: 0x8, addend: 0x0, symName: __ZThn16_N24WithMode_WriteLarge_TestD0Ev, symObjAddr: 0xF310, symBinAddr: 0x100062DF0, symSize: 0x30 }
  - { offsetInCU: 0x5D934, offset: 0x2A3651, size: 0x8, addend: 0x0, symName: __ZN29WithMode_MultiWriteLarge_TestD1Ev, symObjAddr: 0xF340, symBinAddr: 0x100062E20, symSize: 0x10 }
  - { offsetInCU: 0x5D9CE, offset: 0x2A36EB, size: 0x8, addend: 0x0, symName: __ZN29WithMode_MultiWriteLarge_TestD0Ev, symObjAddr: 0xF350, symBinAddr: 0x100062E30, symSize: 0x20 }
  - { offsetInCU: 0x5DA6C, offset: 0x2A3789, size: 0x8, addend: 0x0, symName: __ZThn16_N29WithMode_MultiWriteLarge_TestD1Ev, symObjAddr: 0xF370, symBinAddr: 0x100062E50, symSize: 0x10 }
  - { offsetInCU: 0x5DB1A, offset: 0x2A3837, size: 0x8, addend: 0x0, symName: __ZThn16_N29WithMode_MultiWriteLarge_TestD0Ev, symObjAddr: 0xF380, symBinAddr: 0x100062E60, symSize: 0x30 }
  - { offsetInCU: 0x5DBEE, offset: 0x2A390B, size: 0x8, addend: 0x0, symName: __ZN25WithMode_ReadPartial_TestD1Ev, symObjAddr: 0xF3B0, symBinAddr: 0x100062E90, symSize: 0x10 }
  - { offsetInCU: 0x5DC88, offset: 0x2A39A5, size: 0x8, addend: 0x0, symName: __ZN25WithMode_ReadPartial_TestD0Ev, symObjAddr: 0xF3C0, symBinAddr: 0x100062EA0, symSize: 0x20 }
  - { offsetInCU: 0x5DD26, offset: 0x2A3A43, size: 0x8, addend: 0x0, symName: __ZThn16_N25WithMode_ReadPartial_TestD1Ev, symObjAddr: 0xF3E0, symBinAddr: 0x100062EC0, symSize: 0x10 }
  - { offsetInCU: 0x5DDD4, offset: 0x2A3AF1, size: 0x8, addend: 0x0, symName: __ZThn16_N25WithMode_ReadPartial_TestD0Ev, symObjAddr: 0xF3F0, symBinAddr: 0x100062ED0, symSize: 0x30 }
  - { offsetInCU: 0x5DEA8, offset: 0x2A3BC5, size: 0x8, addend: 0x0, symName: __ZN35WithMode_ReadPendingMultiWrite_TestD1Ev, symObjAddr: 0xF420, symBinAddr: 0x100062F00, symSize: 0x10 }
  - { offsetInCU: 0x5DF42, offset: 0x2A3C5F, size: 0x8, addend: 0x0, symName: __ZN35WithMode_ReadPendingMultiWrite_TestD0Ev, symObjAddr: 0xF430, symBinAddr: 0x100062F10, symSize: 0x20 }
  - { offsetInCU: 0x5DFE0, offset: 0x2A3CFD, size: 0x8, addend: 0x0, symName: __ZThn16_N35WithMode_ReadPendingMultiWrite_TestD1Ev, symObjAddr: 0xF450, symBinAddr: 0x100062F30, symSize: 0x10 }
  - { offsetInCU: 0x5E08E, offset: 0x2A3DAB, size: 0x8, addend: 0x0, symName: __ZThn16_N35WithMode_ReadPendingMultiWrite_TestD0Ev, symObjAddr: 0xF460, symBinAddr: 0x100062F40, symSize: 0x30 }
  - { offsetInCU: 0x5E162, offset: 0x2A3E7F, size: 0x8, addend: 0x0, symName: __ZN24WithMode_RecvCrypto_TestD1Ev, symObjAddr: 0xF490, symBinAddr: 0x100062F70, symSize: 0x10 }
  - { offsetInCU: 0x5E1FC, offset: 0x2A3F19, size: 0x8, addend: 0x0, symName: __ZN24WithMode_RecvCrypto_TestD0Ev, symObjAddr: 0xF4A0, symBinAddr: 0x100062F80, symSize: 0x20 }
  - { offsetInCU: 0x5E29A, offset: 0x2A3FB7, size: 0x8, addend: 0x0, symName: __ZThn16_N24WithMode_RecvCrypto_TestD1Ev, symObjAddr: 0xF4C0, symBinAddr: 0x100062FA0, symSize: 0x10 }
  - { offsetInCU: 0x5E348, offset: 0x2A4065, size: 0x8, addend: 0x0, symName: __ZThn16_N24WithMode_RecvCrypto_TestD0Ev, symObjAddr: 0xF4D0, symBinAddr: 0x100062FB0, symSize: 0x30 }
  - { offsetInCU: 0x5E41C, offset: 0x2A4139, size: 0x8, addend: 0x0, symName: __ZN43WithMode_DrainFrontChunkWithPendingGap_TestD1Ev, symObjAddr: 0xF500, symBinAddr: 0x100062FE0, symSize: 0x10 }
  - { offsetInCU: 0x5E4B6, offset: 0x2A41D3, size: 0x8, addend: 0x0, symName: __ZN43WithMode_DrainFrontChunkWithPendingGap_TestD0Ev, symObjAddr: 0xF510, symBinAddr: 0x100062FF0, symSize: 0x20 }
  - { offsetInCU: 0x5E554, offset: 0x2A4271, size: 0x8, addend: 0x0, symName: __ZThn16_N43WithMode_DrainFrontChunkWithPendingGap_TestD1Ev, symObjAddr: 0xF530, symBinAddr: 0x100063010, symSize: 0x10 }
  - { offsetInCU: 0x5E602, offset: 0x2A431F, size: 0x8, addend: 0x0, symName: __ZThn16_N43WithMode_DrainFrontChunkWithPendingGap_TestD0Ev, symObjAddr: 0xF540, symBinAddr: 0x100063020, symSize: 0x30 }
  - { offsetInCU: 0x5E9B4, offset: 0x2A46D1, size: 0x8, addend: 0x0, symName: __ZNSt3__110shared_ptrIN7testing8internal26ParameterizedTestSuiteInfoI8WithModeE8TestInfoEEC1B8ue170006IS6_vEEPT_, symObjAddr: 0xF940, symBinAddr: 0x100063420, symSize: 0x60 }
  - { offsetInCU: 0x5EBAD, offset: 0x2A48CA, size: 0x8, addend: 0x0, symName: __ZNSt3__16vectorINS_10shared_ptrIN7testing8internal26ParameterizedTestSuiteInfoI8WithModeE8TestInfoEEENS_9allocatorIS8_EEE24__emplace_back_slow_pathIJPS7_EEEvDpOT_, symObjAddr: 0xF770, symBinAddr: 0x100063250, symSize: 0x1D0 }
  - { offsetInCU: 0x5F7F1, offset: 0x2A550E, size: 0x8, addend: 0x0, symName: __ZNKSt3__16vectorINS_10shared_ptrIN7testing8internal26ParameterizedTestSuiteInfoI8WithModeE8TestInfoEEENS_9allocatorIS8_EEE20__throw_length_errorB8ue170006Ev, symObjAddr: 0xFAF0, symBinAddr: 0x1000635C0, symSize: 0x10 }
  - { offsetInCU: 0x5F826, offset: 0x2A5543, size: 0x8, addend: 0x0, symName: __ZNSt3__114__split_bufferINS_10shared_ptrIN7testing8internal26ParameterizedTestSuiteInfoI8WithModeE8TestInfoEEERNS_9allocatorIS8_EEED1Ev, symObjAddr: 0xFA70, symBinAddr: 0x100063540, symSize: 0x80 }
  - { offsetInCU: 0x5FE06, offset: 0x2A5B23, size: 0x8, addend: 0x0, symName: __ZNSt3__110shared_ptrIN7testing8internal26ParameterizedTestSuiteInfoI8WithModeE8TestInfoEEC1B8ue170006IS6_vEEPT_.cold.1, symObjAddr: 0x14C00, symBinAddr: 0x10041A110, symSize: 0x48 }
  - { offsetInCU: 0x601A0, offset: 0x2A5EBD, size: 0x8, addend: 0x0, symName: __ZNSt3__120__shared_ptr_pointerIPN7testing8internal26ParameterizedTestSuiteInfoI8WithModeE8TestInfoENS_10shared_ptrIS6_E27__shared_ptr_default_deleteIS6_S6_EENS_9allocatorIS6_EEED1Ev, symObjAddr: 0xF9B0, symBinAddr: 0x100063480, symSize: 0x10 }
  - { offsetInCU: 0x601FB, offset: 0x2A5F18, size: 0x8, addend: 0x0, symName: __ZNSt3__120__shared_ptr_pointerIPN7testing8internal26ParameterizedTestSuiteInfoI8WithModeE8TestInfoENS_10shared_ptrIS6_E27__shared_ptr_default_deleteIS6_S6_EENS_9allocatorIS6_EEED0Ev, symObjAddr: 0xF9C0, symBinAddr: 0x100063490, symSize: 0x20 }
  - { offsetInCU: 0x60327, offset: 0x2A6044, size: 0x8, addend: 0x0, symName: __ZNSt3__120__shared_ptr_pointerIPN7testing8internal26ParameterizedTestSuiteInfoI8WithModeE8TestInfoENS_10shared_ptrIS6_E27__shared_ptr_default_deleteIS6_S6_EENS_9allocatorIS6_EEE16__on_zero_sharedEv, symObjAddr: 0xF9E0, symBinAddr: 0x1000634B0, symSize: 0x60 }
  - { offsetInCU: 0x60739, offset: 0x2A6456, size: 0x8, addend: 0x0, symName: __ZNKSt3__120__shared_ptr_pointerIPN7testing8internal26ParameterizedTestSuiteInfoI8WithModeE8TestInfoENS_10shared_ptrIS6_E27__shared_ptr_default_deleteIS6_S6_EENS_9allocatorIS6_EEE13__get_deleterERKSt9type_info, symObjAddr: 0xFA40, symBinAddr: 0x100063510, symSize: 0x20 }
  - { offsetInCU: 0x60800, offset: 0x2A651D, size: 0x8, addend: 0x0, symName: __ZNSt3__120__shared_ptr_pointerIPN7testing8internal26ParameterizedTestSuiteInfoI8WithModeE8TestInfoENS_10shared_ptrIS6_E27__shared_ptr_default_deleteIS6_S6_EENS_9allocatorIS6_EEE21__on_zero_shared_weakEv, symObjAddr: 0xFA60, symBinAddr: 0x100063530, symSize: 0x10 }
  - { offsetInCU: 0x60944, offset: 0x2A6661, size: 0x8, addend: 0x0, symName: __ZN7testing8internal15TestMetaFactoryI19WithMode_Alloc_TestED1Ev, symObjAddr: 0xFBC0, symBinAddr: 0x1000635D0, symSize: 0x10 }
  - { offsetInCU: 0x60970, offset: 0x2A668D, size: 0x8, addend: 0x0, symName: __ZN7testing8internal15TestMetaFactoryI19WithMode_Alloc_TestED0Ev, symObjAddr: 0xFBD0, symBinAddr: 0x1000635E0, symSize: 0x10 }
  - { offsetInCU: 0x60A06, offset: 0x2A6723, size: 0x8, addend: 0x0, symName: __ZN7testing8internal15TestMetaFactoryI19WithMode_Alloc_TestE17CreateTestFactoryE18QUIC_RECV_BUF_MODE, symObjAddr: 0xFBE0, symBinAddr: 0x1000635F0, symSize: 0x30 }
  - { offsetInCU: 0x60A8C, offset: 0x2A67A9, size: 0x8, addend: 0x0, symName: __ZN7testing8internal24ParameterizedTestFactoryI19WithMode_Alloc_TestED1Ev, symObjAddr: 0xFC10, symBinAddr: 0x100063620, symSize: 0x10 }
  - { offsetInCU: 0x60AB8, offset: 0x2A67D5, size: 0x8, addend: 0x0, symName: __ZN7testing8internal24ParameterizedTestFactoryI19WithMode_Alloc_TestED0Ev, symObjAddr: 0xFC20, symBinAddr: 0x100063630, symSize: 0x10 }
  - { offsetInCU: 0x60B65, offset: 0x2A6882, size: 0x8, addend: 0x0, symName: __ZN7testing8internal24ParameterizedTestFactoryI19WithMode_Alloc_TestE10CreateTestEv, symObjAddr: 0xFC30, symBinAddr: 0x100063640, symSize: 0x60 }
  - { offsetInCU: 0x60C24, offset: 0x2A6941, size: 0x8, addend: 0x0, symName: __ZN8WithModeD1Ev, symObjAddr: 0xFC90, symBinAddr: 0x10041A090, symSize: 0x10 }
  - { offsetInCU: 0x60C45, offset: 0x2A6962, size: 0x8, addend: 0x0, symName: __ZN8WithModeD0Ev, symObjAddr: 0xFCA0, symBinAddr: 0x10041A0A0, symSize: 0x10 }
  - { offsetInCU: 0x60C82, offset: 0x2A699F, size: 0x8, addend: 0x0, symName: __ZThn16_N8WithModeD1Ev, symObjAddr: 0xFCB0, symBinAddr: 0x10041A0B0, symSize: 0x10 }
  - { offsetInCU: 0x60CD4, offset: 0x2A69F1, size: 0x8, addend: 0x0, symName: __ZThn16_N8WithModeD0Ev, symObjAddr: 0xFCC0, symBinAddr: 0x10041A0C0, symSize: 0x10 }
  - { offsetInCU: 0x60D0A, offset: 0x2A6A27, size: 0x8, addend: 0x0, symName: __ZN7testing13TestWithParamI18QUIC_RECV_BUF_MODEED1Ev, symObjAddr: 0xFCD0, symBinAddr: 0x10041A0D0, symSize: 0x10 }
  - { offsetInCU: 0x60D2B, offset: 0x2A6A48, size: 0x8, addend: 0x0, symName: __ZN7testing13TestWithParamI18QUIC_RECV_BUF_MODEED0Ev, symObjAddr: 0xFCE0, symBinAddr: 0x10041A0E0, symSize: 0x10 }
  - { offsetInCU: 0x60D69, offset: 0x2A6A86, size: 0x8, addend: 0x0, symName: __ZThn16_N7testing13TestWithParamI18QUIC_RECV_BUF_MODEED1Ev, symObjAddr: 0xFCF0, symBinAddr: 0x10041A0F0, symSize: 0x10 }
  - { offsetInCU: 0x60DBD, offset: 0x2A6ADA, size: 0x8, addend: 0x0, symName: __ZThn16_N7testing13TestWithParamI18QUIC_RECV_BUF_MODEED0Ev, symObjAddr: 0xFD00, symBinAddr: 0x10041A100, symSize: 0x10 }
  - { offsetInCU: 0x60DF4, offset: 0x2A6B11, size: 0x8, addend: 0x0, symName: __ZN7testing18WithParamInterfaceI18QUIC_RECV_BUF_MODEED1Ev, symObjAddr: 0xFD10, symBinAddr: 0x1000636A0, symSize: 0x10 }
  - { offsetInCU: 0x60E1D, offset: 0x2A6B3A, size: 0x8, addend: 0x0, symName: __ZN7testing18WithParamInterfaceI18QUIC_RECV_BUF_MODEED0Ev, symObjAddr: 0xFD20, symBinAddr: 0x1000636B0, symSize: 0x10 }
  - { offsetInCU: 0x60E7B, offset: 0x2A6B98, size: 0x8, addend: 0x0, symName: __ZN7testing8internal15TestMetaFactoryI28WithMode_AllocWithChunk_TestED1Ev, symObjAddr: 0xFEE0, symBinAddr: 0x100063870, symSize: 0x10 }
  - { offsetInCU: 0x60EA7, offset: 0x2A6BC4, size: 0x8, addend: 0x0, symName: __ZN7testing8internal15TestMetaFactoryI28WithMode_AllocWithChunk_TestED0Ev, symObjAddr: 0xFEF0, symBinAddr: 0x100063880, symSize: 0x10 }
  - { offsetInCU: 0x60F3D, offset: 0x2A6C5A, size: 0x8, addend: 0x0, symName: __ZN7testing8internal15TestMetaFactoryI28WithMode_AllocWithChunk_TestE17CreateTestFactoryE18QUIC_RECV_BUF_MODE, symObjAddr: 0xFF00, symBinAddr: 0x100063890, symSize: 0x30 }
  - { offsetInCU: 0x60FC3, offset: 0x2A6CE0, size: 0x8, addend: 0x0, symName: __ZN7testing8internal24ParameterizedTestFactoryI28WithMode_AllocWithChunk_TestED1Ev, symObjAddr: 0xFF30, symBinAddr: 0x1000638C0, symSize: 0x10 }
  - { offsetInCU: 0x60FEF, offset: 0x2A6D0C, size: 0x8, addend: 0x0, symName: __ZN7testing8internal24ParameterizedTestFactoryI28WithMode_AllocWithChunk_TestED0Ev, symObjAddr: 0xFF40, symBinAddr: 0x1000638D0, symSize: 0x10 }
  - { offsetInCU: 0x6104F, offset: 0x2A6D6C, size: 0x8, addend: 0x0, symName: __ZN7testing8internal24ParameterizedTestFactoryI28WithMode_AllocWithChunk_TestE10CreateTestEv, symObjAddr: 0xFF50, symBinAddr: 0x1000638E0, symSize: 0x60 }
  - { offsetInCU: 0x614E7, offset: 0x2A7204, size: 0x8, addend: 0x0, symName: __ZN7testing8internal15TestMetaFactoryI34WithMode_WriteFrontAndReadAll_TestED1Ev, symObjAddr: 0x104A0, symBinAddr: 0x100063AD0, symSize: 0x10 }
  - { offsetInCU: 0x61513, offset: 0x2A7230, size: 0x8, addend: 0x0, symName: __ZN7testing8internal15TestMetaFactoryI34WithMode_WriteFrontAndReadAll_TestED0Ev, symObjAddr: 0x104B0, symBinAddr: 0x100063AE0, symSize: 0x10 }
  - { offsetInCU: 0x615A9, offset: 0x2A72C6, size: 0x8, addend: 0x0, symName: __ZN7testing8internal15TestMetaFactoryI34WithMode_WriteFrontAndReadAll_TestE17CreateTestFactoryE18QUIC_RECV_BUF_MODE, symObjAddr: 0x104C0, symBinAddr: 0x100063AF0, symSize: 0x30 }
  - { offsetInCU: 0x6162F, offset: 0x2A734C, size: 0x8, addend: 0x0, symName: __ZN7testing8internal24ParameterizedTestFactoryI34WithMode_WriteFrontAndReadAll_TestED1Ev, symObjAddr: 0x104F0, symBinAddr: 0x100063B20, symSize: 0x10 }
  - { offsetInCU: 0x6165B, offset: 0x2A7378, size: 0x8, addend: 0x0, symName: __ZN7testing8internal24ParameterizedTestFactoryI34WithMode_WriteFrontAndReadAll_TestED0Ev, symObjAddr: 0x10500, symBinAddr: 0x100063B30, symSize: 0x10 }
  - { offsetInCU: 0x616BB, offset: 0x2A73D8, size: 0x8, addend: 0x0, symName: __ZN7testing8internal24ParameterizedTestFactoryI34WithMode_WriteFrontAndReadAll_TestE10CreateTestEv, symObjAddr: 0x10510, symBinAddr: 0x100063B40, symSize: 0x60 }
  - { offsetInCU: 0x6177A, offset: 0x2A7497, size: 0x8, addend: 0x0, symName: __ZN7testing8internal15TestMetaFactoryI38WithMode_WriteFrontAndReadPartial_TestED1Ev, symObjAddr: 0x10570, symBinAddr: 0x100063BA0, symSize: 0x10 }
  - { offsetInCU: 0x617A6, offset: 0x2A74C3, size: 0x8, addend: 0x0, symName: __ZN7testing8internal15TestMetaFactoryI38WithMode_WriteFrontAndReadPartial_TestED0Ev, symObjAddr: 0x10580, symBinAddr: 0x100063BB0, symSize: 0x10 }
  - { offsetInCU: 0x6183C, offset: 0x2A7559, size: 0x8, addend: 0x0, symName: __ZN7testing8internal15TestMetaFactoryI38WithMode_WriteFrontAndReadPartial_TestE17CreateTestFactoryE18QUIC_RECV_BUF_MODE, symObjAddr: 0x10590, symBinAddr: 0x100063BC0, symSize: 0x30 }
  - { offsetInCU: 0x618C2, offset: 0x2A75DF, size: 0x8, addend: 0x0, symName: __ZN7testing8internal24ParameterizedTestFactoryI38WithMode_WriteFrontAndReadPartial_TestED1Ev, symObjAddr: 0x105C0, symBinAddr: 0x100063BF0, symSize: 0x10 }
  - { offsetInCU: 0x618EE, offset: 0x2A760B, size: 0x8, addend: 0x0, symName: __ZN7testing8internal24ParameterizedTestFactoryI38WithMode_WriteFrontAndReadPartial_TestED0Ev, symObjAddr: 0x105D0, symBinAddr: 0x100063C00, symSize: 0x10 }
  - { offsetInCU: 0x6194E, offset: 0x2A766B, size: 0x8, addend: 0x0, symName: __ZN7testing8internal24ParameterizedTestFactoryI38WithMode_WriteFrontAndReadPartial_TestE10CreateTestEv, symObjAddr: 0x105E0, symBinAddr: 0x100063C10, symSize: 0x60 }
  - { offsetInCU: 0x61A0D, offset: 0x2A772A, size: 0x8, addend: 0x0, symName: __ZN7testing8internal15TestMetaFactoryI22WithMode_WriteGap_TestED1Ev, symObjAddr: 0x10640, symBinAddr: 0x100063C70, symSize: 0x10 }
  - { offsetInCU: 0x61A39, offset: 0x2A7756, size: 0x8, addend: 0x0, symName: __ZN7testing8internal15TestMetaFactoryI22WithMode_WriteGap_TestED0Ev, symObjAddr: 0x10650, symBinAddr: 0x100063C80, symSize: 0x10 }
  - { offsetInCU: 0x61ACF, offset: 0x2A77EC, size: 0x8, addend: 0x0, symName: __ZN7testing8internal15TestMetaFactoryI22WithMode_WriteGap_TestE17CreateTestFactoryE18QUIC_RECV_BUF_MODE, symObjAddr: 0x10660, symBinAddr: 0x100063C90, symSize: 0x30 }
  - { offsetInCU: 0x61B55, offset: 0x2A7872, size: 0x8, addend: 0x0, symName: __ZN7testing8internal24ParameterizedTestFactoryI22WithMode_WriteGap_TestED1Ev, symObjAddr: 0x10690, symBinAddr: 0x100063CC0, symSize: 0x10 }
  - { offsetInCU: 0x61B81, offset: 0x2A789E, size: 0x8, addend: 0x0, symName: __ZN7testing8internal24ParameterizedTestFactoryI22WithMode_WriteGap_TestED0Ev, symObjAddr: 0x106A0, symBinAddr: 0x100063CD0, symSize: 0x10 }
  - { offsetInCU: 0x61BE1, offset: 0x2A78FE, size: 0x8, addend: 0x0, symName: __ZN7testing8internal24ParameterizedTestFactoryI22WithMode_WriteGap_TestE10CreateTestEv, symObjAddr: 0x106B0, symBinAddr: 0x100063CE0, symSize: 0x60 }
  - { offsetInCU: 0x61CA0, offset: 0x2A79BD, size: 0x8, addend: 0x0, symName: __ZN7testing8internal15TestMetaFactoryI23WithMode_DrainZero_TestED1Ev, symObjAddr: 0x10710, symBinAddr: 0x100063D40, symSize: 0x10 }
  - { offsetInCU: 0x61CCC, offset: 0x2A79E9, size: 0x8, addend: 0x0, symName: __ZN7testing8internal15TestMetaFactoryI23WithMode_DrainZero_TestED0Ev, symObjAddr: 0x10720, symBinAddr: 0x100063D50, symSize: 0x10 }
  - { offsetInCU: 0x61D62, offset: 0x2A7A7F, size: 0x8, addend: 0x0, symName: __ZN7testing8internal15TestMetaFactoryI23WithMode_DrainZero_TestE17CreateTestFactoryE18QUIC_RECV_BUF_MODE, symObjAddr: 0x10730, symBinAddr: 0x100063D60, symSize: 0x30 }
  - { offsetInCU: 0x61DE8, offset: 0x2A7B05, size: 0x8, addend: 0x0, symName: __ZN7testing8internal24ParameterizedTestFactoryI23WithMode_DrainZero_TestED1Ev, symObjAddr: 0x10760, symBinAddr: 0x100063D90, symSize: 0x10 }
  - { offsetInCU: 0x61E14, offset: 0x2A7B31, size: 0x8, addend: 0x0, symName: __ZN7testing8internal24ParameterizedTestFactoryI23WithMode_DrainZero_TestED0Ev, symObjAddr: 0x10770, symBinAddr: 0x100063DA0, symSize: 0x10 }
  - { offsetInCU: 0x61E74, offset: 0x2A7B91, size: 0x8, addend: 0x0, symName: __ZN7testing8internal24ParameterizedTestFactoryI23WithMode_DrainZero_TestE10CreateTestEv, symObjAddr: 0x10780, symBinAddr: 0x100063DB0, symSize: 0x60 }
  - { offsetInCU: 0x61F33, offset: 0x2A7C50, size: 0x8, addend: 0x0, symName: __ZN7testing8internal15TestMetaFactoryI26WithMode_WriteFillGap_TestED1Ev, symObjAddr: 0x107E0, symBinAddr: 0x100063E10, symSize: 0x10 }
  - { offsetInCU: 0x61F5F, offset: 0x2A7C7C, size: 0x8, addend: 0x0, symName: __ZN7testing8internal15TestMetaFactoryI26WithMode_WriteFillGap_TestED0Ev, symObjAddr: 0x107F0, symBinAddr: 0x100063E20, symSize: 0x10 }
  - { offsetInCU: 0x61FF5, offset: 0x2A7D12, size: 0x8, addend: 0x0, symName: __ZN7testing8internal15TestMetaFactoryI26WithMode_WriteFillGap_TestE17CreateTestFactoryE18QUIC_RECV_BUF_MODE, symObjAddr: 0x10800, symBinAddr: 0x100063E30, symSize: 0x30 }
  - { offsetInCU: 0x6207B, offset: 0x2A7D98, size: 0x8, addend: 0x0, symName: __ZN7testing8internal24ParameterizedTestFactoryI26WithMode_WriteFillGap_TestED1Ev, symObjAddr: 0x10830, symBinAddr: 0x100063E60, symSize: 0x10 }
  - { offsetInCU: 0x620A7, offset: 0x2A7DC4, size: 0x8, addend: 0x0, symName: __ZN7testing8internal24ParameterizedTestFactoryI26WithMode_WriteFillGap_TestED0Ev, symObjAddr: 0x10840, symBinAddr: 0x100063E70, symSize: 0x10 }
  - { offsetInCU: 0x62107, offset: 0x2A7E24, size: 0x8, addend: 0x0, symName: __ZN7testing8internal24ParameterizedTestFactoryI26WithMode_WriteFillGap_TestE10CreateTestEv, symObjAddr: 0x10850, symBinAddr: 0x100063E80, symSize: 0x60 }
  - { offsetInCU: 0x621C6, offset: 0x2A7EE3, size: 0x8, addend: 0x0, symName: __ZN7testing8internal15TestMetaFactoryI23WithMode_Overwrite_TestED1Ev, symObjAddr: 0x108B0, symBinAddr: 0x100063EE0, symSize: 0x10 }
  - { offsetInCU: 0x621F2, offset: 0x2A7F0F, size: 0x8, addend: 0x0, symName: __ZN7testing8internal15TestMetaFactoryI23WithMode_Overwrite_TestED0Ev, symObjAddr: 0x108C0, symBinAddr: 0x100063EF0, symSize: 0x10 }
  - { offsetInCU: 0x62288, offset: 0x2A7FA5, size: 0x8, addend: 0x0, symName: __ZN7testing8internal15TestMetaFactoryI23WithMode_Overwrite_TestE17CreateTestFactoryE18QUIC_RECV_BUF_MODE, symObjAddr: 0x108D0, symBinAddr: 0x100063F00, symSize: 0x30 }
  - { offsetInCU: 0x6230E, offset: 0x2A802B, size: 0x8, addend: 0x0, symName: __ZN7testing8internal24ParameterizedTestFactoryI23WithMode_Overwrite_TestED1Ev, symObjAddr: 0x10900, symBinAddr: 0x100063F30, symSize: 0x10 }
  - { offsetInCU: 0x6233A, offset: 0x2A8057, size: 0x8, addend: 0x0, symName: __ZN7testing8internal24ParameterizedTestFactoryI23WithMode_Overwrite_TestED0Ev, symObjAddr: 0x10910, symBinAddr: 0x100063F40, symSize: 0x10 }
  - { offsetInCU: 0x6239A, offset: 0x2A80B7, size: 0x8, addend: 0x0, symName: __ZN7testing8internal24ParameterizedTestFactoryI23WithMode_Overwrite_TestE10CreateTestEv, symObjAddr: 0x10920, symBinAddr: 0x100063F50, symSize: 0x60 }
  - { offsetInCU: 0x62459, offset: 0x2A8176, size: 0x8, addend: 0x0, symName: __ZN7testing8internal15TestMetaFactoryI30WithMode_OverwritePartial_TestED1Ev, symObjAddr: 0x10980, symBinAddr: 0x100063FB0, symSize: 0x10 }
  - { offsetInCU: 0x62485, offset: 0x2A81A2, size: 0x8, addend: 0x0, symName: __ZN7testing8internal15TestMetaFactoryI30WithMode_OverwritePartial_TestED0Ev, symObjAddr: 0x10990, symBinAddr: 0x100063FC0, symSize: 0x10 }
  - { offsetInCU: 0x6251B, offset: 0x2A8238, size: 0x8, addend: 0x0, symName: __ZN7testing8internal15TestMetaFactoryI30WithMode_OverwritePartial_TestE17CreateTestFactoryE18QUIC_RECV_BUF_MODE, symObjAddr: 0x109A0, symBinAddr: 0x100063FD0, symSize: 0x30 }
  - { offsetInCU: 0x625A1, offset: 0x2A82BE, size: 0x8, addend: 0x0, symName: __ZN7testing8internal24ParameterizedTestFactoryI30WithMode_OverwritePartial_TestED1Ev, symObjAddr: 0x109D0, symBinAddr: 0x100064000, symSize: 0x10 }
  - { offsetInCU: 0x625CD, offset: 0x2A82EA, size: 0x8, addend: 0x0, symName: __ZN7testing8internal24ParameterizedTestFactoryI30WithMode_OverwritePartial_TestED0Ev, symObjAddr: 0x109E0, symBinAddr: 0x100064010, symSize: 0x10 }
  - { offsetInCU: 0x6262D, offset: 0x2A834A, size: 0x8, addend: 0x0, symName: __ZN7testing8internal24ParameterizedTestFactoryI30WithMode_OverwritePartial_TestE10CreateTestEv, symObjAddr: 0x109F0, symBinAddr: 0x100064020, symSize: 0x60 }
  - { offsetInCU: 0x626EE, offset: 0x2A840B, size: 0x8, addend: 0x0, symName: __ZN7testing8internal15TestMetaFactoryI26WithMode_WriteTooMuch_TestED1Ev, symObjAddr: 0x10A50, symBinAddr: 0x100064080, symSize: 0x10 }
  - { offsetInCU: 0x6271A, offset: 0x2A8437, size: 0x8, addend: 0x0, symName: __ZN7testing8internal15TestMetaFactoryI26WithMode_WriteTooMuch_TestED0Ev, symObjAddr: 0x10A60, symBinAddr: 0x100064090, symSize: 0x10 }
  - { offsetInCU: 0x627B0, offset: 0x2A84CD, size: 0x8, addend: 0x0, symName: __ZN7testing8internal15TestMetaFactoryI26WithMode_WriteTooMuch_TestE17CreateTestFactoryE18QUIC_RECV_BUF_MODE, symObjAddr: 0x10A70, symBinAddr: 0x1000640A0, symSize: 0x30 }
  - { offsetInCU: 0x62836, offset: 0x2A8553, size: 0x8, addend: 0x0, symName: __ZN7testing8internal24ParameterizedTestFactoryI26WithMode_WriteTooMuch_TestED1Ev, symObjAddr: 0x10AA0, symBinAddr: 0x1000640D0, symSize: 0x10 }
  - { offsetInCU: 0x62862, offset: 0x2A857F, size: 0x8, addend: 0x0, symName: __ZN7testing8internal24ParameterizedTestFactoryI26WithMode_WriteTooMuch_TestED0Ev, symObjAddr: 0x10AB0, symBinAddr: 0x1000640E0, symSize: 0x10 }
  - { offsetInCU: 0x628C2, offset: 0x2A85DF, size: 0x8, addend: 0x0, symName: __ZN7testing8internal24ParameterizedTestFactoryI26WithMode_WriteTooMuch_TestE10CreateTestEv, symObjAddr: 0x10AC0, symBinAddr: 0x1000640F0, symSize: 0x60 }
  - { offsetInCU: 0x62983, offset: 0x2A86A0, size: 0x8, addend: 0x0, symName: __ZN7testing8internal15TestMetaFactoryI27WithMode_WriteTooMuch2_TestED1Ev, symObjAddr: 0x10B20, symBinAddr: 0x100064150, symSize: 0x10 }
  - { offsetInCU: 0x629AF, offset: 0x2A86CC, size: 0x8, addend: 0x0, symName: __ZN7testing8internal15TestMetaFactoryI27WithMode_WriteTooMuch2_TestED0Ev, symObjAddr: 0x10B30, symBinAddr: 0x100064160, symSize: 0x10 }
  - { offsetInCU: 0x62A45, offset: 0x2A8762, size: 0x8, addend: 0x0, symName: __ZN7testing8internal15TestMetaFactoryI27WithMode_WriteTooMuch2_TestE17CreateTestFactoryE18QUIC_RECV_BUF_MODE, symObjAddr: 0x10B40, symBinAddr: 0x100064170, symSize: 0x30 }
  - { offsetInCU: 0x62ACB, offset: 0x2A87E8, size: 0x8, addend: 0x0, symName: __ZN7testing8internal24ParameterizedTestFactoryI27WithMode_WriteTooMuch2_TestED1Ev, symObjAddr: 0x10B70, symBinAddr: 0x1000641A0, symSize: 0x10 }
  - { offsetInCU: 0x62AF7, offset: 0x2A8814, size: 0x8, addend: 0x0, symName: __ZN7testing8internal24ParameterizedTestFactoryI27WithMode_WriteTooMuch2_TestED0Ev, symObjAddr: 0x10B80, symBinAddr: 0x1000641B0, symSize: 0x10 }
  - { offsetInCU: 0x62B57, offset: 0x2A8874, size: 0x8, addend: 0x0, symName: __ZN7testing8internal24ParameterizedTestFactoryI27WithMode_WriteTooMuch2_TestE10CreateTestEv, symObjAddr: 0x10B90, symBinAddr: 0x1000641C0, symSize: 0x60 }
  - { offsetInCU: 0x62C18, offset: 0x2A8935, size: 0x8, addend: 0x0, symName: __ZN7testing8internal15TestMetaFactoryI35WithMode_WriteWhilePendingRead_TestED1Ev, symObjAddr: 0x10BF0, symBinAddr: 0x100064220, symSize: 0x10 }
  - { offsetInCU: 0x62C44, offset: 0x2A8961, size: 0x8, addend: 0x0, symName: __ZN7testing8internal15TestMetaFactoryI35WithMode_WriteWhilePendingRead_TestED0Ev, symObjAddr: 0x10C00, symBinAddr: 0x100064230, symSize: 0x10 }
  - { offsetInCU: 0x62CDA, offset: 0x2A89F7, size: 0x8, addend: 0x0, symName: __ZN7testing8internal15TestMetaFactoryI35WithMode_WriteWhilePendingRead_TestE17CreateTestFactoryE18QUIC_RECV_BUF_MODE, symObjAddr: 0x10C10, symBinAddr: 0x100064240, symSize: 0x30 }
  - { offsetInCU: 0x62D60, offset: 0x2A8A7D, size: 0x8, addend: 0x0, symName: __ZN7testing8internal24ParameterizedTestFactoryI35WithMode_WriteWhilePendingRead_TestED1Ev, symObjAddr: 0x10C40, symBinAddr: 0x100064270, symSize: 0x10 }
  - { offsetInCU: 0x62D8C, offset: 0x2A8AA9, size: 0x8, addend: 0x0, symName: __ZN7testing8internal24ParameterizedTestFactoryI35WithMode_WriteWhilePendingRead_TestED0Ev, symObjAddr: 0x10C50, symBinAddr: 0x100064280, symSize: 0x10 }
  - { offsetInCU: 0x62DEC, offset: 0x2A8B09, size: 0x8, addend: 0x0, symName: __ZN7testing8internal24ParameterizedTestFactoryI35WithMode_WriteWhilePendingRead_TestE10CreateTestEv, symObjAddr: 0x10C60, symBinAddr: 0x100064290, symSize: 0x60 }
  - { offsetInCU: 0x62EAD, offset: 0x2A8BCA, size: 0x8, addend: 0x0, symName: __ZN7testing8internal15TestMetaFactoryI40WithMode_WriteLargeWhilePendingRead_TestED1Ev, symObjAddr: 0x10CC0, symBinAddr: 0x1000642F0, symSize: 0x10 }
  - { offsetInCU: 0x62ED9, offset: 0x2A8BF6, size: 0x8, addend: 0x0, symName: __ZN7testing8internal15TestMetaFactoryI40WithMode_WriteLargeWhilePendingRead_TestED0Ev, symObjAddr: 0x10CD0, symBinAddr: 0x100064300, symSize: 0x10 }
  - { offsetInCU: 0x62F6F, offset: 0x2A8C8C, size: 0x8, addend: 0x0, symName: __ZN7testing8internal15TestMetaFactoryI40WithMode_WriteLargeWhilePendingRead_TestE17CreateTestFactoryE18QUIC_RECV_BUF_MODE, symObjAddr: 0x10CE0, symBinAddr: 0x100064310, symSize: 0x30 }
  - { offsetInCU: 0x62FF5, offset: 0x2A8D12, size: 0x8, addend: 0x0, symName: __ZN7testing8internal24ParameterizedTestFactoryI40WithMode_WriteLargeWhilePendingRead_TestED1Ev, symObjAddr: 0x10D10, symBinAddr: 0x100064340, symSize: 0x10 }
  - { offsetInCU: 0x63021, offset: 0x2A8D3E, size: 0x8, addend: 0x0, symName: __ZN7testing8internal24ParameterizedTestFactoryI40WithMode_WriteLargeWhilePendingRead_TestED0Ev, symObjAddr: 0x10D20, symBinAddr: 0x100064350, symSize: 0x10 }
  - { offsetInCU: 0x63081, offset: 0x2A8D9E, size: 0x8, addend: 0x0, symName: __ZN7testing8internal24ParameterizedTestFactoryI40WithMode_WriteLargeWhilePendingRead_TestE10CreateTestEv, symObjAddr: 0x10D30, symBinAddr: 0x100064360, symSize: 0x60 }
  - { offsetInCU: 0x63142, offset: 0x2A8E5F, size: 0x8, addend: 0x0, symName: __ZN7testing8internal15TestMetaFactoryI24WithMode_WriteLarge_TestED1Ev, symObjAddr: 0x10D90, symBinAddr: 0x1000643C0, symSize: 0x10 }
  - { offsetInCU: 0x6316E, offset: 0x2A8E8B, size: 0x8, addend: 0x0, symName: __ZN7testing8internal15TestMetaFactoryI24WithMode_WriteLarge_TestED0Ev, symObjAddr: 0x10DA0, symBinAddr: 0x1000643D0, symSize: 0x10 }
  - { offsetInCU: 0x63204, offset: 0x2A8F21, size: 0x8, addend: 0x0, symName: __ZN7testing8internal15TestMetaFactoryI24WithMode_WriteLarge_TestE17CreateTestFactoryE18QUIC_RECV_BUF_MODE, symObjAddr: 0x10DB0, symBinAddr: 0x1000643E0, symSize: 0x30 }
  - { offsetInCU: 0x6328A, offset: 0x2A8FA7, size: 0x8, addend: 0x0, symName: __ZN7testing8internal24ParameterizedTestFactoryI24WithMode_WriteLarge_TestED1Ev, symObjAddr: 0x10DE0, symBinAddr: 0x100064410, symSize: 0x10 }
  - { offsetInCU: 0x632B6, offset: 0x2A8FD3, size: 0x8, addend: 0x0, symName: __ZN7testing8internal24ParameterizedTestFactoryI24WithMode_WriteLarge_TestED0Ev, symObjAddr: 0x10DF0, symBinAddr: 0x100064420, symSize: 0x10 }
  - { offsetInCU: 0x63316, offset: 0x2A9033, size: 0x8, addend: 0x0, symName: __ZN7testing8internal24ParameterizedTestFactoryI24WithMode_WriteLarge_TestE10CreateTestEv, symObjAddr: 0x10E00, symBinAddr: 0x100064430, symSize: 0x60 }
  - { offsetInCU: 0x633D7, offset: 0x2A90F4, size: 0x8, addend: 0x0, symName: __ZN7testing8internal15TestMetaFactoryI29WithMode_MultiWriteLarge_TestED1Ev, symObjAddr: 0x10E60, symBinAddr: 0x100064490, symSize: 0x10 }
  - { offsetInCU: 0x63403, offset: 0x2A9120, size: 0x8, addend: 0x0, symName: __ZN7testing8internal15TestMetaFactoryI29WithMode_MultiWriteLarge_TestED0Ev, symObjAddr: 0x10E70, symBinAddr: 0x1000644A0, symSize: 0x10 }
  - { offsetInCU: 0x63499, offset: 0x2A91B6, size: 0x8, addend: 0x0, symName: __ZN7testing8internal15TestMetaFactoryI29WithMode_MultiWriteLarge_TestE17CreateTestFactoryE18QUIC_RECV_BUF_MODE, symObjAddr: 0x10E80, symBinAddr: 0x1000644B0, symSize: 0x30 }
  - { offsetInCU: 0x6351F, offset: 0x2A923C, size: 0x8, addend: 0x0, symName: __ZN7testing8internal24ParameterizedTestFactoryI29WithMode_MultiWriteLarge_TestED1Ev, symObjAddr: 0x10EB0, symBinAddr: 0x1000644E0, symSize: 0x10 }
  - { offsetInCU: 0x6354B, offset: 0x2A9268, size: 0x8, addend: 0x0, symName: __ZN7testing8internal24ParameterizedTestFactoryI29WithMode_MultiWriteLarge_TestED0Ev, symObjAddr: 0x10EC0, symBinAddr: 0x1000644F0, symSize: 0x10 }
  - { offsetInCU: 0x635AB, offset: 0x2A92C8, size: 0x8, addend: 0x0, symName: __ZN7testing8internal24ParameterizedTestFactoryI29WithMode_MultiWriteLarge_TestE10CreateTestEv, symObjAddr: 0x10ED0, symBinAddr: 0x100064500, symSize: 0x60 }
  - { offsetInCU: 0x6366C, offset: 0x2A9389, size: 0x8, addend: 0x0, symName: __ZN7testing8internal15TestMetaFactoryI25WithMode_ReadPartial_TestED1Ev, symObjAddr: 0x10F30, symBinAddr: 0x100064560, symSize: 0x10 }
  - { offsetInCU: 0x63698, offset: 0x2A93B5, size: 0x8, addend: 0x0, symName: __ZN7testing8internal15TestMetaFactoryI25WithMode_ReadPartial_TestED0Ev, symObjAddr: 0x10F40, symBinAddr: 0x100064570, symSize: 0x10 }
  - { offsetInCU: 0x6372E, offset: 0x2A944B, size: 0x8, addend: 0x0, symName: __ZN7testing8internal15TestMetaFactoryI25WithMode_ReadPartial_TestE17CreateTestFactoryE18QUIC_RECV_BUF_MODE, symObjAddr: 0x10F50, symBinAddr: 0x100064580, symSize: 0x30 }
  - { offsetInCU: 0x637B4, offset: 0x2A94D1, size: 0x8, addend: 0x0, symName: __ZN7testing8internal24ParameterizedTestFactoryI25WithMode_ReadPartial_TestED1Ev, symObjAddr: 0x10F80, symBinAddr: 0x1000645B0, symSize: 0x10 }
  - { offsetInCU: 0x637E0, offset: 0x2A94FD, size: 0x8, addend: 0x0, symName: __ZN7testing8internal24ParameterizedTestFactoryI25WithMode_ReadPartial_TestED0Ev, symObjAddr: 0x10F90, symBinAddr: 0x1000645C0, symSize: 0x10 }
  - { offsetInCU: 0x63840, offset: 0x2A955D, size: 0x8, addend: 0x0, symName: __ZN7testing8internal24ParameterizedTestFactoryI25WithMode_ReadPartial_TestE10CreateTestEv, symObjAddr: 0x10FA0, symBinAddr: 0x1000645D0, symSize: 0x60 }
  - { offsetInCU: 0x63901, offset: 0x2A961E, size: 0x8, addend: 0x0, symName: __ZN7testing8internal15TestMetaFactoryI35WithMode_ReadPendingMultiWrite_TestED1Ev, symObjAddr: 0x11000, symBinAddr: 0x100064630, symSize: 0x10 }
  - { offsetInCU: 0x6392D, offset: 0x2A964A, size: 0x8, addend: 0x0, symName: __ZN7testing8internal15TestMetaFactoryI35WithMode_ReadPendingMultiWrite_TestED0Ev, symObjAddr: 0x11010, symBinAddr: 0x100064640, symSize: 0x10 }
  - { offsetInCU: 0x639C3, offset: 0x2A96E0, size: 0x8, addend: 0x0, symName: __ZN7testing8internal15TestMetaFactoryI35WithMode_ReadPendingMultiWrite_TestE17CreateTestFactoryE18QUIC_RECV_BUF_MODE, symObjAddr: 0x11020, symBinAddr: 0x100064650, symSize: 0x30 }
  - { offsetInCU: 0x63A49, offset: 0x2A9766, size: 0x8, addend: 0x0, symName: __ZN7testing8internal24ParameterizedTestFactoryI35WithMode_ReadPendingMultiWrite_TestED1Ev, symObjAddr: 0x11050, symBinAddr: 0x100064680, symSize: 0x10 }
  - { offsetInCU: 0x63A75, offset: 0x2A9792, size: 0x8, addend: 0x0, symName: __ZN7testing8internal24ParameterizedTestFactoryI35WithMode_ReadPendingMultiWrite_TestED0Ev, symObjAddr: 0x11060, symBinAddr: 0x100064690, symSize: 0x10 }
  - { offsetInCU: 0x63AD5, offset: 0x2A97F2, size: 0x8, addend: 0x0, symName: __ZN7testing8internal24ParameterizedTestFactoryI35WithMode_ReadPendingMultiWrite_TestE10CreateTestEv, symObjAddr: 0x11070, symBinAddr: 0x1000646A0, symSize: 0x60 }
  - { offsetInCU: 0x63B96, offset: 0x2A98B3, size: 0x8, addend: 0x0, symName: __ZN7testing8internal15TestMetaFactoryI24WithMode_RecvCrypto_TestED1Ev, symObjAddr: 0x110D0, symBinAddr: 0x100064700, symSize: 0x10 }
  - { offsetInCU: 0x63BC2, offset: 0x2A98DF, size: 0x8, addend: 0x0, symName: __ZN7testing8internal15TestMetaFactoryI24WithMode_RecvCrypto_TestED0Ev, symObjAddr: 0x110E0, symBinAddr: 0x100064710, symSize: 0x10 }
  - { offsetInCU: 0x63C58, offset: 0x2A9975, size: 0x8, addend: 0x0, symName: __ZN7testing8internal15TestMetaFactoryI24WithMode_RecvCrypto_TestE17CreateTestFactoryE18QUIC_RECV_BUF_MODE, symObjAddr: 0x110F0, symBinAddr: 0x100064720, symSize: 0x30 }
  - { offsetInCU: 0x63CDE, offset: 0x2A99FB, size: 0x8, addend: 0x0, symName: __ZN7testing8internal24ParameterizedTestFactoryI24WithMode_RecvCrypto_TestED1Ev, symObjAddr: 0x11120, symBinAddr: 0x100064750, symSize: 0x10 }
  - { offsetInCU: 0x63D0A, offset: 0x2A9A27, size: 0x8, addend: 0x0, symName: __ZN7testing8internal24ParameterizedTestFactoryI24WithMode_RecvCrypto_TestED0Ev, symObjAddr: 0x11130, symBinAddr: 0x100064760, symSize: 0x10 }
  - { offsetInCU: 0x63D6A, offset: 0x2A9A87, size: 0x8, addend: 0x0, symName: __ZN7testing8internal24ParameterizedTestFactoryI24WithMode_RecvCrypto_TestE10CreateTestEv, symObjAddr: 0x11140, symBinAddr: 0x100064770, symSize: 0x60 }
  - { offsetInCU: 0x63E2B, offset: 0x2A9B48, size: 0x8, addend: 0x0, symName: __ZN7testing8internal15TestMetaFactoryI43WithMode_DrainFrontChunkWithPendingGap_TestED1Ev, symObjAddr: 0x111A0, symBinAddr: 0x1000647D0, symSize: 0x10 }
  - { offsetInCU: 0x63E57, offset: 0x2A9B74, size: 0x8, addend: 0x0, symName: __ZN7testing8internal15TestMetaFactoryI43WithMode_DrainFrontChunkWithPendingGap_TestED0Ev, symObjAddr: 0x111B0, symBinAddr: 0x1000647E0, symSize: 0x10 }
  - { offsetInCU: 0x63EED, offset: 0x2A9C0A, size: 0x8, addend: 0x0, symName: __ZN7testing8internal15TestMetaFactoryI43WithMode_DrainFrontChunkWithPendingGap_TestE17CreateTestFactoryE18QUIC_RECV_BUF_MODE, symObjAddr: 0x111C0, symBinAddr: 0x1000647F0, symSize: 0x30 }
  - { offsetInCU: 0x63F73, offset: 0x2A9C90, size: 0x8, addend: 0x0, symName: __ZN7testing8internal24ParameterizedTestFactoryI43WithMode_DrainFrontChunkWithPendingGap_TestED1Ev, symObjAddr: 0x111F0, symBinAddr: 0x100064820, symSize: 0x10 }
  - { offsetInCU: 0x63F9F, offset: 0x2A9CBC, size: 0x8, addend: 0x0, symName: __ZN7testing8internal24ParameterizedTestFactoryI43WithMode_DrainFrontChunkWithPendingGap_TestED0Ev, symObjAddr: 0x11200, symBinAddr: 0x100064830, symSize: 0x10 }
  - { offsetInCU: 0x63FFF, offset: 0x2A9D1C, size: 0x8, addend: 0x0, symName: __ZN7testing8internal24ParameterizedTestFactoryI43WithMode_DrainFrontChunkWithPendingGap_TestE10CreateTestEv, symObjAddr: 0x11210, symBinAddr: 0x100064840, symSize: 0x60 }
  - { offsetInCU: 0x64713, offset: 0x2AA430, size: 0x8, addend: 0x0, symName: __ZNKSt3__16vectorI18QUIC_RECV_BUF_MODENS_9allocatorIS1_EEE20__throw_length_errorB8ue170006Ev, symObjAddr: 0x11470, symBinAddr: 0x100064AA0, symSize: 0x10 }
  - { offsetInCU: 0x6473C, offset: 0x2AA459, size: 0x8, addend: 0x0, symName: __ZN7testing8internal30ValuesInIteratorRangeGeneratorI18QUIC_RECV_BUF_MODEE8IteratorD1Ev, symObjAddr: 0x11480, symBinAddr: 0x100064AB0, symSize: 0x30 }
  - { offsetInCU: 0x64748, offset: 0x2AA465, size: 0x8, addend: 0x0, symName: __ZN7testing8internal30ValuesInIteratorRangeGeneratorI18QUIC_RECV_BUF_MODEED0Ev, symObjAddr: 0x113B0, symBinAddr: 0x1000649E0, symSize: 0x40 }
  - { offsetInCU: 0x64923, offset: 0x2AA640, size: 0x8, addend: 0x0, symName: __ZN7testing8internal30ValuesInIteratorRangeGeneratorI18QUIC_RECV_BUF_MODEED1Ev, symObjAddr: 0x11380, symBinAddr: 0x1000649B0, symSize: 0x30 }
  - { offsetInCU: 0x64C48, offset: 0x2AA965, size: 0x8, addend: 0x0, symName: __ZNK7testing8internal30ValuesInIteratorRangeGeneratorI18QUIC_RECV_BUF_MODEE5BeginEv, symObjAddr: 0x113F0, symBinAddr: 0x100064A20, symSize: 0x40 }
  - { offsetInCU: 0x64DA7, offset: 0x2AAAC4, size: 0x8, addend: 0x0, symName: __ZNK7testing8internal30ValuesInIteratorRangeGeneratorI18QUIC_RECV_BUF_MODEE3EndEv, symObjAddr: 0x11430, symBinAddr: 0x100064A60, symSize: 0x40 }
  - { offsetInCU: 0x64F91, offset: 0x2AACAE, size: 0x8, addend: 0x0, symName: __ZN7testing8internal30ValuesInIteratorRangeGeneratorI18QUIC_RECV_BUF_MODEE8IteratorD1Ev, symObjAddr: 0x11480, symBinAddr: 0x100064AB0, symSize: 0x30 }
  - { offsetInCU: 0x6508C, offset: 0x2AADA9, size: 0x8, addend: 0x0, symName: __ZN7testing8internal30ValuesInIteratorRangeGeneratorI18QUIC_RECV_BUF_MODEE8IteratorD0Ev, symObjAddr: 0x114B0, symBinAddr: 0x100064AE0, symSize: 0x40 }
  - { offsetInCU: 0x65192, offset: 0x2AAEAF, size: 0x8, addend: 0x0, symName: __ZNK7testing8internal30ValuesInIteratorRangeGeneratorI18QUIC_RECV_BUF_MODEE8Iterator13BaseGeneratorEv, symObjAddr: 0x114F0, symBinAddr: 0x100064B20, symSize: 0x10 }
  - { offsetInCU: 0x651D2, offset: 0x2AAEEF, size: 0x8, addend: 0x0, symName: __ZN7testing8internal30ValuesInIteratorRangeGeneratorI18QUIC_RECV_BUF_MODEE8Iterator7AdvanceEv, symObjAddr: 0x11500, symBinAddr: 0x100064B30, symSize: 0x30 }
  - { offsetInCU: 0x652C1, offset: 0x2AAFDE, size: 0x8, addend: 0x0, symName: __ZNK7testing8internal30ValuesInIteratorRangeGeneratorI18QUIC_RECV_BUF_MODEE8Iterator5CloneEv, symObjAddr: 0x11530, symBinAddr: 0x100064B60, symSize: 0x40 }
  - { offsetInCU: 0x6540D, offset: 0x2AB12A, size: 0x8, addend: 0x0, symName: __ZNK7testing8internal30ValuesInIteratorRangeGeneratorI18QUIC_RECV_BUF_MODEE8Iterator7CurrentEv, symObjAddr: 0x11570, symBinAddr: 0x100064BA0, symSize: 0x40 }
  - { offsetInCU: 0x65527, offset: 0x2AB244, size: 0x8, addend: 0x0, symName: __ZNK7testing8internal30ValuesInIteratorRangeGeneratorI18QUIC_RECV_BUF_MODEE8Iterator6EqualsERKNS0_22ParamIteratorInterfaceIS2_EE, symObjAddr: 0x115B0, symBinAddr: 0x100064BE0, symSize: 0x140 }
  - { offsetInCU: 0x65A5F, offset: 0x2AB77C, size: 0x8, addend: 0x0, symName: __ZNSt3__120__shared_ptr_pointerIPN7testing8internal23ParamGeneratorInterfaceI18QUIC_RECV_BUF_MODEEENS_10shared_ptrIKS5_E27__shared_ptr_default_deleteIS8_S5_EENS_9allocatorIS5_EEED1Ev, symObjAddr: 0x11A70, symBinAddr: 0x100064DC0, symSize: 0x10 }
  - { offsetInCU: 0x65ABA, offset: 0x2AB7D7, size: 0x8, addend: 0x0, symName: __ZNSt3__120__shared_ptr_pointerIPN7testing8internal23ParamGeneratorInterfaceI18QUIC_RECV_BUF_MODEEENS_10shared_ptrIKS5_E27__shared_ptr_default_deleteIS8_S5_EENS_9allocatorIS5_EEED0Ev, symObjAddr: 0x11A80, symBinAddr: 0x100064DD0, symSize: 0x20 }
  - { offsetInCU: 0x65B23, offset: 0x2AB840, size: 0x8, addend: 0x0, symName: __ZNSt3__120__shared_ptr_pointerIPN7testing8internal23ParamGeneratorInterfaceI18QUIC_RECV_BUF_MODEEENS_10shared_ptrIKS5_E27__shared_ptr_default_deleteIS8_S5_EENS_9allocatorIS5_EEE16__on_zero_sharedEv, symObjAddr: 0x11AA0, symBinAddr: 0x100064DF0, symSize: 0x20 }
  - { offsetInCU: 0x65B77, offset: 0x2AB894, size: 0x8, addend: 0x0, symName: __ZNKSt3__120__shared_ptr_pointerIPN7testing8internal23ParamGeneratorInterfaceI18QUIC_RECV_BUF_MODEEENS_10shared_ptrIKS5_E27__shared_ptr_default_deleteIS8_S5_EENS_9allocatorIS5_EEE13__get_deleterERKSt9type_info, symObjAddr: 0x11AC0, symBinAddr: 0x100064E10, symSize: 0x20 }
  - { offsetInCU: 0x65C3E, offset: 0x2AB95B, size: 0x8, addend: 0x0, symName: __ZNSt3__120__shared_ptr_pointerIPN7testing8internal23ParamGeneratorInterfaceI18QUIC_RECV_BUF_MODEEENS_10shared_ptrIKS5_E27__shared_ptr_default_deleteIS8_S5_EENS_9allocatorIS5_EEE21__on_zero_shared_weakEv, symObjAddr: 0x11AE0, symBinAddr: 0x100064E30, symSize: 0x10 }
  - { offsetInCU: 0x667FA, offset: 0x2AC517, size: 0x8, addend: 0x0, symName: __ZN7testing8internal26ParameterizedTestSuiteInfoI8WithModeED1Ev, symObjAddr: 0x12370, symBinAddr: 0x100064FD0, symSize: 0x10 }
  - { offsetInCU: 0x66832, offset: 0x2AC54F, size: 0x8, addend: 0x0, symName: __ZN7testing8internal26ParameterizedTestSuiteInfoI8WithModeED2Ev, symObjAddr: 0x13270, symBinAddr: 0x100065ED0, symSize: 0xF0 }
  - { offsetInCU: 0x67065, offset: 0x2ACD82, size: 0x8, addend: 0x0, symName: __ZN7testing8internal26ParameterizedTestSuiteInfoI8WithModeED0Ev, symObjAddr: 0x12380, symBinAddr: 0x100064FE0, symSize: 0x20 }
  - { offsetInCU: 0x670C9, offset: 0x2ACDE6, size: 0x8, addend: 0x0, symName: __ZNK7testing8internal26ParameterizedTestSuiteInfoI8WithModeE16GetTestSuiteNameEv, symObjAddr: 0x123A0, symBinAddr: 0x100065000, symSize: 0x10 }
  - { offsetInCU: 0x670EE, offset: 0x2ACE0B, size: 0x8, addend: 0x0, symName: __ZNK7testing8internal26ParameterizedTestSuiteInfoI8WithModeE18GetTestSuiteTypeIdEv, symObjAddr: 0x123B0, symBinAddr: 0x100065010, symSize: 0x10 }
  - { offsetInCU: 0x67C47, offset: 0x2AD964, size: 0x8, addend: 0x0, symName: __ZN7testing8internal26ParameterizedTestSuiteInfoI8WithModeE13RegisterTestsEv, symObjAddr: 0x123C0, symBinAddr: 0x100065020, symSize: 0xEB0 }
  - { offsetInCU: 0x6BEE7, offset: 0x2B1C04, size: 0x8, addend: 0x0, symName: __ZN7testing8internal26ParameterizedTestSuiteInfoI8WithModeE16IsValidParamNameERKNSt3__112basic_stringIcNS4_11char_traitsIcEENS4_9allocatorIcEEEE, symObjAddr: 0x13360, symBinAddr: 0x100065FC0, symSize: 0xE0 }
  - { offsetInCU: 0x6C29A, offset: 0x2B1FB7, size: 0x8, addend: 0x0, symName: __ZN7testing8internal16SuiteApiResolverI8WithModeE19GetSetUpCaseOrSuiteEPKci, symObjAddr: 0x13440, symBinAddr: 0x1000660A0, symSize: 0xD0 }
  - { offsetInCU: 0x6C43F, offset: 0x2B215C, size: 0x8, addend: 0x0, symName: __ZN7testing8internal16SuiteApiResolverI8WithModeE22GetTearDownCaseOrSuiteEPKci, symObjAddr: 0x13510, symBinAddr: 0x100066170, symSize: 0xD0 }
  - { offsetInCU: 0x6CBD5, offset: 0x2B28F2, size: 0x8, addend: 0x0, symName: __ZN8WithMode14SetUpTestSuiteEv, symObjAddr: 0x138A0, symBinAddr: 0x100066240, symSize: 0x10 }
  - { offsetInCU: 0x6CBE9, offset: 0x2B2906, size: 0x8, addend: 0x0, symName: __ZN8WithMode17TearDownTestSuiteEv, symObjAddr: 0x138B0, symBinAddr: 0x100066250, symSize: 0x10 }
  - { offsetInCU: 0x6DF4F, offset: 0x2B3C6C, size: 0x8, addend: 0x0, symName: __ZNSt3__16vectorIN7testing8internal26ParameterizedTestSuiteInfoI8WithModeE17InstantiationInfoENS_9allocatorIS6_EEE24__emplace_back_slow_pathIJNS_12basic_stringIcNS_11char_traitsIcEENS7_IcEEEERPFNS2_14ParamGeneratorI18QUIC_RECV_BUF_MODEEEvERPFSF_RKNS1_13TestParamInfoISH_EEERPKcRiEEEvDpOT_, symObjAddr: 0x149C0, symBinAddr: 0x100066560, symSize: 0x230 }
  - { offsetInCU: 0x6E890, offset: 0x2B45AD, size: 0x8, addend: 0x0, symName: __ZNKSt3__16vectorIN7testing8internal26ParameterizedTestSuiteInfoI8WithModeE17InstantiationInfoENS_9allocatorIS6_EEE20__throw_length_errorB8ue170006Ev, symObjAddr: 0x14BF0, symBinAddr: 0x100066790, symSize: 0x10 }
  - { offsetInCU: 0x6E8B9, offset: 0x2B45D6, size: 0x8, addend: 0x0, symName: __ZNSt3__110shared_ptrIN7testing8internal26ParameterizedTestSuiteInfoI8WithModeE8TestInfoEEC1B8ue170006IS6_vEEPT_.cold.1, symObjAddr: 0x14C00, symBinAddr: 0x10041A110, symSize: 0x48 }
  - { offsetInCU: 0x4D, offset: 0x2B4685, size: 0x8, addend: 0x0, symName: __ZN42SettingsTest_TestAllSettingsFieldsSet_Test10test_info_E, symObjAddr: 0x1B5648, symBinAddr: 0x1004FC990, symSize: 0x0 }
  - { offsetInCU: 0x46E, offset: 0x2B4AA6, size: 0x8, addend: 0x0, symName: __ZN7testing8internal18CmpHelperEQFailureIjyEENS_15AssertionResultEPKcS4_RKT_RKT0_, symObjAddr: 0x2FC80, symBinAddr: 0x100095EC0, symSize: 0xC0 }
  - { offsetInCU: 0xEAF, offset: 0x2B54E7, size: 0x8, addend: 0x0, symName: __ZN7testing8internal18CmpHelperEQFailureIjtEENS_15AssertionResultEPKcS4_RKT_RKT0_, symObjAddr: 0x2FE30, symBinAddr: 0x100095F80, symSize: 0xC0 }
  - { offsetInCU: 0x1545, offset: 0x2B5B7D, size: 0x8, addend: 0x0, symName: __ZN7testing8internal18CmpHelperEQFailureIjhEENS_15AssertionResultEPKcS4_RKT_RKT0_, symObjAddr: 0x2FFE0, symBinAddr: 0x100096040, symSize: 0xC0 }
  - { offsetInCU: 0xC86E, offset: 0x2C0EA6, size: 0x8, addend: 0x0, symName: __ZN48SettingsTest_TestAllGlobalSettingsFieldsSet_Test10test_info_E, symObjAddr: 0x1B5650, symBinAddr: 0x1004FC998, symSize: 0x0 }
  - { offsetInCU: 0xC954, offset: 0x2C0F8C, size: 0x8, addend: 0x0, symName: __ZN42SettingsTest_TestAllSettingsFieldsGet_Test10test_info_E, symObjAddr: 0x1B5658, symBinAddr: 0x1004FC9A0, symSize: 0x0 }
  - { offsetInCU: 0xCA3A, offset: 0x2C1072, size: 0x8, addend: 0x0, symName: __ZN48SettingsTest_TestAllGlobalSettingsFieldsGet_Test10test_info_E, symObjAddr: 0x1B5660, symBinAddr: 0x1004FC9A8, symSize: 0x0 }
  - { offsetInCU: 0xCB20, offset: 0x2C1158, size: 0x8, addend: 0x0, symName: __ZN61SettingsTest_StreamRecvWindowDefaultSetsIndividualLimits_Test10test_info_E, symObjAddr: 0x1B5668, symBinAddr: 0x1004FC9B0, symSize: 0x0 }
  - { offsetInCU: 0xCC06, offset: 0x2C123E, size: 0x8, addend: 0x0, symName: __ZN92SettingsTest_StreamRecvWindowDefaultDoesNotOverrideIndividualLimitsWhenSetAtDestination_Test10test_info_E, symObjAddr: 0x1B5670, symBinAddr: 0x1004FC9B8, symSize: 0x0 }
  - { offsetInCU: 0xCCEC, offset: 0x2C1324, size: 0x8, addend: 0x0, symName: __ZN72SettingsTest_StreamRecvWindowDefaultGetsOverridenByIndividualLimits_Test10test_info_E, symObjAddr: 0x1B5678, symBinAddr: 0x1004FC9C0, symSize: 0x0 }
  - { offsetInCU: 0xCDDC, offset: 0x2C1414, size: 0x8, addend: 0x0, symName: __ZN34SettingsTest_SettingsSizesGet_Test10test_info_E, symObjAddr: 0x1B5680, symBinAddr: 0x1004FC9C8, symSize: 0x0 }
  - { offsetInCU: 0xCECC, offset: 0x2C1504, size: 0x8, addend: 0x0, symName: __ZN34SettingsTest_SettingsSizesSet_Test10test_info_E, symObjAddr: 0x1B5688, symBinAddr: 0x1004FC9D0, symSize: 0x0 }
  - { offsetInCU: 0xCFBC, offset: 0x2C15F4, size: 0x8, addend: 0x0, symName: __ZN40SettingsTest_GlobalSettingsSizesGet_Test10test_info_E, symObjAddr: 0x1B5690, symBinAddr: 0x1004FC9D8, symSize: 0x0 }
  - { offsetInCU: 0xD0AC, offset: 0x2C16E4, size: 0x8, addend: 0x0, symName: __ZN40SettingsTest_GlobalSettingsSizesSet_Test10test_info_E, symObjAddr: 0x1B5698, symBinAddr: 0x1004FC9E0, symSize: 0x0 }
  - { offsetInCU: 0xD19C, offset: 0x2C17D4, size: 0x8, addend: 0x0, symName: __ZN48SettingsTest_GlobalLoadBalancingServerIDSet_Test10test_info_E, symObjAddr: 0x1B56A0, symBinAddr: 0x1004FC9E8, symSize: 0x0 }
  - { offsetInCU: 0xD28C, offset: 0x2C18C4, size: 0x8, addend: 0x0, symName: __ZN48SettingsTest_GlobalExecutionConfigSetAndGet_Test10test_info_E, symObjAddr: 0x1B56A8, symBinAddr: 0x1004FC9F0, symSize: 0x0 }
  - { offsetInCU: 0xD37C, offset: 0x2C19B4, size: 0x8, addend: 0x0, symName: __ZN60SettingsTest_GlobalRawDataPathProcsSetAfterDataPathInit_Test10test_info_E, symObjAddr: 0x1B56B0, symBinAddr: 0x1004FC9F8, symSize: 0x0 }
  - { offsetInCU: 0xFE7C, offset: 0x2C44B4, size: 0x8, addend: 0x0, symName: __ZN42SettingsTest_TestAllSettingsFieldsSet_Test8TestBodyEv, symObjAddr: 0x1A0, symBinAddr: 0x100066AD0, symSize: 0x13AE0 }
  - { offsetInCU: 0x328A8, offset: 0x2E6EE0, size: 0x8, addend: 0x0, symName: __ZN7testing8internal8EqHelper7CompareIjyLPv0EEENS_15AssertionResultEPKcS6_RKT_RKT0_, symObjAddr: 0x13CF0, symBinAddr: 0x10007A5B0, symSize: 0x30 }
  - { offsetInCU: 0x3295A, offset: 0x2E6F92, size: 0x8, addend: 0x0, symName: __ZN7testing8internal8EqHelper7CompareIjtLPv0EEENS_15AssertionResultEPKcS6_RKT_RKT0_, symObjAddr: 0x13D20, symBinAddr: 0x10007A5E0, symSize: 0x30 }
  - { offsetInCU: 0x32A0C, offset: 0x2E7044, size: 0x8, addend: 0x0, symName: __ZN7testing8internal8EqHelper7CompareIjhLPv0EEENS_15AssertionResultEPKcS6_RKT_RKT0_, symObjAddr: 0x13D50, symBinAddr: 0x10007A610, symSize: 0x30 }
  - { offsetInCU: 0x32BDC, offset: 0x2E7214, size: 0x8, addend: 0x0, symName: __ZN48SettingsTest_TestAllGlobalSettingsFieldsSet_Test8TestBodyEv, symObjAddr: 0x13DB0, symBinAddr: 0x10007A640, symSize: 0x1750 }
  - { offsetInCU: 0x36DA0, offset: 0x2EB3D8, size: 0x8, addend: 0x0, symName: __ZN42SettingsTest_TestAllSettingsFieldsGet_Test8TestBodyEv, symObjAddr: 0x15500, symBinAddr: 0x10007BD90, symSize: 0x13DF0 }
  - { offsetInCU: 0x59021, offset: 0x30D659, size: 0x8, addend: 0x0, symName: __ZN48SettingsTest_TestAllGlobalSettingsFieldsGet_Test8TestBodyEv, symObjAddr: 0x292F0, symBinAddr: 0x10008FB80, symSize: 0x1790 }
  - { offsetInCU: 0x5D435, offset: 0x311A6D, size: 0x8, addend: 0x0, symName: __ZN61SettingsTest_StreamRecvWindowDefaultSetsIndividualLimits_Test8TestBodyEv, symObjAddr: 0x2AA80, symBinAddr: 0x100091310, symSize: 0x5A0 }
  - { offsetInCU: 0x5E7F1, offset: 0x312E29, size: 0x8, addend: 0x0, symName: __ZN92SettingsTest_StreamRecvWindowDefaultDoesNotOverrideIndividualLimitsWhenSetAtDestination_Test8TestBodyEv, symObjAddr: 0x2B020, symBinAddr: 0x1000918B0, symSize: 0x5C0 }
  - { offsetInCU: 0x5FBBC, offset: 0x3141F4, size: 0x8, addend: 0x0, symName: __ZN72SettingsTest_StreamRecvWindowDefaultGetsOverridenByIndividualLimits_Test8TestBodyEv, symObjAddr: 0x2B5E0, symBinAddr: 0x100091E70, symSize: 0x5C0 }
  - { offsetInCU: 0x60FB9, offset: 0x3155F1, size: 0x8, addend: 0x0, symName: __ZN34SettingsTest_SettingsSizesGet_Test8TestBodyEv, symObjAddr: 0x2BBA0, symBinAddr: 0x100092430, symSize: 0xAD0 }
  - { offsetInCU: 0x62FBC, offset: 0x3175F4, size: 0x8, addend: 0x0, symName: __ZN34SettingsTest_SettingsSizesSet_Test8TestBodyEv, symObjAddr: 0x2C670, symBinAddr: 0x100092F00, symSize: 0x650 }
  - { offsetInCU: 0x6402E, offset: 0x318666, size: 0x8, addend: 0x0, symName: __ZN40SettingsTest_GlobalSettingsSizesGet_Test8TestBodyEv, symObjAddr: 0x2CCC0, symBinAddr: 0x100093550, symSize: 0x900 }
  - { offsetInCU: 0x66032, offset: 0x31A66A, size: 0x8, addend: 0x0, symName: __ZN40SettingsTest_GlobalSettingsSizesSet_Test8TestBodyEv, symObjAddr: 0x2D5C0, symBinAddr: 0x100093E50, symSize: 0x540 }
  - { offsetInCU: 0x6714A, offset: 0x31B782, size: 0x8, addend: 0x0, symName: __ZN48SettingsTest_GlobalLoadBalancingServerIDSet_Test8TestBodyEv, symObjAddr: 0x2DB00, symBinAddr: 0x100094390, symSize: 0x520 }
  - { offsetInCU: 0x68281, offset: 0x31C8B9, size: 0x8, addend: 0x0, symName: __ZN48SettingsTest_GlobalExecutionConfigSetAndGet_Test8TestBodyEv, symObjAddr: 0x2E020, symBinAddr: 0x1000948B0, symSize: 0xA80 }
  - { offsetInCU: 0x6A77F, offset: 0x31EDB7, size: 0x8, addend: 0x0, symName: __ZN60SettingsTest_GlobalRawDataPathProcsSetAfterDataPathInit_Test8TestBodyEv, symObjAddr: 0x2EAA0, symBinAddr: 0x100095330, symSize: 0x2D0 }
  - { offsetInCU: 0x6B0F0, offset: 0x31F728, size: 0x8, addend: 0x0, symName: __ZN42SettingsTest_TestAllSettingsFieldsSet_TestD1Ev, symObjAddr: 0x2ED70, symBinAddr: 0x100095600, symSize: 0x10 }
  - { offsetInCU: 0x6B149, offset: 0x31F781, size: 0x8, addend: 0x0, symName: __ZN42SettingsTest_TestAllSettingsFieldsSet_TestD0Ev, symObjAddr: 0x2ED80, symBinAddr: 0x100095610, symSize: 0x20 }
  - { offsetInCU: 0x6B1CF, offset: 0x31F807, size: 0x8, addend: 0x0, symName: __ZN48SettingsTest_TestAllGlobalSettingsFieldsSet_TestD1Ev, symObjAddr: 0x2EDB0, symBinAddr: 0x100095630, symSize: 0x10 }
  - { offsetInCU: 0x6B228, offset: 0x31F860, size: 0x8, addend: 0x0, symName: __ZN48SettingsTest_TestAllGlobalSettingsFieldsSet_TestD0Ev, symObjAddr: 0x2EDC0, symBinAddr: 0x100095640, symSize: 0x20 }
  - { offsetInCU: 0x6B2AE, offset: 0x31F8E6, size: 0x8, addend: 0x0, symName: __ZN42SettingsTest_TestAllSettingsFieldsGet_TestD1Ev, symObjAddr: 0x2EDE0, symBinAddr: 0x100095660, symSize: 0x10 }
  - { offsetInCU: 0x6B307, offset: 0x31F93F, size: 0x8, addend: 0x0, symName: __ZN42SettingsTest_TestAllSettingsFieldsGet_TestD0Ev, symObjAddr: 0x2EDF0, symBinAddr: 0x100095670, symSize: 0x20 }
  - { offsetInCU: 0x6B38D, offset: 0x31F9C5, size: 0x8, addend: 0x0, symName: __ZN48SettingsTest_TestAllGlobalSettingsFieldsGet_TestD1Ev, symObjAddr: 0x2EE10, symBinAddr: 0x100095690, symSize: 0x10 }
  - { offsetInCU: 0x6B3E6, offset: 0x31FA1E, size: 0x8, addend: 0x0, symName: __ZN48SettingsTest_TestAllGlobalSettingsFieldsGet_TestD0Ev, symObjAddr: 0x2EE20, symBinAddr: 0x1000956A0, symSize: 0x20 }
  - { offsetInCU: 0x6B46C, offset: 0x31FAA4, size: 0x8, addend: 0x0, symName: __ZN61SettingsTest_StreamRecvWindowDefaultSetsIndividualLimits_TestD1Ev, symObjAddr: 0x2EE40, symBinAddr: 0x1000956C0, symSize: 0x10 }
  - { offsetInCU: 0x6B4C5, offset: 0x31FAFD, size: 0x8, addend: 0x0, symName: __ZN61SettingsTest_StreamRecvWindowDefaultSetsIndividualLimits_TestD0Ev, symObjAddr: 0x2EE50, symBinAddr: 0x1000956D0, symSize: 0x20 }
  - { offsetInCU: 0x6B54B, offset: 0x31FB83, size: 0x8, addend: 0x0, symName: __ZN92SettingsTest_StreamRecvWindowDefaultDoesNotOverrideIndividualLimitsWhenSetAtDestination_TestD1Ev, symObjAddr: 0x2EE70, symBinAddr: 0x1000956F0, symSize: 0x10 }
  - { offsetInCU: 0x6B5A4, offset: 0x31FBDC, size: 0x8, addend: 0x0, symName: __ZN92SettingsTest_StreamRecvWindowDefaultDoesNotOverrideIndividualLimitsWhenSetAtDestination_TestD0Ev, symObjAddr: 0x2EE80, symBinAddr: 0x100095700, symSize: 0x20 }
  - { offsetInCU: 0x6B62A, offset: 0x31FC62, size: 0x8, addend: 0x0, symName: __ZN72SettingsTest_StreamRecvWindowDefaultGetsOverridenByIndividualLimits_TestD1Ev, symObjAddr: 0x2EEA0, symBinAddr: 0x100095720, symSize: 0x10 }
  - { offsetInCU: 0x6B684, offset: 0x31FCBC, size: 0x8, addend: 0x0, symName: __ZN72SettingsTest_StreamRecvWindowDefaultGetsOverridenByIndividualLimits_TestD0Ev, symObjAddr: 0x2EEB0, symBinAddr: 0x100095730, symSize: 0x20 }
  - { offsetInCU: 0x6B70C, offset: 0x31FD44, size: 0x8, addend: 0x0, symName: __ZN34SettingsTest_SettingsSizesGet_TestD1Ev, symObjAddr: 0x2EED0, symBinAddr: 0x100095750, symSize: 0x10 }
  - { offsetInCU: 0x6B766, offset: 0x31FD9E, size: 0x8, addend: 0x0, symName: __ZN34SettingsTest_SettingsSizesGet_TestD0Ev, symObjAddr: 0x2EEE0, symBinAddr: 0x100095760, symSize: 0x20 }
  - { offsetInCU: 0x6B7EE, offset: 0x31FE26, size: 0x8, addend: 0x0, symName: __ZN34SettingsTest_SettingsSizesSet_TestD1Ev, symObjAddr: 0x2EF00, symBinAddr: 0x100095780, symSize: 0x10 }
  - { offsetInCU: 0x6B848, offset: 0x31FE80, size: 0x8, addend: 0x0, symName: __ZN34SettingsTest_SettingsSizesSet_TestD0Ev, symObjAddr: 0x2EF10, symBinAddr: 0x100095790, symSize: 0x20 }
  - { offsetInCU: 0x6B8D0, offset: 0x31FF08, size: 0x8, addend: 0x0, symName: __ZN40SettingsTest_GlobalSettingsSizesGet_TestD1Ev, symObjAddr: 0x2EF30, symBinAddr: 0x1000957B0, symSize: 0x10 }
  - { offsetInCU: 0x6B92A, offset: 0x31FF62, size: 0x8, addend: 0x0, symName: __ZN40SettingsTest_GlobalSettingsSizesGet_TestD0Ev, symObjAddr: 0x2EF40, symBinAddr: 0x1000957C0, symSize: 0x20 }
  - { offsetInCU: 0x6B9B2, offset: 0x31FFEA, size: 0x8, addend: 0x0, symName: __ZN40SettingsTest_GlobalSettingsSizesSet_TestD1Ev, symObjAddr: 0x2EF60, symBinAddr: 0x1000957E0, symSize: 0x10 }
  - { offsetInCU: 0x6BA0C, offset: 0x320044, size: 0x8, addend: 0x0, symName: __ZN40SettingsTest_GlobalSettingsSizesSet_TestD0Ev, symObjAddr: 0x2EF70, symBinAddr: 0x1000957F0, symSize: 0x20 }
  - { offsetInCU: 0x6BA94, offset: 0x3200CC, size: 0x8, addend: 0x0, symName: __ZN48SettingsTest_GlobalLoadBalancingServerIDSet_TestD1Ev, symObjAddr: 0x2EF90, symBinAddr: 0x100095810, symSize: 0x10 }
  - { offsetInCU: 0x6BAEE, offset: 0x320126, size: 0x8, addend: 0x0, symName: __ZN48SettingsTest_GlobalLoadBalancingServerIDSet_TestD0Ev, symObjAddr: 0x2EFA0, symBinAddr: 0x100095820, symSize: 0x20 }
  - { offsetInCU: 0x6BB76, offset: 0x3201AE, size: 0x8, addend: 0x0, symName: __ZN48SettingsTest_GlobalExecutionConfigSetAndGet_TestD1Ev, symObjAddr: 0x2EFC0, symBinAddr: 0x100095840, symSize: 0x10 }
  - { offsetInCU: 0x6BBD0, offset: 0x320208, size: 0x8, addend: 0x0, symName: __ZN48SettingsTest_GlobalExecutionConfigSetAndGet_TestD0Ev, symObjAddr: 0x2EFD0, symBinAddr: 0x100095850, symSize: 0x20 }
  - { offsetInCU: 0x6BC58, offset: 0x320290, size: 0x8, addend: 0x0, symName: __ZN60SettingsTest_GlobalRawDataPathProcsSetAfterDataPathInit_TestD1Ev, symObjAddr: 0x2EFF0, symBinAddr: 0x100095870, symSize: 0x10 }
  - { offsetInCU: 0x6BCB2, offset: 0x3202EA, size: 0x8, addend: 0x0, symName: __ZN60SettingsTest_GlobalRawDataPathProcsSetAfterDataPathInit_TestD0Ev, symObjAddr: 0x2F000, symBinAddr: 0x100095880, symSize: 0x20 }
  - { offsetInCU: 0x6BD20, offset: 0x320358, size: 0x8, addend: 0x0, symName: __ZN7testing8internal15TestFactoryImplI42SettingsTest_TestAllSettingsFieldsSet_TestED1Ev, symObjAddr: 0x2F030, symBinAddr: 0x1000958A0, symSize: 0x10 }
  - { offsetInCU: 0x6BD4C, offset: 0x320384, size: 0x8, addend: 0x0, symName: __ZN7testing8internal15TestFactoryImplI42SettingsTest_TestAllSettingsFieldsSet_TestED0Ev, symObjAddr: 0x2F040, symBinAddr: 0x1000958B0, symSize: 0x10 }
  - { offsetInCU: 0x6BDAC, offset: 0x3203E4, size: 0x8, addend: 0x0, symName: __ZN7testing8internal15TestFactoryImplI42SettingsTest_TestAllSettingsFieldsSet_TestE10CreateTestEv, symObjAddr: 0x2F050, symBinAddr: 0x1000958C0, symSize: 0x50 }
  - { offsetInCU: 0x6BE15, offset: 0x32044D, size: 0x8, addend: 0x0, symName: __ZN7testing8internal15TestFactoryImplI48SettingsTest_TestAllGlobalSettingsFieldsSet_TestED1Ev, symObjAddr: 0x2F0A0, symBinAddr: 0x100095910, symSize: 0x10 }
  - { offsetInCU: 0x6BE41, offset: 0x320479, size: 0x8, addend: 0x0, symName: __ZN7testing8internal15TestFactoryImplI48SettingsTest_TestAllGlobalSettingsFieldsSet_TestED0Ev, symObjAddr: 0x2F0B0, symBinAddr: 0x100095920, symSize: 0x10 }
  - { offsetInCU: 0x6BEA1, offset: 0x3204D9, size: 0x8, addend: 0x0, symName: __ZN7testing8internal15TestFactoryImplI48SettingsTest_TestAllGlobalSettingsFieldsSet_TestE10CreateTestEv, symObjAddr: 0x2F0C0, symBinAddr: 0x100095930, symSize: 0x50 }
  - { offsetInCU: 0x6BF0A, offset: 0x320542, size: 0x8, addend: 0x0, symName: __ZN7testing8internal15TestFactoryImplI42SettingsTest_TestAllSettingsFieldsGet_TestED1Ev, symObjAddr: 0x2F110, symBinAddr: 0x100095980, symSize: 0x10 }
  - { offsetInCU: 0x6BF36, offset: 0x32056E, size: 0x8, addend: 0x0, symName: __ZN7testing8internal15TestFactoryImplI42SettingsTest_TestAllSettingsFieldsGet_TestED0Ev, symObjAddr: 0x2F120, symBinAddr: 0x100095990, symSize: 0x10 }
  - { offsetInCU: 0x6BF96, offset: 0x3205CE, size: 0x8, addend: 0x0, symName: __ZN7testing8internal15TestFactoryImplI42SettingsTest_TestAllSettingsFieldsGet_TestE10CreateTestEv, symObjAddr: 0x2F130, symBinAddr: 0x1000959A0, symSize: 0x50 }
  - { offsetInCU: 0x6BFFF, offset: 0x320637, size: 0x8, addend: 0x0, symName: __ZN7testing8internal15TestFactoryImplI48SettingsTest_TestAllGlobalSettingsFieldsGet_TestED1Ev, symObjAddr: 0x2F180, symBinAddr: 0x1000959F0, symSize: 0x10 }
  - { offsetInCU: 0x6C02B, offset: 0x320663, size: 0x8, addend: 0x0, symName: __ZN7testing8internal15TestFactoryImplI48SettingsTest_TestAllGlobalSettingsFieldsGet_TestED0Ev, symObjAddr: 0x2F190, symBinAddr: 0x100095A00, symSize: 0x10 }
  - { offsetInCU: 0x6C08B, offset: 0x3206C3, size: 0x8, addend: 0x0, symName: __ZN7testing8internal15TestFactoryImplI48SettingsTest_TestAllGlobalSettingsFieldsGet_TestE10CreateTestEv, symObjAddr: 0x2F1A0, symBinAddr: 0x100095A10, symSize: 0x50 }
  - { offsetInCU: 0x6C0F4, offset: 0x32072C, size: 0x8, addend: 0x0, symName: __ZN7testing8internal15TestFactoryImplI61SettingsTest_StreamRecvWindowDefaultSetsIndividualLimits_TestED1Ev, symObjAddr: 0x2F1F0, symBinAddr: 0x100095A60, symSize: 0x10 }
  - { offsetInCU: 0x6C120, offset: 0x320758, size: 0x8, addend: 0x0, symName: __ZN7testing8internal15TestFactoryImplI61SettingsTest_StreamRecvWindowDefaultSetsIndividualLimits_TestED0Ev, symObjAddr: 0x2F200, symBinAddr: 0x100095A70, symSize: 0x10 }
  - { offsetInCU: 0x6C180, offset: 0x3207B8, size: 0x8, addend: 0x0, symName: __ZN7testing8internal15TestFactoryImplI61SettingsTest_StreamRecvWindowDefaultSetsIndividualLimits_TestE10CreateTestEv, symObjAddr: 0x2F210, symBinAddr: 0x100095A80, symSize: 0x50 }
  - { offsetInCU: 0x6C1E9, offset: 0x320821, size: 0x8, addend: 0x0, symName: __ZN7testing8internal15TestFactoryImplI92SettingsTest_StreamRecvWindowDefaultDoesNotOverrideIndividualLimitsWhenSetAtDestination_TestED1Ev, symObjAddr: 0x2F260, symBinAddr: 0x100095AD0, symSize: 0x10 }
  - { offsetInCU: 0x6C215, offset: 0x32084D, size: 0x8, addend: 0x0, symName: __ZN7testing8internal15TestFactoryImplI92SettingsTest_StreamRecvWindowDefaultDoesNotOverrideIndividualLimitsWhenSetAtDestination_TestED0Ev, symObjAddr: 0x2F270, symBinAddr: 0x100095AE0, symSize: 0x10 }
  - { offsetInCU: 0x6C275, offset: 0x3208AD, size: 0x8, addend: 0x0, symName: __ZN7testing8internal15TestFactoryImplI92SettingsTest_StreamRecvWindowDefaultDoesNotOverrideIndividualLimitsWhenSetAtDestination_TestE10CreateTestEv, symObjAddr: 0x2F280, symBinAddr: 0x100095AF0, symSize: 0x50 }
  - { offsetInCU: 0x6C2DE, offset: 0x320916, size: 0x8, addend: 0x0, symName: __ZN7testing8internal15TestFactoryImplI72SettingsTest_StreamRecvWindowDefaultGetsOverridenByIndividualLimits_TestED1Ev, symObjAddr: 0x2F2D0, symBinAddr: 0x100095B40, symSize: 0x10 }
  - { offsetInCU: 0x6C30A, offset: 0x320942, size: 0x8, addend: 0x0, symName: __ZN7testing8internal15TestFactoryImplI72SettingsTest_StreamRecvWindowDefaultGetsOverridenByIndividualLimits_TestED0Ev, symObjAddr: 0x2F2E0, symBinAddr: 0x100095B50, symSize: 0x10 }
  - { offsetInCU: 0x6C36A, offset: 0x3209A2, size: 0x8, addend: 0x0, symName: __ZN7testing8internal15TestFactoryImplI72SettingsTest_StreamRecvWindowDefaultGetsOverridenByIndividualLimits_TestE10CreateTestEv, symObjAddr: 0x2F2F0, symBinAddr: 0x100095B60, symSize: 0x50 }
  - { offsetInCU: 0x6C3D4, offset: 0x320A0C, size: 0x8, addend: 0x0, symName: __ZN7testing8internal15TestFactoryImplI34SettingsTest_SettingsSizesGet_TestED1Ev, symObjAddr: 0x2F340, symBinAddr: 0x100095BB0, symSize: 0x10 }
  - { offsetInCU: 0x6C400, offset: 0x320A38, size: 0x8, addend: 0x0, symName: __ZN7testing8internal15TestFactoryImplI34SettingsTest_SettingsSizesGet_TestED0Ev, symObjAddr: 0x2F350, symBinAddr: 0x100095BC0, symSize: 0x10 }
  - { offsetInCU: 0x6C460, offset: 0x320A98, size: 0x8, addend: 0x0, symName: __ZN7testing8internal15TestFactoryImplI34SettingsTest_SettingsSizesGet_TestE10CreateTestEv, symObjAddr: 0x2F360, symBinAddr: 0x100095BD0, symSize: 0x50 }
  - { offsetInCU: 0x6C4CA, offset: 0x320B02, size: 0x8, addend: 0x0, symName: __ZN7testing8internal15TestFactoryImplI34SettingsTest_SettingsSizesSet_TestED1Ev, symObjAddr: 0x2F3B0, symBinAddr: 0x100095C20, symSize: 0x10 }
  - { offsetInCU: 0x6C4F6, offset: 0x320B2E, size: 0x8, addend: 0x0, symName: __ZN7testing8internal15TestFactoryImplI34SettingsTest_SettingsSizesSet_TestED0Ev, symObjAddr: 0x2F3C0, symBinAddr: 0x100095C30, symSize: 0x10 }
  - { offsetInCU: 0x6C556, offset: 0x320B8E, size: 0x8, addend: 0x0, symName: __ZN7testing8internal15TestFactoryImplI34SettingsTest_SettingsSizesSet_TestE10CreateTestEv, symObjAddr: 0x2F3D0, symBinAddr: 0x100095C40, symSize: 0x50 }
