---
triple:          'x86_64-apple-darwin'
binary-path:     '/Users/victor/Documents/teste/quic_jr/msquic/artifacts/bin/macos/x64_Debug_openssl3/msquicplatformtest'
relocations:
  - { offsetInCU: 0x3F, offset: 0x3F, size: 0x8, addend: 0x0, symName: _PfxPath, symObjAddr: 0x29C78, symBinAddr: 0x1004326D0, symSize: 0x0 }
  - { offsetInCU: 0x65, offset: 0x65, size: 0x8, addend: 0x0, symName: _UseDuoNic, symObjAddr: 0x29C80, symBinAddr: 0x1004326D8, symSize: 0x0 }
  - { offsetInCU: 0x81, offset: 0x81, size: 0x8, addend: 0x0, symName: _Timeout, symObjAddr: 0x9AC, symBinAddr: 0x10042C8C8, symSize: 0x0 }
  - { offsetInCU: 0xA8, offset: 0xA8, size: 0x8, addend: 0x0, symName: _OsRunner, symObjAddr: 0x29C88, symBinAddr: 0x1004326E0, symSize: 0x0 }
  - { offsetInCU: 0xBA3F, offset: 0xBA3F, size: 0x8, addend: 0x0, symName: _main, symObjAddr: 0x0, symBinAddr: 0x100002000, symSize: 0x170 }
  - { offsetInCU: 0xBBA8, offset: 0xBBA8, size: 0x8, addend: 0x0, symName: __ZN23QuicCoreTestEnvironmentD1Ev, symObjAddr: 0x170, symBinAddr: 0x100002170, symSize: 0x10 }
  - { offsetInCU: 0xBBD3, offset: 0xBBD3, size: 0x8, addend: 0x0, symName: __ZN23QuicCoreTestEnvironmentD0Ev, symObjAddr: 0x180, symBinAddr: 0x100002180, symSize: 0x10 }
  - { offsetInCU: 0xC04E, offset: 0xC04E, size: 0x8, addend: 0x0, symName: __ZN23QuicCoreTestEnvironment5SetUpEv, symObjAddr: 0x190, symBinAddr: 0x100002190, symSize: 0x180 }
  - { offsetInCU: 0xC8DE, offset: 0xC8DE, size: 0x8, addend: 0x0, symName: __ZN14CxPlatWatchdogC2EjPKcb, symObjAddr: 0x3F0, symBinAddr: 0x1000023F0, symSize: 0xF0 }
  - { offsetInCU: 0xCA6C, offset: 0xCA6C, size: 0x8, addend: 0x0, symName: __ZN7testing15AssertionResultD1Ev, symObjAddr: 0x3A0, symBinAddr: 0x1000023A0, symSize: 0x40 }
  - { offsetInCU: 0xCD1B, offset: 0xCD1B, size: 0x8, addend: 0x0, symName: __ZN23QuicCoreTestEnvironment8TearDownEv, symObjAddr: 0x310, symBinAddr: 0x100002310, symSize: 0x80 }
  - { offsetInCU: 0xCF9D, offset: 0xCF9D, size: 0x8, addend: 0x0, symName: __ZN11CxPlatEventD2Ev, symObjAddr: 0x8C0, symBinAddr: 0x100002550, symSize: 0x84 }
  - { offsetInCU: 0xD052, offset: 0xD052, size: 0x8, addend: 0x0, symName: __ZN7testing11Environment5SetupEv, symObjAddr: 0x390, symBinAddr: 0x100002390, symSize: 0x10 }
  - { offsetInCU: 0xD33F, offset: 0xD33F, size: 0x8, addend: 0x0, symName: __ZN14CxPlatWatchdog22WatchdogThreadCallbackEPv, symObjAddr: 0x4E0, symBinAddr: 0x1000024E0, symSize: 0x70 }
  - { offsetInCU: 0x4C, offset: 0xD79C, size: 0x8, addend: 0x0, symName: __ZN39CryptTest_WellKnownClientInitialv1_Test10test_info_E, symObjAddr: 0x1255D8, symBinAddr: 0x1004326E8, symSize: 0x0 }
  - { offsetInCU: 0x75E, offset: 0xDEAE, size: 0x8, addend: 0x0, symName: __ZN7testing8internal12TypeIdHelperI9CryptTestE6dummy_E, symObjAddr: 0x11948, symBinAddr: 0x10042C8D8, symSize: 0x0 }
  - { offsetInCU: 0x154E, offset: 0xEC9E, size: 0x8, addend: 0x0, symName: __ZN7testing8internal18CmpHelperEQFailureIiiEENS_15AssertionResultEPKcS4_RKT_RKT0_, symObjAddr: 0x9770, symBinAddr: 0x10000BC80, symSize: 0xC0 }
  - { offsetInCU: 0x1B90, offset: 0xF2E0, size: 0x8, addend: 0x0, symName: __ZN7testing8internal18CmpHelperEQFailureIttEENS_15AssertionResultEPKcS4_RKT_RKT0_, symObjAddr: 0x9920, symBinAddr: 0x10000BE30, symSize: 0xC0 }
  - { offsetInCU: 0x227A, offset: 0xF9CA, size: 0x8, addend: 0x0, symName: __ZN7testing8internal18CmpHelperEQFailureImtEENS_15AssertionResultEPKcS4_RKT_RKT0_, symObjAddr: 0x6DC0, symBinAddr: 0x1000092D0, symSize: 0xC0 }
  - { offsetInCU: 0x28BC, offset: 0x1000C, size: 0x8, addend: 0x0, symName: __ZN7testing8internal18CmpHelperEQFailureImmEENS_15AssertionResultEPKcS4_RKT_RKT0_, symObjAddr: 0x7210, symBinAddr: 0x100009720, symSize: 0xC0 }
  - { offsetInCU: 0x319E, offset: 0x108EE, size: 0x8, addend: 0x0, symName: __ZN7testing8internal27CheckedDowncastToActualTypeINS0_26ParameterizedTestSuiteInfoI9CryptTestEENS0_30ParameterizedTestSuiteInfoBaseEEEPT_PT0_, symObjAddr: 0x99F0, symBinAddr: 0x10000BF00, symSize: 0xA0 }
  - { offsetInCU: 0x324B, offset: 0x1099B, size: 0x8, addend: 0x0, symName: __ZN7testing8internal5posix5AbortEv, symObjAddr: 0x99E0, symBinAddr: 0x10000BEF0, symSize: 0x10 }
  - { offsetInCU: 0x3A6A, offset: 0x111BA, size: 0x8, addend: 0x0, symName: __ZN7testing8internal18CmpHelperEQFailureIjjEENS_15AssertionResultEPKcS4_RKT_RKT0_, symObjAddr: 0x7E70, symBinAddr: 0x10000A380, symSize: 0xC0 }
  - { offsetInCU: 0x40AC, offset: 0x117FC, size: 0x8, addend: 0x0, symName: __ZN7testing8internal18CmpHelperOpFailureIP10CXPLAT_KEYDnEENS_15AssertionResultEPKcS6_RKT_RKT0_S6_, symObjAddr: 0x8020, symBinAddr: 0x10000A530, symSize: 0x2D0 }
  - { offsetInCU: 0x5848, offset: 0x12F98, size: 0x8, addend: 0x0, symName: __ZN7testing8internal18CmpHelperOpFailureIP11CXPLAT_HASHDnEENS_15AssertionResultEPKcS6_RKT_RKT0_S6_, symObjAddr: 0x8D30, symBinAddr: 0x10000B240, symSize: 0x2D0 }
  - { offsetInCU: 0x6D2E, offset: 0x1447E, size: 0x8, addend: 0x0, symName: __ZN7testing8internal27CheckedDowncastToActualTypeIKNS0_30ValuesInIteratorRangeGeneratorIiE8IteratorEKNS0_22ParamIteratorInterfaceIiEEEEPT_PT0_, symObjAddr: 0x9650, symBinAddr: 0x10000BB60, symSize: 0xA0 }
  - { offsetInCU: 0x77A1, offset: 0x14EF1, size: 0x8, addend: 0x0, symName: __ZN7testing18WithParamInterfaceIiE10parameter_E, symObjAddr: 0x11940, symBinAddr: 0x10042C8D0, symSize: 0x0 }
  - { offsetInCU: 0x7BBF, offset: 0x1530F, size: 0x8, addend: 0x0, symName: __ZN7testing8ValuesInINSt3__111__wrap_iterIPKiEEEENS_8internal14ParamGeneratorINS1_15iterator_traitsIT_E10value_typeEEES9_S9_, symObjAddr: 0x91D0, symBinAddr: 0x10000B6E0, symSize: 0x110 }
  - { offsetInCU: 0x8354, offset: 0x15AA4, size: 0x8, addend: 0x0, symName: __ZN7testing13PrintToStringImEENSt3__112basic_stringIcNS1_11char_traitsIcEENS1_9allocatorIcEEEERKT_, symObjAddr: 0x6E80, symBinAddr: 0x100009390, symSize: 0xF0 }
  - { offsetInCU: 0x866B, offset: 0x15DBB, size: 0x8, addend: 0x0, symName: __ZN7testing13PrintToStringItEENSt3__112basic_stringIcNS1_11char_traitsIcEENS1_9allocatorIcEEEERKT_, symObjAddr: 0x7120, symBinAddr: 0x100009630, symSize: 0xF0 }
  - { offsetInCU: 0x8982, offset: 0x160D2, size: 0x8, addend: 0x0, symName: __ZN7testing13PrintToStringIjEENSt3__112basic_stringIcNS1_11char_traitsIcEENS1_9allocatorIcEEEERKT_, symObjAddr: 0x7F30, symBinAddr: 0x10000A440, symSize: 0xF0 }
  - { offsetInCU: 0x8CA8, offset: 0x163F8, size: 0x8, addend: 0x0, symName: __ZN7testing13PrintToStringIP10CXPLAT_KEYEENSt3__112basic_stringIcNS3_11char_traitsIcEENS3_9allocatorIcEEEERKT_, symObjAddr: 0x87A0, symBinAddr: 0x10000ACB0, symSize: 0x100 }
  - { offsetInCU: 0x900A, offset: 0x1675A, size: 0x8, addend: 0x0, symName: __ZN7testing13PrintToStringIDnEENSt3__112basic_stringIcNS1_11char_traitsIcEENS1_9allocatorIcEEEERKT_, symObjAddr: 0x88A0, symBinAddr: 0x10000ADB0, symSize: 0xF0 }
  - { offsetInCU: 0x9300, offset: 0x16A50, size: 0x8, addend: 0x0, symName: __ZN7testing13PrintToStringIP11CXPLAT_HASHEENSt3__112basic_stringIcNS3_11char_traitsIcEENS3_9allocatorIcEEEERKT_, symObjAddr: 0x9000, symBinAddr: 0x10000B510, symSize: 0x100 }
  - { offsetInCU: 0x9662, offset: 0x16DB2, size: 0x8, addend: 0x0, symName: __ZN7testing13PrintToStringIiEENSt3__112basic_stringIcNS1_11char_traitsIcEENS1_9allocatorIcEEEERKT_, symObjAddr: 0x9830, symBinAddr: 0x10000BD40, symSize: 0xF0 }
  - { offsetInCU: 0x150EE, offset: 0x2283E, size: 0x8, addend: 0x0, symName: __ZNSt3__124__put_character_sequenceB8ue170006IcNS_11char_traitsIcEEEERNS_13basic_ostreamIT_T0_EES7_PKS4_m, symObjAddr: 0x84C0, symBinAddr: 0x10000A9D0, symSize: 0x160 }
  - { offsetInCU: 0x2029E, offset: 0x2D9EE, size: 0x8, addend: 0x0, symName: __ZNSt3__120__throw_length_errorB8ue170006EPKc, symObjAddr: 0x7A10, symBinAddr: 0x100009F20, symSize: 0x50 }
  - { offsetInCU: 0x2039E, offset: 0x2DAEE, size: 0x8, addend: 0x0, symName: __ZNSt3__116__pad_and_outputB8ue170006IcNS_11char_traitsIcEEEENS_19ostreambuf_iteratorIT_T0_EES6_PKS4_S8_S8_RNS_8ios_baseES4_, symObjAddr: 0x8620, symBinAddr: 0x10000AB30, symSize: 0x170 }
  - { offsetInCU: 0x22711, offset: 0x2FE61, size: 0x8, addend: 0x0, symName: __ZNSt3__127__tree_balance_after_insertB8ue170006IPNS_16__tree_node_baseIPvEEEEvT_S5_, symObjAddr: 0xB360, symBinAddr: 0x10000D870, symSize: 0x1A0 }
  - { offsetInCU: 0x23105, offset: 0x30855, size: 0x8, addend: 0x0, symName: __ZSt28__throw_bad_array_new_lengthB8ue170006v, symObjAddr: 0x7A90, symBinAddr: 0x100009FA0, symSize: 0x40 }
  - { offsetInCU: 0x23724, offset: 0x30E74, size: 0x8, addend: 0x0, symName: __ZN39CryptTest_WellKnownClientInitialv2_Test10test_info_E, symObjAddr: 0x1255E0, symBinAddr: 0x1004326F0, symSize: 0x0 }
  - { offsetInCU: 0x23814, offset: 0x30F64, size: 0x8, addend: 0x0, symName: __ZN36CryptTest_WellKnownChaChaPolyv1_Test10test_info_E, symObjAddr: 0x1255E8, symBinAddr: 0x1004326F8, symSize: 0x0 }
  - { offsetInCU: 0x23904, offset: 0x31054, size: 0x8, addend: 0x0, symName: __ZN36CryptTest_WellKnownChaChaPolyv2_Test10test_info_E, symObjAddr: 0x1255F0, symBinAddr: 0x100432700, symSize: 0x0 }
  - { offsetInCU: 0x239F4, offset: 0x31144, size: 0x8, addend: 0x0, symName: __ZN29CryptTest_HpMaskChaCha20_Test10test_info_E, symObjAddr: 0x1255F8, symBinAddr: 0x100432708, symSize: 0x0 }
  - { offsetInCU: 0x23AE4, offset: 0x31234, size: 0x8, addend: 0x0, symName: __ZN27CryptTest_HpMaskAes256_Test10test_info_E, symObjAddr: 0x125600, symBinAddr: 0x100432710, symSize: 0x0 }
  - { offsetInCU: 0x23BD4, offset: 0x31324, size: 0x8, addend: 0x0, symName: __ZN27CryptTest_HpMaskAes128_Test10test_info_E, symObjAddr: 0x125608, symBinAddr: 0x100432718, symSize: 0x0 }
  - { offsetInCU: 0x23CC4, offset: 0x31414, size: 0x8, addend: 0x0, symName: __ZN25CryptTest_Encryption_Test24gtest_registering_dummy_E, symObjAddr: 0x125610, symBinAddr: 0x100432720, symSize: 0x0 }
  - { offsetInCU: 0x23D68, offset: 0x314B8, size: 0x8, addend: 0x0, symName: __ZN28CryptTest_HashWellKnown_Test24gtest_registering_dummy_E, symObjAddr: 0x125614, symBinAddr: 0x100432724, symSize: 0x0 }
  - { offsetInCU: 0x23DF8, offset: 0x31548, size: 0x8, addend: 0x0, symName: __ZN25CryptTest_HashRandom_Test24gtest_registering_dummy_E, symObjAddr: 0x125618, symBinAddr: 0x100432728, symSize: 0x0 }
  - { offsetInCU: 0x272F7, offset: 0x34A47, size: 0x8, addend: 0x0, symName: __Z13LogTestBufferPKcPKhm, symObjAddr: 0x0, symBinAddr: 0x1000025E0, symSize: 0x150 }
  - { offsetInCU: 0x2758E, offset: 0x34CDE, size: 0x8, addend: 0x0, symName: __ZN7testing8internal16SuiteApiResolverI9CryptTestE19GetSetUpCaseOrSuiteEPKci, symObjAddr: 0x150, symBinAddr: 0x100002730, symSize: 0xD0 }
  - { offsetInCU: 0x27735, offset: 0x34E85, size: 0x8, addend: 0x0, symName: __ZN7testing8internal16SuiteApiResolverI9CryptTestE22GetTearDownCaseOrSuiteEPKci, symObjAddr: 0x220, symBinAddr: 0x100002800, symSize: 0xD0 }
  - { offsetInCU: 0x278DC, offset: 0x3502C, size: 0x8, addend: 0x0, symName: __ZN39CryptTest_WellKnownClientInitialv1_Test8TestBodyEv, symObjAddr: 0x2F0, symBinAddr: 0x1000028D0, symSize: 0xB0 }
  - { offsetInCU: 0x2791A, offset: 0x3506A, size: 0x8, addend: 0x0, symName: __ZN9CryptTest26TestWellKnownClientInitialEPKcS1_S1_S1_16QUIC_HKDF_LABELSS1_S1_S1_S1_S1_, symObjAddr: 0x3A0, symBinAddr: 0x100002980, symSize: 0x1960 }
  - { offsetInCU: 0x2C1D1, offset: 0x39921, size: 0x8, addend: 0x0, symName: __ZN39CryptTest_WellKnownClientInitialv2_Test8TestBodyEv, symObjAddr: 0x1D00, symBinAddr: 0x1000042E0, symSize: 0xA0 }
  - { offsetInCU: 0x2C20F, offset: 0x3995F, size: 0x8, addend: 0x0, symName: __ZN36CryptTest_WellKnownChaChaPolyv1_Test8TestBodyEv, symObjAddr: 0x1DA0, symBinAddr: 0x100004380, symSize: 0xA0 }
  - { offsetInCU: 0x2C24D, offset: 0x3999D, size: 0x8, addend: 0x0, symName: __ZN9CryptTest23TestWellKnownChaChaPolyEPKcS1_S1_S1_S1_S1_S1_S1_16QUIC_HKDF_LABELS, symObjAddr: 0x1E40, symBinAddr: 0x100004420, symSize: 0x15E0 }
  - { offsetInCU: 0x2F228, offset: 0x3C978, size: 0x8, addend: 0x0, symName: __ZN36CryptTest_WellKnownChaChaPolyv2_Test8TestBodyEv, symObjAddr: 0x3420, symBinAddr: 0x100005A00, symSize: 0xA0 }
  - { offsetInCU: 0x2F266, offset: 0x3C9B6, size: 0x8, addend: 0x0, symName: __ZN29CryptTest_HpMaskChaCha20_Test8TestBodyEv, symObjAddr: 0x34C0, symBinAddr: 0x100005AA0, symSize: 0x350 }
  - { offsetInCU: 0x2F8A6, offset: 0x3CFF6, size: 0x8, addend: 0x0, symName: __ZN27CryptTest_HpMaskAes256_Test8TestBodyEv, symObjAddr: 0x3850, symBinAddr: 0x100005DF0, symSize: 0x350 }
  - { offsetInCU: 0x2FEB7, offset: 0x3D607, size: 0x8, addend: 0x0, symName: __ZN27CryptTest_HpMaskAes128_Test8TestBodyEv, symObjAddr: 0x3BA0, symBinAddr: 0x100006140, symSize: 0x350 }
  - { offsetInCU: 0x307D1, offset: 0x3DF21, size: 0x8, addend: 0x0, symName: __ZN25CryptTest_Encryption_Test13AddToRegistryEv, symObjAddr: 0x3EF0, symBinAddr: 0x100006490, symSize: 0x1F0 }
  - { offsetInCU: 0x31897, offset: 0x3EFE7, size: 0x8, addend: 0x0, symName: __ZN7testing8internal30ParameterizedTestSuiteRegistry25GetTestSuitePatternHolderI9CryptTestEEPNS0_26ParameterizedTestSuiteInfoIT_EENSt3__112basic_stringIcNS8_11char_traitsIcEENS8_9allocatorIcEEEENS0_12CodeLocationE, symObjAddr: 0x6380, symBinAddr: 0x100008920, symSize: 0x340 }
  - { offsetInCU: 0x32932, offset: 0x40082, size: 0x8, addend: 0x0, symName: __ZN7testing8internal26ParameterizedTestSuiteInfoI9CryptTestE14AddTestPatternEPKcS5_PNS0_19TestMetaFactoryBaseIiEENS0_12CodeLocationE, symObjAddr: 0x7490, symBinAddr: 0x1000099A0, symSize: 0x200 }
  - { offsetInCU: 0x33371, offset: 0x40AC1, size: 0x8, addend: 0x0, symName: __ZN25CryptTest_Encryption_Test8TestBodyEv, symObjAddr: 0x40E0, symBinAddr: 0x100006680, symSize: 0x1150 }
  - { offsetInCU: 0x359B9, offset: 0x43109, size: 0x8, addend: 0x0, symName: __ZN7testing18WithParamInterfaceIiE8GetParamEv, symObjAddr: 0x5230, symBinAddr: 0x1000077D0, symSize: 0xB0 }
  - { offsetInCU: 0x35A9B, offset: 0x431EB, size: 0x8, addend: 0x0, symName: __ZN9CryptTest7QuicKeyC2E16CXPLAT_AEAD_TYPEPKh, symObjAddr: 0x7BA0, symBinAddr: 0x10000A0B0, symSize: 0x2D0 }
  - { offsetInCU: 0x366B7, offset: 0x43E07, size: 0x8, addend: 0x0, symName: __ZN28CryptTest_HashWellKnown_Test13AddToRegistryEv, symObjAddr: 0x52E0, symBinAddr: 0x100007880, symSize: 0x1F0 }
  - { offsetInCU: 0x377A1, offset: 0x44EF1, size: 0x8, addend: 0x0, symName: __ZN28CryptTest_HashWellKnown_Test8TestBodyEv, symObjAddr: 0x54D0, symBinAddr: 0x100007A70, symSize: 0x800 }
  - { offsetInCU: 0x3898C, offset: 0x460DC, size: 0x8, addend: 0x0, symName: __ZN9CryptTest8QuicHashC2E16CXPLAT_HASH_TYPEPKhj, symObjAddr: 0x8A60, symBinAddr: 0x10000AF70, symSize: 0x2D0 }
  - { offsetInCU: 0x39618, offset: 0x46D68, size: 0x8, addend: 0x0, symName: __ZN25CryptTest_HashRandom_Test13AddToRegistryEv, symObjAddr: 0x5CD0, symBinAddr: 0x100008270, symSize: 0x1F0 }
  - { offsetInCU: 0x3A60C, offset: 0x47D5C, size: 0x8, addend: 0x0, symName: __ZN25CryptTest_HashRandom_Test8TestBodyEv, symObjAddr: 0x5EC0, symBinAddr: 0x100008460, symSize: 0x4C0 }
  - { offsetInCU: 0x3B846, offset: 0x48F96, size: 0x8, addend: 0x0, symName: __ZNSt3__112__hash_tableINS_17__hash_value_typeINS_12basic_stringIcNS_11char_traitsIcEENS_9allocatorIcEEEEmEENS_22__unordered_map_hasherIS7_S8_NS_4hashIS7_EENS_8equal_toIS7_EELb1EEENS_21__unordered_map_equalIS7_S8_SD_SB_Lb1EEENS5_IS8_EEE4findIS7_EENS_15__hash_iteratorIPNS_11__hash_nodeIS8_PvEEEERKT_, symObjAddr: 0x9A90, symBinAddr: 0x10000BFA0, symSize: 0x230 }
  - { offsetInCU: 0x3BB40, offset: 0x49290, size: 0x8, addend: 0x0, symName: __ZNSt3__112__hash_tableINS_17__hash_value_typeINS_12basic_stringIcNS_11char_traitsIcEENS_9allocatorIcEEEEmEENS_22__unordered_map_hasherIS7_S8_NS_4hashIS7_EENS_8equal_toIS7_EELb1EEENS_21__unordered_map_equalIS7_S8_SD_SB_Lb1EEENS5_IS8_EEE25__emplace_unique_key_argsIS7_JS7_mEEENS_4pairINS_15__hash_iteratorIPNS_11__hash_nodeIS8_PvEEEEbEERKT_DpOT0_, symObjAddr: 0xB550, symBinAddr: 0x10000DA60, symSize: 0x410 }
  - { offsetInCU: 0x3C42C, offset: 0x49B7C, size: 0x8, addend: 0x0, symName: __ZNKSt3__16vectorIPN7testing8internal30ParameterizedTestSuiteInfoBaseENS_9allocatorIS4_EEE20__throw_length_errorB8ue170006Ev, symObjAddr: 0xBCA0, symBinAddr: 0x10000E1B0, symSize: 0x10 }
  - { offsetInCU: 0x3C455, offset: 0x49BA5, size: 0x8, addend: 0x0, symName: __ZNSt3__16vectorIN7testing8internal26ParameterizedTestSuiteInfoI9CryptTestE17InstantiationInfoENS_9allocatorIS6_EEE24__emplace_back_slow_pathIJNS_12basic_stringIcNS_11char_traitsIcEENS7_IcEEEERPFNS2_14ParamGeneratorIiEEvERPFSF_RKNS1_13TestParamInfoIiEEERPKcRiEEEvDpOT_, symObjAddr: 0xBCB0, symBinAddr: 0x10000E1C0, symSize: 0x230 }
  - { offsetInCU: 0x3C461, offset: 0x49BB1, size: 0x8, addend: 0x0, symName: __ZNKSt3__112basic_stringIcNS_11char_traitsIcEENS_9allocatorIcEEE20__throw_length_errorB8ue170006Ev, symObjAddr: 0x8790, symBinAddr: 0x10000ACA0, symSize: 0x10 }
  - { offsetInCU: 0x3C48A, offset: 0x49BDA, size: 0x8, addend: 0x0, symName: __ZN7testing13PrintToStringIP10CXPLAT_KEYEENSt3__112basic_stringIcNS3_11char_traitsIcEENS3_9allocatorIcEEEERKT_, symObjAddr: 0x87A0, symBinAddr: 0x10000ACB0, symSize: 0x100 }
  - { offsetInCU: 0x3C758, offset: 0x49EA8, size: 0x8, addend: 0x0, symName: __ZL39gtest_CryptTestCryptTest_EvalGenerator_v, symObjAddr: 0x66C0, symBinAddr: 0x100008C60, symSize: 0x60 }
  - { offsetInCU: 0x3CC66, offset: 0x4A3B6, size: 0x8, addend: 0x0, symName: __ZL42gtest_CryptTestCryptTest_EvalGenerateName_RKN7testing13TestParamInfoIiEE, symObjAddr: 0x6720, symBinAddr: 0x100008CC0, symSize: 0x30 }
  - { offsetInCU: 0x3CD57, offset: 0x4A4A7, size: 0x8, addend: 0x0, symName: __ZN39CryptTest_WellKnownClientInitialv1_TestD1Ev, symObjAddr: 0x6750, symBinAddr: 0x100008CF0, symSize: 0x10 }
  - { offsetInCU: 0x3CDEE, offset: 0x4A53E, size: 0x8, addend: 0x0, symName: __ZN39CryptTest_WellKnownClientInitialv1_TestD0Ev, symObjAddr: 0x6760, symBinAddr: 0x100008D00, symSize: 0x20 }
  - { offsetInCU: 0x3CE8C, offset: 0x4A5DC, size: 0x8, addend: 0x0, symName: __ZN7testing4Test5SetupEv, symObjAddr: 0x6780, symBinAddr: 0x100008D20, symSize: 0x10 }
  - { offsetInCU: 0x3CEB1, offset: 0x4A601, size: 0x8, addend: 0x0, symName: __ZThn16_N39CryptTest_WellKnownClientInitialv1_TestD1Ev, symObjAddr: 0x6790, symBinAddr: 0x100008D30, symSize: 0x10 }
  - { offsetInCU: 0x3CF5C, offset: 0x4A6AC, size: 0x8, addend: 0x0, symName: __ZThn16_N39CryptTest_WellKnownClientInitialv1_TestD0Ev, symObjAddr: 0x67A0, symBinAddr: 0x100008D40, symSize: 0x30 }
  - { offsetInCU: 0x3D02D, offset: 0x4A77D, size: 0x8, addend: 0x0, symName: __ZN39CryptTest_WellKnownClientInitialv2_TestD1Ev, symObjAddr: 0x67D0, symBinAddr: 0x100008D70, symSize: 0x10 }
  - { offsetInCU: 0x3D0C4, offset: 0x4A814, size: 0x8, addend: 0x0, symName: __ZN39CryptTest_WellKnownClientInitialv2_TestD0Ev, symObjAddr: 0x67E0, symBinAddr: 0x100008D80, symSize: 0x20 }
  - { offsetInCU: 0x3D162, offset: 0x4A8B2, size: 0x8, addend: 0x0, symName: __ZThn16_N39CryptTest_WellKnownClientInitialv2_TestD1Ev, symObjAddr: 0x6800, symBinAddr: 0x100008DA0, symSize: 0x10 }
  - { offsetInCU: 0x3D20D, offset: 0x4A95D, size: 0x8, addend: 0x0, symName: __ZThn16_N39CryptTest_WellKnownClientInitialv2_TestD0Ev, symObjAddr: 0x6810, symBinAddr: 0x100008DB0, symSize: 0x30 }
  - { offsetInCU: 0x3D2DE, offset: 0x4AA2E, size: 0x8, addend: 0x0, symName: __ZN36CryptTest_WellKnownChaChaPolyv1_TestD1Ev, symObjAddr: 0x6840, symBinAddr: 0x100008DE0, symSize: 0x10 }
  - { offsetInCU: 0x3D375, offset: 0x4AAC5, size: 0x8, addend: 0x0, symName: __ZN36CryptTest_WellKnownChaChaPolyv1_TestD0Ev, symObjAddr: 0x6850, symBinAddr: 0x100008DF0, symSize: 0x20 }
  - { offsetInCU: 0x3D413, offset: 0x4AB63, size: 0x8, addend: 0x0, symName: __ZThn16_N36CryptTest_WellKnownChaChaPolyv1_TestD1Ev, symObjAddr: 0x6870, symBinAddr: 0x100008E10, symSize: 0x10 }
  - { offsetInCU: 0x3D4BE, offset: 0x4AC0E, size: 0x8, addend: 0x0, symName: __ZThn16_N36CryptTest_WellKnownChaChaPolyv1_TestD0Ev, symObjAddr: 0x6880, symBinAddr: 0x100008E20, symSize: 0x30 }
  - { offsetInCU: 0x3D58F, offset: 0x4ACDF, size: 0x8, addend: 0x0, symName: __ZN36CryptTest_WellKnownChaChaPolyv2_TestD1Ev, symObjAddr: 0x68B0, symBinAddr: 0x100008E50, symSize: 0x10 }
  - { offsetInCU: 0x3D626, offset: 0x4AD76, size: 0x8, addend: 0x0, symName: __ZN36CryptTest_WellKnownChaChaPolyv2_TestD0Ev, symObjAddr: 0x68C0, symBinAddr: 0x100008E60, symSize: 0x20 }
  - { offsetInCU: 0x3D6C4, offset: 0x4AE14, size: 0x8, addend: 0x0, symName: __ZThn16_N36CryptTest_WellKnownChaChaPolyv2_TestD1Ev, symObjAddr: 0x68E0, symBinAddr: 0x100008E80, symSize: 0x10 }
  - { offsetInCU: 0x3D76F, offset: 0x4AEBF, size: 0x8, addend: 0x0, symName: __ZThn16_N36CryptTest_WellKnownChaChaPolyv2_TestD0Ev, symObjAddr: 0x68F0, symBinAddr: 0x100008E90, symSize: 0x30 }
  - { offsetInCU: 0x3D840, offset: 0x4AF90, size: 0x8, addend: 0x0, symName: __ZN29CryptTest_HpMaskChaCha20_TestD1Ev, symObjAddr: 0x6920, symBinAddr: 0x100008EC0, symSize: 0x10 }
  - { offsetInCU: 0x3D8D7, offset: 0x4B027, size: 0x8, addend: 0x0, symName: __ZN29CryptTest_HpMaskChaCha20_TestD0Ev, symObjAddr: 0x6930, symBinAddr: 0x100008ED0, symSize: 0x20 }
  - { offsetInCU: 0x3D975, offset: 0x4B0C5, size: 0x8, addend: 0x0, symName: __ZThn16_N29CryptTest_HpMaskChaCha20_TestD1Ev, symObjAddr: 0x6950, symBinAddr: 0x100008EF0, symSize: 0x10 }
  - { offsetInCU: 0x3DA20, offset: 0x4B170, size: 0x8, addend: 0x0, symName: __ZThn16_N29CryptTest_HpMaskChaCha20_TestD0Ev, symObjAddr: 0x6960, symBinAddr: 0x100008F00, symSize: 0x30 }
  - { offsetInCU: 0x3DAF1, offset: 0x4B241, size: 0x8, addend: 0x0, symName: __ZN27CryptTest_HpMaskAes256_TestD1Ev, symObjAddr: 0x6990, symBinAddr: 0x100008F30, symSize: 0x10 }
  - { offsetInCU: 0x3DB88, offset: 0x4B2D8, size: 0x8, addend: 0x0, symName: __ZN27CryptTest_HpMaskAes256_TestD0Ev, symObjAddr: 0x69A0, symBinAddr: 0x100008F40, symSize: 0x20 }
  - { offsetInCU: 0x3DC26, offset: 0x4B376, size: 0x8, addend: 0x0, symName: __ZThn16_N27CryptTest_HpMaskAes256_TestD1Ev, symObjAddr: 0x69C0, symBinAddr: 0x100008F60, symSize: 0x10 }
  - { offsetInCU: 0x3DCD1, offset: 0x4B421, size: 0x8, addend: 0x0, symName: __ZThn16_N27CryptTest_HpMaskAes256_TestD0Ev, symObjAddr: 0x69D0, symBinAddr: 0x100008F70, symSize: 0x30 }
  - { offsetInCU: 0x3DDA2, offset: 0x4B4F2, size: 0x8, addend: 0x0, symName: __ZN27CryptTest_HpMaskAes128_TestD1Ev, symObjAddr: 0x6A00, symBinAddr: 0x100008FA0, symSize: 0x10 }
  - { offsetInCU: 0x3DE39, offset: 0x4B589, size: 0x8, addend: 0x0, symName: __ZN27CryptTest_HpMaskAes128_TestD0Ev, symObjAddr: 0x6A10, symBinAddr: 0x100008FB0, symSize: 0x20 }
  - { offsetInCU: 0x3DED7, offset: 0x4B627, size: 0x8, addend: 0x0, symName: __ZThn16_N27CryptTest_HpMaskAes128_TestD1Ev, symObjAddr: 0x6A30, symBinAddr: 0x100008FD0, symSize: 0x10 }
  - { offsetInCU: 0x3DF82, offset: 0x4B6D2, size: 0x8, addend: 0x0, symName: __ZThn16_N27CryptTest_HpMaskAes128_TestD0Ev, symObjAddr: 0x6A40, symBinAddr: 0x100008FE0, symSize: 0x30 }
  - { offsetInCU: 0x3E056, offset: 0x4B7A6, size: 0x8, addend: 0x0, symName: __ZN25CryptTest_Encryption_TestD1Ev, symObjAddr: 0x6A70, symBinAddr: 0x100009010, symSize: 0x10 }
  - { offsetInCU: 0x3E0F0, offset: 0x4B840, size: 0x8, addend: 0x0, symName: __ZN25CryptTest_Encryption_TestD0Ev, symObjAddr: 0x6A80, symBinAddr: 0x100009020, symSize: 0x20 }
  - { offsetInCU: 0x3E18E, offset: 0x4B8DE, size: 0x8, addend: 0x0, symName: __ZThn16_N25CryptTest_Encryption_TestD1Ev, symObjAddr: 0x6AA0, symBinAddr: 0x100009040, symSize: 0x10 }
  - { offsetInCU: 0x3E23C, offset: 0x4B98C, size: 0x8, addend: 0x0, symName: __ZThn16_N25CryptTest_Encryption_TestD0Ev, symObjAddr: 0x6AB0, symBinAddr: 0x100009050, symSize: 0x30 }
  - { offsetInCU: 0x3E310, offset: 0x4BA60, size: 0x8, addend: 0x0, symName: __ZN28CryptTest_HashWellKnown_TestD1Ev, symObjAddr: 0x6AE0, symBinAddr: 0x100009080, symSize: 0x10 }
  - { offsetInCU: 0x3E3AA, offset: 0x4BAFA, size: 0x8, addend: 0x0, symName: __ZN28CryptTest_HashWellKnown_TestD0Ev, symObjAddr: 0x6AF0, symBinAddr: 0x100009090, symSize: 0x20 }
  - { offsetInCU: 0x3E448, offset: 0x4BB98, size: 0x8, addend: 0x0, symName: __ZThn16_N28CryptTest_HashWellKnown_TestD1Ev, symObjAddr: 0x6B10, symBinAddr: 0x1000090B0, symSize: 0x10 }
  - { offsetInCU: 0x3E4F6, offset: 0x4BC46, size: 0x8, addend: 0x0, symName: __ZThn16_N28CryptTest_HashWellKnown_TestD0Ev, symObjAddr: 0x6B20, symBinAddr: 0x1000090C0, symSize: 0x30 }
  - { offsetInCU: 0x3E5CA, offset: 0x4BD1A, size: 0x8, addend: 0x0, symName: __ZN25CryptTest_HashRandom_TestD1Ev, symObjAddr: 0x6B50, symBinAddr: 0x1000090F0, symSize: 0x10 }
  - { offsetInCU: 0x3E664, offset: 0x4BDB4, size: 0x8, addend: 0x0, symName: __ZN25CryptTest_HashRandom_TestD0Ev, symObjAddr: 0x6B60, symBinAddr: 0x100009100, symSize: 0x20 }
  - { offsetInCU: 0x3E702, offset: 0x4BE52, size: 0x8, addend: 0x0, symName: __ZThn16_N25CryptTest_HashRandom_TestD1Ev, symObjAddr: 0x6B80, symBinAddr: 0x100009120, symSize: 0x10 }
  - { offsetInCU: 0x3E7B0, offset: 0x4BF00, size: 0x8, addend: 0x0, symName: __ZThn16_N25CryptTest_HashRandom_TestD0Ev, symObjAddr: 0x6B90, symBinAddr: 0x100009130, symSize: 0x30 }
  - { offsetInCU: 0x3E867, offset: 0x4BFB7, size: 0x8, addend: 0x0, symName: __ZN7testing8internal15TestFactoryImplI39CryptTest_WellKnownClientInitialv1_TestED1Ev, symObjAddr: 0x6BD0, symBinAddr: 0x100009160, symSize: 0x10 }
  - { offsetInCU: 0x3E893, offset: 0x4BFE3, size: 0x8, addend: 0x0, symName: __ZN7testing8internal15TestFactoryImplI39CryptTest_WellKnownClientInitialv1_TestED0Ev, symObjAddr: 0x6BE0, symBinAddr: 0x100009170, symSize: 0x10 }
  - { offsetInCU: 0x3E92C, offset: 0x4C07C, size: 0x8, addend: 0x0, symName: __ZN7testing8internal15TestFactoryImplI39CryptTest_WellKnownClientInitialv1_TestE10CreateTestEv, symObjAddr: 0x6BF0, symBinAddr: 0x100009180, symSize: 0x50 }
  - { offsetInCU: 0x3E9CE, offset: 0x4C11E, size: 0x8, addend: 0x0, symName: __ZN9CryptTestD1Ev, symObjAddr: 0x6C40, symBinAddr: 0x100374E90, symSize: 0x10 }
  - { offsetInCU: 0x3E9EF, offset: 0x4C13F, size: 0x8, addend: 0x0, symName: __ZN9CryptTestD0Ev, symObjAddr: 0x6C50, symBinAddr: 0x100374EA0, symSize: 0x10 }
  - { offsetInCU: 0x3EA2C, offset: 0x4C17C, size: 0x8, addend: 0x0, symName: __ZThn16_N9CryptTestD1Ev, symObjAddr: 0x6C60, symBinAddr: 0x100374EB0, symSize: 0x10 }
  - { offsetInCU: 0x3EA7E, offset: 0x4C1CE, size: 0x8, addend: 0x0, symName: __ZThn16_N9CryptTestD0Ev, symObjAddr: 0x6C70, symBinAddr: 0x100374EC0, symSize: 0x10 }
  - { offsetInCU: 0x3EAB4, offset: 0x4C204, size: 0x8, addend: 0x0, symName: __ZN7testing13TestWithParamIiED1Ev, symObjAddr: 0x6C80, symBinAddr: 0x100374ED0, symSize: 0x10 }
  - { offsetInCU: 0x3EAD5, offset: 0x4C225, size: 0x8, addend: 0x0, symName: __ZN7testing13TestWithParamIiED0Ev, symObjAddr: 0x6C90, symBinAddr: 0x100374EE0, symSize: 0x10 }
  - { offsetInCU: 0x3EB13, offset: 0x4C263, size: 0x8, addend: 0x0, symName: __ZThn16_N7testing13TestWithParamIiED1Ev, symObjAddr: 0x6CA0, symBinAddr: 0x100374EF0, symSize: 0x10 }
  - { offsetInCU: 0x3EB67, offset: 0x4C2B7, size: 0x8, addend: 0x0, symName: __ZThn16_N7testing13TestWithParamIiED0Ev, symObjAddr: 0x6CB0, symBinAddr: 0x100374F00, symSize: 0x10 }
  - { offsetInCU: 0x3EB9E, offset: 0x4C2EE, size: 0x8, addend: 0x0, symName: __ZN7testing18WithParamInterfaceIiED1Ev, symObjAddr: 0x6CC0, symBinAddr: 0x1000091D0, symSize: 0x10 }
  - { offsetInCU: 0x3EBC7, offset: 0x4C317, size: 0x8, addend: 0x0, symName: __ZN7testing18WithParamInterfaceIiED0Ev, symObjAddr: 0x6CD0, symBinAddr: 0x1000091E0, symSize: 0x10 }
  - { offsetInCU: 0x3EBF5, offset: 0x4C345, size: 0x8, addend: 0x0, symName: __ZN7testing8internal15TestFactoryImplI39CryptTest_WellKnownClientInitialv2_TestED1Ev, symObjAddr: 0x6CE0, symBinAddr: 0x1000091F0, symSize: 0x10 }
  - { offsetInCU: 0x3EC21, offset: 0x4C371, size: 0x8, addend: 0x0, symName: __ZN7testing8internal15TestFactoryImplI39CryptTest_WellKnownClientInitialv2_TestED0Ev, symObjAddr: 0x6CF0, symBinAddr: 0x100009200, symSize: 0x10 }
  - { offsetInCU: 0x3EC81, offset: 0x4C3D1, size: 0x8, addend: 0x0, symName: __ZN7testing8internal15TestFactoryImplI39CryptTest_WellKnownClientInitialv2_TestE10CreateTestEv, symObjAddr: 0x6D00, symBinAddr: 0x100009210, symSize: 0x50 }
  - { offsetInCU: 0x3ED28, offset: 0x4C478, size: 0x8, addend: 0x0, symName: __ZN7testing8internal15TestFactoryImplI36CryptTest_WellKnownChaChaPolyv1_TestED1Ev, symObjAddr: 0x6D50, symBinAddr: 0x100009260, symSize: 0x10 }
  - { offsetInCU: 0x3ED54, offset: 0x4C4A4, size: 0x8, addend: 0x0, symName: __ZN7testing8internal15TestFactoryImplI36CryptTest_WellKnownChaChaPolyv1_TestED0Ev, symObjAddr: 0x6D60, symBinAddr: 0x100009270, symSize: 0x10 }
  - { offsetInCU: 0x3EDB4, offset: 0x4C504, size: 0x8, addend: 0x0, symName: __ZN7testing8internal15TestFactoryImplI36CryptTest_WellKnownChaChaPolyv1_TestE10CreateTestEv, symObjAddr: 0x6D70, symBinAddr: 0x100009280, symSize: 0x50 }
  - { offsetInCU: 0x3EF8B, offset: 0x4C6DB, size: 0x8, addend: 0x0, symName: __ZNSt3__118basic_stringstreamIcNS_11char_traitsIcEENS_9allocatorIcEEEC1B8ue170006Ev, symObjAddr: 0x6F70, symBinAddr: 0x100009480, symSize: 0x130 }
  - { offsetInCU: 0x3F096, offset: 0x4C7E6, size: 0x8, addend: 0x0, symName: __ZNSt3__118basic_stringstreamIcNS_11char_traitsIcEENS_9allocatorIcEEED1Ev, symObjAddr: 0x70A0, symBinAddr: 0x1000095B0, symSize: 0x80 }
  - { offsetInCU: 0x3F3D1, offset: 0x4CB21, size: 0x8, addend: 0x0, symName: __ZN7testing8internal15TestFactoryImplI36CryptTest_WellKnownChaChaPolyv2_TestED1Ev, symObjAddr: 0x72D0, symBinAddr: 0x1000097E0, symSize: 0x10 }
  - { offsetInCU: 0x3F3FD, offset: 0x4CB4D, size: 0x8, addend: 0x0, symName: __ZN7testing8internal15TestFactoryImplI36CryptTest_WellKnownChaChaPolyv2_TestED0Ev, symObjAddr: 0x72E0, symBinAddr: 0x1000097F0, symSize: 0x10 }
  - { offsetInCU: 0x3F45D, offset: 0x4CBAD, size: 0x8, addend: 0x0, symName: __ZN7testing8internal15TestFactoryImplI36CryptTest_WellKnownChaChaPolyv2_TestE10CreateTestEv, symObjAddr: 0x72F0, symBinAddr: 0x100009800, symSize: 0x50 }
  - { offsetInCU: 0x3F504, offset: 0x4CC54, size: 0x8, addend: 0x0, symName: __ZN7testing8internal15TestFactoryImplI29CryptTest_HpMaskChaCha20_TestED1Ev, symObjAddr: 0x7340, symBinAddr: 0x100009850, symSize: 0x10 }
  - { offsetInCU: 0x3F530, offset: 0x4CC80, size: 0x8, addend: 0x0, symName: __ZN7testing8internal15TestFactoryImplI29CryptTest_HpMaskChaCha20_TestED0Ev, symObjAddr: 0x7350, symBinAddr: 0x100009860, symSize: 0x10 }
  - { offsetInCU: 0x3F590, offset: 0x4CCE0, size: 0x8, addend: 0x0, symName: __ZN7testing8internal15TestFactoryImplI29CryptTest_HpMaskChaCha20_TestE10CreateTestEv, symObjAddr: 0x7360, symBinAddr: 0x100009870, symSize: 0x50 }
  - { offsetInCU: 0x3F637, offset: 0x4CD87, size: 0x8, addend: 0x0, symName: __ZN7testing8internal15TestFactoryImplI27CryptTest_HpMaskAes256_TestED1Ev, symObjAddr: 0x73B0, symBinAddr: 0x1000098C0, symSize: 0x10 }
  - { offsetInCU: 0x3F663, offset: 0x4CDB3, size: 0x8, addend: 0x0, symName: __ZN7testing8internal15TestFactoryImplI27CryptTest_HpMaskAes256_TestED0Ev, symObjAddr: 0x73C0, symBinAddr: 0x1000098D0, symSize: 0x10 }
  - { offsetInCU: 0x3F6C3, offset: 0x4CE13, size: 0x8, addend: 0x0, symName: __ZN7testing8internal15TestFactoryImplI27CryptTest_HpMaskAes256_TestE10CreateTestEv, symObjAddr: 0x73D0, symBinAddr: 0x1000098E0, symSize: 0x50 }
  - { offsetInCU: 0x3F76A, offset: 0x4CEBA, size: 0x8, addend: 0x0, symName: __ZN7testing8internal15TestFactoryImplI27CryptTest_HpMaskAes128_TestED1Ev, symObjAddr: 0x7420, symBinAddr: 0x100009930, symSize: 0x10 }
  - { offsetInCU: 0x3F796, offset: 0x4CEE6, size: 0x8, addend: 0x0, symName: __ZN7testing8internal15TestFactoryImplI27CryptTest_HpMaskAes128_TestED0Ev, symObjAddr: 0x7430, symBinAddr: 0x100009940, symSize: 0x10 }
  - { offsetInCU: 0x3F7F6, offset: 0x4CF46, size: 0x8, addend: 0x0, symName: __ZN7testing8internal15TestFactoryImplI27CryptTest_HpMaskAes128_TestE10CreateTestEv, symObjAddr: 0x7440, symBinAddr: 0x100009950, symSize: 0x50 }
  - { offsetInCU: 0x3FB84, offset: 0x4D2D4, size: 0x8, addend: 0x0, symName: __ZNSt3__110shared_ptrIN7testing8internal26ParameterizedTestSuiteInfoI9CryptTestE8TestInfoEEC1B8ue170006IS6_vEEPT_, symObjAddr: 0x7860, symBinAddr: 0x100009D70, symSize: 0x60 }
  - { offsetInCU: 0x3FD7D, offset: 0x4D4CD, size: 0x8, addend: 0x0, symName: __ZNSt3__16vectorINS_10shared_ptrIN7testing8internal26ParameterizedTestSuiteInfoI9CryptTestE8TestInfoEEENS_9allocatorIS8_EEE24__emplace_back_slow_pathIJPS7_EEEvDpOT_, symObjAddr: 0x7690, symBinAddr: 0x100009BA0, symSize: 0x1D0 }
  - { offsetInCU: 0x409C1, offset: 0x4E111, size: 0x8, addend: 0x0, symName: __ZNKSt3__16vectorINS_10shared_ptrIN7testing8internal26ParameterizedTestSuiteInfoI9CryptTestE8TestInfoEEENS_9allocatorIS8_EEE20__throw_length_errorB8ue170006Ev, symObjAddr: 0x7A00, symBinAddr: 0x100009F10, symSize: 0x10 }
  - { offsetInCU: 0x409EA, offset: 0x4E13A, size: 0x8, addend: 0x0, symName: __ZNSt3__120__throw_length_errorB8ue170006EPKc, symObjAddr: 0x7A10, symBinAddr: 0x100009F20, symSize: 0x50 }
  - { offsetInCU: 0x409F6, offset: 0x4E146, size: 0x8, addend: 0x0, symName: __ZNSt3__114__split_bufferINS_10shared_ptrIN7testing8internal26ParameterizedTestSuiteInfoI9CryptTestE8TestInfoEEERNS_9allocatorIS8_EEED1Ev, symObjAddr: 0x7980, symBinAddr: 0x100009E90, symSize: 0x80 }
  - { offsetInCU: 0x40FD6, offset: 0x4E726, size: 0x8, addend: 0x0, symName: __ZNSt3__110shared_ptrIN7testing8internal26ParameterizedTestSuiteInfoI9CryptTestE8TestInfoEEC1B8ue170006IS6_vEEPT_.cold.1, symObjAddr: 0xBEF0, symBinAddr: 0x100374F10, symSize: 0x48 }
  - { offsetInCU: 0x41370, offset: 0x4EAC0, size: 0x8, addend: 0x0, symName: __ZNSt3__120__shared_ptr_pointerIPN7testing8internal26ParameterizedTestSuiteInfoI9CryptTestE8TestInfoENS_10shared_ptrIS6_E27__shared_ptr_default_deleteIS6_S6_EENS_9allocatorIS6_EEED1Ev, symObjAddr: 0x78C0, symBinAddr: 0x100009DD0, symSize: 0x10 }
  - { offsetInCU: 0x413CB, offset: 0x4EB1B, size: 0x8, addend: 0x0, symName: __ZNSt3__120__shared_ptr_pointerIPN7testing8internal26ParameterizedTestSuiteInfoI9CryptTestE8TestInfoENS_10shared_ptrIS6_E27__shared_ptr_default_deleteIS6_S6_EENS_9allocatorIS6_EEED0Ev, symObjAddr: 0x78D0, symBinAddr: 0x100009DE0, symSize: 0x20 }
  - { offsetInCU: 0x414F7, offset: 0x4EC47, size: 0x8, addend: 0x0, symName: __ZNSt3__120__shared_ptr_pointerIPN7testing8internal26ParameterizedTestSuiteInfoI9CryptTestE8TestInfoENS_10shared_ptrIS6_E27__shared_ptr_default_deleteIS6_S6_EENS_9allocatorIS6_EEE16__on_zero_sharedEv, symObjAddr: 0x78F0, symBinAddr: 0x100009E00, symSize: 0x60 }
  - { offsetInCU: 0x41909, offset: 0x4F059, size: 0x8, addend: 0x0, symName: __ZNKSt3__120__shared_ptr_pointerIPN7testing8internal26ParameterizedTestSuiteInfoI9CryptTestE8TestInfoENS_10shared_ptrIS6_E27__shared_ptr_default_deleteIS6_S6_EENS_9allocatorIS6_EEE13__get_deleterERKSt9type_info, symObjAddr: 0x7950, symBinAddr: 0x100009E60, symSize: 0x20 }
  - { offsetInCU: 0x419D0, offset: 0x4F120, size: 0x8, addend: 0x0, symName: __ZNSt3__120__shared_ptr_pointerIPN7testing8internal26ParameterizedTestSuiteInfoI9CryptTestE8TestInfoENS_10shared_ptrIS6_E27__shared_ptr_default_deleteIS6_S6_EENS_9allocatorIS6_EEE21__on_zero_shared_weakEv, symObjAddr: 0x7970, symBinAddr: 0x100009E80, symSize: 0x10 }
  - { offsetInCU: 0x41AAE, offset: 0x4F1FE, size: 0x8, addend: 0x0, symName: __ZNSt12length_errorC1B8ue170006EPKc, symObjAddr: 0x7A60, symBinAddr: 0x100009F70, symSize: 0x30 }
  - { offsetInCU: 0x41B3E, offset: 0x4F28E, size: 0x8, addend: 0x0, symName: __ZN7testing8internal15TestMetaFactoryI25CryptTest_Encryption_TestED1Ev, symObjAddr: 0x7AD0, symBinAddr: 0x100009FE0, symSize: 0x10 }
  - { offsetInCU: 0x41B6A, offset: 0x4F2BA, size: 0x8, addend: 0x0, symName: __ZN7testing8internal15TestMetaFactoryI25CryptTest_Encryption_TestED0Ev, symObjAddr: 0x7AE0, symBinAddr: 0x100009FF0, symSize: 0x10 }
  - { offsetInCU: 0x41C00, offset: 0x4F350, size: 0x8, addend: 0x0, symName: __ZN7testing8internal15TestMetaFactoryI25CryptTest_Encryption_TestE17CreateTestFactoryEi, symObjAddr: 0x7AF0, symBinAddr: 0x10000A000, symSize: 0x30 }
  - { offsetInCU: 0x41C86, offset: 0x4F3D6, size: 0x8, addend: 0x0, symName: __ZN7testing8internal24ParameterizedTestFactoryI25CryptTest_Encryption_TestED1Ev, symObjAddr: 0x7B20, symBinAddr: 0x10000A030, symSize: 0x10 }
  - { offsetInCU: 0x41CB2, offset: 0x4F402, size: 0x8, addend: 0x0, symName: __ZN7testing8internal24ParameterizedTestFactoryI25CryptTest_Encryption_TestED0Ev, symObjAddr: 0x7B30, symBinAddr: 0x10000A040, symSize: 0x10 }
  - { offsetInCU: 0x41D26, offset: 0x4F476, size: 0x8, addend: 0x0, symName: __ZN7testing8internal24ParameterizedTestFactoryI25CryptTest_Encryption_TestE10CreateTestEv, symObjAddr: 0x7B40, symBinAddr: 0x10000A050, symSize: 0x60 }
  - { offsetInCU: 0x420AD, offset: 0x4F7FD, size: 0x8, addend: 0x0, symName: __ZN7testing15AssertionResult13AppendMessageERKNS_7MessageE, symObjAddr: 0x8430, symBinAddr: 0x10000A940, symSize: 0x90 }
  - { offsetInCU: 0x424EC, offset: 0x4FC3C, size: 0x8, addend: 0x0, symName: __ZN7testing15AssertionResultlsIPKcEERS0_RKT_, symObjAddr: 0x82F0, symBinAddr: 0x10000A800, symSize: 0xA0 }
  - { offsetInCU: 0x427C3, offset: 0x4FF13, size: 0x8, addend: 0x0, symName: __ZN7testing15AssertionResultlsINSt3__112basic_stringIcNS2_11char_traitsIcEENS2_9allocatorIcEEEEEERS0_RKT_, symObjAddr: 0x8390, symBinAddr: 0x10000A8A0, symSize: 0xA0 }
  - { offsetInCU: 0x42F38, offset: 0x50688, size: 0x8, addend: 0x0, symName: __ZN7testing8internal15TestMetaFactoryI28CryptTest_HashWellKnown_TestED1Ev, symObjAddr: 0x8990, symBinAddr: 0x10000AEA0, symSize: 0x10 }
  - { offsetInCU: 0x42F64, offset: 0x506B4, size: 0x8, addend: 0x0, symName: __ZN7testing8internal15TestMetaFactoryI28CryptTest_HashWellKnown_TestED0Ev, symObjAddr: 0x89A0, symBinAddr: 0x10000AEB0, symSize: 0x10 }
  - { offsetInCU: 0x42FFA, offset: 0x5074A, size: 0x8, addend: 0x0, symName: __ZN7testing8internal15TestMetaFactoryI28CryptTest_HashWellKnown_TestE17CreateTestFactoryEi, symObjAddr: 0x89B0, symBinAddr: 0x10000AEC0, symSize: 0x30 }
  - { offsetInCU: 0x43080, offset: 0x507D0, size: 0x8, addend: 0x0, symName: __ZN7testing8internal24ParameterizedTestFactoryI28CryptTest_HashWellKnown_TestED1Ev, symObjAddr: 0x89E0, symBinAddr: 0x10000AEF0, symSize: 0x10 }
  - { offsetInCU: 0x430AC, offset: 0x507FC, size: 0x8, addend: 0x0, symName: __ZN7testing8internal24ParameterizedTestFactoryI28CryptTest_HashWellKnown_TestED0Ev, symObjAddr: 0x89F0, symBinAddr: 0x10000AF00, symSize: 0x10 }
  - { offsetInCU: 0x4310C, offset: 0x5085C, size: 0x8, addend: 0x0, symName: __ZN7testing8internal24ParameterizedTestFactoryI28CryptTest_HashWellKnown_TestE10CreateTestEv, symObjAddr: 0x8A00, symBinAddr: 0x10000AF10, symSize: 0x60 }
  - { offsetInCU: 0x43293, offset: 0x509E3, size: 0x8, addend: 0x0, symName: __ZN7testing8internal15TestMetaFactoryI25CryptTest_HashRandom_TestED1Ev, symObjAddr: 0x9100, symBinAddr: 0x10000B610, symSize: 0x10 }
  - { offsetInCU: 0x432BF, offset: 0x50A0F, size: 0x8, addend: 0x0, symName: __ZN7testing8internal15TestMetaFactoryI25CryptTest_HashRandom_TestED0Ev, symObjAddr: 0x9110, symBinAddr: 0x10000B620, symSize: 0x10 }
  - { offsetInCU: 0x43355, offset: 0x50AA5, size: 0x8, addend: 0x0, symName: __ZN7testing8internal15TestMetaFactoryI25CryptTest_HashRandom_TestE17CreateTestFactoryEi, symObjAddr: 0x9120, symBinAddr: 0x10000B630, symSize: 0x30 }
  - { offsetInCU: 0x433DB, offset: 0x50B2B, size: 0x8, addend: 0x0, symName: __ZN7testing8internal24ParameterizedTestFactoryI25CryptTest_HashRandom_TestED1Ev, symObjAddr: 0x9150, symBinAddr: 0x10000B660, symSize: 0x10 }
  - { offsetInCU: 0x43407, offset: 0x50B57, size: 0x8, addend: 0x0, symName: __ZN7testing8internal24ParameterizedTestFactoryI25CryptTest_HashRandom_TestED0Ev, symObjAddr: 0x9160, symBinAddr: 0x10000B670, symSize: 0x10 }
  - { offsetInCU: 0x43467, offset: 0x50BB7, size: 0x8, addend: 0x0, symName: __ZN7testing8internal24ParameterizedTestFactoryI25CryptTest_HashRandom_TestE10CreateTestEv, symObjAddr: 0x9170, symBinAddr: 0x10000B680, symSize: 0x60 }
  - { offsetInCU: 0x43B7B, offset: 0x512CB, size: 0x8, addend: 0x0, symName: __ZNKSt3__16vectorIiNS_9allocatorIiEEE20__throw_length_errorB8ue170006Ev, symObjAddr: 0x93D0, symBinAddr: 0x10000B8E0, symSize: 0x10 }
  - { offsetInCU: 0x43BA4, offset: 0x512F4, size: 0x8, addend: 0x0, symName: __ZN7testing8internal30ValuesInIteratorRangeGeneratorIiE8IteratorD1Ev, symObjAddr: 0x93E0, symBinAddr: 0x10000B8F0, symSize: 0x30 }
  - { offsetInCU: 0x43BB0, offset: 0x51300, size: 0x8, addend: 0x0, symName: __ZN7testing8internal30ValuesInIteratorRangeGeneratorIiED0Ev, symObjAddr: 0x9310, symBinAddr: 0x10000B820, symSize: 0x40 }
  - { offsetInCU: 0x43D8B, offset: 0x514DB, size: 0x8, addend: 0x0, symName: __ZN7testing8internal30ValuesInIteratorRangeGeneratorIiED1Ev, symObjAddr: 0x92E0, symBinAddr: 0x10000B7F0, symSize: 0x30 }
  - { offsetInCU: 0x440B0, offset: 0x51800, size: 0x8, addend: 0x0, symName: __ZNK7testing8internal30ValuesInIteratorRangeGeneratorIiE5BeginEv, symObjAddr: 0x9350, symBinAddr: 0x10000B860, symSize: 0x40 }
  - { offsetInCU: 0x4420F, offset: 0x5195F, size: 0x8, addend: 0x0, symName: __ZNK7testing8internal30ValuesInIteratorRangeGeneratorIiE3EndEv, symObjAddr: 0x9390, symBinAddr: 0x10000B8A0, symSize: 0x40 }
  - { offsetInCU: 0x443F9, offset: 0x51B49, size: 0x8, addend: 0x0, symName: __ZN7testing8internal30ValuesInIteratorRangeGeneratorIiE8IteratorD1Ev, symObjAddr: 0x93E0, symBinAddr: 0x10000B8F0, symSize: 0x30 }
  - { offsetInCU: 0x444F4, offset: 0x51C44, size: 0x8, addend: 0x0, symName: __ZN7testing8internal30ValuesInIteratorRangeGeneratorIiE8IteratorD0Ev, symObjAddr: 0x9410, symBinAddr: 0x10000B920, symSize: 0x40 }
  - { offsetInCU: 0x445FA, offset: 0x51D4A, size: 0x8, addend: 0x0, symName: __ZNK7testing8internal30ValuesInIteratorRangeGeneratorIiE8Iterator13BaseGeneratorEv, symObjAddr: 0x9450, symBinAddr: 0x10000B960, symSize: 0x10 }
  - { offsetInCU: 0x4463A, offset: 0x51D8A, size: 0x8, addend: 0x0, symName: __ZN7testing8internal30ValuesInIteratorRangeGeneratorIiE8Iterator7AdvanceEv, symObjAddr: 0x9460, symBinAddr: 0x10000B970, symSize: 0x30 }
  - { offsetInCU: 0x44729, offset: 0x51E79, size: 0x8, addend: 0x0, symName: __ZNK7testing8internal30ValuesInIteratorRangeGeneratorIiE8Iterator5CloneEv, symObjAddr: 0x9490, symBinAddr: 0x10000B9A0, symSize: 0x40 }
  - { offsetInCU: 0x44875, offset: 0x51FC5, size: 0x8, addend: 0x0, symName: __ZNK7testing8internal30ValuesInIteratorRangeGeneratorIiE8Iterator7CurrentEv, symObjAddr: 0x94D0, symBinAddr: 0x10000B9E0, symSize: 0x40 }
  - { offsetInCU: 0x44913, offset: 0x52063, size: 0x8, addend: 0x0, symName: __ZNK7testing8internal30ValuesInIteratorRangeGeneratorIiE8Iterator6EqualsERKNS0_22ParamIteratorInterfaceIiEE, symObjAddr: 0x9510, symBinAddr: 0x10000BA20, symSize: 0x140 }
  - { offsetInCU: 0x44B61, offset: 0x522B1, size: 0x8, addend: 0x0, symName: __ZNSt3__120__shared_ptr_pointerIPN7testing8internal23ParamGeneratorInterfaceIiEENS_10shared_ptrIKS4_E27__shared_ptr_default_deleteIS7_S4_EENS_9allocatorIS4_EEED1Ev, symObjAddr: 0x96F0, symBinAddr: 0x10000BC00, symSize: 0x10 }
  - { offsetInCU: 0x44BBC, offset: 0x5230C, size: 0x8, addend: 0x0, symName: __ZNSt3__120__shared_ptr_pointerIPN7testing8internal23ParamGeneratorInterfaceIiEENS_10shared_ptrIKS4_E27__shared_ptr_default_deleteIS7_S4_EENS_9allocatorIS4_EEED0Ev, symObjAddr: 0x9700, symBinAddr: 0x10000BC10, symSize: 0x20 }
  - { offsetInCU: 0x44C25, offset: 0x52375, size: 0x8, addend: 0x0, symName: __ZNSt3__120__shared_ptr_pointerIPN7testing8internal23ParamGeneratorInterfaceIiEENS_10shared_ptrIKS4_E27__shared_ptr_default_deleteIS7_S4_EENS_9allocatorIS4_EEE16__on_zero_sharedEv, symObjAddr: 0x9720, symBinAddr: 0x10000BC30, symSize: 0x20 }
  - { offsetInCU: 0x44C79, offset: 0x523C9, size: 0x8, addend: 0x0, symName: __ZNKSt3__120__shared_ptr_pointerIPN7testing8internal23ParamGeneratorInterfaceIiEENS_10shared_ptrIKS4_E27__shared_ptr_default_deleteIS7_S4_EENS_9allocatorIS4_EEE13__get_deleterERKSt9type_info, symObjAddr: 0x9740, symBinAddr: 0x10000BC50, symSize: 0x20 }
  - { offsetInCU: 0x44D40, offset: 0x52490, size: 0x8, addend: 0x0, symName: __ZNSt3__120__shared_ptr_pointerIPN7testing8internal23ParamGeneratorInterfaceIiEENS_10shared_ptrIKS4_E27__shared_ptr_default_deleteIS7_S4_EENS_9allocatorIS4_EEE21__on_zero_shared_weakEv, symObjAddr: 0x9760, symBinAddr: 0x10000BC70, symSize: 0x10 }
  - { offsetInCU: 0x4501E, offset: 0x5276E, size: 0x8, addend: 0x0, symName: __ZNKSt3__121__murmur2_or_cityhashImLm64EEclB8ue170006EPKvm, symObjAddr: 0x9CC0, symBinAddr: 0x10000C1D0, symSize: 0x4B0 }
  - { offsetInCU: 0x45E0E, offset: 0x5355E, size: 0x8, addend: 0x0, symName: __ZN7testing8internal26ParameterizedTestSuiteInfoI9CryptTestED1Ev, symObjAddr: 0xA170, symBinAddr: 0x10000C680, symSize: 0x10 }
  - { offsetInCU: 0x45E46, offset: 0x53596, size: 0x8, addend: 0x0, symName: __ZN7testing8internal26ParameterizedTestSuiteInfoI9CryptTestED2Ev, symObjAddr: 0xB070, symBinAddr: 0x10000D580, symSize: 0xF0 }
  - { offsetInCU: 0x46679, offset: 0x53DC9, size: 0x8, addend: 0x0, symName: __ZN7testing8internal26ParameterizedTestSuiteInfoI9CryptTestED0Ev, symObjAddr: 0xA180, symBinAddr: 0x10000C690, symSize: 0x20 }
  - { offsetInCU: 0x466DD, offset: 0x53E2D, size: 0x8, addend: 0x0, symName: __ZNK7testing8internal26ParameterizedTestSuiteInfoI9CryptTestE16GetTestSuiteNameEv, symObjAddr: 0xA1A0, symBinAddr: 0x10000C6B0, symSize: 0x10 }
  - { offsetInCU: 0x46702, offset: 0x53E52, size: 0x8, addend: 0x0, symName: __ZNK7testing8internal26ParameterizedTestSuiteInfoI9CryptTestE18GetTestSuiteTypeIdEv, symObjAddr: 0xA1B0, symBinAddr: 0x10000C6C0, symSize: 0x10 }
  - { offsetInCU: 0x47272, offset: 0x549C2, size: 0x8, addend: 0x0, symName: __ZN7testing8internal26ParameterizedTestSuiteInfoI9CryptTestE13RegisterTestsEv, symObjAddr: 0xA1C0, symBinAddr: 0x10000C6D0, symSize: 0xEB0 }
  - { offsetInCU: 0x4B512, offset: 0x58C62, size: 0x8, addend: 0x0, symName: __ZN7testing8internal26ParameterizedTestSuiteInfoI9CryptTestE16IsValidParamNameERKNSt3__112basic_stringIcNS4_11char_traitsIcEENS4_9allocatorIcEEEE, symObjAddr: 0xB160, symBinAddr: 0x10000D670, symSize: 0xE0 }
  - { offsetInCU: 0x4B766, offset: 0x58EB6, size: 0x8, addend: 0x0, symName: __ZNSt3__16__treeINS_12basic_stringIcNS_11char_traitsIcEENS_9allocatorIcEEEENS_4lessIS6_EENS4_IS6_EEE12__find_equalIS6_EERPNS_16__tree_node_baseIPvEERPNS_15__tree_end_nodeISF_EERKT_, symObjAddr: 0xB240, symBinAddr: 0x10000D750, symSize: 0x120 }
  - { offsetInCU: 0x4B9C7, offset: 0x59117, size: 0x8, addend: 0x0, symName: __ZNSt3__16__treeINS_12basic_stringIcNS_11char_traitsIcEENS_9allocatorIcEEEENS_4lessIS6_EENS4_IS6_EEE7destroyEPNS_11__tree_nodeIS6_PvEE, symObjAddr: 0xB500, symBinAddr: 0x10000DA10, symSize: 0x50 }
  - { offsetInCU: 0x4C3EB, offset: 0x59B3B, size: 0x8, addend: 0x0, symName: __ZNSt3__112__hash_tableINS_17__hash_value_typeINS_12basic_stringIcNS_11char_traitsIcEENS_9allocatorIcEEEEmEENS_22__unordered_map_hasherIS7_S8_NS_4hashIS7_EENS_8equal_toIS7_EELb1EEENS_21__unordered_map_equalIS7_S8_SD_SB_Lb1EEENS5_IS8_EEE8__rehashILb1EEEvm, symObjAddr: 0xB9A0, symBinAddr: 0x10000DEB0, symSize: 0x150 }
  - { offsetInCU: 0x4C4DB, offset: 0x59C2B, size: 0x8, addend: 0x0, symName: __ZNSt3__110unique_ptrINS_11__hash_nodeINS_17__hash_value_typeINS_12basic_stringIcNS_11char_traitsIcEENS_9allocatorIcEEEEmEEPvEENS_22__hash_node_destructorINS6_ISB_EEEEED1B8ue170006Ev, symObjAddr: 0xB960, symBinAddr: 0x10000DE70, symSize: 0x40 }
  - { offsetInCU: 0x4C905, offset: 0x5A055, size: 0x8, addend: 0x0, symName: __ZNSt3__112__hash_tableINS_17__hash_value_typeINS_12basic_stringIcNS_11char_traitsIcEENS_9allocatorIcEEEEmEENS_22__unordered_map_hasherIS7_S8_NS_4hashIS7_EENS_8equal_toIS7_EELb1EEENS_21__unordered_map_equalIS7_S8_SD_SB_Lb1EEENS5_IS8_EEE11__do_rehashILb1EEEvm, symObjAddr: 0xBAF0, symBinAddr: 0x10000E000, symSize: 0x1B0 }
  - { offsetInCU: 0x4D3D4, offset: 0x5AB24, size: 0x8, addend: 0x0, symName: __ZNSt3__16vectorIN7testing8internal26ParameterizedTestSuiteInfoI9CryptTestE17InstantiationInfoENS_9allocatorIS6_EEE24__emplace_back_slow_pathIJNS_12basic_stringIcNS_11char_traitsIcEENS7_IcEEEERPFNS2_14ParamGeneratorIiEEvERPFSF_RKNS1_13TestParamInfoIiEEERPKcRiEEEvDpOT_, symObjAddr: 0xBCB0, symBinAddr: 0x10000E1C0, symSize: 0x230 }
  - { offsetInCU: 0x4DD15, offset: 0x5B465, size: 0x8, addend: 0x0, symName: __ZNKSt3__16vectorIN7testing8internal26ParameterizedTestSuiteInfoI9CryptTestE17InstantiationInfoENS_9allocatorIS6_EEE20__throw_length_errorB8ue170006Ev, symObjAddr: 0xBEE0, symBinAddr: 0x10000E3F0, symSize: 0x10 }
  - { offsetInCU: 0x4DD3E, offset: 0x5B48E, size: 0x8, addend: 0x0, symName: __ZNSt3__110shared_ptrIN7testing8internal26ParameterizedTestSuiteInfoI9CryptTestE8TestInfoEEC1B8ue170006IS6_vEEPT_.cold.1, symObjAddr: 0xBEF0, symBinAddr: 0x100374F10, symSize: 0x48 }
  - { offsetInCU: 0x3F, offset: 0x5B6FE, size: 0x8, addend: 0x0, symName: _ExpectedData, symObjAddr: 0x1BB2D0, symBinAddr: 0x100432730, symSize: 0x0 }
  - { offsetInCU: 0x5A, offset: 0x5B719, size: 0x8, addend: 0x0, symName: __ZN12DataPathTest8NextPortE, symObjAddr: 0x1BB2D8, symBinAddr: 0x100432738, symSize: 0x0 }
  - { offsetInCU: 0x3BE, offset: 0x5BA7D, size: 0x8, addend: 0x0, symName: __ZN7testing8internal12TypeIdHelperI12DataPathTestE6dummy_E, symObjAddr: 0x21070, symBinAddr: 0x10042C8E0, symSize: 0x0 }
  - { offsetInCU: 0xAE6, offset: 0x5C1A5, size: 0x8, addend: 0x0, symName: __ZN7testing8internal18CmpHelperOpFailureIDnP15CXPLAT_DATAPATHEENS_15AssertionResultEPKcS6_RKT_RKT0_S6_, symObjAddr: 0x17DA0, symBinAddr: 0x100025240, symSize: 0x2D0 }
  - { offsetInCU: 0x1D5E, offset: 0x5D41D, size: 0x8, addend: 0x0, symName: __ZN7testing8internal11CmpHelperNEIDnP15CXPLAT_DATAPATHEENS_15AssertionResultEPKcS6_RKT_RKT0_, symObjAddr: 0x1250, symBinAddr: 0x100010010, symSize: 0x40 }
  - { offsetInCU: 0x2372, offset: 0x5DA31, size: 0x8, addend: 0x0, symName: __ZN7testing8internal18CmpHelperEQFailureIP15CXPLAT_DATAPATHS3_EENS_15AssertionResultEPKcS6_RKT_RKT0_, symObjAddr: 0x18170, symBinAddr: 0x100025610, symSize: 0xC0 }
  - { offsetInCU: 0x2A5C, offset: 0x5E11B, size: 0x8, addend: 0x0, symName: __ZN7testing8internal18CmpHelperOpFailureIDnP13CXPLAT_SOCKETEENS_15AssertionResultEPKcS6_RKT_RKT0_S6_, symObjAddr: 0x18230, symBinAddr: 0x1000256D0, symSize: 0x2D0 }
  - { offsetInCU: 0x3CD4, offset: 0x5F393, size: 0x8, addend: 0x0, symName: __ZN7testing8internal18CmpHelperOpFailureIttEENS_15AssertionResultEPKcS4_RKT_RKT0_S4_, symObjAddr: 0x18600, symBinAddr: 0x100025AA0, symSize: 0x2D0 }
  - { offsetInCU: 0x5150, offset: 0x6080F, size: 0x8, addend: 0x0, symName: __ZN7testing8internal18CmpHelperOpFailureIDnP16CXPLAT_SEND_DATAEENS_15AssertionResultEPKcS6_RKT_RKT0_S6_, symObjAddr: 0x16E00, symBinAddr: 0x100024360, symSize: 0x2D0 }
  - { offsetInCU: 0x63C8, offset: 0x61A87, size: 0x8, addend: 0x0, symName: __ZN7testing8internal18CmpHelperOpFailureIDnP11QUIC_BUFFEREENS_15AssertionResultEPKcS6_RKT_RKT0_S6_, symObjAddr: 0x171D0, symBinAddr: 0x100024730, symSize: 0x2D0 }
  - { offsetInCU: 0x7640, offset: 0x62CFF, size: 0x8, addend: 0x0, symName: __ZN7testing8internal11CmpHelperNEIDnP11QUIC_BUFFEREENS_15AssertionResultEPKcS6_RKT_RKT0_, symObjAddr: 0x5090, symBinAddr: 0x100013CA0, symSize: 0x40 }
  - { offsetInCU: 0x7C5B, offset: 0x6331A, size: 0x8, addend: 0x0, symName: __ZN7testing8internal27CheckedDowncastToActualTypeINS0_26ParameterizedTestSuiteInfoI12DataPathTestEENS0_30ParameterizedTestSuiteInfoBaseEEEPT_PT0_, symObjAddr: 0x188E0, symBinAddr: 0x100025D70, symSize: 0xA0 }
  - { offsetInCU: 0x80D1, offset: 0x63790, size: 0x8, addend: 0x0, symName: __ZN7testing8internal18CmpHelperEQFailureItjEENS_15AssertionResultEPKcS4_RKT_RKT0_, symObjAddr: 0x14750, symBinAddr: 0x1000227E0, symSize: 0xC0 }
  - { offsetInCU: 0x8ABE, offset: 0x6417D, size: 0x8, addend: 0x0, symName: __ZN7testing8internal18CmpHelperEQFailureI15CXPLAT_ECN_TYPES2_EENS_15AssertionResultEPKcS5_RKT_RKT0_, symObjAddr: 0x14BA0, symBinAddr: 0x1000228A0, symSize: 0xC0 }
  - { offsetInCU: 0x9100, offset: 0x647BF, size: 0x8, addend: 0x0, symName: __ZN7testing8internal18CmpHelperOpFailureIDnP14UdpRecvContextEENS_15AssertionResultEPKcS6_RKT_RKT0_S6_, symObjAddr: 0x13B70, symBinAddr: 0x100022410, symSize: 0x2D0 }
  - { offsetInCU: 0xB7CE, offset: 0x66E8D, size: 0x8, addend: 0x0, symName: __ZN7testing8internal18CmpHelperOpFailureIPcDnEENS_15AssertionResultEPKcS5_RKT_RKT0_S5_, symObjAddr: 0x179B0, symBinAddr: 0x100024E50, symSize: 0x2D0 }
  - { offsetInCU: 0xE3E8, offset: 0x69AA7, size: 0x8, addend: 0x0, symName: __ZN7testing13PrintToStringIP14UdpRecvContextEENSt3__112basic_stringIcNS3_11char_traitsIcEENS3_9allocatorIcEEEERKT_, symObjAddr: 0x14650, symBinAddr: 0x1000226E0, symSize: 0x100 }
  - { offsetInCU: 0xEAF0, offset: 0x6A1AF, size: 0x8, addend: 0x0, symName: __ZN7testing13PrintToStringI15CXPLAT_ECN_TYPEEENSt3__112basic_stringIcNS2_11char_traitsIcEENS2_9allocatorIcEEEERKT_, symObjAddr: 0x14C60, symBinAddr: 0x100022960, symSize: 0xF0 }
  - { offsetInCU: 0xEE07, offset: 0x6A4C6, size: 0x8, addend: 0x0, symName: __ZN7testing13PrintToStringIP16CXPLAT_SEND_DATAEENSt3__112basic_stringIcNS3_11char_traitsIcEENS3_9allocatorIcEEEERKT_, symObjAddr: 0x170D0, symBinAddr: 0x100024630, symSize: 0x100 }
  - { offsetInCU: 0xF169, offset: 0x6A828, size: 0x8, addend: 0x0, symName: __ZN7testing13PrintToStringIP11QUIC_BUFFEREENSt3__112basic_stringIcNS3_11char_traitsIcEENS3_9allocatorIcEEEERKT_, symObjAddr: 0x174A0, symBinAddr: 0x100024A00, symSize: 0x100 }
  - { offsetInCU: 0xF4CB, offset: 0x6AB8A, size: 0x8, addend: 0x0, symName: __ZN7testing13PrintToStringIPKvEENSt3__112basic_stringIcNS3_11char_traitsIcEENS3_9allocatorIcEEEERKT_, symObjAddr: 0x17C80, symBinAddr: 0x100025120, symSize: 0x100 }
  - { offsetInCU: 0xF82D, offset: 0x6AEEC, size: 0x8, addend: 0x0, symName: __ZN7testing13PrintToStringIP15CXPLAT_DATAPATHEENSt3__112basic_stringIcNS3_11char_traitsIcEENS3_9allocatorIcEEEERKT_, symObjAddr: 0x18070, symBinAddr: 0x100025510, symSize: 0x100 }
  - { offsetInCU: 0xFB8F, offset: 0x6B24E, size: 0x8, addend: 0x0, symName: __ZN7testing13PrintToStringIP13CXPLAT_SOCKETEENSt3__112basic_stringIcNS3_11char_traitsIcEENS3_9allocatorIcEEEERKT_, symObjAddr: 0x18500, symBinAddr: 0x1000259A0, symSize: 0x100 }
  - { offsetInCU: 0x22DDE, offset: 0x7E49D, size: 0x8, addend: 0x0, symName: __ZN12DataPathTest9LocalIPv4E, symObjAddr: 0x1BB2DC, symBinAddr: 0x10043273C, symSize: 0x0 }
  - { offsetInCU: 0x22DF2, offset: 0x7E4B1, size: 0x8, addend: 0x0, symName: __ZN12DataPathTest9LocalIPv6E, symObjAddr: 0x1BB2F8, symBinAddr: 0x100432758, symSize: 0x0 }
  - { offsetInCU: 0x22E06, offset: 0x7E4C5, size: 0x8, addend: 0x0, symName: __ZN12DataPathTest10UnspecIPv4E, symObjAddr: 0x1BB314, symBinAddr: 0x100432774, symSize: 0x0 }
  - { offsetInCU: 0x22E1A, offset: 0x7E4D9, size: 0x8, addend: 0x0, symName: __ZN12DataPathTest10UnspecIPv6E, symObjAddr: 0x1BB330, symBinAddr: 0x100432790, symSize: 0x0 }
  - { offsetInCU: 0x22E2E, offset: 0x7E4ED, size: 0x8, addend: 0x0, symName: __ZN28DataPathTest_Initialize_Test10test_info_E, symObjAddr: 0x1BB350, symBinAddr: 0x1004327B0, symSize: 0x0 }
  - { offsetInCU: 0x230C9, offset: 0x7E788, size: 0x8, addend: 0x0, symName: __ZN35DataPathTest_InitializeInvalid_Test10test_info_E, symObjAddr: 0x1BB358, symBinAddr: 0x1004327B8, symSize: 0x0 }
  - { offsetInCU: 0x231B9, offset: 0x7E878, size: 0x8, addend: 0x0, symName: __ZN25DataPathTest_UdpBind_Test10test_info_E, symObjAddr: 0x1BB360, symBinAddr: 0x1004327C0, symSize: 0x0 }
  - { offsetInCU: 0x232A9, offset: 0x7E968, size: 0x8, addend: 0x0, symName: __ZN27DataPathTest_UdpRebind_Test10test_info_E, symObjAddr: 0x1BB368, symBinAddr: 0x1004327C8, symSize: 0x0 }
  - { offsetInCU: 0x23399, offset: 0x7EA58, size: 0x8, addend: 0x0, symName: __ZN24DataPathTest_UdpQeo_Test10test_info_E, symObjAddr: 0x1BB370, symBinAddr: 0x1004327D0, symSize: 0x0 }
  - { offsetInCU: 0x23489, offset: 0x7EB48, size: 0x8, addend: 0x0, symName: __ZN25DataPathTest_UdpData_Test24gtest_registering_dummy_E, symObjAddr: 0x1BB378, symBinAddr: 0x1004327D8, symSize: 0x0 }
  - { offsetInCU: 0x2352C, offset: 0x7EBEB, size: 0x8, addend: 0x0, symName: __ZN32DataPathTest_UdpDataPolling_Test24gtest_registering_dummy_E, symObjAddr: 0x1BB37C, symBinAddr: 0x1004327DC, symSize: 0x0 }
  - { offsetInCU: 0x235BC, offset: 0x7EC7B, size: 0x8, addend: 0x0, symName: __ZN31DataPathTest_UdpDataRebind_Test24gtest_registering_dummy_E, symObjAddr: 0x1BB380, symBinAddr: 0x1004327E0, symSize: 0x0 }
  - { offsetInCU: 0x2364C, offset: 0x7ED0B, size: 0x8, addend: 0x0, symName: __ZN29DataPathTest_UdpDataECT0_Test24gtest_registering_dummy_E, symObjAddr: 0x1BB384, symBinAddr: 0x1004327E4, symSize: 0x0 }
  - { offsetInCU: 0x236DC, offset: 0x7ED9B, size: 0x8, addend: 0x0, symName: __ZN38DataPathTest_UdpShareClientSocket_Test24gtest_registering_dummy_E, symObjAddr: 0x1BB388, symBinAddr: 0x1004327E8, symSize: 0x0 }
  - { offsetInCU: 0x2376C, offset: 0x7EE2B, size: 0x8, addend: 0x0, symName: __ZN35DataPathTest_MultiBindListener_Test24gtest_registering_dummy_E, symObjAddr: 0x1BB38C, symBinAddr: 0x1004327EC, symSize: 0x0 }
  - { offsetInCU: 0x237FC, offset: 0x7EEBB, size: 0x8, addend: 0x0, symName: __ZN29DataPathTest_TcpListener_Test10test_info_E, symObjAddr: 0x1BB390, symBinAddr: 0x1004327F0, symSize: 0x0 }
  - { offsetInCU: 0x238EC, offset: 0x7EFAB, size: 0x8, addend: 0x0, symName: __ZN28DataPathTest_TcpConnect_Test24gtest_registering_dummy_E, symObjAddr: 0x1BB398, symBinAddr: 0x1004327F8, symSize: 0x0 }
  - { offsetInCU: 0x2397C, offset: 0x7F03B, size: 0x8, addend: 0x0, symName: __ZN31DataPathTest_TcpDisconnect_Test24gtest_registering_dummy_E, symObjAddr: 0x1BB39C, symBinAddr: 0x1004327FC, symSize: 0x0 }
  - { offsetInCU: 0x23A0C, offset: 0x7F0CB, size: 0x8, addend: 0x0, symName: __ZN31DataPathTest_TcpDataClient_Test24gtest_registering_dummy_E, symObjAddr: 0x1BB3A0, symBinAddr: 0x100432800, symSize: 0x0 }
  - { offsetInCU: 0x23A9C, offset: 0x7F15B, size: 0x8, addend: 0x0, symName: __ZN31DataPathTest_TcpDataServer_Test24gtest_registering_dummy_E, symObjAddr: 0x1BB3A4, symBinAddr: 0x100432804, symSize: 0x0 }
  - { offsetInCU: 0x26715, offset: 0x81DD4, size: 0x8, addend: 0x0, symName: __ZN7testing8internal16SuiteApiResolverI12DataPathTestE19GetSetUpCaseOrSuiteEPKci, symObjAddr: 0x0, symBinAddr: 0x10000EE00, symSize: 0xD0 }
  - { offsetInCU: 0x268BA, offset: 0x81F79, size: 0x8, addend: 0x0, symName: __ZN7testing8internal16SuiteApiResolverI12DataPathTestE22GetTearDownCaseOrSuiteEPKci, symObjAddr: 0xD0, symBinAddr: 0x10000EED0, symSize: 0xD0 }
  - { offsetInCU: 0x27183, offset: 0x82842, size: 0x8, addend: 0x0, symName: __ZN28DataPathTest_Initialize_Test8TestBodyEv, symObjAddr: 0x1A0, symBinAddr: 0x10000EFA0, symSize: 0x1020 }
  - { offsetInCU: 0x2BC91, offset: 0x87350, size: 0x8, addend: 0x0, symName: __ZN14CxPlatDataPathC1EPK29CXPLAT_UDP_DATAPATH_CALLBACKSPK29CXPLAT_TCP_DATAPATH_CALLBACKSjP21QUIC_EXECUTION_CONFIG, symObjAddr: 0x11C0, symBinAddr: 0x10000FFC0, symSize: 0x50 }
  - { offsetInCU: 0x2BD44, offset: 0x87403, size: 0x8, addend: 0x0, symName: __ZN14CxPlatDataPathD1Ev, symObjAddr: 0x1290, symBinAddr: 0x100010050, symSize: 0x20 }
  - { offsetInCU: 0x2BE26, offset: 0x874E5, size: 0x8, addend: 0x0, symName: __ZN35DataPathTest_InitializeInvalid_Test8TestBodyEv, symObjAddr: 0x12B0, symBinAddr: 0x100010070, symSize: 0x610 }
  - { offsetInCU: 0x2D7A6, offset: 0x88E65, size: 0x8, addend: 0x0, symName: __ZN12DataPathTest24EmptyUnreachableCallbackEP13CXPLAT_SOCKETPvPK9QUIC_ADDR, symObjAddr: 0x18C0, symBinAddr: 0x100010680, symSize: 0x10 }
  - { offsetInCU: 0x2D7DC, offset: 0x88E9B, size: 0x8, addend: 0x0, symName: __ZN12DataPathTest20EmptyReceiveCallbackEP13CXPLAT_SOCKETPvP16CXPLAT_RECV_DATA, symObjAddr: 0x18D0, symBinAddr: 0x100010690, symSize: 0x10 }
  - { offsetInCU: 0x2DB41, offset: 0x89200, size: 0x8, addend: 0x0, symName: __ZN25DataPathTest_UdpBind_Test8TestBodyEv, symObjAddr: 0x18E0, symBinAddr: 0x1000106A0, symSize: 0x710 }
  - { offsetInCU: 0x2F8C7, offset: 0x8AF86, size: 0x8, addend: 0x0, symName: __ZN12CxPlatSocket9CreateUdpER14CxPlatDataPathPK9QUIC_ADDRS4_Pvj, symObjAddr: 0x4D80, symBinAddr: 0x100013990, symSize: 0x200 }
  - { offsetInCU: 0x2FF56, offset: 0x8B615, size: 0x8, addend: 0x0, symName: __ZN12CxPlatSocketD1Ev, symObjAddr: 0x1FF0, symBinAddr: 0x100010DB0, symSize: 0x20 }
  - { offsetInCU: 0x2FFA0, offset: 0x8B65F, size: 0x8, addend: 0x0, symName: __ZN27DataPathTest_UdpRebind_Test8TestBodyEv, symObjAddr: 0x2010, symBinAddr: 0x100010DD0, symSize: 0xBE0 }
  - { offsetInCU: 0x32F93, offset: 0x8E652, size: 0x8, addend: 0x0, symName: __ZN24DataPathTest_UdpQeo_Test8TestBodyEv, symObjAddr: 0x2BF0, symBinAddr: 0x1000119B0, symSize: 0xAB0 }
  - { offsetInCU: 0x354C5, offset: 0x90B84, size: 0x8, addend: 0x0, symName: __ZN25DataPathTest_UdpData_Test13AddToRegistryEv, symObjAddr: 0x3850, symBinAddr: 0x100012460, symSize: 0x200 }
  - { offsetInCU: 0x36588, offset: 0x91C47, size: 0x8, addend: 0x0, symName: __ZN7testing8internal30ParameterizedTestSuiteRegistry25GetTestSuitePatternHolderI12DataPathTestEEPNS0_26ParameterizedTestSuiteInfoIT_EENSt3__112basic_stringIcNS8_11char_traitsIcEENS8_9allocatorIcEEEENS0_12CodeLocationE, symObjAddr: 0x12490, symBinAddr: 0x100020EB0, symSize: 0x340 }
  - { offsetInCU: 0x37623, offset: 0x92CE2, size: 0x8, addend: 0x0, symName: __ZN7testing8internal26ParameterizedTestSuiteInfoI12DataPathTestE14AddTestPatternEPKcS5_PNS0_19TestMetaFactoryBaseIiEENS0_12CodeLocationE, symObjAddr: 0x150D0, symBinAddr: 0x100022DD0, symSize: 0x200 }
  - { offsetInCU: 0x38090, offset: 0x9374F, size: 0x8, addend: 0x0, symName: __ZN25DataPathTest_UdpData_Test8TestBodyEv, symObjAddr: 0x3A50, symBinAddr: 0x100012660, symSize: 0x1220 }
  - { offsetInCU: 0x3BC39, offset: 0x972F8, size: 0x8, addend: 0x0, symName: __ZN12DataPathTest16GetNewUnspecAddrEb, symObjAddr: 0x4C70, symBinAddr: 0x100013880, symSize: 0x110 }
  - { offsetInCU: 0x3BEFA, offset: 0x975B9, size: 0x8, addend: 0x0, symName: __ZN12DataPathTest15GetNewLocalAddrEb, symObjAddr: 0x4F80, symBinAddr: 0x100013B90, symSize: 0x110 }
  - { offsetInCU: 0x3C1BB, offset: 0x9787A, size: 0x8, addend: 0x0, symName: __ZN14UdpRecvContextD2Ev, symObjAddr: 0x159B0, symBinAddr: 0x1000234B0, symSize: 0x90 }
  - { offsetInCU: 0x3C859, offset: 0x97F18, size: 0x8, addend: 0x0, symName: __ZNK12CxPlatSocket4SendEP16CXPLAT_SEND_DATA, symObjAddr: 0x50D0, symBinAddr: 0x100013CE0, symSize: 0x20 }
  - { offsetInCU: 0x3C9B3, offset: 0x98072, size: 0x8, addend: 0x0, symName: __ZN32DataPathTest_UdpDataPolling_Test13AddToRegistryEv, symObjAddr: 0x5250, symBinAddr: 0x100013D00, symSize: 0x200 }
  - { offsetInCU: 0x3D9BD, offset: 0x9907C, size: 0x8, addend: 0x0, symName: __ZN32DataPathTest_UdpDataPolling_Test8TestBodyEv, symObjAddr: 0x5450, symBinAddr: 0x100013F00, symSize: 0x1230 }
  - { offsetInCU: 0x4142C, offset: 0x9CAEB, size: 0x8, addend: 0x0, symName: __ZN31DataPathTest_UdpDataRebind_Test13AddToRegistryEv, symObjAddr: 0x6680, symBinAddr: 0x100015130, symSize: 0x200 }
  - { offsetInCU: 0x4245E, offset: 0x9DB1D, size: 0x8, addend: 0x0, symName: __ZN31DataPathTest_UdpDataRebind_Test8TestBodyEv, symObjAddr: 0x6880, symBinAddr: 0x100015330, symSize: 0x1AA0 }
  - { offsetInCU: 0x47722, offset: 0xA2DE1, size: 0x8, addend: 0x0, symName: __ZN29DataPathTest_UdpDataECT0_Test13AddToRegistryEv, symObjAddr: 0x83B0, symBinAddr: 0x100016DD0, symSize: 0x200 }
  - { offsetInCU: 0x4872C, offset: 0xA3DEB, size: 0x8, addend: 0x0, symName: __ZN29DataPathTest_UdpDataECT0_Test8TestBodyEv, symObjAddr: 0x85B0, symBinAddr: 0x100016FD0, symSize: 0x1220 }
  - { offsetInCU: 0x4C18A, offset: 0xA7849, size: 0x8, addend: 0x0, symName: __ZN38DataPathTest_UdpShareClientSocket_Test13AddToRegistryEv, symObjAddr: 0x97D0, symBinAddr: 0x1000181F0, symSize: 0x200 }
  - { offsetInCU: 0x4D215, offset: 0xA88D4, size: 0x8, addend: 0x0, symName: __ZN38DataPathTest_UdpShareClientSocket_Test8TestBodyEv, symObjAddr: 0x99D0, symBinAddr: 0x1000183F0, symSize: 0x1940 }
  - { offsetInCU: 0x520E8, offset: 0xAD7A7, size: 0x8, addend: 0x0, symName: __ZN35DataPathTest_MultiBindListener_Test13AddToRegistryEv, symObjAddr: 0xB310, symBinAddr: 0x100019D30, symSize: 0x200 }
  - { offsetInCU: 0x530F2, offset: 0xAE7B1, size: 0x8, addend: 0x0, symName: __ZN35DataPathTest_MultiBindListener_Test8TestBodyEv, symObjAddr: 0xB510, symBinAddr: 0x100019F30, symSize: 0x640 }
  - { offsetInCU: 0x54628, offset: 0xAFCE7, size: 0x8, addend: 0x0, symName: __ZN29DataPathTest_TcpListener_Test8TestBodyEv, symObjAddr: 0xBB50, symBinAddr: 0x10001A570, symSize: 0x9B0 }
  - { offsetInCU: 0x56740, offset: 0xB1DFF, size: 0x8, addend: 0x0, symName: __ZN18TcpListenerContextC2Ev, symObjAddr: 0x16160, symBinAddr: 0x100023C60, symSize: 0x80 }
  - { offsetInCU: 0x5687F, offset: 0xB1F3E, size: 0x8, addend: 0x0, symName: __ZN18TcpListenerContextD2Ev, symObjAddr: 0x161E0, symBinAddr: 0x100023CE0, symSize: 0xB0 }
  - { offsetInCU: 0x569EF, offset: 0xB20AE, size: 0x8, addend: 0x0, symName: __ZN28DataPathTest_TcpConnect_Test13AddToRegistryEv, symObjAddr: 0xC500, symBinAddr: 0x10001AF20, symSize: 0x200 }
  - { offsetInCU: 0x57AA3, offset: 0xB3162, size: 0x8, addend: 0x0, symName: __ZN28DataPathTest_TcpConnect_Test8TestBodyEv, symObjAddr: 0xC700, symBinAddr: 0x10001B120, symSize: 0x13E0 }
  - { offsetInCU: 0x5B4BB, offset: 0xB6B7A, size: 0x8, addend: 0x0, symName: __ZN16TcpClientContextD2Ev, symObjAddr: 0x163D0, symBinAddr: 0x100023ED0, symSize: 0xD0 }
  - { offsetInCU: 0x5B65C, offset: 0xB6D1B, size: 0x8, addend: 0x0, symName: __ZN31DataPathTest_TcpDisconnect_Test13AddToRegistryEv, symObjAddr: 0xDAE0, symBinAddr: 0x10001C500, symSize: 0x200 }
  - { offsetInCU: 0x5C666, offset: 0xB7D25, size: 0x8, addend: 0x0, symName: __ZN31DataPathTest_TcpDisconnect_Test8TestBodyEv, symObjAddr: 0xDCE0, symBinAddr: 0x10001C700, symSize: 0x13F0 }
  - { offsetInCU: 0x5FD75, offset: 0xBB434, size: 0x8, addend: 0x0, symName: __ZN31DataPathTest_TcpDataClient_Test13AddToRegistryEv, symObjAddr: 0xF0D0, symBinAddr: 0x10001DAF0, symSize: 0x200 }
  - { offsetInCU: 0x60D7F, offset: 0xBC43E, size: 0x8, addend: 0x0, symName: __ZN31DataPathTest_TcpDataClient_Test8TestBodyEv, symObjAddr: 0xF2D0, symBinAddr: 0x10001DCF0, symSize: 0x17B0 }
  - { offsetInCU: 0x64E62, offset: 0xC0521, size: 0x8, addend: 0x0, symName: __ZN31DataPathTest_TcpDataServer_Test13AddToRegistryEv, symObjAddr: 0x10A80, symBinAddr: 0x10001F4A0, symSize: 0x200 }
  - { offsetInCU: 0x65E6C, offset: 0xC152B, size: 0x8, addend: 0x0, symName: __ZN31DataPathTest_TcpDataServer_Test8TestBodyEv, symObjAddr: 0x10C80, symBinAddr: 0x10001F6A0, symSize: 0x1810 }
  - { offsetInCU: 0x6AC21, offset: 0xC62E0, size: 0x8, addend: 0x0, symName: __ZNSt3__16vectorIN7testing8internal26ParameterizedTestSuiteInfoI12DataPathTestE17InstantiationInfoENS_9allocatorIS6_EEE24__emplace_back_slow_pathIJNS_12basic_stringIcNS_11char_traitsIcEENS7_IcEEEERPFNS2_14ParamGeneratorIiEEvERPFSF_RKNS1_13TestParamInfoIiEEERPKcRiEEEvDpOT_, symObjAddr: 0x1ABA0, symBinAddr: 0x100026EE0, symSize: 0x230 }
  - { offsetInCU: 0x6AEF8, offset: 0xC65B7, size: 0x8, addend: 0x0, symName: __ZL45gtest_DataPathTestDataPathTest_EvalGenerator_v, symObjAddr: 0x127D0, symBinAddr: 0x1000211F0, symSize: 0x60 }
  - { offsetInCU: 0x6B440, offset: 0xC6AFF, size: 0x8, addend: 0x0, symName: __ZL48gtest_DataPathTestDataPathTest_EvalGenerateName_RKN7testing13TestParamInfoIiEE, symObjAddr: 0x12830, symBinAddr: 0x100021250, symSize: 0x30 }
  - { offsetInCU: 0x6B533, offset: 0xC6BF2, size: 0x8, addend: 0x0, symName: __ZN28DataPathTest_Initialize_TestD1Ev, symObjAddr: 0x12860, symBinAddr: 0x100021280, symSize: 0x10 }
  - { offsetInCU: 0x6B5CA, offset: 0xC6C89, size: 0x8, addend: 0x0, symName: __ZN28DataPathTest_Initialize_TestD0Ev, symObjAddr: 0x12870, symBinAddr: 0x100021290, symSize: 0x20 }
  - { offsetInCU: 0x6B668, offset: 0xC6D27, size: 0x8, addend: 0x0, symName: __ZThn16_N28DataPathTest_Initialize_TestD1Ev, symObjAddr: 0x128A0, symBinAddr: 0x1000212B0, symSize: 0x10 }
  - { offsetInCU: 0x6B713, offset: 0xC6DD2, size: 0x8, addend: 0x0, symName: __ZThn16_N28DataPathTest_Initialize_TestD0Ev, symObjAddr: 0x128B0, symBinAddr: 0x1000212C0, symSize: 0x30 }
  - { offsetInCU: 0x6B7E4, offset: 0xC6EA3, size: 0x8, addend: 0x0, symName: __ZN35DataPathTest_InitializeInvalid_TestD1Ev, symObjAddr: 0x128E0, symBinAddr: 0x1000212F0, symSize: 0x10 }
  - { offsetInCU: 0x6B87B, offset: 0xC6F3A, size: 0x8, addend: 0x0, symName: __ZN35DataPathTest_InitializeInvalid_TestD0Ev, symObjAddr: 0x128F0, symBinAddr: 0x100021300, symSize: 0x20 }
  - { offsetInCU: 0x6B919, offset: 0xC6FD8, size: 0x8, addend: 0x0, symName: __ZThn16_N35DataPathTest_InitializeInvalid_TestD1Ev, symObjAddr: 0x12910, symBinAddr: 0x100021320, symSize: 0x10 }
  - { offsetInCU: 0x6B9C4, offset: 0xC7083, size: 0x8, addend: 0x0, symName: __ZThn16_N35DataPathTest_InitializeInvalid_TestD0Ev, symObjAddr: 0x12920, symBinAddr: 0x100021330, symSize: 0x30 }
  - { offsetInCU: 0x6BA95, offset: 0xC7154, size: 0x8, addend: 0x0, symName: __ZN25DataPathTest_UdpBind_TestD1Ev, symObjAddr: 0x12950, symBinAddr: 0x100021360, symSize: 0x10 }
  - { offsetInCU: 0x6BB2C, offset: 0xC71EB, size: 0x8, addend: 0x0, symName: __ZN25DataPathTest_UdpBind_TestD0Ev, symObjAddr: 0x12960, symBinAddr: 0x100021370, symSize: 0x20 }
  - { offsetInCU: 0x6BBCA, offset: 0xC7289, size: 0x8, addend: 0x0, symName: __ZThn16_N25DataPathTest_UdpBind_TestD1Ev, symObjAddr: 0x12980, symBinAddr: 0x100021390, symSize: 0x10 }
  - { offsetInCU: 0x6BC75, offset: 0xC7334, size: 0x8, addend: 0x0, symName: __ZThn16_N25DataPathTest_UdpBind_TestD0Ev, symObjAddr: 0x12990, symBinAddr: 0x1000213A0, symSize: 0x30 }
  - { offsetInCU: 0x6BD46, offset: 0xC7405, size: 0x8, addend: 0x0, symName: __ZN27DataPathTest_UdpRebind_TestD1Ev, symObjAddr: 0x129C0, symBinAddr: 0x1000213D0, symSize: 0x10 }
  - { offsetInCU: 0x6BDDD, offset: 0xC749C, size: 0x8, addend: 0x0, symName: __ZN27DataPathTest_UdpRebind_TestD0Ev, symObjAddr: 0x129D0, symBinAddr: 0x1000213E0, symSize: 0x20 }
  - { offsetInCU: 0x6BE7B, offset: 0xC753A, size: 0x8, addend: 0x0, symName: __ZThn16_N27DataPathTest_UdpRebind_TestD1Ev, symObjAddr: 0x129F0, symBinAddr: 0x100021400, symSize: 0x10 }
  - { offsetInCU: 0x6BF26, offset: 0xC75E5, size: 0x8, addend: 0x0, symName: __ZThn16_N27DataPathTest_UdpRebind_TestD0Ev, symObjAddr: 0x12A00, symBinAddr: 0x100021410, symSize: 0x30 }
  - { offsetInCU: 0x6BFF7, offset: 0xC76B6, size: 0x8, addend: 0x0, symName: __ZN24DataPathTest_UdpQeo_TestD1Ev, symObjAddr: 0x12A30, symBinAddr: 0x100021440, symSize: 0x10 }
  - { offsetInCU: 0x6C08E, offset: 0xC774D, size: 0x8, addend: 0x0, symName: __ZN24DataPathTest_UdpQeo_TestD0Ev, symObjAddr: 0x12A40, symBinAddr: 0x100021450, symSize: 0x20 }
  - { offsetInCU: 0x6C12C, offset: 0xC77EB, size: 0x8, addend: 0x0, symName: __ZThn16_N24DataPathTest_UdpQeo_TestD1Ev, symObjAddr: 0x12A60, symBinAddr: 0x100021470, symSize: 0x10 }
  - { offsetInCU: 0x6C1D7, offset: 0xC7896, size: 0x8, addend: 0x0, symName: __ZThn16_N24DataPathTest_UdpQeo_TestD0Ev, symObjAddr: 0x12A70, symBinAddr: 0x100021480, symSize: 0x30 }
  - { offsetInCU: 0x6C2AB, offset: 0xC796A, size: 0x8, addend: 0x0, symName: __ZN25DataPathTest_UdpData_TestD1Ev, symObjAddr: 0x12AA0, symBinAddr: 0x1000214B0, symSize: 0x10 }
  - { offsetInCU: 0x6C345, offset: 0xC7A04, size: 0x8, addend: 0x0, symName: __ZN25DataPathTest_UdpData_TestD0Ev, symObjAddr: 0x12AB0, symBinAddr: 0x1000214C0, symSize: 0x20 }
  - { offsetInCU: 0x6C3E3, offset: 0xC7AA2, size: 0x8, addend: 0x0, symName: __ZThn16_N25DataPathTest_UdpData_TestD1Ev, symObjAddr: 0x12AD0, symBinAddr: 0x1000214E0, symSize: 0x10 }
  - { offsetInCU: 0x6C491, offset: 0xC7B50, size: 0x8, addend: 0x0, symName: __ZThn16_N25DataPathTest_UdpData_TestD0Ev, symObjAddr: 0x12AE0, symBinAddr: 0x1000214F0, symSize: 0x30 }
  - { offsetInCU: 0x6C565, offset: 0xC7C24, size: 0x8, addend: 0x0, symName: __ZN32DataPathTest_UdpDataPolling_TestD1Ev, symObjAddr: 0x12B10, symBinAddr: 0x100021520, symSize: 0x10 }
  - { offsetInCU: 0x6C5FF, offset: 0xC7CBE, size: 0x8, addend: 0x0, symName: __ZN32DataPathTest_UdpDataPolling_TestD0Ev, symObjAddr: 0x12B20, symBinAddr: 0x100021530, symSize: 0x20 }
  - { offsetInCU: 0x6C69D, offset: 0xC7D5C, size: 0x8, addend: 0x0, symName: __ZThn16_N32DataPathTest_UdpDataPolling_TestD1Ev, symObjAddr: 0x12B40, symBinAddr: 0x100021550, symSize: 0x10 }
  - { offsetInCU: 0x6C74B, offset: 0xC7E0A, size: 0x8, addend: 0x0, symName: __ZThn16_N32DataPathTest_UdpDataPolling_TestD0Ev, symObjAddr: 0x12B50, symBinAddr: 0x100021560, symSize: 0x30 }
  - { offsetInCU: 0x6C81F, offset: 0xC7EDE, size: 0x8, addend: 0x0, symName: __ZN31DataPathTest_UdpDataRebind_TestD1Ev, symObjAddr: 0x12B80, symBinAddr: 0x100021590, symSize: 0x10 }
  - { offsetInCU: 0x6C8B9, offset: 0xC7F78, size: 0x8, addend: 0x0, symName: __ZN31DataPathTest_UdpDataRebind_TestD0Ev, symObjAddr: 0x12B90, symBinAddr: 0x1000215A0, symSize: 0x20 }
  - { offsetInCU: 0x6C957, offset: 0xC8016, size: 0x8, addend: 0x0, symName: __ZThn16_N31DataPathTest_UdpDataRebind_TestD1Ev, symObjAddr: 0x12BB0, symBinAddr: 0x1000215C0, symSize: 0x10 }
  - { offsetInCU: 0x6CA05, offset: 0xC80C4, size: 0x8, addend: 0x0, symName: __ZThn16_N31DataPathTest_UdpDataRebind_TestD0Ev, symObjAddr: 0x12BC0, symBinAddr: 0x1000215D0, symSize: 0x30 }
  - { offsetInCU: 0x6CAD9, offset: 0xC8198, size: 0x8, addend: 0x0, symName: __ZN29DataPathTest_UdpDataECT0_TestD1Ev, symObjAddr: 0x12BF0, symBinAddr: 0x100021600, symSize: 0x10 }
  - { offsetInCU: 0x6CB73, offset: 0xC8232, size: 0x8, addend: 0x0, symName: __ZN29DataPathTest_UdpDataECT0_TestD0Ev, symObjAddr: 0x12C00, symBinAddr: 0x100021610, symSize: 0x20 }
  - { offsetInCU: 0x6CC11, offset: 0xC82D0, size: 0x8, addend: 0x0, symName: __ZThn16_N29DataPathTest_UdpDataECT0_TestD1Ev, symObjAddr: 0x12C20, symBinAddr: 0x100021630, symSize: 0x10 }
  - { offsetInCU: 0x6CCBF, offset: 0xC837E, size: 0x8, addend: 0x0, symName: __ZThn16_N29DataPathTest_UdpDataECT0_TestD0Ev, symObjAddr: 0x12C30, symBinAddr: 0x100021640, symSize: 0x30 }
  - { offsetInCU: 0x6CD93, offset: 0xC8452, size: 0x8, addend: 0x0, symName: __ZN38DataPathTest_UdpShareClientSocket_TestD1Ev, symObjAddr: 0x12C60, symBinAddr: 0x100021670, symSize: 0x10 }
  - { offsetInCU: 0x6CE2D, offset: 0xC84EC, size: 0x8, addend: 0x0, symName: __ZN38DataPathTest_UdpShareClientSocket_TestD0Ev, symObjAddr: 0x12C70, symBinAddr: 0x100021680, symSize: 0x20 }
  - { offsetInCU: 0x6CECB, offset: 0xC858A, size: 0x8, addend: 0x0, symName: __ZThn16_N38DataPathTest_UdpShareClientSocket_TestD1Ev, symObjAddr: 0x12C90, symBinAddr: 0x1000216A0, symSize: 0x10 }
  - { offsetInCU: 0x6CF79, offset: 0xC8638, size: 0x8, addend: 0x0, symName: __ZThn16_N38DataPathTest_UdpShareClientSocket_TestD0Ev, symObjAddr: 0x12CA0, symBinAddr: 0x1000216B0, symSize: 0x30 }
  - { offsetInCU: 0x6D04D, offset: 0xC870C, size: 0x8, addend: 0x0, symName: __ZN35DataPathTest_MultiBindListener_TestD1Ev, symObjAddr: 0x12CD0, symBinAddr: 0x1000216E0, symSize: 0x10 }
  - { offsetInCU: 0x6D0E7, offset: 0xC87A6, size: 0x8, addend: 0x0, symName: __ZN35DataPathTest_MultiBindListener_TestD0Ev, symObjAddr: 0x12CE0, symBinAddr: 0x1000216F0, symSize: 0x20 }
  - { offsetInCU: 0x6D185, offset: 0xC8844, size: 0x8, addend: 0x0, symName: __ZThn16_N35DataPathTest_MultiBindListener_TestD1Ev, symObjAddr: 0x12D00, symBinAddr: 0x100021710, symSize: 0x10 }
  - { offsetInCU: 0x6D233, offset: 0xC88F2, size: 0x8, addend: 0x0, symName: __ZThn16_N35DataPathTest_MultiBindListener_TestD0Ev, symObjAddr: 0x12D10, symBinAddr: 0x100021720, symSize: 0x30 }
  - { offsetInCU: 0x6D304, offset: 0xC89C3, size: 0x8, addend: 0x0, symName: __ZN29DataPathTest_TcpListener_TestD1Ev, symObjAddr: 0x12D40, symBinAddr: 0x100021750, symSize: 0x10 }
  - { offsetInCU: 0x6D39B, offset: 0xC8A5A, size: 0x8, addend: 0x0, symName: __ZN29DataPathTest_TcpListener_TestD0Ev, symObjAddr: 0x12D50, symBinAddr: 0x100021760, symSize: 0x20 }
  - { offsetInCU: 0x6D439, offset: 0xC8AF8, size: 0x8, addend: 0x0, symName: __ZThn16_N29DataPathTest_TcpListener_TestD1Ev, symObjAddr: 0x12D70, symBinAddr: 0x100021780, symSize: 0x10 }
  - { offsetInCU: 0x6D4E4, offset: 0xC8BA3, size: 0x8, addend: 0x0, symName: __ZThn16_N29DataPathTest_TcpListener_TestD0Ev, symObjAddr: 0x12D80, symBinAddr: 0x100021790, symSize: 0x30 }
  - { offsetInCU: 0x6D5B8, offset: 0xC8C77, size: 0x8, addend: 0x0, symName: __ZN28DataPathTest_TcpConnect_TestD1Ev, symObjAddr: 0x12DB0, symBinAddr: 0x1000217C0, symSize: 0x10 }
  - { offsetInCU: 0x6D652, offset: 0xC8D11, size: 0x8, addend: 0x0, symName: __ZN28DataPathTest_TcpConnect_TestD0Ev, symObjAddr: 0x12DC0, symBinAddr: 0x1000217D0, symSize: 0x20 }
  - { offsetInCU: 0x6D6F0, offset: 0xC8DAF, size: 0x8, addend: 0x0, symName: __ZThn16_N28DataPathTest_TcpConnect_TestD1Ev, symObjAddr: 0x12DE0, symBinAddr: 0x1000217F0, symSize: 0x10 }
  - { offsetInCU: 0x6D79E, offset: 0xC8E5D, size: 0x8, addend: 0x0, symName: __ZThn16_N28DataPathTest_TcpConnect_TestD0Ev, symObjAddr: 0x12DF0, symBinAddr: 0x100021800, symSize: 0x30 }
  - { offsetInCU: 0x6D872, offset: 0xC8F31, size: 0x8, addend: 0x0, symName: __ZN31DataPathTest_TcpDisconnect_TestD1Ev, symObjAddr: 0x12E20, symBinAddr: 0x100021830, symSize: 0x10 }
  - { offsetInCU: 0x6D90C, offset: 0xC8FCB, size: 0x8, addend: 0x0, symName: __ZN31DataPathTest_TcpDisconnect_TestD0Ev, symObjAddr: 0x12E30, symBinAddr: 0x100021840, symSize: 0x20 }
  - { offsetInCU: 0x6D9AA, offset: 0xC9069, size: 0x8, addend: 0x0, symName: __ZThn16_N31DataPathTest_TcpDisconnect_TestD1Ev, symObjAddr: 0x12E50, symBinAddr: 0x100021860, symSize: 0x10 }
  - { offsetInCU: 0x6DA58, offset: 0xC9117, size: 0x8, addend: 0x0, symName: __ZThn16_N31DataPathTest_TcpDisconnect_TestD0Ev, symObjAddr: 0x12E60, symBinAddr: 0x100021870, symSize: 0x30 }
  - { offsetInCU: 0x6DB2C, offset: 0xC91EB, size: 0x8, addend: 0x0, symName: __ZN31DataPathTest_TcpDataClient_TestD1Ev, symObjAddr: 0x12E90, symBinAddr: 0x1000218A0, symSize: 0x10 }
  - { offsetInCU: 0x6DBC6, offset: 0xC9285, size: 0x8, addend: 0x0, symName: __ZN31DataPathTest_TcpDataClient_TestD0Ev, symObjAddr: 0x12EA0, symBinAddr: 0x1000218B0, symSize: 0x20 }
  - { offsetInCU: 0x6DC64, offset: 0xC9323, size: 0x8, addend: 0x0, symName: __ZThn16_N31DataPathTest_TcpDataClient_TestD1Ev, symObjAddr: 0x12EC0, symBinAddr: 0x1000218D0, symSize: 0x10 }
  - { offsetInCU: 0x6DD12, offset: 0xC93D1, size: 0x8, addend: 0x0, symName: __ZThn16_N31DataPathTest_TcpDataClient_TestD0Ev, symObjAddr: 0x12ED0, symBinAddr: 0x1000218E0, symSize: 0x30 }
  - { offsetInCU: 0x6DDE6, offset: 0xC94A5, size: 0x8, addend: 0x0, symName: __ZN31DataPathTest_TcpDataServer_TestD1Ev, symObjAddr: 0x12F00, symBinAddr: 0x100021910, symSize: 0x10 }
  - { offsetInCU: 0x6DE80, offset: 0xC953F, size: 0x8, addend: 0x0, symName: __ZN31DataPathTest_TcpDataServer_TestD0Ev, symObjAddr: 0x12F10, symBinAddr: 0x100021920, symSize: 0x20 }
  - { offsetInCU: 0x6DF1E, offset: 0xC95DD, size: 0x8, addend: 0x0, symName: __ZThn16_N31DataPathTest_TcpDataServer_TestD1Ev, symObjAddr: 0x12F30, symBinAddr: 0x100021940, symSize: 0x10 }
  - { offsetInCU: 0x6DFCC, offset: 0xC968B, size: 0x8, addend: 0x0, symName: __ZThn16_N31DataPathTest_TcpDataServer_TestD0Ev, symObjAddr: 0x12F40, symBinAddr: 0x100021950, symSize: 0x30 }
  - { offsetInCU: 0x6E083, offset: 0xC9742, size: 0x8, addend: 0x0, symName: __ZN7testing8internal15TestFactoryImplI28DataPathTest_Initialize_TestED1Ev, symObjAddr: 0x12F80, symBinAddr: 0x100021980, symSize: 0x10 }
  - { offsetInCU: 0x6E0AF, offset: 0xC976E, size: 0x8, addend: 0x0, symName: __ZN7testing8internal15TestFactoryImplI28DataPathTest_Initialize_TestED0Ev, symObjAddr: 0x12F90, symBinAddr: 0x100021990, symSize: 0x10 }
  - { offsetInCU: 0x6E148, offset: 0xC9807, size: 0x8, addend: 0x0, symName: __ZN7testing8internal15TestFactoryImplI28DataPathTest_Initialize_TestE10CreateTestEv, symObjAddr: 0x12FA0, symBinAddr: 0x1000219A0, symSize: 0xC0 }
  - { offsetInCU: 0x6E2EE, offset: 0xC99AD, size: 0x8, addend: 0x0, symName: __ZN12DataPathTest19UdpDataRecvCallbackEP13CXPLAT_SOCKETPvP16CXPLAT_RECV_DATA, symObjAddr: 0x13060, symBinAddr: 0x100021A60, symSize: 0x8F0 }
  - { offsetInCU: 0x70616, offset: 0xCBCD5, size: 0x8, addend: 0x0, symName: __ZN12DataPathTest19EmptyAcceptCallbackEP13CXPLAT_SOCKETPvS1_PS2_, symObjAddr: 0x13950, symBinAddr: 0x100022350, symSize: 0x10 }
  - { offsetInCU: 0x70657, offset: 0xCBD16, size: 0x8, addend: 0x0, symName: __ZN12DataPathTest20EmptyConnectCallbackEP13CXPLAT_SOCKETPvh, symObjAddr: 0x13960, symBinAddr: 0x100022360, symSize: 0x10 }
  - { offsetInCU: 0x7068D, offset: 0xCBD4C, size: 0x8, addend: 0x0, symName: __ZN12DataPathTest28TcpEmptySendCompleteCallbackEP13CXPLAT_SOCKETPvjj, symObjAddr: 0x13970, symBinAddr: 0x100022370, symSize: 0x10 }
  - { offsetInCU: 0x706CE, offset: 0xCBD8D, size: 0x8, addend: 0x0, symName: __ZN12DataPathTest17TcpAcceptCallbackEP13CXPLAT_SOCKETPvS1_PS2_, symObjAddr: 0x13980, symBinAddr: 0x100022380, symSize: 0x30 }
  - { offsetInCU: 0x7073A, offset: 0xCBDF9, size: 0x8, addend: 0x0, symName: __ZN12DataPathTest18TcpConnectCallbackEP13CXPLAT_SOCKETPvh, symObjAddr: 0x139B0, symBinAddr: 0x1000223B0, symSize: 0x30 }
  - { offsetInCU: 0x707A9, offset: 0xCBE68, size: 0x8, addend: 0x0, symName: __ZN12DataPathTest19TcpDataRecvCallbackEP13CXPLAT_SOCKETPvP16CXPLAT_RECV_DATA, symObjAddr: 0x139E0, symBinAddr: 0x1000223E0, symSize: 0x30 }
  - { offsetInCU: 0x70831, offset: 0xCBEF0, size: 0x8, addend: 0x0, symName: __ZN12DataPathTestD1Ev, symObjAddr: 0x13A10, symBinAddr: 0x100374F60, symSize: 0x10 }
  - { offsetInCU: 0x70852, offset: 0xCBF11, size: 0x8, addend: 0x0, symName: __ZN12DataPathTestD0Ev, symObjAddr: 0x13A20, symBinAddr: 0x100374F70, symSize: 0x10 }
  - { offsetInCU: 0x7088F, offset: 0xCBF4E, size: 0x8, addend: 0x0, symName: __ZThn16_N12DataPathTestD1Ev, symObjAddr: 0x13A30, symBinAddr: 0x100374F80, symSize: 0x10 }
  - { offsetInCU: 0x708E1, offset: 0xCBFA0, size: 0x8, addend: 0x0, symName: __ZThn16_N12DataPathTestD0Ev, symObjAddr: 0x13A40, symBinAddr: 0x100374F90, symSize: 0x10 }
  - { offsetInCU: 0x71A9C, offset: 0xCD15B, size: 0x8, addend: 0x0, symName: __ZN7testing8internal15TestFactoryImplI35DataPathTest_InitializeInvalid_TestED1Ev, symObjAddr: 0x14D50, symBinAddr: 0x100022A50, symSize: 0x10 }
  - { offsetInCU: 0x71AC8, offset: 0xCD187, size: 0x8, addend: 0x0, symName: __ZN7testing8internal15TestFactoryImplI35DataPathTest_InitializeInvalid_TestED0Ev, symObjAddr: 0x14D60, symBinAddr: 0x100022A60, symSize: 0x10 }
  - { offsetInCU: 0x71B28, offset: 0xCD1E7, size: 0x8, addend: 0x0, symName: __ZN7testing8internal15TestFactoryImplI35DataPathTest_InitializeInvalid_TestE10CreateTestEv, symObjAddr: 0x14D70, symBinAddr: 0x100022A70, symSize: 0xC0 }
  - { offsetInCU: 0x71BCF, offset: 0xCD28E, size: 0x8, addend: 0x0, symName: __ZN7testing8internal15TestFactoryImplI25DataPathTest_UdpBind_TestED1Ev, symObjAddr: 0x14E30, symBinAddr: 0x100022B30, symSize: 0x10 }
  - { offsetInCU: 0x71BFB, offset: 0xCD2BA, size: 0x8, addend: 0x0, symName: __ZN7testing8internal15TestFactoryImplI25DataPathTest_UdpBind_TestED0Ev, symObjAddr: 0x14E40, symBinAddr: 0x100022B40, symSize: 0x10 }
  - { offsetInCU: 0x71C5B, offset: 0xCD31A, size: 0x8, addend: 0x0, symName: __ZN7testing8internal15TestFactoryImplI25DataPathTest_UdpBind_TestE10CreateTestEv, symObjAddr: 0x14E50, symBinAddr: 0x100022B50, symSize: 0xC0 }
  - { offsetInCU: 0x71D02, offset: 0xCD3C1, size: 0x8, addend: 0x0, symName: __ZN7testing8internal15TestFactoryImplI27DataPathTest_UdpRebind_TestED1Ev, symObjAddr: 0x14F10, symBinAddr: 0x100022C10, symSize: 0x10 }
  - { offsetInCU: 0x71D2E, offset: 0xCD3ED, size: 0x8, addend: 0x0, symName: __ZN7testing8internal15TestFactoryImplI27DataPathTest_UdpRebind_TestED0Ev, symObjAddr: 0x14F20, symBinAddr: 0x100022C20, symSize: 0x10 }
  - { offsetInCU: 0x71D8E, offset: 0xCD44D, size: 0x8, addend: 0x0, symName: __ZN7testing8internal15TestFactoryImplI27DataPathTest_UdpRebind_TestE10CreateTestEv, symObjAddr: 0x14F30, symBinAddr: 0x100022C30, symSize: 0xC0 }
  - { offsetInCU: 0x71E35, offset: 0xCD4F4, size: 0x8, addend: 0x0, symName: __ZN7testing8internal15TestFactoryImplI24DataPathTest_UdpQeo_TestED1Ev, symObjAddr: 0x14FF0, symBinAddr: 0x100022CF0, symSize: 0x10 }
  - { offsetInCU: 0x71E61, offset: 0xCD520, size: 0x8, addend: 0x0, symName: __ZN7testing8internal15TestFactoryImplI24DataPathTest_UdpQeo_TestED0Ev, symObjAddr: 0x15000, symBinAddr: 0x100022D00, symSize: 0x10 }
  - { offsetInCU: 0x71EC1, offset: 0xCD580, size: 0x8, addend: 0x0, symName: __ZN7testing8internal15TestFactoryImplI24DataPathTest_UdpQeo_TestE10CreateTestEv, symObjAddr: 0x15010, symBinAddr: 0x100022D10, symSize: 0xC0 }
  - { offsetInCU: 0x7224F, offset: 0xCD90E, size: 0x8, addend: 0x0, symName: __ZNSt3__110shared_ptrIN7testing8internal26ParameterizedTestSuiteInfoI12DataPathTestE8TestInfoEEC1B8ue170006IS6_vEEPT_, symObjAddr: 0x154A0, symBinAddr: 0x1000231A0, symSize: 0x60 }
  - { offsetInCU: 0x72448, offset: 0xCDB07, size: 0x8, addend: 0x0, symName: __ZNSt3__16vectorINS_10shared_ptrIN7testing8internal26ParameterizedTestSuiteInfoI12DataPathTestE8TestInfoEEENS_9allocatorIS8_EEE24__emplace_back_slow_pathIJPS7_EEEvDpOT_, symObjAddr: 0x152D0, symBinAddr: 0x100022FD0, symSize: 0x1D0 }
  - { offsetInCU: 0x7308C, offset: 0xCE74B, size: 0x8, addend: 0x0, symName: __ZNKSt3__16vectorINS_10shared_ptrIN7testing8internal26ParameterizedTestSuiteInfoI12DataPathTestE8TestInfoEEENS_9allocatorIS8_EEE20__throw_length_errorB8ue170006Ev, symObjAddr: 0x15640, symBinAddr: 0x100023340, symSize: 0x10 }
  - { offsetInCU: 0x730B5, offset: 0xCE774, size: 0x8, addend: 0x0, symName: __ZN7testing8internal15TestMetaFactoryI25DataPathTest_UdpData_TestED1Ev, symObjAddr: 0x15650, symBinAddr: 0x100023350, symSize: 0x10 }
  - { offsetInCU: 0x730C1, offset: 0xCE780, size: 0x8, addend: 0x0, symName: __ZNSt3__114__split_bufferINS_10shared_ptrIN7testing8internal26ParameterizedTestSuiteInfoI12DataPathTestE8TestInfoEEERNS_9allocatorIS8_EEED1Ev, symObjAddr: 0x155C0, symBinAddr: 0x1000232C0, symSize: 0x80 }
  - { offsetInCU: 0x736A1, offset: 0xCED60, size: 0x8, addend: 0x0, symName: __ZNSt3__110shared_ptrIN7testing8internal26ParameterizedTestSuiteInfoI12DataPathTestE8TestInfoEEC1B8ue170006IS6_vEEPT_.cold.1, symObjAddr: 0x1ADE0, symBinAddr: 0x100374FA0, symSize: 0x48 }
  - { offsetInCU: 0x73A3B, offset: 0xCF0FA, size: 0x8, addend: 0x0, symName: __ZNSt3__120__shared_ptr_pointerIPN7testing8internal26ParameterizedTestSuiteInfoI12DataPathTestE8TestInfoENS_10shared_ptrIS6_E27__shared_ptr_default_deleteIS6_S6_EENS_9allocatorIS6_EEED1Ev, symObjAddr: 0x15500, symBinAddr: 0x100023200, symSize: 0x10 }
  - { offsetInCU: 0x73A96, offset: 0xCF155, size: 0x8, addend: 0x0, symName: __ZNSt3__120__shared_ptr_pointerIPN7testing8internal26ParameterizedTestSuiteInfoI12DataPathTestE8TestInfoENS_10shared_ptrIS6_E27__shared_ptr_default_deleteIS6_S6_EENS_9allocatorIS6_EEED0Ev, symObjAddr: 0x15510, symBinAddr: 0x100023210, symSize: 0x20 }
  - { offsetInCU: 0x73BC2, offset: 0xCF281, size: 0x8, addend: 0x0, symName: __ZNSt3__120__shared_ptr_pointerIPN7testing8internal26ParameterizedTestSuiteInfoI12DataPathTestE8TestInfoENS_10shared_ptrIS6_E27__shared_ptr_default_deleteIS6_S6_EENS_9allocatorIS6_EEE16__on_zero_sharedEv, symObjAddr: 0x15530, symBinAddr: 0x100023230, symSize: 0x60 }
  - { offsetInCU: 0x73FD4, offset: 0xCF693, size: 0x8, addend: 0x0, symName: __ZNKSt3__120__shared_ptr_pointerIPN7testing8internal26ParameterizedTestSuiteInfoI12DataPathTestE8TestInfoENS_10shared_ptrIS6_E27__shared_ptr_default_deleteIS6_S6_EENS_9allocatorIS6_EEE13__get_deleterERKSt9type_info, symObjAddr: 0x15590, symBinAddr: 0x100023290, symSize: 0x20 }
  - { offsetInCU: 0x7409B, offset: 0xCF75A, size: 0x8, addend: 0x0, symName: __ZNSt3__120__shared_ptr_pointerIPN7testing8internal26ParameterizedTestSuiteInfoI12DataPathTestE8TestInfoENS_10shared_ptrIS6_E27__shared_ptr_default_deleteIS6_S6_EENS_9allocatorIS6_EEE21__on_zero_shared_weakEv, symObjAddr: 0x155B0, symBinAddr: 0x1000232B0, symSize: 0x10 }
  - { offsetInCU: 0x74179, offset: 0xCF838, size: 0x8, addend: 0x0, symName: __ZN7testing8internal15TestMetaFactoryI25DataPathTest_UdpData_TestED1Ev, symObjAddr: 0x15650, symBinAddr: 0x100023350, symSize: 0x10 }
  - { offsetInCU: 0x741A5, offset: 0xCF864, size: 0x8, addend: 0x0, symName: __ZN7testing8internal15TestMetaFactoryI25DataPathTest_UdpData_TestED0Ev, symObjAddr: 0x15660, symBinAddr: 0x100023360, symSize: 0x10 }
  - { offsetInCU: 0x7423B, offset: 0xCF8FA, size: 0x8, addend: 0x0, symName: __ZN7testing8internal15TestMetaFactoryI25DataPathTest_UdpData_TestE17CreateTestFactoryEi, symObjAddr: 0x15670, symBinAddr: 0x100023370, symSize: 0x30 }
  - { offsetInCU: 0x742C1, offset: 0xCF980, size: 0x8, addend: 0x0, symName: __ZN7testing8internal24ParameterizedTestFactoryI25DataPathTest_UdpData_TestED1Ev, symObjAddr: 0x156A0, symBinAddr: 0x1000233A0, symSize: 0x10 }
  - { offsetInCU: 0x742ED, offset: 0xCF9AC, size: 0x8, addend: 0x0, symName: __ZN7testing8internal24ParameterizedTestFactoryI25DataPathTest_UdpData_TestED0Ev, symObjAddr: 0x156B0, symBinAddr: 0x1000233B0, symSize: 0x10 }
  - { offsetInCU: 0x74361, offset: 0xCFA20, size: 0x8, addend: 0x0, symName: __ZN7testing8internal24ParameterizedTestFactoryI25DataPathTest_UdpData_TestE10CreateTestEv, symObjAddr: 0x156C0, symBinAddr: 0x1000233C0, symSize: 0xD0 }
  - { offsetInCU: 0x74491, offset: 0xCFB50, size: 0x8, addend: 0x0, symName: __ZL20ResolveRouteCompletePvPKhhh, symObjAddr: 0x15990, symBinAddr: 0x100023490, symSize: 0x20 }
  - { offsetInCU: 0x7456B, offset: 0xCFC2A, size: 0x8, addend: 0x0, symName: __ZN7testing8internal15TestMetaFactoryI32DataPathTest_UdpDataPolling_TestED1Ev, symObjAddr: 0x15A40, symBinAddr: 0x100023540, symSize: 0x10 }
  - { offsetInCU: 0x74597, offset: 0xCFC56, size: 0x8, addend: 0x0, symName: __ZN7testing8internal15TestMetaFactoryI32DataPathTest_UdpDataPolling_TestED0Ev, symObjAddr: 0x15A50, symBinAddr: 0x100023550, symSize: 0x10 }
  - { offsetInCU: 0x7462D, offset: 0xCFCEC, size: 0x8, addend: 0x0, symName: __ZN7testing8internal15TestMetaFactoryI32DataPathTest_UdpDataPolling_TestE17CreateTestFactoryEi, symObjAddr: 0x15A60, symBinAddr: 0x100023560, symSize: 0x30 }
  - { offsetInCU: 0x746B3, offset: 0xCFD72, size: 0x8, addend: 0x0, symName: __ZN7testing8internal24ParameterizedTestFactoryI32DataPathTest_UdpDataPolling_TestED1Ev, symObjAddr: 0x15A90, symBinAddr: 0x100023590, symSize: 0x10 }
  - { offsetInCU: 0x746DF, offset: 0xCFD9E, size: 0x8, addend: 0x0, symName: __ZN7testing8internal24ParameterizedTestFactoryI32DataPathTest_UdpDataPolling_TestED0Ev, symObjAddr: 0x15AA0, symBinAddr: 0x1000235A0, symSize: 0x10 }
  - { offsetInCU: 0x7473F, offset: 0xCFDFE, size: 0x8, addend: 0x0, symName: __ZN7testing8internal24ParameterizedTestFactoryI32DataPathTest_UdpDataPolling_TestE10CreateTestEv, symObjAddr: 0x15AB0, symBinAddr: 0x1000235B0, symSize: 0xD0 }
  - { offsetInCU: 0x74800, offset: 0xCFEBF, size: 0x8, addend: 0x0, symName: __ZN7testing8internal15TestMetaFactoryI31DataPathTest_UdpDataRebind_TestED1Ev, symObjAddr: 0x15B80, symBinAddr: 0x100023680, symSize: 0x10 }
  - { offsetInCU: 0x7482C, offset: 0xCFEEB, size: 0x8, addend: 0x0, symName: __ZN7testing8internal15TestMetaFactoryI31DataPathTest_UdpDataRebind_TestED0Ev, symObjAddr: 0x15B90, symBinAddr: 0x100023690, symSize: 0x10 }
  - { offsetInCU: 0x748C2, offset: 0xCFF81, size: 0x8, addend: 0x0, symName: __ZN7testing8internal15TestMetaFactoryI31DataPathTest_UdpDataRebind_TestE17CreateTestFactoryEi, symObjAddr: 0x15BA0, symBinAddr: 0x1000236A0, symSize: 0x30 }
  - { offsetInCU: 0x74948, offset: 0xD0007, size: 0x8, addend: 0x0, symName: __ZN7testing8internal24ParameterizedTestFactoryI31DataPathTest_UdpDataRebind_TestED1Ev, symObjAddr: 0x15BD0, symBinAddr: 0x1000236D0, symSize: 0x10 }
  - { offsetInCU: 0x74974, offset: 0xD0033, size: 0x8, addend: 0x0, symName: __ZN7testing8internal24ParameterizedTestFactoryI31DataPathTest_UdpDataRebind_TestED0Ev, symObjAddr: 0x15BE0, symBinAddr: 0x1000236E0, symSize: 0x10 }
  - { offsetInCU: 0x749D4, offset: 0xD0093, size: 0x8, addend: 0x0, symName: __ZN7testing8internal24ParameterizedTestFactoryI31DataPathTest_UdpDataRebind_TestE10CreateTestEv, symObjAddr: 0x15BF0, symBinAddr: 0x1000236F0, symSize: 0xD0 }
  - { offsetInCU: 0x74A95, offset: 0xD0154, size: 0x8, addend: 0x0, symName: __ZN7testing8internal15TestMetaFactoryI29DataPathTest_UdpDataECT0_TestED1Ev, symObjAddr: 0x15CC0, symBinAddr: 0x1000237C0, symSize: 0x10 }
  - { offsetInCU: 0x74AC1, offset: 0xD0180, size: 0x8, addend: 0x0, symName: __ZN7testing8internal15TestMetaFactoryI29DataPathTest_UdpDataECT0_TestED0Ev, symObjAddr: 0x15CD0, symBinAddr: 0x1000237D0, symSize: 0x10 }
  - { offsetInCU: 0x74B57, offset: 0xD0216, size: 0x8, addend: 0x0, symName: __ZN7testing8internal15TestMetaFactoryI29DataPathTest_UdpDataECT0_TestE17CreateTestFactoryEi, symObjAddr: 0x15CE0, symBinAddr: 0x1000237E0, symSize: 0x30 }
  - { offsetInCU: 0x74BDD, offset: 0xD029C, size: 0x8, addend: 0x0, symName: __ZN7testing8internal24ParameterizedTestFactoryI29DataPathTest_UdpDataECT0_TestED1Ev, symObjAddr: 0x15D10, symBinAddr: 0x100023810, symSize: 0x10 }
  - { offsetInCU: 0x74C09, offset: 0xD02C8, size: 0x8, addend: 0x0, symName: __ZN7testing8internal24ParameterizedTestFactoryI29DataPathTest_UdpDataECT0_TestED0Ev, symObjAddr: 0x15D20, symBinAddr: 0x100023820, symSize: 0x10 }
  - { offsetInCU: 0x74C69, offset: 0xD0328, size: 0x8, addend: 0x0, symName: __ZN7testing8internal24ParameterizedTestFactoryI29DataPathTest_UdpDataECT0_TestE10CreateTestEv, symObjAddr: 0x15D30, symBinAddr: 0x100023830, symSize: 0xD0 }
  - { offsetInCU: 0x74D2A, offset: 0xD03E9, size: 0x8, addend: 0x0, symName: __ZN7testing8internal15TestMetaFactoryI38DataPathTest_UdpShareClientSocket_TestED1Ev, symObjAddr: 0x15E00, symBinAddr: 0x100023900, symSize: 0x10 }
  - { offsetInCU: 0x74D56, offset: 0xD0415, size: 0x8, addend: 0x0, symName: __ZN7testing8internal15TestMetaFactoryI38DataPathTest_UdpShareClientSocket_TestED0Ev, symObjAddr: 0x15E10, symBinAddr: 0x100023910, symSize: 0x10 }
  - { offsetInCU: 0x74DEC, offset: 0xD04AB, size: 0x8, addend: 0x0, symName: __ZN7testing8internal15TestMetaFactoryI38DataPathTest_UdpShareClientSocket_TestE17CreateTestFactoryEi, symObjAddr: 0x15E20, symBinAddr: 0x100023920, symSize: 0x30 }
  - { offsetInCU: 0x74E72, offset: 0xD0531, size: 0x8, addend: 0x0, symName: __ZN7testing8internal24ParameterizedTestFactoryI38DataPathTest_UdpShareClientSocket_TestED1Ev, symObjAddr: 0x15E50, symBinAddr: 0x100023950, symSize: 0x10 }
  - { offsetInCU: 0x74E9E, offset: 0xD055D, size: 0x8, addend: 0x0, symName: __ZN7testing8internal24ParameterizedTestFactoryI38DataPathTest_UdpShareClientSocket_TestED0Ev, symObjAddr: 0x15E60, symBinAddr: 0x100023960, symSize: 0x10 }
  - { offsetInCU: 0x74EFE, offset: 0xD05BD, size: 0x8, addend: 0x0, symName: __ZN7testing8internal24ParameterizedTestFactoryI38DataPathTest_UdpShareClientSocket_TestE10CreateTestEv, symObjAddr: 0x15E70, symBinAddr: 0x100023970, symSize: 0xD0 }
  - { offsetInCU: 0x74FBF, offset: 0xD067E, size: 0x8, addend: 0x0, symName: __ZN7testing8internal15TestMetaFactoryI35DataPathTest_MultiBindListener_TestED1Ev, symObjAddr: 0x15F40, symBinAddr: 0x100023A40, symSize: 0x10 }
  - { offsetInCU: 0x74FEB, offset: 0xD06AA, size: 0x8, addend: 0x0, symName: __ZN7testing8internal15TestMetaFactoryI35DataPathTest_MultiBindListener_TestED0Ev, symObjAddr: 0x15F50, symBinAddr: 0x100023A50, symSize: 0x10 }
  - { offsetInCU: 0x75081, offset: 0xD0740, size: 0x8, addend: 0x0, symName: __ZN7testing8internal15TestMetaFactoryI35DataPathTest_MultiBindListener_TestE17CreateTestFactoryEi, symObjAddr: 0x15F60, symBinAddr: 0x100023A60, symSize: 0x30 }
  - { offsetInCU: 0x75107, offset: 0xD07C6, size: 0x8, addend: 0x0, symName: __ZN7testing8internal24ParameterizedTestFactoryI35DataPathTest_MultiBindListener_TestED1Ev, symObjAddr: 0x15F90, symBinAddr: 0x100023A90, symSize: 0x10 }
  - { offsetInCU: 0x75133, offset: 0xD07F2, size: 0x8, addend: 0x0, symName: __ZN7testing8internal24ParameterizedTestFactoryI35DataPathTest_MultiBindListener_TestED0Ev, symObjAddr: 0x15FA0, symBinAddr: 0x100023AA0, symSize: 0x10 }
  - { offsetInCU: 0x75193, offset: 0xD0852, size: 0x8, addend: 0x0, symName: __ZN7testing8internal24ParameterizedTestFactoryI35DataPathTest_MultiBindListener_TestE10CreateTestEv, symObjAddr: 0x15FB0, symBinAddr: 0x100023AB0, symSize: 0xD0 }
  - { offsetInCU: 0x75259, offset: 0xD0918, size: 0x8, addend: 0x0, symName: __ZN7testing8internal15TestFactoryImplI29DataPathTest_TcpListener_TestED1Ev, symObjAddr: 0x16080, symBinAddr: 0x100023B80, symSize: 0x10 }
  - { offsetInCU: 0x75285, offset: 0xD0944, size: 0x8, addend: 0x0, symName: __ZN7testing8internal15TestFactoryImplI29DataPathTest_TcpListener_TestED0Ev, symObjAddr: 0x16090, symBinAddr: 0x100023B90, symSize: 0x10 }
  - { offsetInCU: 0x752E5, offset: 0xD09A4, size: 0x8, addend: 0x0, symName: __ZN7testing8internal15TestFactoryImplI29DataPathTest_TcpListener_TestE10CreateTestEv, symObjAddr: 0x160A0, symBinAddr: 0x100023BA0, symSize: 0xC0 }
  - { offsetInCU: 0x75387, offset: 0xD0A46, size: 0x8, addend: 0x0, symName: __ZN7testing8internal15TestMetaFactoryI28DataPathTest_TcpConnect_TestED1Ev, symObjAddr: 0x16290, symBinAddr: 0x100023D90, symSize: 0x10 }
  - { offsetInCU: 0x753B3, offset: 0xD0A72, size: 0x8, addend: 0x0, symName: __ZN7testing8internal15TestMetaFactoryI28DataPathTest_TcpConnect_TestED0Ev, symObjAddr: 0x162A0, symBinAddr: 0x100023DA0, symSize: 0x10 }
  - { offsetInCU: 0x75449, offset: 0xD0B08, size: 0x8, addend: 0x0, symName: __ZN7testing8internal15TestMetaFactoryI28DataPathTest_TcpConnect_TestE17CreateTestFactoryEi, symObjAddr: 0x162B0, symBinAddr: 0x100023DB0, symSize: 0x30 }
  - { offsetInCU: 0x754CF, offset: 0xD0B8E, size: 0x8, addend: 0x0, symName: __ZN7testing8internal24ParameterizedTestFactoryI28DataPathTest_TcpConnect_TestED1Ev, symObjAddr: 0x162E0, symBinAddr: 0x100023DE0, symSize: 0x10 }
  - { offsetInCU: 0x754FB, offset: 0xD0BBA, size: 0x8, addend: 0x0, symName: __ZN7testing8internal24ParameterizedTestFactoryI28DataPathTest_TcpConnect_TestED0Ev, symObjAddr: 0x162F0, symBinAddr: 0x100023DF0, symSize: 0x10 }
  - { offsetInCU: 0x7555B, offset: 0xD0C1A, size: 0x8, addend: 0x0, symName: __ZN7testing8internal24ParameterizedTestFactoryI28DataPathTest_TcpConnect_TestE10CreateTestEv, symObjAddr: 0x16300, symBinAddr: 0x100023E00, symSize: 0xD0 }
  - { offsetInCU: 0x7561C, offset: 0xD0CDB, size: 0x8, addend: 0x0, symName: __ZN7testing8internal15TestMetaFactoryI31DataPathTest_TcpDisconnect_TestED1Ev, symObjAddr: 0x164A0, symBinAddr: 0x100023FA0, symSize: 0x10 }
  - { offsetInCU: 0x75648, offset: 0xD0D07, size: 0x8, addend: 0x0, symName: __ZN7testing8internal15TestMetaFactoryI31DataPathTest_TcpDisconnect_TestED0Ev, symObjAddr: 0x164B0, symBinAddr: 0x100023FB0, symSize: 0x10 }
  - { offsetInCU: 0x756DE, offset: 0xD0D9D, size: 0x8, addend: 0x0, symName: __ZN7testing8internal15TestMetaFactoryI31DataPathTest_TcpDisconnect_TestE17CreateTestFactoryEi, symObjAddr: 0x164C0, symBinAddr: 0x100023FC0, symSize: 0x30 }
  - { offsetInCU: 0x75764, offset: 0xD0E23, size: 0x8, addend: 0x0, symName: __ZN7testing8internal24ParameterizedTestFactoryI31DataPathTest_TcpDisconnect_TestED1Ev, symObjAddr: 0x164F0, symBinAddr: 0x100023FF0, symSize: 0x10 }
  - { offsetInCU: 0x75790, offset: 0xD0E4F, size: 0x8, addend: 0x0, symName: __ZN7testing8internal24ParameterizedTestFactoryI31DataPathTest_TcpDisconnect_TestED0Ev, symObjAddr: 0x16500, symBinAddr: 0x100024000, symSize: 0x10 }
  - { offsetInCU: 0x757F0, offset: 0xD0EAF, size: 0x8, addend: 0x0, symName: __ZN7testing8internal24ParameterizedTestFactoryI31DataPathTest_TcpDisconnect_TestE10CreateTestEv, symObjAddr: 0x16510, symBinAddr: 0x100024010, symSize: 0xD0 }
  - { offsetInCU: 0x758B1, offset: 0xD0F70, size: 0x8, addend: 0x0, symName: __ZN7testing8internal15TestMetaFactoryI31DataPathTest_TcpDataClient_TestED1Ev, symObjAddr: 0x165E0, symBinAddr: 0x1000240E0, symSize: 0x10 }
  - { offsetInCU: 0x758DD, offset: 0xD0F9C, size: 0x8, addend: 0x0, symName: __ZN7testing8internal15TestMetaFactoryI31DataPathTest_TcpDataClient_TestED0Ev, symObjAddr: 0x165F0, symBinAddr: 0x1000240F0, symSize: 0x10 }
  - { offsetInCU: 0x75973, offset: 0xD1032, size: 0x8, addend: 0x0, symName: __ZN7testing8internal15TestMetaFactoryI31DataPathTest_TcpDataClient_TestE17CreateTestFactoryEi, symObjAddr: 0x16600, symBinAddr: 0x100024100, symSize: 0x30 }
  - { offsetInCU: 0x759F9, offset: 0xD10B8, size: 0x8, addend: 0x0, symName: __ZN7testing8internal24ParameterizedTestFactoryI31DataPathTest_TcpDataClient_TestED1Ev, symObjAddr: 0x16630, symBinAddr: 0x100024130, symSize: 0x10 }
  - { offsetInCU: 0x75A25, offset: 0xD10E4, size: 0x8, addend: 0x0, symName: __ZN7testing8internal24ParameterizedTestFactoryI31DataPathTest_TcpDataClient_TestED0Ev, symObjAddr: 0x16640, symBinAddr: 0x100024140, symSize: 0x10 }
  - { offsetInCU: 0x75A85, offset: 0xD1144, size: 0x8, addend: 0x0, symName: __ZN7testing8internal24ParameterizedTestFactoryI31DataPathTest_TcpDataClient_TestE10CreateTestEv, symObjAddr: 0x16650, symBinAddr: 0x100024150, symSize: 0xD0 }
  - { offsetInCU: 0x75B46, offset: 0xD1205, size: 0x8, addend: 0x0, symName: __ZN7testing8internal15TestMetaFactoryI31DataPathTest_TcpDataServer_TestED1Ev, symObjAddr: 0x16720, symBinAddr: 0x100024220, symSize: 0x10 }
  - { offsetInCU: 0x75B72, offset: 0xD1231, size: 0x8, addend: 0x0, symName: __ZN7testing8internal15TestMetaFactoryI31DataPathTest_TcpDataServer_TestED0Ev, symObjAddr: 0x16730, symBinAddr: 0x100024230, symSize: 0x10 }
  - { offsetInCU: 0x75C08, offset: 0xD12C7, size: 0x8, addend: 0x0, symName: __ZN7testing8internal15TestMetaFactoryI31DataPathTest_TcpDataServer_TestE17CreateTestFactoryEi, symObjAddr: 0x16740, symBinAddr: 0x100024240, symSize: 0x30 }
  - { offsetInCU: 0x75C8E, offset: 0xD134D, size: 0x8, addend: 0x0, symName: __ZN7testing8internal24ParameterizedTestFactoryI31DataPathTest_TcpDataServer_TestED1Ev, symObjAddr: 0x16770, symBinAddr: 0x100024270, symSize: 0x10 }
  - { offsetInCU: 0x75CBA, offset: 0xD1379, size: 0x8, addend: 0x0, symName: __ZN7testing8internal24ParameterizedTestFactoryI31DataPathTest_TcpDataServer_TestED0Ev, symObjAddr: 0x16780, symBinAddr: 0x100024280, symSize: 0x10 }
  - { offsetInCU: 0x75D1A, offset: 0xD13D9, size: 0x8, addend: 0x0, symName: __ZN7testing8internal24ParameterizedTestFactoryI31DataPathTest_TcpDataServer_TestE10CreateTestEv, symObjAddr: 0x16790, symBinAddr: 0x100024290, symSize: 0xD0 }
  - { offsetInCU: 0x76597, offset: 0xD1C56, size: 0x8, addend: 0x0, symName: __ZN12DataPathTest14SetUpTestSuiteEv, symObjAddr: 0x17660, symBinAddr: 0x100024B00, symSize: 0x220 }
  - { offsetInCU: 0x76BE1, offset: 0xD22A0, size: 0x8, addend: 0x0, symName: __ZN8QuicAddr7ResolveEhPKc, symObjAddr: 0x17880, symBinAddr: 0x100024D20, symSize: 0x130 }
  - { offsetInCU: 0x76DC0, offset: 0xD247F, size: 0x8, addend: 0x0, symName: __ZN12DataPathTest17TearDownTestSuiteEv, symObjAddr: 0x17D80, symBinAddr: 0x100025220, symSize: 0x20 }
  - { offsetInCU: 0x779BB, offset: 0xD307A, size: 0x8, addend: 0x0, symName: __ZN7testing8internal26ParameterizedTestSuiteInfoI12DataPathTestED1Ev, symObjAddr: 0x19060, symBinAddr: 0x100025E10, symSize: 0x10 }
  - { offsetInCU: 0x779F3, offset: 0xD30B2, size: 0x8, addend: 0x0, symName: __ZN7testing8internal26ParameterizedTestSuiteInfoI12DataPathTestED2Ev, symObjAddr: 0x19F60, symBinAddr: 0x100026D10, symSize: 0xF0 }
  - { offsetInCU: 0x78226, offset: 0xD38E5, size: 0x8, addend: 0x0, symName: __ZN7testing8internal26ParameterizedTestSuiteInfoI12DataPathTestED0Ev, symObjAddr: 0x19070, symBinAddr: 0x100025E20, symSize: 0x20 }
  - { offsetInCU: 0x7828A, offset: 0xD3949, size: 0x8, addend: 0x0, symName: __ZNK7testing8internal26ParameterizedTestSuiteInfoI12DataPathTestE16GetTestSuiteNameEv, symObjAddr: 0x19090, symBinAddr: 0x100025E40, symSize: 0x10 }
  - { offsetInCU: 0x782AF, offset: 0xD396E, size: 0x8, addend: 0x0, symName: __ZNK7testing8internal26ParameterizedTestSuiteInfoI12DataPathTestE18GetTestSuiteTypeIdEv, symObjAddr: 0x190A0, symBinAddr: 0x100025E50, symSize: 0x10 }
  - { offsetInCU: 0x78DD4, offset: 0xD4493, size: 0x8, addend: 0x0, symName: __ZN7testing8internal26ParameterizedTestSuiteInfoI12DataPathTestE13RegisterTestsEv, symObjAddr: 0x190B0, symBinAddr: 0x100025E60, symSize: 0xEB0 }
  - { offsetInCU: 0x7D074, offset: 0xD8733, size: 0x8, addend: 0x0, symName: __ZN7testing8internal26ParameterizedTestSuiteInfoI12DataPathTestE16IsValidParamNameERKNSt3__112basic_stringIcNS4_11char_traitsIcEENS4_9allocatorIcEEEE, symObjAddr: 0x1A050, symBinAddr: 0x100026E00, symSize: 0xE0 }
  - { offsetInCU: 0x7E952, offset: 0xDA011, size: 0x8, addend: 0x0, symName: __ZNSt3__16vectorIN7testing8internal26ParameterizedTestSuiteInfoI12DataPathTestE17InstantiationInfoENS_9allocatorIS6_EEE24__emplace_back_slow_pathIJNS_12basic_stringIcNS_11char_traitsIcEENS7_IcEEEERPFNS2_14ParamGeneratorIiEEvERPFSF_RKNS1_13TestParamInfoIiEEERPKcRiEEEvDpOT_, symObjAddr: 0x1ABA0, symBinAddr: 0x100026EE0, symSize: 0x230 }
  - { offsetInCU: 0x7F293, offset: 0xDA952, size: 0x8, addend: 0x0, symName: __ZNKSt3__16vectorIN7testing8internal26ParameterizedTestSuiteInfoI12DataPathTestE17InstantiationInfoENS_9allocatorIS6_EEE20__throw_length_errorB8ue170006Ev, symObjAddr: 0x1ADD0, symBinAddr: 0x100027110, symSize: 0x10 }
  - { offsetInCU: 0x7F2BC, offset: 0xDA97B, size: 0x8, addend: 0x0, symName: __ZNSt3__110shared_ptrIN7testing8internal26ParameterizedTestSuiteInfoI12DataPathTestE8TestInfoEEC1B8ue170006IS6_vEEPT_.cold.1, symObjAddr: 0x1ADE0, symBinAddr: 0x100374FA0, symSize: 0x48 }
  - { offsetInCU: 0x4C, offset: 0xDAA33, size: 0x8, addend: 0x0, symName: __ZN33PlatformTest_QuicAddrParsing_Test10test_info_E, symObjAddr: 0x5BBE8, symBinAddr: 0x100432808, symSize: 0x0 }
  - { offsetInCU: 0x803, offset: 0xDB1EA, size: 0x8, addend: 0x0, symName: __ZN7testing8internal18CmpHelperEQFailureIihEENS_15AssertionResultEPKcS4_RKT_RKT0_, symObjAddr: 0x3820, symBinAddr: 0x10002A9F0, symSize: 0xC0 }
  - { offsetInCU: 0x1643, offset: 0xDC02A, size: 0x8, addend: 0x0, symName: __ZN7testing8internal18CmpHelperEQFailureIPvS2_EENS_15AssertionResultEPKcS5_RKT_RKT0_, symObjAddr: 0x3D30, symBinAddr: 0x10002ABA0, symSize: 0xC0 }
  - { offsetInCU: 0x301A, offset: 0xDDA01, size: 0x8, addend: 0x0, symName: __ZN7testing13PrintToStringIhEENSt3__112basic_stringIcNS1_11char_traitsIcEENS1_9allocatorIcEEEERKT_, symObjAddr: 0x39D0, symBinAddr: 0x10002AAB0, symSize: 0xF0 }
  - { offsetInCU: 0x34A6, offset: 0xDDE8D, size: 0x8, addend: 0x0, symName: __ZN7testing13PrintToStringIPvEENSt3__112basic_stringIcNS2_11char_traitsIcEENS2_9allocatorIcEEEERKT_, symObjAddr: 0x3DF0, symBinAddr: 0x10002AC60, symSize: 0xFD }
  - { offsetInCU: 0xB9BF, offset: 0xE63A6, size: 0x8, addend: 0x0, symName: __ZN28PlatformTest_EventQueue_Test10test_info_E, symObjAddr: 0x5BBF0, symBinAddr: 0x100432810, symSize: 0x0 }
  - { offsetInCU: 0xBAA5, offset: 0xE648C, size: 0x8, addend: 0x0, symName: __ZN34PlatformTest_EventQueueWorker_Test10test_info_E, symObjAddr: 0x5BBF8, symBinAddr: 0x100432818, symSize: 0x0 }
  - { offsetInCU: 0xBEC4, offset: 0xE68AB, size: 0x8, addend: 0x0, symName: __ZN28PlatformTest_EventQueue_Test8TestBodyEv, symObjAddr: 0xAF0, symBinAddr: 0x100028400, symSize: 0x13E0 }
  - { offsetInCU: 0xEF02, offset: 0xE98E9, size: 0x8, addend: 0x0, symName: __ZN34PlatformTest_EventQueueWorker_Test8TestBodyEv, symObjAddr: 0x2090, symBinAddr: 0x1000298B0, symSize: 0xE70 }
  - { offsetInCU: 0x13357, offset: 0xEDD3E, size: 0x8, addend: 0x0, symName: __ZN7testing8internal16SuiteApiResolverINS_4TestEE19GetSetUpCaseOrSuiteEPKci, symObjAddr: 0x0, symBinAddr: 0x100027B00, symSize: 0xD0 }
  - { offsetInCU: 0x134FE, offset: 0xEDEE5, size: 0x8, addend: 0x0, symName: __ZN7testing8internal16SuiteApiResolverINS_4TestEE22GetTearDownCaseOrSuiteEPKci, symObjAddr: 0xD0, symBinAddr: 0x100027BD0, symSize: 0xD0 }
  - { offsetInCU: 0x13D20, offset: 0xEE707, size: 0x8, addend: 0x0, symName: __ZN33PlatformTest_QuicAddrParsing_Test8TestBodyEv, symObjAddr: 0x1A0, symBinAddr: 0x100027CA0, symSize: 0x760 }
  - { offsetInCU: 0x15662, offset: 0xF0049, size: 0x8, addend: 0x0, symName: __ZN7testing8internal8EqHelper7CompareIjjLPv0EEENS_15AssertionResultEPKcS6_RKT_RKT0_, symObjAddr: 0x1ED0, symBinAddr: 0x1000297E0, symSize: 0x30 }
  - { offsetInCU: 0x1572B, offset: 0xF0112, size: 0x8, addend: 0x0, symName: __ZN7testing8internal8EqHelper7CompareIPvS3_LS3_0EEENS_15AssertionResultEPKcS6_RKT_RKT0_, symObjAddr: 0x1FF0, symBinAddr: 0x100029810, symSize: 0x30 }
  - { offsetInCU: 0x15848, offset: 0xF022F, size: 0x8, addend: 0x0, symName: __ZZN28PlatformTest_EventQueue_Test8TestBodyEvEN17EventQueueContext18EventQueueCallbackEPv, symObjAddr: 0x2020, symBinAddr: 0x100029840, symSize: 0x70 }
  - { offsetInCU: 0x1590E, offset: 0xF02F5, size: 0x8, addend: 0x0, symName: __ZZN34PlatformTest_EventQueueWorker_Test8TestBodyEvEN17EventQueueContext18EventQueueCallbackEPv, symObjAddr: 0x2F00, symBinAddr: 0x10002A720, symSize: 0xF0 }
  - { offsetInCU: 0x15A61, offset: 0xF0448, size: 0x8, addend: 0x0, symName: __ZN33PlatformTest_QuicAddrParsing_TestD1Ev, symObjAddr: 0x2FF0, symBinAddr: 0x10002A810, symSize: 0x10 }
  - { offsetInCU: 0x15ABA, offset: 0xF04A1, size: 0x8, addend: 0x0, symName: __ZN33PlatformTest_QuicAddrParsing_TestD0Ev, symObjAddr: 0x3000, symBinAddr: 0x10002A820, symSize: 0x20 }
  - { offsetInCU: 0x15B40, offset: 0xF0527, size: 0x8, addend: 0x0, symName: __ZN28PlatformTest_EventQueue_TestD1Ev, symObjAddr: 0x3030, symBinAddr: 0x10002A840, symSize: 0x10 }
  - { offsetInCU: 0x15B99, offset: 0xF0580, size: 0x8, addend: 0x0, symName: __ZN28PlatformTest_EventQueue_TestD0Ev, symObjAddr: 0x3040, symBinAddr: 0x10002A850, symSize: 0x20 }
  - { offsetInCU: 0x15C1F, offset: 0xF0606, size: 0x8, addend: 0x0, symName: __ZN34PlatformTest_EventQueueWorker_TestD1Ev, symObjAddr: 0x3060, symBinAddr: 0x10002A870, symSize: 0x10 }
  - { offsetInCU: 0x15C78, offset: 0xF065F, size: 0x8, addend: 0x0, symName: __ZN34PlatformTest_EventQueueWorker_TestD0Ev, symObjAddr: 0x3070, symBinAddr: 0x10002A880, symSize: 0x20 }
  - { offsetInCU: 0x15CE4, offset: 0xF06CB, size: 0x8, addend: 0x0, symName: __ZN7testing8internal15TestFactoryImplI33PlatformTest_QuicAddrParsing_TestED1Ev, symObjAddr: 0x30A0, symBinAddr: 0x10002A8A0, symSize: 0x10 }
  - { offsetInCU: 0x15D10, offset: 0xF06F7, size: 0x8, addend: 0x0, symName: __ZN7testing8internal15TestFactoryImplI33PlatformTest_QuicAddrParsing_TestED0Ev, symObjAddr: 0x30B0, symBinAddr: 0x10002A8B0, symSize: 0x10 }
  - { offsetInCU: 0x15D70, offset: 0xF0757, size: 0x8, addend: 0x0, symName: __ZN7testing8internal15TestFactoryImplI33PlatformTest_QuicAddrParsing_TestE10CreateTestEv, symObjAddr: 0x30C0, symBinAddr: 0x10002A8C0, symSize: 0x50 }
  - { offsetInCU: 0x15DD9, offset: 0xF07C0, size: 0x8, addend: 0x0, symName: __ZN7testing8internal15TestFactoryImplI28PlatformTest_EventQueue_TestED1Ev, symObjAddr: 0x3110, symBinAddr: 0x10002A910, symSize: 0x10 }
  - { offsetInCU: 0x15E05, offset: 0xF07EC, size: 0x8, addend: 0x0, symName: __ZN7testing8internal15TestFactoryImplI28PlatformTest_EventQueue_TestED0Ev, symObjAddr: 0x3120, symBinAddr: 0x10002A920, symSize: 0x10 }
  - { offsetInCU: 0x15E65, offset: 0xF084C, size: 0x8, addend: 0x0, symName: __ZN7testing8internal15TestFactoryImplI28PlatformTest_EventQueue_TestE10CreateTestEv, symObjAddr: 0x3130, symBinAddr: 0x10002A930, symSize: 0x50 }
  - { offsetInCU: 0x15ECE, offset: 0xF08B5, size: 0x8, addend: 0x0, symName: __ZN7testing8internal15TestFactoryImplI34PlatformTest_EventQueueWorker_TestED1Ev, symObjAddr: 0x3180, symBinAddr: 0x10002A980, symSize: 0x10 }
  - { offsetInCU: 0x15EFA, offset: 0xF08E1, size: 0x8, addend: 0x0, symName: __ZN7testing8internal15TestFactoryImplI34PlatformTest_EventQueueWorker_TestED0Ev, symObjAddr: 0x3190, symBinAddr: 0x10002A990, symSize: 0x10 }
  - { offsetInCU: 0x15F5A, offset: 0xF0941, size: 0x8, addend: 0x0, symName: __ZN7testing8internal15TestFactoryImplI34PlatformTest_EventQueueWorker_TestE10CreateTestEv, symObjAddr: 0x31A0, symBinAddr: 0x10002A9A0, symSize: 0x50 }
  - { offsetInCU: 0x52, offset: 0xF141C, size: 0x8, addend: 0x0, symName: _PfxPass, symObjAddr: 0x2C8F0, symBinAddr: 0x10042C8E8, symSize: 0x0 }
  - { offsetInCU: 0x66, offset: 0xF1430, size: 0x8, addend: 0x0, symName: __ZN7TlsTest10TlsContext12TlsCallbacksE, symObjAddr: 0x2C910, symBinAddr: 0x1003E21C0, symSize: 0x0 }
  - { offsetInCU: 0x75D, offset: 0xF1B27, size: 0x8, addend: 0x0, symName: __ZN7testing8internal12TypeIdHelperI7TlsTestE6dummy_E, symObjAddr: 0x2C900, symBinAddr: 0x10042C8F8, symSize: 0x0 }
  - { offsetInCU: 0x102A, offset: 0xF23F4, size: 0x8, addend: 0x0, symName: __ZN7testing8internal18CmpHelperOpFailureIDnPhEENS_15AssertionResultEPKcS5_RKT_RKT0_S5_, symObjAddr: 0x1F1C0, symBinAddr: 0x100049920, symSize: 0x2D0 }
  - { offsetInCU: 0x22F6, offset: 0xF36C0, size: 0x8, addend: 0x0, symName: __ZN7testing8internal18CmpHelperOpFailureIDnP15QUIC_PACKET_KEYEENS_15AssertionResultEPKcS6_RKT_RKT0_S6_, symObjAddr: 0x1F590, symBinAddr: 0x100049CF0, symSize: 0x2D0 }
  - { offsetInCU: 0x35C2, offset: 0xF498C, size: 0x8, addend: 0x0, symName: __ZN7testing8internal18CmpHelperOpFailureIDnP22QUIC_CREDENTIAL_CONFIGEENS_15AssertionResultEPKcS6_RKT_RKT0_S6_, symObjAddr: 0x1EA30, symBinAddr: 0x100049280, symSize: 0x2D0 }
  - { offsetInCU: 0x488E, offset: 0xF5C58, size: 0x8, addend: 0x0, symName: __ZN7testing8internal18CmpHelperOpFailureIDnP17CXPLAT_SEC_CONFIGEENS_15AssertionResultEPKcS6_RKT_RKT0_S6_, symObjAddr: 0x1E3A0, symBinAddr: 0x100048EB0, symSize: 0x2D0 }
  - { offsetInCU: 0x6075, offset: 0xF743F, size: 0x8, addend: 0x0, symName: __ZN7testing8internal18CmpHelperEQFailureI17QUIC_CIPHER_SUITES2_EENS_15AssertionResultEPKcS5_RKT_RKT0_, symObjAddr: 0x20B90, symBinAddr: 0x10004B2F0, symSize: 0xC0 }
  - { offsetInCU: 0x66B7, offset: 0xF7A81, size: 0x8, addend: 0x0, symName: __ZN7testing8internal18CmpHelperEQFailureI25QUIC_TLS_PROTOCOL_VERSIONS2_EENS_15AssertionResultEPKcS5_RKT_RKT0_, symObjAddr: 0x20D40, symBinAddr: 0x10004B4A0, symSize: 0xC0 }
  - { offsetInCU: 0x6CF9, offset: 0xF80C3, size: 0x8, addend: 0x0, symName: __ZN7testing8internal18CmpHelperEQFailureI21QUIC_CIPHER_ALGORITHMS2_EENS_15AssertionResultEPKcS5_RKT_RKT0_, symObjAddr: 0x20EF0, symBinAddr: 0x10004B650, symSize: 0xC0 }
  - { offsetInCU: 0x76E6, offset: 0xF8AB0, size: 0x8, addend: 0x0, symName: __ZN7testing8internal18CmpHelperEQFailureIi27QUIC_KEY_EXCHANGE_ALGORITHMEENS_15AssertionResultEPKcS5_RKT_RKT0_, symObjAddr: 0x21250, symBinAddr: 0x10004B800, symSize: 0xC0 }
  - { offsetInCU: 0x7D28, offset: 0xF90F2, size: 0x8, addend: 0x0, symName: __ZN7testing8internal18CmpHelperEQFailureI19QUIC_HASH_ALGORITHMS2_EENS_15AssertionResultEPKcS5_RKT_RKT0_, symObjAddr: 0x21400, symBinAddr: 0x10004B9B0, symSize: 0xC0 }
  - { offsetInCU: 0x83BE, offset: 0xF9788, size: 0x8, addend: 0x0, symName: __ZN7testing8internal18CmpHelperOpFailureIP17CXPLAT_SEC_CONFIGDnEENS_15AssertionResultEPKcS6_RKT_RKT0_S6_, symObjAddr: 0x215B0, symBinAddr: 0x10004BB60, symSize: 0x2D0 }
  - { offsetInCU: 0x96DE, offset: 0xFAAA8, size: 0x8, addend: 0x0, symName: __ZN7testing8internal18CmpHelperEQFailureIhjEENS_15AssertionResultEPKcS4_RKT_RKT0_, symObjAddr: 0x21880, symBinAddr: 0x10004BE30, symSize: 0xC0 }
  - { offsetInCU: 0x9D20, offset: 0xFB0EA, size: 0x8, addend: 0x0, symName: __ZN7testing8internal18CmpHelperEQFailureIhcEENS_15AssertionResultEPKcS4_RKT_RKT0_, symObjAddr: 0x21A30, symBinAddr: 0x10004BEF0, symSize: 0xC0 }
  - { offsetInCU: 0xA40A, offset: 0xFB7D4, size: 0x8, addend: 0x0, symName: __ZN7testing8internal18CmpHelperOpFailureIjjEENS_15AssertionResultEPKcS4_RKT_RKT0_S4_, symObjAddr: 0x1EE00, symBinAddr: 0x100049650, symSize: 0x2D0 }
  - { offsetInCU: 0xBA2D, offset: 0xFCDF7, size: 0x8, addend: 0x0, symName: __ZN7testing8internal11CmpHelperNEIjjEENS_15AssertionResultEPKcS4_RKT_RKT0_, symObjAddr: 0x9920, symBinAddr: 0x100034A20, symSize: 0x40 }
  - { offsetInCU: 0xBAEA, offset: 0xFCEB4, size: 0x8, addend: 0x0, symName: __ZN7testing8internal18CmpHelperEQFailureIPhS2_EENS_15AssertionResultEPKcS5_RKT_RKT0_, symObjAddr: 0x21CA0, symBinAddr: 0x10004C0A0, symSize: 0xC0 }
  - { offsetInCU: 0xC180, offset: 0xFD54A, size: 0x8, addend: 0x0, symName: __ZN7testing8internal18CmpHelperEQFailureIi22CXPLAT_TLS_ALERT_CODESEENS_15AssertionResultEPKcS5_RKT_RKT0_, symObjAddr: 0x21D60, symBinAddr: 0x10004C160, symSize: 0xC0 }
  - { offsetInCU: 0xCAB6, offset: 0xFDE80, size: 0x8, addend: 0x0, symName: __ZN7testing8internal18CmpHelperEQFailureIP17CXPLAT_SEC_CONFIGDnEENS_15AssertionResultEPKcS6_RKT_RKT0_, symObjAddr: 0x242F0, symBinAddr: 0x10004D590, symSize: 0xC0 }
  - { offsetInCU: 0xD14C, offset: 0xFE516, size: 0x8, addend: 0x0, symName: __ZN7testing8internal18CmpHelperEQFailureIP17CXPLAT_SEC_CONFIGS3_EENS_15AssertionResultEPKcS6_RKT_RKT0_, symObjAddr: 0x243B0, symBinAddr: 0x10004D650, symSize: 0xC0 }
  - { offsetInCU: 0xD78E, offset: 0xFEB58, size: 0x8, addend: 0x0, symName: __ZN7testing8internal27CheckedDowncastToActualTypeINS0_26ParameterizedTestSuiteInfoI7TlsTestEENS0_30ParameterizedTestSuiteInfoBaseEEEPT_PT0_, symObjAddr: 0x21F20, symBinAddr: 0x10004C310, symSize: 0xA0 }
  - { offsetInCU: 0xE23C, offset: 0xFF606, size: 0x8, addend: 0x0, symName: __ZN7testing8internal18CmpHelperEQFailureI20QUIC_PACKET_KEY_TYPES2_EENS_15AssertionResultEPKcS5_RKT_RKT0_, symObjAddr: 0x1C120, symBinAddr: 0x100047180, symSize: 0xC0 }
  - { offsetInCU: 0xF61E, offset: 0x1009E8, size: 0x8, addend: 0x0, symName: __ZN7testing8internal27CheckedDowncastToActualTypeIKNS0_30ValuesInIteratorRangeGeneratorIbE8IteratorEKNS0_22ParamIteratorInterfaceIbEEEEPT_PT0_, symObjAddr: 0x1DFA0, symBinAddr: 0x100048D90, symSize: 0xA0 }
  - { offsetInCU: 0xFF8F, offset: 0x101359, size: 0x8, addend: 0x0, symName: __ZN7testing8internal11CmpHelperNEIDnP23QUIC_CERTIFICATE_PKCS12EENS_15AssertionResultEPKcS6_RKT_RKT0_, symObjAddr: 0x201C0, symBinAddr: 0x10004A920, symSize: 0x40 }
  - { offsetInCU: 0x10031, offset: 0x1013FB, size: 0x8, addend: 0x0, symName: __ZN7testing8internal11CmpHelperNEIDnPKhEENS_15AssertionResultEPKcS6_RKT_RKT0_, symObjAddr: 0x202F0, symBinAddr: 0x10004AA50, symSize: 0x40 }
  - { offsetInCU: 0x100D3, offset: 0x10149D, size: 0x8, addend: 0x0, symName: __ZN7testing8internal18CmpHelperOpFailureIDnP23QUIC_CERTIFICATE_PKCS12EENS_15AssertionResultEPKcS6_RKT_RKT0_S6_, symObjAddr: 0x20330, symBinAddr: 0x10004AA90, symSize: 0x2D0 }
  - { offsetInCU: 0x1134B, offset: 0x102715, size: 0x8, addend: 0x0, symName: __ZN7testing8internal18CmpHelperOpFailureIDnPKhEENS_15AssertionResultEPKcS6_RKT_RKT0_S6_, symObjAddr: 0x20700, symBinAddr: 0x10004AE60, symSize: 0x2D0 }
  - { offsetInCU: 0x13EC1, offset: 0x10528B, size: 0x8, addend: 0x0, symName: __ZN7testing18WithParamInterfaceIbE10parameter_E, symObjAddr: 0x2C8F8, symBinAddr: 0x10042C8F0, symSize: 0x0 }
  - { offsetInCU: 0x1430C, offset: 0x1056D6, size: 0x8, addend: 0x0, symName: __ZN7testing13PrintToStringI20QUIC_PACKET_KEY_TYPEEENSt3__112basic_stringIcNS2_11char_traitsIcEENS2_9allocatorIcEEEERKT_, symObjAddr: 0x1C1E0, symBinAddr: 0x100047240, symSize: 0xF0 }
  - { offsetInCU: 0x14623, offset: 0x1059ED, size: 0x8, addend: 0x0, symName: __ZN7testing8ValuesInINSt3__16vectorIbNS1_9allocatorIbEEEEEENS_8internal14ParamGeneratorINT_10value_typeEEERKS8_, symObjAddr: 0x1D9D0, symBinAddr: 0x1000487C0, symSize: 0xE0 }
  - { offsetInCU: 0x14CC4, offset: 0x10608E, size: 0x8, addend: 0x0, symName: __ZN7testing13PrintToStringIP17CXPLAT_SEC_CONFIGEENSt3__112basic_stringIcNS3_11char_traitsIcEENS3_9allocatorIcEEEERKT_, symObjAddr: 0x1E930, symBinAddr: 0x100049180, symSize: 0x100 }
  - { offsetInCU: 0x15026, offset: 0x1063F0, size: 0x8, addend: 0x0, symName: __ZN7testing13PrintToStringIP22QUIC_CREDENTIAL_CONFIGEENSt3__112basic_stringIcNS3_11char_traitsIcEENS3_9allocatorIcEEEERKT_, symObjAddr: 0x1ED00, symBinAddr: 0x100049550, symSize: 0x100 }
  - { offsetInCU: 0x1555B, offset: 0x106925, size: 0x8, addend: 0x0, symName: __ZN7testing13PrintToStringIPhEENSt3__112basic_stringIcNS2_11char_traitsIcEENS2_9allocatorIcEEEERKT_, symObjAddr: 0x1F490, symBinAddr: 0x100049BF0, symSize: 0x100 }
  - { offsetInCU: 0x158D8, offset: 0x106CA2, size: 0x8, addend: 0x0, symName: __ZN7testing13PrintToStringIP15QUIC_PACKET_KEYEENSt3__112basic_stringIcNS3_11char_traitsIcEENS3_9allocatorIcEEEERKT_, symObjAddr: 0x1F860, symBinAddr: 0x100049FC0, symSize: 0x100 }
  - { offsetInCU: 0x15C3A, offset: 0x107004, size: 0x8, addend: 0x0, symName: __ZN7testing13PrintToStringIP23QUIC_CERTIFICATE_PKCS12EENSt3__112basic_stringIcNS3_11char_traitsIcEENS3_9allocatorIcEEEERKT_, symObjAddr: 0x20600, symBinAddr: 0x10004AD60, symSize: 0x100 }
  - { offsetInCU: 0x15F9C, offset: 0x107366, size: 0x8, addend: 0x0, symName: __ZN7testing13PrintToStringIPKhEENSt3__112basic_stringIcNS3_11char_traitsIcEENS3_9allocatorIcEEEERKT_, symObjAddr: 0x209D0, symBinAddr: 0x10004B130, symSize: 0x100 }
  - { offsetInCU: 0x16319, offset: 0x1076E3, size: 0x8, addend: 0x0, symName: __ZN7testing13PrintToStringI17QUIC_CIPHER_SUITEEENSt3__112basic_stringIcNS2_11char_traitsIcEENS2_9allocatorIcEEEERKT_, symObjAddr: 0x20C50, symBinAddr: 0x10004B3B0, symSize: 0xF0 }
  - { offsetInCU: 0x16630, offset: 0x1079FA, size: 0x8, addend: 0x0, symName: __ZN7testing13PrintToStringI25QUIC_TLS_PROTOCOL_VERSIONEENSt3__112basic_stringIcNS2_11char_traitsIcEENS2_9allocatorIcEEEERKT_, symObjAddr: 0x20E00, symBinAddr: 0x10004B560, symSize: 0xF0 }
  - { offsetInCU: 0x16947, offset: 0x107D11, size: 0x8, addend: 0x0, symName: __ZN7testing13PrintToStringI21QUIC_CIPHER_ALGORITHMEENSt3__112basic_stringIcNS2_11char_traitsIcEENS2_9allocatorIcEEEERKT_, symObjAddr: 0x20FB0, symBinAddr: 0x10004B710, symSize: 0xF0 }
  - { offsetInCU: 0x16E31, offset: 0x1081FB, size: 0x8, addend: 0x0, symName: __ZN7testing13PrintToStringI27QUIC_KEY_EXCHANGE_ALGORITHMEENSt3__112basic_stringIcNS2_11char_traitsIcEENS2_9allocatorIcEEEERKT_, symObjAddr: 0x21310, symBinAddr: 0x10004B8C0, symSize: 0xF0 }
  - { offsetInCU: 0x17148, offset: 0x108512, size: 0x8, addend: 0x0, symName: __ZN7testing13PrintToStringI19QUIC_HASH_ALGORITHMEENSt3__112basic_stringIcNS2_11char_traitsIcEENS2_9allocatorIcEEEERKT_, symObjAddr: 0x214C0, symBinAddr: 0x10004BA70, symSize: 0xF0 }
  - { offsetInCU: 0x17602, offset: 0x1089CC, size: 0x8, addend: 0x0, symName: __ZN7testing13PrintToStringIcEENSt3__112basic_stringIcNS1_11char_traitsIcEENS1_9allocatorIcEEEERKT_, symObjAddr: 0x21AF0, symBinAddr: 0x10004BFB0, symSize: 0xF0 }
  - { offsetInCU: 0x178DA, offset: 0x108CA4, size: 0x8, addend: 0x0, symName: __ZN7testing13PrintToStringI22CXPLAT_TLS_ALERT_CODESEENSt3__112basic_stringIcNS2_11char_traitsIcEENS2_9allocatorIcEEEERKT_, symObjAddr: 0x21E20, symBinAddr: 0x10004C220, symSize: 0xF0 }
  - { offsetInCU: 0x17BF1, offset: 0x108FBB, size: 0x8, addend: 0x0, symName: __ZN7testing13PrintToStringIbEENSt3__112basic_stringIcNS1_11char_traitsIcEENS1_9allocatorIcEEEERKT_, symObjAddr: 0x23770, symBinAddr: 0x10004D480, symSize: 0x110 }
  - { offsetInCU: 0x2D91A, offset: 0x11ECE4, size: 0x8, addend: 0x0, symName: __ZN7TlsTest25SelfSignedCertParamsFlagsE, symObjAddr: 0x220398, symBinAddr: 0x100432820, symSize: 0x0 }
  - { offsetInCU: 0x2D92E, offset: 0x11ECF8, size: 0x8, addend: 0x0, symName: __ZN7TlsTest20SelfSignedCertParamsE, symObjAddr: 0x2203A0, symBinAddr: 0x100432828, symSize: 0x0 }
  - { offsetInCU: 0x2D942, offset: 0x11ED0C, size: 0x8, addend: 0x0, symName: __ZN7TlsTest16ClientCertParamsE, symObjAddr: 0x2203A8, symBinAddr: 0x100432830, symSize: 0x0 }
  - { offsetInCU: 0x2D956, offset: 0x11ED20, size: 0x8, addend: 0x0, symName: __ZN7TlsTest18CertParamsFromFileE, symObjAddr: 0x2203B0, symBinAddr: 0x100432838, symSize: 0x0 }
  - { offsetInCU: 0x2D96A, offset: 0x11ED34, size: 0x8, addend: 0x0, symName: __ZN7TlsTest27CaSelfSignedCertParamsFlagsE, symObjAddr: 0x2203B8, symBinAddr: 0x100432840, symSize: 0x0 }
  - { offsetInCU: 0x2D97E, offset: 0x11ED48, size: 0x8, addend: 0x0, symName: __ZN7TlsTest22CaSelfSignedCertParamsE, symObjAddr: 0x2203C0, symBinAddr: 0x100432848, symSize: 0x0 }
  - { offsetInCU: 0x2D992, offset: 0x11ED5C, size: 0x8, addend: 0x0, symName: __ZN7TlsTest18CaClientCertParamsE, symObjAddr: 0x2203C8, symBinAddr: 0x100432850, symSize: 0x0 }
  - { offsetInCU: 0x2D9A6, offset: 0x11ED70, size: 0x8, addend: 0x0, symName: __ZN7TlsTest23ServerCaCertificateFileE, symObjAddr: 0x2203D0, symBinAddr: 0x100432858, symSize: 0x0 }
  - { offsetInCU: 0x2D9BA, offset: 0x11ED84, size: 0x8, addend: 0x0, symName: __ZN7TlsTest23ClientCaCertificateFileE, symObjAddr: 0x2203D8, symBinAddr: 0x100432860, symSize: 0x0 }
  - { offsetInCU: 0x2D9CE, offset: 0x11ED98, size: 0x8, addend: 0x0, symName: __ZN23TlsTest_Initialize_Test10test_info_E, symObjAddr: 0x2203E0, symBinAddr: 0x100432868, symSize: 0x0 }
  - { offsetInCU: 0x2DC62, offset: 0x11F02C, size: 0x8, addend: 0x0, symName: __ZN22TlsTest_Handshake_Test10test_info_E, symObjAddr: 0x2203E8, symBinAddr: 0x100432870, symSize: 0x0 }
  - { offsetInCU: 0x2DD52, offset: 0x11F11C, size: 0x8, addend: 0x0, symName: __ZN34TlsTest_HandshakeCertFromFile_Test10test_info_E, symObjAddr: 0x2203F0, symBinAddr: 0x100432878, symSize: 0x0 }
  - { offsetInCU: 0x2DE42, offset: 0x11F20C, size: 0x8, addend: 0x0, symName: __ZN38TlsTest_HandshakeParamInfoDefault_Test10test_info_E, symObjAddr: 0x2203F8, symBinAddr: 0x100432880, symSize: 0x0 }
  - { offsetInCU: 0x2DF32, offset: 0x11F2FC, size: 0x8, addend: 0x0, symName: __ZN40TlsTest_HandshakeParamInfoAES256GCM_Test10test_info_E, symObjAddr: 0x220400, symBinAddr: 0x100432888, symSize: 0x0 }
  - { offsetInCU: 0x2E022, offset: 0x11F3EC, size: 0x8, addend: 0x0, symName: __ZN40TlsTest_HandshakeParamInfoAES128GCM_Test10test_info_E, symObjAddr: 0x220408, symBinAddr: 0x100432890, symSize: 0x0 }
  - { offsetInCU: 0x2E112, offset: 0x11F4DC, size: 0x8, addend: 0x0, symName: __ZN39TlsTest_HandshakeParamInfoChaCha20_Test10test_info_E, symObjAddr: 0x220410, symBinAddr: 0x100432898, symSize: 0x0 }
  - { offsetInCU: 0x2E202, offset: 0x11F5CC, size: 0x8, addend: 0x0, symName: __ZN41TlsTest_HandshakeParamNegotiatedAlpn_Test10test_info_E, symObjAddr: 0x220418, symBinAddr: 0x1004328A0, symSize: 0x0 }
  - { offsetInCU: 0x2E2F2, offset: 0x11F6BC, size: 0x8, addend: 0x0, symName: __ZN30TlsTest_HandshakeParallel_Test10test_info_E, symObjAddr: 0x220420, symBinAddr: 0x1004328A8, symSize: 0x0 }
  - { offsetInCU: 0x2E3E2, offset: 0x11F7AC, size: 0x8, addend: 0x0, symName: __ZN32TlsTest_HandshakeResumption_Test10test_info_E, symObjAddr: 0x220428, symBinAddr: 0x1004328B0, symSize: 0x0 }
  - { offsetInCU: 0x2E4E5, offset: 0x11F8AF, size: 0x8, addend: 0x0, symName: __ZN41TlsTest_HandshakeResumptionRejection_Test10test_info_E, symObjAddr: 0x220430, symBinAddr: 0x1004328B8, symSize: 0x0 }
  - { offsetInCU: 0x2E5D5, offset: 0x11F99F, size: 0x8, addend: 0x0, symName: __ZN46TlsTest_HandshakeResumptionClientDisabled_Test10test_info_E, symObjAddr: 0x220438, symBinAddr: 0x1004328C0, symSize: 0x0 }
  - { offsetInCU: 0x2E6C5, offset: 0x11FA8F, size: 0x8, addend: 0x0, symName: __ZN46TlsTest_HandshakeResumptionServerDisabled_Test10test_info_E, symObjAddr: 0x220440, symBinAddr: 0x1004328C8, symSize: 0x0 }
  - { offsetInCU: 0x2E7B5, offset: 0x11FB7F, size: 0x8, addend: 0x0, symName: __ZN37TlsTest_HandshakeMultiAlpnServer_Test10test_info_E, symObjAddr: 0x220448, symBinAddr: 0x1004328D0, symSize: 0x0 }
  - { offsetInCU: 0x2E8A5, offset: 0x11FC6F, size: 0x8, addend: 0x0, symName: __ZN37TlsTest_HandshakeMultiAlpnClient_Test10test_info_E, symObjAddr: 0x220450, symBinAddr: 0x1004328D8, symSize: 0x0 }
  - { offsetInCU: 0x2E995, offset: 0x11FD5F, size: 0x8, addend: 0x0, symName: __ZN35TlsTest_HandshakeMultiAlpnBoth_Test10test_info_E, symObjAddr: 0x220458, symBinAddr: 0x1004328E0, symSize: 0x0 }
  - { offsetInCU: 0x2EA85, offset: 0x11FE4F, size: 0x8, addend: 0x0, symName: __ZN32TlsTest_HandshakeFragmented_Test10test_info_E, symObjAddr: 0x220460, symBinAddr: 0x1004328E8, symSize: 0x0 }
  - { offsetInCU: 0x2EB75, offset: 0x11FF3F, size: 0x8, addend: 0x0, symName: __ZN36TlsTest_HandshakeVeryFragmented_Test10test_info_E, symObjAddr: 0x220468, symBinAddr: 0x1004328F0, symSize: 0x0 }
  - { offsetInCU: 0x2EC65, offset: 0x12002F, size: 0x8, addend: 0x0, symName: __ZN29TlsTest_HandshakesSerial_Test10test_info_E, symObjAddr: 0x220470, symBinAddr: 0x1004328F8, symSize: 0x0 }
  - { offsetInCU: 0x2ED55, offset: 0x12011F, size: 0x8, addend: 0x0, symName: __ZN34TlsTest_HandshakesInterleaved_Test10test_info_E, symObjAddr: 0x220478, symBinAddr: 0x100432900, symSize: 0x0 }
  - { offsetInCU: 0x2EE45, offset: 0x12020F, size: 0x8, addend: 0x0, symName: __ZN29TlsTest_CertificateError_Test10test_info_E, symObjAddr: 0x220480, symBinAddr: 0x100432908, symSize: 0x0 }
  - { offsetInCU: 0x2EF35, offset: 0x1202FF, size: 0x8, addend: 0x0, symName: __ZN47TlsTest_DeferredCertificateValidationAllow_Test10test_info_E, symObjAddr: 0x220488, symBinAddr: 0x100432910, symSize: 0x0 }
  - { offsetInCU: 0x2F025, offset: 0x1203EF, size: 0x8, addend: 0x0, symName: __ZN49TlsTest_DeferredCertificateValidationAllowCa_Test10test_info_E, symObjAddr: 0x220490, symBinAddr: 0x100432918, symSize: 0x0 }
  - { offsetInCU: 0x2F115, offset: 0x1204DF, size: 0x8, addend: 0x0, symName: __ZN48TlsTest_DeferredCertificateValidationReject_Test10test_info_E, symObjAddr: 0x220498, symBinAddr: 0x100432920, symSize: 0x0 }
  - { offsetInCU: 0x2F205, offset: 0x1205CF, size: 0x8, addend: 0x0, symName: __ZN45TlsTest_CustomCertificateValidationAllow_Test10test_info_E, symObjAddr: 0x2204A0, symBinAddr: 0x100432928, symSize: 0x0 }
  - { offsetInCU: 0x2F2F5, offset: 0x1206BF, size: 0x8, addend: 0x0, symName: __ZN46TlsTest_CustomCertificateValidationReject_Test10test_info_E, symObjAddr: 0x2204A8, symBinAddr: 0x100432930, symSize: 0x0 }
  - { offsetInCU: 0x2F3E5, offset: 0x1207AF, size: 0x8, addend: 0x0, symName: __ZN60TlsTest_CustomCertificateValidationServerIndicateNoCert_Test10test_info_E, symObjAddr: 0x2204B0, symBinAddr: 0x100432938, symSize: 0x0 }
  - { offsetInCU: 0x2F4D5, offset: 0x12089F, size: 0x8, addend: 0x0, symName: __ZN60TlsTest_CustomClientCertificateValidationServerIndicate_Test10test_info_E, symObjAddr: 0x2204B8, symBinAddr: 0x100432940, symSize: 0x0 }
  - { offsetInCU: 0x2F5C5, offset: 0x12098F, size: 0x8, addend: 0x0, symName: __ZN39TlsTest_ExtraCertificateValidation_Test10test_info_E, symObjAddr: 0x2204C0, symBinAddr: 0x100432948, symSize: 0x0 }
  - { offsetInCU: 0x2F6B5, offset: 0x120A7F, size: 0x8, addend: 0x0, symName: __ZN42TlsTest_PortableCertificateValidation_Test10test_info_E, symObjAddr: 0x2204C8, symBinAddr: 0x100432950, symSize: 0x0 }
  - { offsetInCU: 0x2F7A5, offset: 0x120B6F, size: 0x8, addend: 0x0, symName: __ZN23TlsTest_One1RttKey_Test24gtest_registering_dummy_E, symObjAddr: 0x2204D0, symBinAddr: 0x100432958, symSize: 0x0 }
  - { offsetInCU: 0x2F835, offset: 0x120BFF, size: 0x8, addend: 0x0, symName: __ZN22TlsTest_KeyUpdate_Test24gtest_registering_dummy_E, symObjAddr: 0x2204D4, symBinAddr: 0x10043295C, symSize: 0x0 }
  - { offsetInCU: 0x2F8C5, offset: 0x120C8F, size: 0x8, addend: 0x0, symName: __ZN33TlsTest_PacketEncryptionPerf_Test24gtest_registering_dummy_E, symObjAddr: 0x2204D8, symBinAddr: 0x100432960, symSize: 0x0 }
  - { offsetInCU: 0x2F955, offset: 0x120D1F, size: 0x8, addend: 0x0, symName: __ZN25TlsTest_LockPerfTest_Test10test_info_E, symObjAddr: 0x2204E0, symBinAddr: 0x100432968, symSize: 0x0 }
  - { offsetInCU: 0x2FA45, offset: 0x120E0F, size: 0x8, addend: 0x0, symName: __ZN44TlsTest_ClientCertificateFailValidation_Test10test_info_E, symObjAddr: 0x2204E8, symBinAddr: 0x100432970, symSize: 0x0 }
  - { offsetInCU: 0x2FB35, offset: 0x120EFF, size: 0x8, addend: 0x0, symName: __ZN45TlsTest_ClientCertificateDeferValidation_Test10test_info_E, symObjAddr: 0x2204F0, symBinAddr: 0x100432978, symSize: 0x0 }
  - { offsetInCU: 0x2FC25, offset: 0x120FEF, size: 0x8, addend: 0x0, symName: __ZN47TlsTest_ClientCertificateDeferValidationCa_Test10test_info_E, symObjAddr: 0x2204F8, symBinAddr: 0x100432980, symSize: 0x0 }
  - { offsetInCU: 0x2FD15, offset: 0x1210DF, size: 0x8, addend: 0x0, symName: __ZN51TlsTest_ClientCertificateDeferValidationNoCert_Test10test_info_E, symObjAddr: 0x220500, symBinAddr: 0x100432988, symSize: 0x0 }
  - { offsetInCU: 0x2FE05, offset: 0x1211CF, size: 0x8, addend: 0x0, symName: __ZN48TlsTest_ClientCertificateNoValidationNoCert_Test10test_info_E, symObjAddr: 0x220508, symBinAddr: 0x100432990, symSize: 0x0 }
  - { offsetInCU: 0x2FEF5, offset: 0x1212BF, size: 0x8, addend: 0x0, symName: __ZN32TlsTest_CipherSuiteSuccess1_Test10test_info_E, symObjAddr: 0x220510, symBinAddr: 0x100432998, symSize: 0x0 }
  - { offsetInCU: 0x2FFE5, offset: 0x1213AF, size: 0x8, addend: 0x0, symName: __ZN32TlsTest_CipherSuiteSuccess2_Test10test_info_E, symObjAddr: 0x220518, symBinAddr: 0x1004329A0, symSize: 0x0 }
  - { offsetInCU: 0x300D5, offset: 0x12149F, size: 0x8, addend: 0x0, symName: __ZN32TlsTest_CipherSuiteSuccess3_Test10test_info_E, symObjAddr: 0x220520, symBinAddr: 0x1004329A8, symSize: 0x0 }
  - { offsetInCU: 0x301C5, offset: 0x12158F, size: 0x8, addend: 0x0, symName: __ZN32TlsTest_CipherSuiteMismatch_Test10test_info_E, symObjAddr: 0x220528, symBinAddr: 0x1004329B0, symSize: 0x0 }
  - { offsetInCU: 0x302B5, offset: 0x12167F, size: 0x8, addend: 0x0, symName: __ZN31TlsTest_CipherSuiteInvalid_Test10test_info_E, symObjAddr: 0x220530, symBinAddr: 0x1004329B8, symSize: 0x0 }
  - { offsetInCU: 0x303A5, offset: 0x12176F, size: 0x8, addend: 0x0, symName: __ZN42TlsTest_PlatformSpecificFlagsSchannel_Test10test_info_E, symObjAddr: 0x220538, symBinAddr: 0x1004329C0, symSize: 0x0 }
  - { offsetInCU: 0x30495, offset: 0x12185F, size: 0x8, addend: 0x0, symName: __ZN41TlsTest_PlatformSpecificFlagsOpenSsl_Test10test_info_E, symObjAddr: 0x220540, symBinAddr: 0x1004329C8, symSize: 0x0 }
  - { offsetInCU: 0x30585, offset: 0x12194F, size: 0x8, addend: 0x0, symName: __ZN30TlsTest_PortableCertFlags_Test10test_info_E, symObjAddr: 0x220548, symBinAddr: 0x1004329D0, symSize: 0x0 }
  - { offsetInCU: 0x3067C, offset: 0x121A46, size: 0x8, addend: 0x0, symName: __ZL9MultiAlpn, symObjAddr: 0x2F863, symBinAddr: 0x1003B82E3, symSize: 0x0 }
  - { offsetInCU: 0x306A2, offset: 0x121A6C, size: 0x8, addend: 0x0, symName: __ZL4Alpn, symObjAddr: 0x2EFB0, symBinAddr: 0x1003B7A70, symSize: 0x0 }
  - { offsetInCU: 0x306CD, offset: 0x121A97, size: 0x8, addend: 0x0, symName: __ZL10HkdfLabels, symObjAddr: 0x2C928, symBinAddr: 0x1003E21D8, symSize: 0x0 }
  - { offsetInCU: 0x33574, offset: 0x12493E, size: 0x8, addend: 0x0, symName: __Z13IsWindows2019v, symObjAddr: 0x0, symBinAddr: 0x10002B140, symSize: 0x30 }
  - { offsetInCU: 0x33592, offset: 0x12495C, size: 0x8, addend: 0x0, symName: __Z13IsWindows2022v, symObjAddr: 0x30, symBinAddr: 0x10002B170, symSize: 0x30 }
  - { offsetInCU: 0x335B0, offset: 0x12497A, size: 0x8, addend: 0x0, symName: __ZN7TlsTest10TlsContext16OnQuicTPReceivedEP15QUIC_CONNECTIONtPKh, symObjAddr: 0x60, symBinAddr: 0x10002B1A0, symSize: 0x10 }
  - { offsetInCU: 0x335F2, offset: 0x1249BC, size: 0x8, addend: 0x0, symName: __ZN7TlsTest10TlsContext23OnSessionTicketReceivedEP15QUIC_CONNECTIONjPKh, symObjAddr: 0x70, symBinAddr: 0x10002B1B0, symSize: 0x60 }
  - { offsetInCU: 0x33688, offset: 0x124A52, size: 0x8, addend: 0x0, symName: __ZN7TlsTest10TlsContext18OnPeerCertReceivedEP15QUIC_CONNECTIONPvS3_jj, symObjAddr: 0xD0, symBinAddr: 0x10002B210, symSize: 0xD0 }
  - { offsetInCU: 0x337F7, offset: 0x124BC1, size: 0x8, addend: 0x0, symName: __ZN7testing8internal16SuiteApiResolverI7TlsTestE19GetSetUpCaseOrSuiteEPKci, symObjAddr: 0x1A0, symBinAddr: 0x10002B2E0, symSize: 0xD0 }
  - { offsetInCU: 0x3399C, offset: 0x124D66, size: 0x8, addend: 0x0, symName: __ZN7testing8internal16SuiteApiResolverI7TlsTestE22GetTearDownCaseOrSuiteEPKci, symObjAddr: 0x270, symBinAddr: 0x10002B3B0, symSize: 0xD0 }
  - { offsetInCU: 0x33DB1, offset: 0x12517B, size: 0x8, addend: 0x0, symName: __ZN23TlsTest_Initialize_Test8TestBodyEv, symObjAddr: 0x340, symBinAddr: 0x10002B480, symSize: 0x2F0 }
  - { offsetInCU: 0x34300, offset: 0x1256CA, size: 0x8, addend: 0x0, symName: __ZN7TlsTest15CxPlatSecConfig4LoadEPK22QUIC_CREDENTIAL_CONFIG27CXPLAT_TLS_CREDENTIAL_FLAGS, symObjAddr: 0x1F50, symBinAddr: 0x10002D050, symSize: 0x280 }
  - { offsetInCU: 0x350D0, offset: 0x12649A, size: 0x8, addend: 0x0, symName: __ZN7TlsTest10TlsContext16InitializeClientEP17CXPLAT_SEC_CONFIGbtP11QUIC_BUFFER, symObjAddr: 0x630, symBinAddr: 0x10002B770, symSize: 0x370 }
  - { offsetInCU: 0x35E22, offset: 0x1271EC, size: 0x8, addend: 0x0, symName: __ZN7TlsTest10TlsContext16InitializeServerEPK17CXPLAT_SEC_CONFIGbt, symObjAddr: 0x9A0, symBinAddr: 0x10002BAE0, symSize: 0x1F0 }
  - { offsetInCU: 0x366C0, offset: 0x127A8A, size: 0x8, addend: 0x0, symName: __ZN7TlsTest10TlsContextD2Ev, symObjAddr: 0x1B460, symBinAddr: 0x1000464C0, symSize: 0x80 }
  - { offsetInCU: 0x36777, offset: 0x127B41, size: 0x8, addend: 0x0, symName: __ZN7TlsTest21CxPlatServerSecConfigD1Ev, symObjAddr: 0xB90, symBinAddr: 0x10002BCD0, symSize: 0x20 }
  - { offsetInCU: 0x367D8, offset: 0x127BA2, size: 0x8, addend: 0x0, symName: __ZN7TlsTest21CxPlatClientSecConfigD1Ev, symObjAddr: 0xBB0, symBinAddr: 0x10002BCF0, symSize: 0x20 }
  - { offsetInCU: 0x36FD9, offset: 0x1283A3, size: 0x8, addend: 0x0, symName: __ZN22TlsTest_Handshake_Test8TestBodyEv, symObjAddr: 0xBD0, symBinAddr: 0x10002BD10, symSize: 0x530 }
  - { offsetInCU: 0x378AC, offset: 0x128C76, size: 0x8, addend: 0x0, symName: __ZN7TlsTest11DoHandshakeERNS_10TlsContextES1_jbbb, symObjAddr: 0x1100, symBinAddr: 0x10002C240, symSize: 0x9E0 }
  - { offsetInCU: 0x39307, offset: 0x12A6D1, size: 0x8, addend: 0x0, symName: __ZN7TlsTest10TlsContext11ProcessDataE20QUIC_PACKET_KEY_TYPEPKhPjb20CXPLAT_TLS_DATA_TYPE, symObjAddr: 0x1BD30, symBinAddr: 0x100046D90, symSize: 0x3F0 }
  - { offsetInCU: 0x3A56C, offset: 0x12B936, size: 0x8, addend: 0x0, symName: __ZN7TlsTest10TlsContext11ProcessDataEP24CXPLAT_TLS_PROCESS_STATEjb20CXPLAT_TLS_DATA_TYPE, symObjAddr: 0xDE00, symBinAddr: 0x100038F00, symSize: 0x190 }
  - { offsetInCU: 0x3A722, offset: 0x12BAEC, size: 0x8, addend: 0x0, symName: __ZN34TlsTest_HandshakeCertFromFile_Test8TestBodyEv, symObjAddr: 0x1B20, symBinAddr: 0x10002CC20, symSize: 0x430 }
  - { offsetInCU: 0x3B186, offset: 0x12C550, size: 0x8, addend: 0x0, symName: __ZN7TlsTest15CxPlatSecConfigD1Ev, symObjAddr: 0x21D0, symBinAddr: 0x10002D2D0, symSize: 0x20 }
  - { offsetInCU: 0x3B44E, offset: 0x12C818, size: 0x8, addend: 0x0, symName: __ZN38TlsTest_HandshakeParamInfoDefault_Test8TestBodyEv, symObjAddr: 0x21F0, symBinAddr: 0x10002D2F0, symSize: 0x15C0 }
  - { offsetInCU: 0x4008F, offset: 0x131459, size: 0x8, addend: 0x0, symName: __ZN40TlsTest_HandshakeParamInfoAES256GCM_Test8TestBodyEv, symObjAddr: 0x37B0, symBinAddr: 0x10002E8B0, symSize: 0x15D0 }
  - { offsetInCU: 0x44CA3, offset: 0x13606D, size: 0x8, addend: 0x0, symName: __ZN40TlsTest_HandshakeParamInfoAES128GCM_Test8TestBodyEv, symObjAddr: 0x4D80, symBinAddr: 0x10002FE80, symSize: 0x15D0 }
  - { offsetInCU: 0x498B7, offset: 0x13AC81, size: 0x8, addend: 0x0, symName: __ZN39TlsTest_HandshakeParamInfoChaCha20_Test8TestBodyEv, symObjAddr: 0x6350, symBinAddr: 0x100031450, symSize: 0x19A0 }
  - { offsetInCU: 0x4F545, offset: 0x14090F, size: 0x8, addend: 0x0, symName: __ZN41TlsTest_HandshakeParamNegotiatedAlpn_Test8TestBodyEv, symObjAddr: 0x7CF0, symBinAddr: 0x100032DF0, symSize: 0xA60 }
  - { offsetInCU: 0x50B2D, offset: 0x141EF7, size: 0x8, addend: 0x0, symName: __ZN30TlsTest_HandshakeParallel_Test8TestBodyEv, symObjAddr: 0x8750, symBinAddr: 0x100033850, symSize: 0x3C0 }
  - { offsetInCU: 0x517CC, offset: 0x142B96, size: 0x8, addend: 0x0, symName: __ZN7TlsTest14HandshakeAsyncEPv, symObjAddr: 0x8B10, symBinAddr: 0x100033C10, symSize: 0x220 }
  - { offsetInCU: 0x51ACB, offset: 0x142E95, size: 0x8, addend: 0x0, symName: __ZN32TlsTest_HandshakeResumption_Test8TestBodyEv, symObjAddr: 0x8D30, symBinAddr: 0x100033E30, symSize: 0xBF0 }
  - { offsetInCU: 0x532E2, offset: 0x1446AC, size: 0x8, addend: 0x0, symName: __ZN41TlsTest_HandshakeResumptionRejection_Test8TestBodyEv, symObjAddr: 0x9960, symBinAddr: 0x100034A60, symSize: 0xC10 }
  - { offsetInCU: 0x54B59, offset: 0x145F23, size: 0x8, addend: 0x0, symName: __ZN46TlsTest_HandshakeResumptionClientDisabled_Test8TestBodyEv, symObjAddr: 0xA570, symBinAddr: 0x100035670, symSize: 0x560 }
  - { offsetInCU: 0x556A2, offset: 0x146A6C, size: 0x8, addend: 0x0, symName: __ZN46TlsTest_HandshakeResumptionServerDisabled_Test8TestBodyEv, symObjAddr: 0xAAD0, symBinAddr: 0x100035BD0, symSize: 0xCA0 }
  - { offsetInCU: 0x5707C, offset: 0x148446, size: 0x8, addend: 0x0, symName: __ZN37TlsTest_HandshakeMultiAlpnServer_Test8TestBodyEv, symObjAddr: 0xB770, symBinAddr: 0x100036870, symSize: 0x310 }
  - { offsetInCU: 0x57604, offset: 0x1489CE, size: 0x8, addend: 0x0, symName: __ZN37TlsTest_HandshakeMultiAlpnClient_Test8TestBodyEv, symObjAddr: 0xBA80, symBinAddr: 0x100036B80, symSize: 0x310 }
  - { offsetInCU: 0x57B8C, offset: 0x148F56, size: 0x8, addend: 0x0, symName: __ZN35TlsTest_HandshakeMultiAlpnBoth_Test8TestBodyEv, symObjAddr: 0xBD90, symBinAddr: 0x100036E90, symSize: 0x310 }
  - { offsetInCU: 0x58114, offset: 0x1494DE, size: 0x8, addend: 0x0, symName: __ZN32TlsTest_HandshakeFragmented_Test8TestBodyEv, symObjAddr: 0xC0A0, symBinAddr: 0x1000371A0, symSize: 0x310 }
  - { offsetInCU: 0x5869C, offset: 0x149A66, size: 0x8, addend: 0x0, symName: __ZN36TlsTest_HandshakeVeryFragmented_Test8TestBodyEv, symObjAddr: 0xC3B0, symBinAddr: 0x1000374B0, symSize: 0x310 }
  - { offsetInCU: 0x58C24, offset: 0x149FEE, size: 0x8, addend: 0x0, symName: __ZN29TlsTest_HandshakesSerial_Test8TestBodyEv, symObjAddr: 0xC6C0, symBinAddr: 0x1000377C0, symSize: 0x4B0 }
  - { offsetInCU: 0x59391, offset: 0x14A75B, size: 0x8, addend: 0x0, symName: __ZN34TlsTest_HandshakesInterleaved_Test8TestBodyEv, symObjAddr: 0xCB70, symBinAddr: 0x100037C70, symSize: 0x1290 }
  - { offsetInCU: 0x5BE1D, offset: 0x14D1E7, size: 0x8, addend: 0x0, symName: __ZN29TlsTest_CertificateError_Test8TestBodyEv, symObjAddr: 0xDF90, symBinAddr: 0x100039090, symSize: 0x880 }
  - { offsetInCU: 0x5D0CD, offset: 0x14E497, size: 0x8, addend: 0x0, symName: __ZN47TlsTest_DeferredCertificateValidationAllow_Test8TestBodyEv, symObjAddr: 0xE810, symBinAddr: 0x100039910, symSize: 0x870 }
  - { offsetInCU: 0x5E529, offset: 0x14F8F3, size: 0x8, addend: 0x0, symName: __ZN49TlsTest_DeferredCertificateValidationAllowCa_Test8TestBodyEv, symObjAddr: 0xF080, symBinAddr: 0x10003A180, symSize: 0x880 }
  - { offsetInCU: 0x5F81C, offset: 0x150BE6, size: 0x8, addend: 0x0, symName: __ZN7TlsTest23CxPlatServerSecConfigCaD1Ev, symObjAddr: 0xF900, symBinAddr: 0x10003AA00, symSize: 0x20 }
  - { offsetInCU: 0x5F87D, offset: 0x150C47, size: 0x8, addend: 0x0, symName: __ZN7TlsTest23CxPlatClientSecConfigCaD1Ev, symObjAddr: 0xF920, symBinAddr: 0x10003AA20, symSize: 0x20 }
  - { offsetInCU: 0x5F938, offset: 0x150D02, size: 0x8, addend: 0x0, symName: __ZN48TlsTest_DeferredCertificateValidationReject_Test8TestBodyEv, symObjAddr: 0xF940, symBinAddr: 0x10003AA40, symSize: 0x940 }
  - { offsetInCU: 0x60B9F, offset: 0x151F69, size: 0x8, addend: 0x0, symName: __ZN45TlsTest_CustomCertificateValidationAllow_Test8TestBodyEv, symObjAddr: 0x10280, symBinAddr: 0x10003B380, symSize: 0x860 }
  - { offsetInCU: 0x61E71, offset: 0x15323B, size: 0x8, addend: 0x0, symName: __ZN46TlsTest_CustomCertificateValidationReject_Test8TestBodyEv, symObjAddr: 0x10AE0, symBinAddr: 0x10003BBE0, symSize: 0x950 }
  - { offsetInCU: 0x630D8, offset: 0x1544A2, size: 0x8, addend: 0x0, symName: __ZN60TlsTest_CustomCertificateValidationServerIndicateNoCert_Test8TestBodyEv, symObjAddr: 0x11430, symBinAddr: 0x10003C530, symSize: 0x2C0 }
  - { offsetInCU: 0x635BD, offset: 0x154987, size: 0x8, addend: 0x0, symName: __ZN60TlsTest_CustomClientCertificateValidationServerIndicate_Test8TestBodyEv, symObjAddr: 0x116F0, symBinAddr: 0x10003C7F0, symSize: 0x2C0 }
  - { offsetInCU: 0x63AA2, offset: 0x154E6C, size: 0x8, addend: 0x0, symName: __ZN39TlsTest_ExtraCertificateValidation_Test8TestBodyEv, symObjAddr: 0x119B0, symBinAddr: 0x10003CAB0, symSize: 0x950 }
  - { offsetInCU: 0x64EF1, offset: 0x1562BB, size: 0x8, addend: 0x0, symName: __ZN42TlsTest_PortableCertificateValidation_Test8TestBodyEv, symObjAddr: 0x12300, symBinAddr: 0x10003D400, symSize: 0x860 }
  - { offsetInCU: 0x66497, offset: 0x157861, size: 0x8, addend: 0x0, symName: __ZN23TlsTest_One1RttKey_Test13AddToRegistryEv, symObjAddr: 0x12B60, symBinAddr: 0x10003DC60, symSize: 0x1F0 }
  - { offsetInCU: 0x6755A, offset: 0x158924, size: 0x8, addend: 0x0, symName: __ZN7testing8internal30ParameterizedTestSuiteRegistry25GetTestSuitePatternHolderI7TlsTestEEPNS0_26ParameterizedTestSuiteInfoIT_EENSt3__112basic_stringIcNS8_11char_traitsIcEENS8_9allocatorIcEEEENS0_12CodeLocationE, symObjAddr: 0x188B0, symBinAddr: 0x1000439B0, symSize: 0x340 }
  - { offsetInCU: 0x685F5, offset: 0x1599BF, size: 0x8, addend: 0x0, symName: __ZN7testing8internal26ParameterizedTestSuiteInfoI7TlsTestE14AddTestPatternEPKcS5_PNS0_19TestMetaFactoryBaseIbEENS0_12CodeLocationE, symObjAddr: 0x1C8E0, symBinAddr: 0x100047790, symSize: 0x200 }
  - { offsetInCU: 0x69064, offset: 0x15A42E, size: 0x8, addend: 0x0, symName: __ZN23TlsTest_One1RttKey_Test8TestBodyEv, symObjAddr: 0x12D50, symBinAddr: 0x10003DE50, symSize: 0x970 }
  - { offsetInCU: 0x69FB6, offset: 0x15B380, size: 0x8, addend: 0x0, symName: __ZN7testing18WithParamInterfaceIbE8GetParamEv, symObjAddr: 0x136C0, symBinAddr: 0x10003E7C0, symSize: 0xB0 }
  - { offsetInCU: 0x6A098, offset: 0x15B462, size: 0x8, addend: 0x0, symName: __ZN7TlsTest9PacketKeyC2EP15QUIC_PACKET_KEY, symObjAddr: 0x1CFF0, symBinAddr: 0x100047DE0, symSize: 0x140 }
  - { offsetInCU: 0x6A72F, offset: 0x15BAF9, size: 0x8, addend: 0x0, symName: __ZN22TlsTest_KeyUpdate_Test13AddToRegistryEv, symObjAddr: 0x13770, symBinAddr: 0x10003E870, symSize: 0x1F0 }
  - { offsetInCU: 0x6B739, offset: 0x15CB03, size: 0x8, addend: 0x0, symName: __ZN22TlsTest_KeyUpdate_Test8TestBodyEv, symObjAddr: 0x13960, symBinAddr: 0x10003EA60, symSize: 0xC30 }
  - { offsetInCU: 0x6CA9A, offset: 0x15DE64, size: 0x8, addend: 0x0, symName: __ZN33TlsTest_PacketEncryptionPerf_Test13AddToRegistryEv, symObjAddr: 0x14590, symBinAddr: 0x10003F690, symSize: 0x1F0 }
  - { offsetInCU: 0x6DB25, offset: 0x15EEEF, size: 0x8, addend: 0x0, symName: __ZN33TlsTest_PacketEncryptionPerf_Test8TestBodyEv, symObjAddr: 0x14780, symBinAddr: 0x10003F880, symSize: 0x4D0 }
  - { offsetInCU: 0x6E32D, offset: 0x15F6F7, size: 0x8, addend: 0x0, symName: __ZN7TlsTest19DoEncryptionWithPNEERNS_9PacketKeyEty, symObjAddr: 0x14DC0, symBinAddr: 0x10003FEC0, symSize: 0x1B0 }
  - { offsetInCU: 0x6E553, offset: 0x15F91D, size: 0x8, addend: 0x0, symName: __ZN7TlsTest12DoEncryptionERNS_9PacketKeyEty, symObjAddr: 0x14C50, symBinAddr: 0x10003FD50, symSize: 0x170 }
  - { offsetInCU: 0x6E6F9, offset: 0x15FAC3, size: 0x8, addend: 0x0, symName: __Z13LockedCountery, symObjAddr: 0x14F70, symBinAddr: 0x100040070, symSize: 0x220 }
  - { offsetInCU: 0x6EACE, offset: 0x15FE98, size: 0x8, addend: 0x0, symName: __Z18InterlockedCountery, symObjAddr: 0x15190, symBinAddr: 0x100040290, symSize: 0x80 }
  - { offsetInCU: 0x6EBD9, offset: 0x15FFA3, size: 0x8, addend: 0x0, symName: __Z15UnlockedCountery, symObjAddr: 0x15210, symBinAddr: 0x100040310, symSize: 0x20 }
  - { offsetInCU: 0x6EC52, offset: 0x16001C, size: 0x8, addend: 0x0, symName: __ZN25TlsTest_LockPerfTest_Test8TestBodyEv, symObjAddr: 0x15230, symBinAddr: 0x100040330, symSize: 0x170 }
  - { offsetInCU: 0x6EEDC, offset: 0x1602A6, size: 0x8, addend: 0x0, symName: __ZN44TlsTest_ClientCertificateFailValidation_Test8TestBodyEv, symObjAddr: 0x153A0, symBinAddr: 0x1000404A0, symSize: 0x2C0 }
  - { offsetInCU: 0x6F3C1, offset: 0x16078B, size: 0x8, addend: 0x0, symName: __ZN45TlsTest_ClientCertificateDeferValidation_Test8TestBodyEv, symObjAddr: 0x15660, symBinAddr: 0x100040760, symSize: 0x2C0 }
  - { offsetInCU: 0x6F8A6, offset: 0x160C70, size: 0x8, addend: 0x0, symName: __ZN47TlsTest_ClientCertificateDeferValidationCa_Test8TestBodyEv, symObjAddr: 0x15920, symBinAddr: 0x100040A20, symSize: 0x2C0 }
  - { offsetInCU: 0x6FD85, offset: 0x16114F, size: 0x8, addend: 0x0, symName: __ZN51TlsTest_ClientCertificateDeferValidationNoCert_Test8TestBodyEv, symObjAddr: 0x15BE0, symBinAddr: 0x100040CE0, symSize: 0x320 }
  - { offsetInCU: 0x70332, offset: 0x1616FC, size: 0x8, addend: 0x0, symName: __ZN48TlsTest_ClientCertificateNoValidationNoCert_Test8TestBodyEv, symObjAddr: 0x15F00, symBinAddr: 0x100041000, symSize: 0x320 }
  - { offsetInCU: 0x708DF, offset: 0x161CA9, size: 0x8, addend: 0x0, symName: __ZN32TlsTest_CipherSuiteSuccess1_Test8TestBodyEv, symObjAddr: 0x16220, symBinAddr: 0x100041320, symSize: 0x310 }
  - { offsetInCU: 0x70E85, offset: 0x16224F, size: 0x8, addend: 0x0, symName: __ZN32TlsTest_CipherSuiteSuccess2_Test8TestBodyEv, symObjAddr: 0x16530, symBinAddr: 0x100041630, symSize: 0x310 }
  - { offsetInCU: 0x7140E, offset: 0x1627D8, size: 0x8, addend: 0x0, symName: __ZN32TlsTest_CipherSuiteSuccess3_Test8TestBodyEv, symObjAddr: 0x16840, symBinAddr: 0x100041940, symSize: 0x310 }
  - { offsetInCU: 0x719B5, offset: 0x162D7F, size: 0x8, addend: 0x0, symName: __ZN32TlsTest_CipherSuiteMismatch_Test8TestBodyEv, symObjAddr: 0x16B50, symBinAddr: 0x100041C50, symSize: 0x550 }
  - { offsetInCU: 0x72379, offset: 0x163743, size: 0x8, addend: 0x0, symName: __ZN31TlsTest_CipherSuiteInvalid_Test8TestBodyEv, symObjAddr: 0x170A0, symBinAddr: 0x1000421A0, symSize: 0x580 }
  - { offsetInCU: 0x73C56, offset: 0x165020, size: 0x8, addend: 0x0, symName: __ZN7TlsTest15CxPlatSecConfig25OnSecConfigCreateCompleteEPK22QUIC_CREDENTIAL_CONFIGPvjP17CXPLAT_SEC_CONFIG, symObjAddr: 0x17620, symBinAddr: 0x100042720, symSize: 0x270 }
  - { offsetInCU: 0x74A54, offset: 0x165E1E, size: 0x8, addend: 0x0, symName: __Z31ValidateSecConfigStatusSchanneljP17CXPLAT_SEC_CONFIG, symObjAddr: 0x17890, symBinAddr: 0x100042990, symSize: 0x270 }
  - { offsetInCU: 0x75848, offset: 0x166C12, size: 0x8, addend: 0x0, symName: __ZN42TlsTest_PlatformSpecificFlagsSchannel_Test8TestBodyEv, symObjAddr: 0x17B00, symBinAddr: 0x100042C00, symSize: 0xF0 }
  - { offsetInCU: 0x759C0, offset: 0x166D8A, size: 0x8, addend: 0x0, symName: __ZL31SchannelSecConfigCreateCompletePK22QUIC_CREDENTIAL_CONFIGPvjP17CXPLAT_SEC_CONFIG, symObjAddr: 0x17BF0, symBinAddr: 0x100042CF0, symSize: 0x130 }
  - { offsetInCU: 0x761EC, offset: 0x1675B6, size: 0x8, addend: 0x0, symName: __Z30ValidateSecConfigStatusOpenSsljP17CXPLAT_SEC_CONFIG, symObjAddr: 0x17D20, symBinAddr: 0x100042E20, symSize: 0x280 }
  - { offsetInCU: 0x76F9E, offset: 0x168368, size: 0x8, addend: 0x0, symName: __ZN41TlsTest_PlatformSpecificFlagsOpenSsl_Test8TestBodyEv, symObjAddr: 0x17FA0, symBinAddr: 0x1000430A0, symSize: 0x110 }
  - { offsetInCU: 0x77108, offset: 0x1684D2, size: 0x8, addend: 0x0, symName: __ZL30OpenSslSecConfigCreateCompletePK22QUIC_CREDENTIAL_CONFIGPvjP17CXPLAT_SEC_CONFIG, symObjAddr: 0x180B0, symBinAddr: 0x1000431B0, symSize: 0x270 }
  - { offsetInCU: 0x77EDE, offset: 0x1692A8, size: 0x8, addend: 0x0, symName: __Z35ValidateSecConfigStatusPortableCertjP17CXPLAT_SEC_CONFIG, symObjAddr: 0x18320, symBinAddr: 0x100043420, symSize: 0x270 }
  - { offsetInCU: 0x78C90, offset: 0x16A05A, size: 0x8, addend: 0x0, symName: __ZN30TlsTest_PortableCertFlags_Test8TestBodyEv, symObjAddr: 0x18590, symBinAddr: 0x100043690, symSize: 0xB0 }
  - { offsetInCU: 0x78DCA, offset: 0x16A194, size: 0x8, addend: 0x0, symName: __ZL40PortableCertFlagsSecConfigCreateCompletePK22QUIC_CREDENTIAL_CONFIGPvjP17CXPLAT_SEC_CONFIG, symObjAddr: 0x18640, symBinAddr: 0x100043740, symSize: 0x270 }
  - { offsetInCU: 0x7AA23, offset: 0x16BDED, size: 0x8, addend: 0x0, symName: __ZN7testing8internal18CmpHelperEQFailureIP17CXPLAT_SEC_CONFIGDnEENS_15AssertionResultEPKcS6_RKT_RKT0_, symObjAddr: 0x242F0, symBinAddr: 0x10004D590, symSize: 0xC0 }
  - { offsetInCU: 0x7AA46, offset: 0x16BE10, size: 0x8, addend: 0x0, symName: __ZN7testing8internal18CmpHelperOpFailureIDnP17CXPLAT_SEC_CONFIGEENS_15AssertionResultEPKcS6_RKT_RKT0_S6_, symObjAddr: 0x1E3A0, symBinAddr: 0x100048EB0, symSize: 0x2D0 }
  - { offsetInCU: 0x7AA52, offset: 0x16BE1C, size: 0x8, addend: 0x0, symName: __ZL35gtest_TlsTestTlsTest_EvalGenerator_v, symObjAddr: 0x18BF0, symBinAddr: 0x100043CF0, symSize: 0x30 }
  - { offsetInCU: 0x7AAC9, offset: 0x16BE93, size: 0x8, addend: 0x0, symName: __ZNK7testing8internal10ValueArrayIJbbEEcvNS0_14ParamGeneratorIT_EEIbEEv, symObjAddr: 0x1D8F0, symBinAddr: 0x1000486E0, symSize: 0xE0 }
  - { offsetInCU: 0x7B361, offset: 0x16C72B, size: 0x8, addend: 0x0, symName: __ZL38gtest_TlsTestTlsTest_EvalGenerateName_RKN7testing13TestParamInfoIbEE, symObjAddr: 0x18C20, symBinAddr: 0x100043D20, symSize: 0xC0 }
  - { offsetInCU: 0x7B829, offset: 0x16CBF3, size: 0x8, addend: 0x0, symName: __ZN23TlsTest_Initialize_TestD1Ev, symObjAddr: 0x18CE0, symBinAddr: 0x100043DE0, symSize: 0x20 }
  - { offsetInCU: 0x7B8C0, offset: 0x16CC8A, size: 0x8, addend: 0x0, symName: __ZN23TlsTest_Initialize_TestD0Ev, symObjAddr: 0x18D00, symBinAddr: 0x100043E00, symSize: 0x40 }
  - { offsetInCU: 0x7B95E, offset: 0x16CD28, size: 0x8, addend: 0x0, symName: __ZN7TlsTest5SetUpEv, symObjAddr: 0x18D40, symBinAddr: 0x100043E40, symSize: 0x10 }
  - { offsetInCU: 0x7B983, offset: 0x16CD4D, size: 0x8, addend: 0x0, symName: __ZN7TlsTest8TearDownEv, symObjAddr: 0x18D50, symBinAddr: 0x100043E50, symSize: 0x10 }
  - { offsetInCU: 0x7B9A8, offset: 0x16CD72, size: 0x8, addend: 0x0, symName: __ZThn16_N23TlsTest_Initialize_TestD1Ev, symObjAddr: 0x18D70, symBinAddr: 0x100043E60, symSize: 0x30 }
  - { offsetInCU: 0x7BA53, offset: 0x16CE1D, size: 0x8, addend: 0x0, symName: __ZThn16_N23TlsTest_Initialize_TestD0Ev, symObjAddr: 0x18DA0, symBinAddr: 0x100043E90, symSize: 0x40 }
  - { offsetInCU: 0x7BB24, offset: 0x16CEEE, size: 0x8, addend: 0x0, symName: __ZN22TlsTest_Handshake_TestD1Ev, symObjAddr: 0x18DE0, symBinAddr: 0x100043ED0, symSize: 0x20 }
  - { offsetInCU: 0x7BBBB, offset: 0x16CF85, size: 0x8, addend: 0x0, symName: __ZN22TlsTest_Handshake_TestD0Ev, symObjAddr: 0x18E00, symBinAddr: 0x100043EF0, symSize: 0x40 }
  - { offsetInCU: 0x7BC59, offset: 0x16D023, size: 0x8, addend: 0x0, symName: __ZThn16_N22TlsTest_Handshake_TestD1Ev, symObjAddr: 0x18E40, symBinAddr: 0x100043F30, symSize: 0x30 }
  - { offsetInCU: 0x7BD04, offset: 0x16D0CE, size: 0x8, addend: 0x0, symName: __ZThn16_N22TlsTest_Handshake_TestD0Ev, symObjAddr: 0x18E70, symBinAddr: 0x100043F60, symSize: 0x40 }
  - { offsetInCU: 0x7BDD5, offset: 0x16D19F, size: 0x8, addend: 0x0, symName: __ZN34TlsTest_HandshakeCertFromFile_TestD1Ev, symObjAddr: 0x18EB0, symBinAddr: 0x100043FA0, symSize: 0x20 }
  - { offsetInCU: 0x7BE6C, offset: 0x16D236, size: 0x8, addend: 0x0, symName: __ZN34TlsTest_HandshakeCertFromFile_TestD0Ev, symObjAddr: 0x18ED0, symBinAddr: 0x100043FC0, symSize: 0x40 }
  - { offsetInCU: 0x7BF0A, offset: 0x16D2D4, size: 0x8, addend: 0x0, symName: __ZThn16_N34TlsTest_HandshakeCertFromFile_TestD1Ev, symObjAddr: 0x18F10, symBinAddr: 0x100044000, symSize: 0x30 }
  - { offsetInCU: 0x7BFB5, offset: 0x16D37F, size: 0x8, addend: 0x0, symName: __ZThn16_N34TlsTest_HandshakeCertFromFile_TestD0Ev, symObjAddr: 0x18F40, symBinAddr: 0x100044030, symSize: 0x40 }
  - { offsetInCU: 0x7C086, offset: 0x16D450, size: 0x8, addend: 0x0, symName: __ZN38TlsTest_HandshakeParamInfoDefault_TestD1Ev, symObjAddr: 0x18F80, symBinAddr: 0x100044070, symSize: 0x20 }
  - { offsetInCU: 0x7C11D, offset: 0x16D4E7, size: 0x8, addend: 0x0, symName: __ZN38TlsTest_HandshakeParamInfoDefault_TestD0Ev, symObjAddr: 0x18FA0, symBinAddr: 0x100044090, symSize: 0x40 }
  - { offsetInCU: 0x7C1BB, offset: 0x16D585, size: 0x8, addend: 0x0, symName: __ZThn16_N38TlsTest_HandshakeParamInfoDefault_TestD1Ev, symObjAddr: 0x18FE0, symBinAddr: 0x1000440D0, symSize: 0x30 }
  - { offsetInCU: 0x7C266, offset: 0x16D630, size: 0x8, addend: 0x0, symName: __ZThn16_N38TlsTest_HandshakeParamInfoDefault_TestD0Ev, symObjAddr: 0x19010, symBinAddr: 0x100044100, symSize: 0x40 }
  - { offsetInCU: 0x7C337, offset: 0x16D701, size: 0x8, addend: 0x0, symName: __ZN40TlsTest_HandshakeParamInfoAES256GCM_TestD1Ev, symObjAddr: 0x19050, symBinAddr: 0x100044140, symSize: 0x20 }
  - { offsetInCU: 0x7C3CE, offset: 0x16D798, size: 0x8, addend: 0x0, symName: __ZN40TlsTest_HandshakeParamInfoAES256GCM_TestD0Ev, symObjAddr: 0x19070, symBinAddr: 0x100044160, symSize: 0x40 }
  - { offsetInCU: 0x7C46C, offset: 0x16D836, size: 0x8, addend: 0x0, symName: __ZThn16_N40TlsTest_HandshakeParamInfoAES256GCM_TestD1Ev, symObjAddr: 0x190B0, symBinAddr: 0x1000441A0, symSize: 0x30 }
  - { offsetInCU: 0x7C517, offset: 0x16D8E1, size: 0x8, addend: 0x0, symName: __ZThn16_N40TlsTest_HandshakeParamInfoAES256GCM_TestD0Ev, symObjAddr: 0x190E0, symBinAddr: 0x1000441D0, symSize: 0x40 }
  - { offsetInCU: 0x7C5E8, offset: 0x16D9B2, size: 0x8, addend: 0x0, symName: __ZN40TlsTest_HandshakeParamInfoAES128GCM_TestD1Ev, symObjAddr: 0x19120, symBinAddr: 0x100044210, symSize: 0x20 }
  - { offsetInCU: 0x7C67F, offset: 0x16DA49, size: 0x8, addend: 0x0, symName: __ZN40TlsTest_HandshakeParamInfoAES128GCM_TestD0Ev, symObjAddr: 0x19140, symBinAddr: 0x100044230, symSize: 0x40 }
  - { offsetInCU: 0x7C71D, offset: 0x16DAE7, size: 0x8, addend: 0x0, symName: __ZThn16_N40TlsTest_HandshakeParamInfoAES128GCM_TestD1Ev, symObjAddr: 0x19180, symBinAddr: 0x100044270, symSize: 0x30 }
  - { offsetInCU: 0x7C7C8, offset: 0x16DB92, size: 0x8, addend: 0x0, symName: __ZThn16_N40TlsTest_HandshakeParamInfoAES128GCM_TestD0Ev, symObjAddr: 0x191B0, symBinAddr: 0x1000442A0, symSize: 0x40 }
  - { offsetInCU: 0x7C899, offset: 0x16DC63, size: 0x8, addend: 0x0, symName: __ZN39TlsTest_HandshakeParamInfoChaCha20_TestD1Ev, symObjAddr: 0x191F0, symBinAddr: 0x1000442E0, symSize: 0x20 }
  - { offsetInCU: 0x7C930, offset: 0x16DCFA, size: 0x8, addend: 0x0, symName: __ZN39TlsTest_HandshakeParamInfoChaCha20_TestD0Ev, symObjAddr: 0x19210, symBinAddr: 0x100044300, symSize: 0x40 }
  - { offsetInCU: 0x7C9CE, offset: 0x16DD98, size: 0x8, addend: 0x0, symName: __ZThn16_N39TlsTest_HandshakeParamInfoChaCha20_TestD1Ev, symObjAddr: 0x19250, symBinAddr: 0x100044340, symSize: 0x30 }
  - { offsetInCU: 0x7CA79, offset: 0x16DE43, size: 0x8, addend: 0x0, symName: __ZThn16_N39TlsTest_HandshakeParamInfoChaCha20_TestD0Ev, symObjAddr: 0x19280, symBinAddr: 0x100044370, symSize: 0x40 }
  - { offsetInCU: 0x7CB4A, offset: 0x16DF14, size: 0x8, addend: 0x0, symName: __ZN41TlsTest_HandshakeParamNegotiatedAlpn_TestD1Ev, symObjAddr: 0x192C0, symBinAddr: 0x1000443B0, symSize: 0x20 }
  - { offsetInCU: 0x7CBE1, offset: 0x16DFAB, size: 0x8, addend: 0x0, symName: __ZN41TlsTest_HandshakeParamNegotiatedAlpn_TestD0Ev, symObjAddr: 0x192E0, symBinAddr: 0x1000443D0, symSize: 0x40 }
  - { offsetInCU: 0x7CC7F, offset: 0x16E049, size: 0x8, addend: 0x0, symName: __ZThn16_N41TlsTest_HandshakeParamNegotiatedAlpn_TestD1Ev, symObjAddr: 0x19320, symBinAddr: 0x100044410, symSize: 0x30 }
  - { offsetInCU: 0x7CD2A, offset: 0x16E0F4, size: 0x8, addend: 0x0, symName: __ZThn16_N41TlsTest_HandshakeParamNegotiatedAlpn_TestD0Ev, symObjAddr: 0x19350, symBinAddr: 0x100044440, symSize: 0x40 }
  - { offsetInCU: 0x7CDFB, offset: 0x16E1C5, size: 0x8, addend: 0x0, symName: __ZN30TlsTest_HandshakeParallel_TestD1Ev, symObjAddr: 0x19390, symBinAddr: 0x100044480, symSize: 0x20 }
  - { offsetInCU: 0x7CE92, offset: 0x16E25C, size: 0x8, addend: 0x0, symName: __ZN30TlsTest_HandshakeParallel_TestD0Ev, symObjAddr: 0x193B0, symBinAddr: 0x1000444A0, symSize: 0x40 }
  - { offsetInCU: 0x7CF30, offset: 0x16E2FA, size: 0x8, addend: 0x0, symName: __ZThn16_N30TlsTest_HandshakeParallel_TestD1Ev, symObjAddr: 0x193F0, symBinAddr: 0x1000444E0, symSize: 0x30 }
  - { offsetInCU: 0x7CFDB, offset: 0x16E3A5, size: 0x8, addend: 0x0, symName: __ZThn16_N30TlsTest_HandshakeParallel_TestD0Ev, symObjAddr: 0x19420, symBinAddr: 0x100044510, symSize: 0x40 }
  - { offsetInCU: 0x7D0AC, offset: 0x16E476, size: 0x8, addend: 0x0, symName: __ZN32TlsTest_HandshakeResumption_TestD1Ev, symObjAddr: 0x19460, symBinAddr: 0x100044550, symSize: 0x20 }
  - { offsetInCU: 0x7D143, offset: 0x16E50D, size: 0x8, addend: 0x0, symName: __ZN32TlsTest_HandshakeResumption_TestD0Ev, symObjAddr: 0x19480, symBinAddr: 0x100044570, symSize: 0x40 }
  - { offsetInCU: 0x7D1E1, offset: 0x16E5AB, size: 0x8, addend: 0x0, symName: __ZThn16_N32TlsTest_HandshakeResumption_TestD1Ev, symObjAddr: 0x194C0, symBinAddr: 0x1000445B0, symSize: 0x30 }
  - { offsetInCU: 0x7D28C, offset: 0x16E656, size: 0x8, addend: 0x0, symName: __ZThn16_N32TlsTest_HandshakeResumption_TestD0Ev, symObjAddr: 0x194F0, symBinAddr: 0x1000445E0, symSize: 0x40 }
  - { offsetInCU: 0x7D35D, offset: 0x16E727, size: 0x8, addend: 0x0, symName: __ZN41TlsTest_HandshakeResumptionRejection_TestD1Ev, symObjAddr: 0x19530, symBinAddr: 0x100044620, symSize: 0x20 }
  - { offsetInCU: 0x7D3F4, offset: 0x16E7BE, size: 0x8, addend: 0x0, symName: __ZN41TlsTest_HandshakeResumptionRejection_TestD0Ev, symObjAddr: 0x19550, symBinAddr: 0x100044640, symSize: 0x40 }
  - { offsetInCU: 0x7D492, offset: 0x16E85C, size: 0x8, addend: 0x0, symName: __ZThn16_N41TlsTest_HandshakeResumptionRejection_TestD1Ev, symObjAddr: 0x19590, symBinAddr: 0x100044680, symSize: 0x30 }
  - { offsetInCU: 0x7D53D, offset: 0x16E907, size: 0x8, addend: 0x0, symName: __ZThn16_N41TlsTest_HandshakeResumptionRejection_TestD0Ev, symObjAddr: 0x195C0, symBinAddr: 0x1000446B0, symSize: 0x40 }
  - { offsetInCU: 0x7D60E, offset: 0x16E9D8, size: 0x8, addend: 0x0, symName: __ZN46TlsTest_HandshakeResumptionClientDisabled_TestD1Ev, symObjAddr: 0x19600, symBinAddr: 0x1000446F0, symSize: 0x20 }
  - { offsetInCU: 0x7D6A5, offset: 0x16EA6F, size: 0x8, addend: 0x0, symName: __ZN46TlsTest_HandshakeResumptionClientDisabled_TestD0Ev, symObjAddr: 0x19620, symBinAddr: 0x100044710, symSize: 0x40 }
  - { offsetInCU: 0x7D743, offset: 0x16EB0D, size: 0x8, addend: 0x0, symName: __ZThn16_N46TlsTest_HandshakeResumptionClientDisabled_TestD1Ev, symObjAddr: 0x19660, symBinAddr: 0x100044750, symSize: 0x30 }
  - { offsetInCU: 0x7D7EE, offset: 0x16EBB8, size: 0x8, addend: 0x0, symName: __ZThn16_N46TlsTest_HandshakeResumptionClientDisabled_TestD0Ev, symObjAddr: 0x19690, symBinAddr: 0x100044780, symSize: 0x40 }
  - { offsetInCU: 0x7D8BF, offset: 0x16EC89, size: 0x8, addend: 0x0, symName: __ZN46TlsTest_HandshakeResumptionServerDisabled_TestD1Ev, symObjAddr: 0x196D0, symBinAddr: 0x1000447C0, symSize: 0x20 }
  - { offsetInCU: 0x7D956, offset: 0x16ED20, size: 0x8, addend: 0x0, symName: __ZN46TlsTest_HandshakeResumptionServerDisabled_TestD0Ev, symObjAddr: 0x196F0, symBinAddr: 0x1000447E0, symSize: 0x40 }
  - { offsetInCU: 0x7D9F4, offset: 0x16EDBE, size: 0x8, addend: 0x0, symName: __ZThn16_N46TlsTest_HandshakeResumptionServerDisabled_TestD1Ev, symObjAddr: 0x19730, symBinAddr: 0x100044820, symSize: 0x30 }
  - { offsetInCU: 0x7DA9F, offset: 0x16EE69, size: 0x8, addend: 0x0, symName: __ZThn16_N46TlsTest_HandshakeResumptionServerDisabled_TestD0Ev, symObjAddr: 0x19760, symBinAddr: 0x100044850, symSize: 0x40 }
  - { offsetInCU: 0x7DB70, offset: 0x16EF3A, size: 0x8, addend: 0x0, symName: __ZN37TlsTest_HandshakeMultiAlpnServer_TestD1Ev, symObjAddr: 0x197A0, symBinAddr: 0x100044890, symSize: 0x20 }
  - { offsetInCU: 0x7DC07, offset: 0x16EFD1, size: 0x8, addend: 0x0, symName: __ZN37TlsTest_HandshakeMultiAlpnServer_TestD0Ev, symObjAddr: 0x197C0, symBinAddr: 0x1000448B0, symSize: 0x40 }
  - { offsetInCU: 0x7DCA5, offset: 0x16F06F, size: 0x8, addend: 0x0, symName: __ZThn16_N37TlsTest_HandshakeMultiAlpnServer_TestD1Ev, symObjAddr: 0x19800, symBinAddr: 0x1000448F0, symSize: 0x30 }
  - { offsetInCU: 0x7DD50, offset: 0x16F11A, size: 0x8, addend: 0x0, symName: __ZThn16_N37TlsTest_HandshakeMultiAlpnServer_TestD0Ev, symObjAddr: 0x19830, symBinAddr: 0x100044920, symSize: 0x40 }
  - { offsetInCU: 0x7DE21, offset: 0x16F1EB, size: 0x8, addend: 0x0, symName: __ZN37TlsTest_HandshakeMultiAlpnClient_TestD1Ev, symObjAddr: 0x19870, symBinAddr: 0x100044960, symSize: 0x20 }
  - { offsetInCU: 0x7DEB8, offset: 0x16F282, size: 0x8, addend: 0x0, symName: __ZN37TlsTest_HandshakeMultiAlpnClient_TestD0Ev, symObjAddr: 0x19890, symBinAddr: 0x100044980, symSize: 0x40 }
  - { offsetInCU: 0x7DF56, offset: 0x16F320, size: 0x8, addend: 0x0, symName: __ZThn16_N37TlsTest_HandshakeMultiAlpnClient_TestD1Ev, symObjAddr: 0x198D0, symBinAddr: 0x1000449C0, symSize: 0x30 }
  - { offsetInCU: 0x7E001, offset: 0x16F3CB, size: 0x8, addend: 0x0, symName: __ZThn16_N37TlsTest_HandshakeMultiAlpnClient_TestD0Ev, symObjAddr: 0x19900, symBinAddr: 0x1000449F0, symSize: 0x40 }
  - { offsetInCU: 0x7E0D2, offset: 0x16F49C, size: 0x8, addend: 0x0, symName: __ZN35TlsTest_HandshakeMultiAlpnBoth_TestD1Ev, symObjAddr: 0x19940, symBinAddr: 0x100044A30, symSize: 0x20 }
  - { offsetInCU: 0x7E169, offset: 0x16F533, size: 0x8, addend: 0x0, symName: __ZN35TlsTest_HandshakeMultiAlpnBoth_TestD0Ev, symObjAddr: 0x19960, symBinAddr: 0x100044A50, symSize: 0x40 }
  - { offsetInCU: 0x7E207, offset: 0x16F5D1, size: 0x8, addend: 0x0, symName: __ZThn16_N35TlsTest_HandshakeMultiAlpnBoth_TestD1Ev, symObjAddr: 0x199A0, symBinAddr: 0x100044A90, symSize: 0x30 }
  - { offsetInCU: 0x7E2B2, offset: 0x16F67C, size: 0x8, addend: 0x0, symName: __ZThn16_N35TlsTest_HandshakeMultiAlpnBoth_TestD0Ev, symObjAddr: 0x199D0, symBinAddr: 0x100044AC0, symSize: 0x40 }
  - { offsetInCU: 0x7E383, offset: 0x16F74D, size: 0x8, addend: 0x0, symName: __ZN32TlsTest_HandshakeFragmented_TestD1Ev, symObjAddr: 0x19A10, symBinAddr: 0x100044B00, symSize: 0x20 }
  - { offsetInCU: 0x7E41A, offset: 0x16F7E4, size: 0x8, addend: 0x0, symName: __ZN32TlsTest_HandshakeFragmented_TestD0Ev, symObjAddr: 0x19A30, symBinAddr: 0x100044B20, symSize: 0x40 }
  - { offsetInCU: 0x7E4B8, offset: 0x16F882, size: 0x8, addend: 0x0, symName: __ZThn16_N32TlsTest_HandshakeFragmented_TestD1Ev, symObjAddr: 0x19A70, symBinAddr: 0x100044B60, symSize: 0x30 }
  - { offsetInCU: 0x7E563, offset: 0x16F92D, size: 0x8, addend: 0x0, symName: __ZThn16_N32TlsTest_HandshakeFragmented_TestD0Ev, symObjAddr: 0x19AA0, symBinAddr: 0x100044B90, symSize: 0x40 }
  - { offsetInCU: 0x7E634, offset: 0x16F9FE, size: 0x8, addend: 0x0, symName: __ZN36TlsTest_HandshakeVeryFragmented_TestD1Ev, symObjAddr: 0x19AE0, symBinAddr: 0x100044BD0, symSize: 0x20 }
  - { offsetInCU: 0x7E6CB, offset: 0x16FA95, size: 0x8, addend: 0x0, symName: __ZN36TlsTest_HandshakeVeryFragmented_TestD0Ev, symObjAddr: 0x19B00, symBinAddr: 0x100044BF0, symSize: 0x40 }
  - { offsetInCU: 0x7E769, offset: 0x16FB33, size: 0x8, addend: 0x0, symName: __ZThn16_N36TlsTest_HandshakeVeryFragmented_TestD1Ev, symObjAddr: 0x19B40, symBinAddr: 0x100044C30, symSize: 0x30 }
  - { offsetInCU: 0x7E814, offset: 0x16FBDE, size: 0x8, addend: 0x0, symName: __ZThn16_N36TlsTest_HandshakeVeryFragmented_TestD0Ev, symObjAddr: 0x19B70, symBinAddr: 0x100044C60, symSize: 0x40 }
  - { offsetInCU: 0x7E8E5, offset: 0x16FCAF, size: 0x8, addend: 0x0, symName: __ZN29TlsTest_HandshakesSerial_TestD1Ev, symObjAddr: 0x19BB0, symBinAddr: 0x100044CA0, symSize: 0x20 }
  - { offsetInCU: 0x7E97C, offset: 0x16FD46, size: 0x8, addend: 0x0, symName: __ZN29TlsTest_HandshakesSerial_TestD0Ev, symObjAddr: 0x19BD0, symBinAddr: 0x100044CC0, symSize: 0x40 }
  - { offsetInCU: 0x7EA1A, offset: 0x16FDE4, size: 0x8, addend: 0x0, symName: __ZThn16_N29TlsTest_HandshakesSerial_TestD1Ev, symObjAddr: 0x19C10, symBinAddr: 0x100044D00, symSize: 0x30 }
  - { offsetInCU: 0x7EAC5, offset: 0x16FE8F, size: 0x8, addend: 0x0, symName: __ZThn16_N29TlsTest_HandshakesSerial_TestD0Ev, symObjAddr: 0x19C40, symBinAddr: 0x100044D30, symSize: 0x40 }
  - { offsetInCU: 0x7EB96, offset: 0x16FF60, size: 0x8, addend: 0x0, symName: __ZN34TlsTest_HandshakesInterleaved_TestD1Ev, symObjAddr: 0x19C80, symBinAddr: 0x100044D70, symSize: 0x20 }
  - { offsetInCU: 0x7EC2D, offset: 0x16FFF7, size: 0x8, addend: 0x0, symName: __ZN34TlsTest_HandshakesInterleaved_TestD0Ev, symObjAddr: 0x19CA0, symBinAddr: 0x100044D90, symSize: 0x40 }
  - { offsetInCU: 0x7ECCB, offset: 0x170095, size: 0x8, addend: 0x0, symName: __ZThn16_N34TlsTest_HandshakesInterleaved_TestD1Ev, symObjAddr: 0x19CE0, symBinAddr: 0x100044DD0, symSize: 0x30 }
  - { offsetInCU: 0x7ED76, offset: 0x170140, size: 0x8, addend: 0x0, symName: __ZThn16_N34TlsTest_HandshakesInterleaved_TestD0Ev, symObjAddr: 0x19D10, symBinAddr: 0x100044E00, symSize: 0x40 }
  - { offsetInCU: 0x7EE47, offset: 0x170211, size: 0x8, addend: 0x0, symName: __ZN29TlsTest_CertificateError_TestD1Ev, symObjAddr: 0x19D50, symBinAddr: 0x100044E40, symSize: 0x20 }
  - { offsetInCU: 0x7EEDE, offset: 0x1702A8, size: 0x8, addend: 0x0, symName: __ZN29TlsTest_CertificateError_TestD0Ev, symObjAddr: 0x19D70, symBinAddr: 0x100044E60, symSize: 0x40 }
  - { offsetInCU: 0x7EF7C, offset: 0x170346, size: 0x8, addend: 0x0, symName: __ZThn16_N29TlsTest_CertificateError_TestD1Ev, symObjAddr: 0x19DB0, symBinAddr: 0x100044EA0, symSize: 0x30 }
  - { offsetInCU: 0x7F027, offset: 0x1703F1, size: 0x8, addend: 0x0, symName: __ZThn16_N29TlsTest_CertificateError_TestD0Ev, symObjAddr: 0x19DE0, symBinAddr: 0x100044ED0, symSize: 0x40 }
  - { offsetInCU: 0x7F0F8, offset: 0x1704C2, size: 0x8, addend: 0x0, symName: __ZN47TlsTest_DeferredCertificateValidationAllow_TestD1Ev, symObjAddr: 0x19E20, symBinAddr: 0x100044F10, symSize: 0x20 }
  - { offsetInCU: 0x7F18F, offset: 0x170559, size: 0x8, addend: 0x0, symName: __ZN47TlsTest_DeferredCertificateValidationAllow_TestD0Ev, symObjAddr: 0x19E40, symBinAddr: 0x100044F30, symSize: 0x40 }
  - { offsetInCU: 0x7F22D, offset: 0x1705F7, size: 0x8, addend: 0x0, symName: __ZThn16_N47TlsTest_DeferredCertificateValidationAllow_TestD1Ev, symObjAddr: 0x19E80, symBinAddr: 0x100044F70, symSize: 0x30 }
  - { offsetInCU: 0x7F2D8, offset: 0x1706A2, size: 0x8, addend: 0x0, symName: __ZThn16_N47TlsTest_DeferredCertificateValidationAllow_TestD0Ev, symObjAddr: 0x19EB0, symBinAddr: 0x100044FA0, symSize: 0x40 }
  - { offsetInCU: 0x7F3A9, offset: 0x170773, size: 0x8, addend: 0x0, symName: __ZN49TlsTest_DeferredCertificateValidationAllowCa_TestD1Ev, symObjAddr: 0x19EF0, symBinAddr: 0x100044FE0, symSize: 0x20 }
  - { offsetInCU: 0x7F440, offset: 0x17080A, size: 0x8, addend: 0x0, symName: __ZN49TlsTest_DeferredCertificateValidationAllowCa_TestD0Ev, symObjAddr: 0x19F10, symBinAddr: 0x100045000, symSize: 0x40 }
  - { offsetInCU: 0x7F4DE, offset: 0x1708A8, size: 0x8, addend: 0x0, symName: __ZThn16_N49TlsTest_DeferredCertificateValidationAllowCa_TestD1Ev, symObjAddr: 0x19F50, symBinAddr: 0x100045040, symSize: 0x30 }
  - { offsetInCU: 0x7F589, offset: 0x170953, size: 0x8, addend: 0x0, symName: __ZThn16_N49TlsTest_DeferredCertificateValidationAllowCa_TestD0Ev, symObjAddr: 0x19F80, symBinAddr: 0x100045070, symSize: 0x40 }
  - { offsetInCU: 0x7F65A, offset: 0x170A24, size: 0x8, addend: 0x0, symName: __ZN48TlsTest_DeferredCertificateValidationReject_TestD1Ev, symObjAddr: 0x19FC0, symBinAddr: 0x1000450B0, symSize: 0x20 }
  - { offsetInCU: 0x7F6F1, offset: 0x170ABB, size: 0x8, addend: 0x0, symName: __ZN48TlsTest_DeferredCertificateValidationReject_TestD0Ev, symObjAddr: 0x19FE0, symBinAddr: 0x1000450D0, symSize: 0x40 }
  - { offsetInCU: 0x7F78F, offset: 0x170B59, size: 0x8, addend: 0x0, symName: __ZThn16_N48TlsTest_DeferredCertificateValidationReject_TestD1Ev, symObjAddr: 0x1A020, symBinAddr: 0x100045110, symSize: 0x30 }
  - { offsetInCU: 0x7F83A, offset: 0x170C04, size: 0x8, addend: 0x0, symName: __ZThn16_N48TlsTest_DeferredCertificateValidationReject_TestD0Ev, symObjAddr: 0x1A050, symBinAddr: 0x100045140, symSize: 0x40 }
  - { offsetInCU: 0x7F90B, offset: 0x170CD5, size: 0x8, addend: 0x0, symName: __ZN45TlsTest_CustomCertificateValidationAllow_TestD1Ev, symObjAddr: 0x1A090, symBinAddr: 0x100045180, symSize: 0x20 }
  - { offsetInCU: 0x7F9A2, offset: 0x170D6C, size: 0x8, addend: 0x0, symName: __ZN45TlsTest_CustomCertificateValidationAllow_TestD0Ev, symObjAddr: 0x1A0B0, symBinAddr: 0x1000451A0, symSize: 0x40 }
  - { offsetInCU: 0x7FA40, offset: 0x170E0A, size: 0x8, addend: 0x0, symName: __ZThn16_N45TlsTest_CustomCertificateValidationAllow_TestD1Ev, symObjAddr: 0x1A0F0, symBinAddr: 0x1000451E0, symSize: 0x30 }
  - { offsetInCU: 0x7FAEB, offset: 0x170EB5, size: 0x8, addend: 0x0, symName: __ZThn16_N45TlsTest_CustomCertificateValidationAllow_TestD0Ev, symObjAddr: 0x1A120, symBinAddr: 0x100045210, symSize: 0x40 }
  - { offsetInCU: 0x7FBBC, offset: 0x170F86, size: 0x8, addend: 0x0, symName: __ZN46TlsTest_CustomCertificateValidationReject_TestD1Ev, symObjAddr: 0x1A160, symBinAddr: 0x100045250, symSize: 0x20 }
  - { offsetInCU: 0x7FC53, offset: 0x17101D, size: 0x8, addend: 0x0, symName: __ZN46TlsTest_CustomCertificateValidationReject_TestD0Ev, symObjAddr: 0x1A180, symBinAddr: 0x100045270, symSize: 0x40 }
  - { offsetInCU: 0x7FCF1, offset: 0x1710BB, size: 0x8, addend: 0x0, symName: __ZThn16_N46TlsTest_CustomCertificateValidationReject_TestD1Ev, symObjAddr: 0x1A1C0, symBinAddr: 0x1000452B0, symSize: 0x30 }
  - { offsetInCU: 0x7FD9C, offset: 0x171166, size: 0x8, addend: 0x0, symName: __ZThn16_N46TlsTest_CustomCertificateValidationReject_TestD0Ev, symObjAddr: 0x1A1F0, symBinAddr: 0x1000452E0, symSize: 0x40 }
  - { offsetInCU: 0x7FE6D, offset: 0x171237, size: 0x8, addend: 0x0, symName: __ZN60TlsTest_CustomCertificateValidationServerIndicateNoCert_TestD1Ev, symObjAddr: 0x1A230, symBinAddr: 0x100045320, symSize: 0x20 }
  - { offsetInCU: 0x7FF04, offset: 0x1712CE, size: 0x8, addend: 0x0, symName: __ZN60TlsTest_CustomCertificateValidationServerIndicateNoCert_TestD0Ev, symObjAddr: 0x1A250, symBinAddr: 0x100045340, symSize: 0x40 }
  - { offsetInCU: 0x7FFA2, offset: 0x17136C, size: 0x8, addend: 0x0, symName: __ZThn16_N60TlsTest_CustomCertificateValidationServerIndicateNoCert_TestD1Ev, symObjAddr: 0x1A290, symBinAddr: 0x100045380, symSize: 0x30 }
  - { offsetInCU: 0x8004D, offset: 0x171417, size: 0x8, addend: 0x0, symName: __ZThn16_N60TlsTest_CustomCertificateValidationServerIndicateNoCert_TestD0Ev, symObjAddr: 0x1A2C0, symBinAddr: 0x1000453B0, symSize: 0x40 }
  - { offsetInCU: 0x8011E, offset: 0x1714E8, size: 0x8, addend: 0x0, symName: __ZN60TlsTest_CustomClientCertificateValidationServerIndicate_TestD1Ev, symObjAddr: 0x1A300, symBinAddr: 0x1000453F0, symSize: 0x20 }
  - { offsetInCU: 0x801B5, offset: 0x17157F, size: 0x8, addend: 0x0, symName: __ZN60TlsTest_CustomClientCertificateValidationServerIndicate_TestD0Ev, symObjAddr: 0x1A320, symBinAddr: 0x100045410, symSize: 0x40 }
  - { offsetInCU: 0x80253, offset: 0x17161D, size: 0x8, addend: 0x0, symName: __ZThn16_N60TlsTest_CustomClientCertificateValidationServerIndicate_TestD1Ev, symObjAddr: 0x1A360, symBinAddr: 0x100045450, symSize: 0x30 }
  - { offsetInCU: 0x802FE, offset: 0x1716C8, size: 0x8, addend: 0x0, symName: __ZThn16_N60TlsTest_CustomClientCertificateValidationServerIndicate_TestD0Ev, symObjAddr: 0x1A390, symBinAddr: 0x100045480, symSize: 0x40 }
  - { offsetInCU: 0x803CF, offset: 0x171799, size: 0x8, addend: 0x0, symName: __ZN39TlsTest_ExtraCertificateValidation_TestD1Ev, symObjAddr: 0x1A3D0, symBinAddr: 0x1000454C0, symSize: 0x20 }
  - { offsetInCU: 0x80466, offset: 0x171830, size: 0x8, addend: 0x0, symName: __ZN39TlsTest_ExtraCertificateValidation_TestD0Ev, symObjAddr: 0x1A3F0, symBinAddr: 0x1000454E0, symSize: 0x40 }
  - { offsetInCU: 0x80504, offset: 0x1718CE, size: 0x8, addend: 0x0, symName: __ZThn16_N39TlsTest_ExtraCertificateValidation_TestD1Ev, symObjAddr: 0x1A430, symBinAddr: 0x100045520, symSize: 0x30 }
  - { offsetInCU: 0x805AF, offset: 0x171979, size: 0x8, addend: 0x0, symName: __ZThn16_N39TlsTest_ExtraCertificateValidation_TestD0Ev, symObjAddr: 0x1A460, symBinAddr: 0x100045550, symSize: 0x40 }
  - { offsetInCU: 0x80680, offset: 0x171A4A, size: 0x8, addend: 0x0, symName: __ZN42TlsTest_PortableCertificateValidation_TestD1Ev, symObjAddr: 0x1A4A0, symBinAddr: 0x100045590, symSize: 0x20 }
  - { offsetInCU: 0x80717, offset: 0x171AE1, size: 0x8, addend: 0x0, symName: __ZN42TlsTest_PortableCertificateValidation_TestD0Ev, symObjAddr: 0x1A4C0, symBinAddr: 0x1000455B0, symSize: 0x40 }
  - { offsetInCU: 0x807B5, offset: 0x171B7F, size: 0x8, addend: 0x0, symName: __ZThn16_N42TlsTest_PortableCertificateValidation_TestD1Ev, symObjAddr: 0x1A500, symBinAddr: 0x1000455F0, symSize: 0x30 }
  - { offsetInCU: 0x80860, offset: 0x171C2A, size: 0x8, addend: 0x0, symName: __ZThn16_N42TlsTest_PortableCertificateValidation_TestD0Ev, symObjAddr: 0x1A530, symBinAddr: 0x100045620, symSize: 0x40 }
  - { offsetInCU: 0x80934, offset: 0x171CFE, size: 0x8, addend: 0x0, symName: __ZN23TlsTest_One1RttKey_TestD1Ev, symObjAddr: 0x1A570, symBinAddr: 0x100045660, symSize: 0x20 }
  - { offsetInCU: 0x809CE, offset: 0x171D98, size: 0x8, addend: 0x0, symName: __ZN23TlsTest_One1RttKey_TestD0Ev, symObjAddr: 0x1A590, symBinAddr: 0x100045680, symSize: 0x40 }
  - { offsetInCU: 0x80A6C, offset: 0x171E36, size: 0x8, addend: 0x0, symName: __ZThn16_N23TlsTest_One1RttKey_TestD1Ev, symObjAddr: 0x1A5D0, symBinAddr: 0x1000456C0, symSize: 0x30 }
  - { offsetInCU: 0x80B1A, offset: 0x171EE4, size: 0x8, addend: 0x0, symName: __ZThn16_N23TlsTest_One1RttKey_TestD0Ev, symObjAddr: 0x1A600, symBinAddr: 0x1000456F0, symSize: 0x40 }
  - { offsetInCU: 0x80BEE, offset: 0x171FB8, size: 0x8, addend: 0x0, symName: __ZN22TlsTest_KeyUpdate_TestD1Ev, symObjAddr: 0x1A640, symBinAddr: 0x100045730, symSize: 0x20 }
  - { offsetInCU: 0x80C88, offset: 0x172052, size: 0x8, addend: 0x0, symName: __ZN22TlsTest_KeyUpdate_TestD0Ev, symObjAddr: 0x1A660, symBinAddr: 0x100045750, symSize: 0x40 }
  - { offsetInCU: 0x80D26, offset: 0x1720F0, size: 0x8, addend: 0x0, symName: __ZThn16_N22TlsTest_KeyUpdate_TestD1Ev, symObjAddr: 0x1A6A0, symBinAddr: 0x100045790, symSize: 0x30 }
  - { offsetInCU: 0x80DD4, offset: 0x17219E, size: 0x8, addend: 0x0, symName: __ZThn16_N22TlsTest_KeyUpdate_TestD0Ev, symObjAddr: 0x1A6D0, symBinAddr: 0x1000457C0, symSize: 0x40 }
  - { offsetInCU: 0x80EA8, offset: 0x172272, size: 0x8, addend: 0x0, symName: __ZN33TlsTest_PacketEncryptionPerf_TestD1Ev, symObjAddr: 0x1A710, symBinAddr: 0x100045800, symSize: 0x20 }
  - { offsetInCU: 0x80F42, offset: 0x17230C, size: 0x8, addend: 0x0, symName: __ZN33TlsTest_PacketEncryptionPerf_TestD0Ev, symObjAddr: 0x1A730, symBinAddr: 0x100045820, symSize: 0x40 }
  - { offsetInCU: 0x80FE0, offset: 0x1723AA, size: 0x8, addend: 0x0, symName: __ZThn16_N33TlsTest_PacketEncryptionPerf_TestD1Ev, symObjAddr: 0x1A770, symBinAddr: 0x100045860, symSize: 0x30 }
  - { offsetInCU: 0x8108E, offset: 0x172458, size: 0x8, addend: 0x0, symName: __ZThn16_N33TlsTest_PacketEncryptionPerf_TestD0Ev, symObjAddr: 0x1A7A0, symBinAddr: 0x100045890, symSize: 0x40 }
  - { offsetInCU: 0x8115F, offset: 0x172529, size: 0x8, addend: 0x0, symName: __ZN25TlsTest_LockPerfTest_TestD1Ev, symObjAddr: 0x1A7E0, symBinAddr: 0x1000458D0, symSize: 0x20 }
  - { offsetInCU: 0x811F6, offset: 0x1725C0, size: 0x8, addend: 0x0, symName: __ZN25TlsTest_LockPerfTest_TestD0Ev, symObjAddr: 0x1A800, symBinAddr: 0x1000458F0, symSize: 0x40 }
  - { offsetInCU: 0x81294, offset: 0x17265E, size: 0x8, addend: 0x0, symName: __ZThn16_N25TlsTest_LockPerfTest_TestD1Ev, symObjAddr: 0x1A840, symBinAddr: 0x100045930, symSize: 0x30 }
  - { offsetInCU: 0x8133F, offset: 0x172709, size: 0x8, addend: 0x0, symName: __ZThn16_N25TlsTest_LockPerfTest_TestD0Ev, symObjAddr: 0x1A870, symBinAddr: 0x100045960, symSize: 0x40 }
  - { offsetInCU: 0x81410, offset: 0x1727DA, size: 0x8, addend: 0x0, symName: __ZN44TlsTest_ClientCertificateFailValidation_TestD1Ev, symObjAddr: 0x1A8B0, symBinAddr: 0x1000459A0, symSize: 0x20 }
  - { offsetInCU: 0x814A7, offset: 0x172871, size: 0x8, addend: 0x0, symName: __ZN44TlsTest_ClientCertificateFailValidation_TestD0Ev, symObjAddr: 0x1A8D0, symBinAddr: 0x1000459C0, symSize: 0x40 }
  - { offsetInCU: 0x81545, offset: 0x17290F, size: 0x8, addend: 0x0, symName: __ZThn16_N44TlsTest_ClientCertificateFailValidation_TestD1Ev, symObjAddr: 0x1A910, symBinAddr: 0x100045A00, symSize: 0x30 }
  - { offsetInCU: 0x815F0, offset: 0x1729BA, size: 0x8, addend: 0x0, symName: __ZThn16_N44TlsTest_ClientCertificateFailValidation_TestD0Ev, symObjAddr: 0x1A940, symBinAddr: 0x100045A30, symSize: 0x40 }
  - { offsetInCU: 0x816C1, offset: 0x172A8B, size: 0x8, addend: 0x0, symName: __ZN45TlsTest_ClientCertificateDeferValidation_TestD1Ev, symObjAddr: 0x1A980, symBinAddr: 0x100045A70, symSize: 0x20 }
  - { offsetInCU: 0x81758, offset: 0x172B22, size: 0x8, addend: 0x0, symName: __ZN45TlsTest_ClientCertificateDeferValidation_TestD0Ev, symObjAddr: 0x1A9A0, symBinAddr: 0x100045A90, symSize: 0x40 }
  - { offsetInCU: 0x817F6, offset: 0x172BC0, size: 0x8, addend: 0x0, symName: __ZThn16_N45TlsTest_ClientCertificateDeferValidation_TestD1Ev, symObjAddr: 0x1A9E0, symBinAddr: 0x100045AD0, symSize: 0x30 }
  - { offsetInCU: 0x818A1, offset: 0x172C6B, size: 0x8, addend: 0x0, symName: __ZThn16_N45TlsTest_ClientCertificateDeferValidation_TestD0Ev, symObjAddr: 0x1AA10, symBinAddr: 0x100045B00, symSize: 0x40 }
  - { offsetInCU: 0x81972, offset: 0x172D3C, size: 0x8, addend: 0x0, symName: __ZN47TlsTest_ClientCertificateDeferValidationCa_TestD1Ev, symObjAddr: 0x1AA50, symBinAddr: 0x100045B40, symSize: 0x20 }
  - { offsetInCU: 0x81A09, offset: 0x172DD3, size: 0x8, addend: 0x0, symName: __ZN47TlsTest_ClientCertificateDeferValidationCa_TestD0Ev, symObjAddr: 0x1AA70, symBinAddr: 0x100045B60, symSize: 0x40 }
  - { offsetInCU: 0x81AA7, offset: 0x172E71, size: 0x8, addend: 0x0, symName: __ZThn16_N47TlsTest_ClientCertificateDeferValidationCa_TestD1Ev, symObjAddr: 0x1AAB0, symBinAddr: 0x100045BA0, symSize: 0x30 }
  - { offsetInCU: 0x81B52, offset: 0x172F1C, size: 0x8, addend: 0x0, symName: __ZThn16_N47TlsTest_ClientCertificateDeferValidationCa_TestD0Ev, symObjAddr: 0x1AAE0, symBinAddr: 0x100045BD0, symSize: 0x40 }
  - { offsetInCU: 0x81C23, offset: 0x172FED, size: 0x8, addend: 0x0, symName: __ZN51TlsTest_ClientCertificateDeferValidationNoCert_TestD1Ev, symObjAddr: 0x1AB20, symBinAddr: 0x100045C10, symSize: 0x20 }
  - { offsetInCU: 0x81CBA, offset: 0x173084, size: 0x8, addend: 0x0, symName: __ZN51TlsTest_ClientCertificateDeferValidationNoCert_TestD0Ev, symObjAddr: 0x1AB40, symBinAddr: 0x100045C30, symSize: 0x40 }
  - { offsetInCU: 0x81D58, offset: 0x173122, size: 0x8, addend: 0x0, symName: __ZThn16_N51TlsTest_ClientCertificateDeferValidationNoCert_TestD1Ev, symObjAddr: 0x1AB80, symBinAddr: 0x100045C70, symSize: 0x30 }
  - { offsetInCU: 0x81E03, offset: 0x1731CD, size: 0x8, addend: 0x0, symName: __ZThn16_N51TlsTest_ClientCertificateDeferValidationNoCert_TestD0Ev, symObjAddr: 0x1ABB0, symBinAddr: 0x100045CA0, symSize: 0x40 }
  - { offsetInCU: 0x81ED4, offset: 0x17329E, size: 0x8, addend: 0x0, symName: __ZN48TlsTest_ClientCertificateNoValidationNoCert_TestD1Ev, symObjAddr: 0x1ABF0, symBinAddr: 0x100045CE0, symSize: 0x20 }
  - { offsetInCU: 0x81F6B, offset: 0x173335, size: 0x8, addend: 0x0, symName: __ZN48TlsTest_ClientCertificateNoValidationNoCert_TestD0Ev, symObjAddr: 0x1AC10, symBinAddr: 0x100045D00, symSize: 0x40 }
  - { offsetInCU: 0x82009, offset: 0x1733D3, size: 0x8, addend: 0x0, symName: __ZThn16_N48TlsTest_ClientCertificateNoValidationNoCert_TestD1Ev, symObjAddr: 0x1AC50, symBinAddr: 0x100045D40, symSize: 0x30 }
  - { offsetInCU: 0x820B4, offset: 0x17347E, size: 0x8, addend: 0x0, symName: __ZThn16_N48TlsTest_ClientCertificateNoValidationNoCert_TestD0Ev, symObjAddr: 0x1AC80, symBinAddr: 0x100045D70, symSize: 0x40 }
  - { offsetInCU: 0x82185, offset: 0x17354F, size: 0x8, addend: 0x0, symName: __ZN32TlsTest_CipherSuiteSuccess1_TestD1Ev, symObjAddr: 0x1ACC0, symBinAddr: 0x100045DB0, symSize: 0x20 }
  - { offsetInCU: 0x8221C, offset: 0x1735E6, size: 0x8, addend: 0x0, symName: __ZN32TlsTest_CipherSuiteSuccess1_TestD0Ev, symObjAddr: 0x1ACE0, symBinAddr: 0x100045DD0, symSize: 0x40 }
  - { offsetInCU: 0x822BA, offset: 0x173684, size: 0x8, addend: 0x0, symName: __ZThn16_N32TlsTest_CipherSuiteSuccess1_TestD1Ev, symObjAddr: 0x1AD20, symBinAddr: 0x100045E10, symSize: 0x30 }
  - { offsetInCU: 0x82365, offset: 0x17372F, size: 0x8, addend: 0x0, symName: __ZThn16_N32TlsTest_CipherSuiteSuccess1_TestD0Ev, symObjAddr: 0x1AD50, symBinAddr: 0x100045E40, symSize: 0x40 }
  - { offsetInCU: 0x82436, offset: 0x173800, size: 0x8, addend: 0x0, symName: __ZN32TlsTest_CipherSuiteSuccess2_TestD1Ev, symObjAddr: 0x1AD90, symBinAddr: 0x100045E80, symSize: 0x20 }
  - { offsetInCU: 0x824CD, offset: 0x173897, size: 0x8, addend: 0x0, symName: __ZN32TlsTest_CipherSuiteSuccess2_TestD0Ev, symObjAddr: 0x1ADB0, symBinAddr: 0x100045EA0, symSize: 0x40 }
  - { offsetInCU: 0x8256B, offset: 0x173935, size: 0x8, addend: 0x0, symName: __ZThn16_N32TlsTest_CipherSuiteSuccess2_TestD1Ev, symObjAddr: 0x1ADF0, symBinAddr: 0x100045EE0, symSize: 0x30 }
  - { offsetInCU: 0x82616, offset: 0x1739E0, size: 0x8, addend: 0x0, symName: __ZThn16_N32TlsTest_CipherSuiteSuccess2_TestD0Ev, symObjAddr: 0x1AE20, symBinAddr: 0x100045F10, symSize: 0x40 }
  - { offsetInCU: 0x826E7, offset: 0x173AB1, size: 0x8, addend: 0x0, symName: __ZN32TlsTest_CipherSuiteSuccess3_TestD1Ev, symObjAddr: 0x1AE60, symBinAddr: 0x100045F50, symSize: 0x20 }
  - { offsetInCU: 0x8277E, offset: 0x173B48, size: 0x8, addend: 0x0, symName: __ZN32TlsTest_CipherSuiteSuccess3_TestD0Ev, symObjAddr: 0x1AE80, symBinAddr: 0x100045F70, symSize: 0x40 }
  - { offsetInCU: 0x8281C, offset: 0x173BE6, size: 0x8, addend: 0x0, symName: __ZThn16_N32TlsTest_CipherSuiteSuccess3_TestD1Ev, symObjAddr: 0x1AEC0, symBinAddr: 0x100045FB0, symSize: 0x30 }
  - { offsetInCU: 0x828C7, offset: 0x173C91, size: 0x8, addend: 0x0, symName: __ZThn16_N32TlsTest_CipherSuiteSuccess3_TestD0Ev, symObjAddr: 0x1AEF0, symBinAddr: 0x100045FE0, symSize: 0x40 }
  - { offsetInCU: 0x82998, offset: 0x173D62, size: 0x8, addend: 0x0, symName: __ZN32TlsTest_CipherSuiteMismatch_TestD1Ev, symObjAddr: 0x1AF30, symBinAddr: 0x100046020, symSize: 0x20 }
  - { offsetInCU: 0x82A2F, offset: 0x173DF9, size: 0x8, addend: 0x0, symName: __ZN32TlsTest_CipherSuiteMismatch_TestD0Ev, symObjAddr: 0x1AF50, symBinAddr: 0x100046040, symSize: 0x40 }
  - { offsetInCU: 0x82ACD, offset: 0x173E97, size: 0x8, addend: 0x0, symName: __ZThn16_N32TlsTest_CipherSuiteMismatch_TestD1Ev, symObjAddr: 0x1AF90, symBinAddr: 0x100046080, symSize: 0x30 }
  - { offsetInCU: 0x82B78, offset: 0x173F42, size: 0x8, addend: 0x0, symName: __ZThn16_N32TlsTest_CipherSuiteMismatch_TestD0Ev, symObjAddr: 0x1AFC0, symBinAddr: 0x1000460B0, symSize: 0x40 }
  - { offsetInCU: 0x82C49, offset: 0x174013, size: 0x8, addend: 0x0, symName: __ZN31TlsTest_CipherSuiteInvalid_TestD1Ev, symObjAddr: 0x1B000, symBinAddr: 0x1000460F0, symSize: 0x20 }
  - { offsetInCU: 0x82CE0, offset: 0x1740AA, size: 0x8, addend: 0x0, symName: __ZN31TlsTest_CipherSuiteInvalid_TestD0Ev, symObjAddr: 0x1B020, symBinAddr: 0x100046110, symSize: 0x40 }
  - { offsetInCU: 0x82D7E, offset: 0x174148, size: 0x8, addend: 0x0, symName: __ZThn16_N31TlsTest_CipherSuiteInvalid_TestD1Ev, symObjAddr: 0x1B060, symBinAddr: 0x100046150, symSize: 0x30 }
  - { offsetInCU: 0x82E29, offset: 0x1741F3, size: 0x8, addend: 0x0, symName: __ZThn16_N31TlsTest_CipherSuiteInvalid_TestD0Ev, symObjAddr: 0x1B090, symBinAddr: 0x100046180, symSize: 0x40 }
  - { offsetInCU: 0x82EFA, offset: 0x1742C4, size: 0x8, addend: 0x0, symName: __ZN42TlsTest_PlatformSpecificFlagsSchannel_TestD1Ev, symObjAddr: 0x1B0D0, symBinAddr: 0x1000461C0, symSize: 0x20 }
  - { offsetInCU: 0x82F91, offset: 0x17435B, size: 0x8, addend: 0x0, symName: __ZN42TlsTest_PlatformSpecificFlagsSchannel_TestD0Ev, symObjAddr: 0x1B0F0, symBinAddr: 0x1000461E0, symSize: 0x40 }
  - { offsetInCU: 0x8302F, offset: 0x1743F9, size: 0x8, addend: 0x0, symName: __ZThn16_N42TlsTest_PlatformSpecificFlagsSchannel_TestD1Ev, symObjAddr: 0x1B130, symBinAddr: 0x100046220, symSize: 0x30 }
  - { offsetInCU: 0x830DA, offset: 0x1744A4, size: 0x8, addend: 0x0, symName: __ZThn16_N42TlsTest_PlatformSpecificFlagsSchannel_TestD0Ev, symObjAddr: 0x1B160, symBinAddr: 0x100046250, symSize: 0x40 }
  - { offsetInCU: 0x831AB, offset: 0x174575, size: 0x8, addend: 0x0, symName: __ZN41TlsTest_PlatformSpecificFlagsOpenSsl_TestD1Ev, symObjAddr: 0x1B1A0, symBinAddr: 0x100046290, symSize: 0x20 }
  - { offsetInCU: 0x83242, offset: 0x17460C, size: 0x8, addend: 0x0, symName: __ZN41TlsTest_PlatformSpecificFlagsOpenSsl_TestD0Ev, symObjAddr: 0x1B1C0, symBinAddr: 0x1000462B0, symSize: 0x40 }
  - { offsetInCU: 0x832E0, offset: 0x1746AA, size: 0x8, addend: 0x0, symName: __ZThn16_N41TlsTest_PlatformSpecificFlagsOpenSsl_TestD1Ev, symObjAddr: 0x1B200, symBinAddr: 0x1000462F0, symSize: 0x30 }
  - { offsetInCU: 0x8338B, offset: 0x174755, size: 0x8, addend: 0x0, symName: __ZThn16_N41TlsTest_PlatformSpecificFlagsOpenSsl_TestD0Ev, symObjAddr: 0x1B230, symBinAddr: 0x100046320, symSize: 0x40 }
  - { offsetInCU: 0x8345C, offset: 0x174826, size: 0x8, addend: 0x0, symName: __ZN30TlsTest_PortableCertFlags_TestD1Ev, symObjAddr: 0x1B270, symBinAddr: 0x100046360, symSize: 0x20 }
  - { offsetInCU: 0x834F3, offset: 0x1748BD, size: 0x8, addend: 0x0, symName: __ZN30TlsTest_PortableCertFlags_TestD0Ev, symObjAddr: 0x1B290, symBinAddr: 0x100046380, symSize: 0x40 }
  - { offsetInCU: 0x83591, offset: 0x17495B, size: 0x8, addend: 0x0, symName: __ZThn16_N30TlsTest_PortableCertFlags_TestD1Ev, symObjAddr: 0x1B2D0, symBinAddr: 0x1000463C0, symSize: 0x30 }
  - { offsetInCU: 0x8363C, offset: 0x174A06, size: 0x8, addend: 0x0, symName: __ZThn16_N30TlsTest_PortableCertFlags_TestD0Ev, symObjAddr: 0x1B300, symBinAddr: 0x1000463F0, symSize: 0x40 }
  - { offsetInCU: 0x836F3, offset: 0x174ABD, size: 0x8, addend: 0x0, symName: __ZN7testing8internal15TestFactoryImplI23TlsTest_Initialize_TestED1Ev, symObjAddr: 0x1B350, symBinAddr: 0x100046430, symSize: 0x10 }
  - { offsetInCU: 0x8371F, offset: 0x174AE9, size: 0x8, addend: 0x0, symName: __ZN7testing8internal15TestFactoryImplI23TlsTest_Initialize_TestED0Ev, symObjAddr: 0x1B360, symBinAddr: 0x100046440, symSize: 0x10 }
  - { offsetInCU: 0x837B6, offset: 0x174B80, size: 0x8, addend: 0x0, symName: __ZN7testing8internal15TestFactoryImplI23TlsTest_Initialize_TestE10CreateTestEv, symObjAddr: 0x1B370, symBinAddr: 0x100046450, symSize: 0x50 }
  - { offsetInCU: 0x83858, offset: 0x174C22, size: 0x8, addend: 0x0, symName: __ZN7TlsTestD1Ev, symObjAddr: 0x1B3C0, symBinAddr: 0x100374FF0, symSize: 0x10 }
  - { offsetInCU: 0x83879, offset: 0x174C43, size: 0x8, addend: 0x0, symName: __ZN7TlsTestD0Ev, symObjAddr: 0x1B3D0, symBinAddr: 0x100375000, symSize: 0x10 }
  - { offsetInCU: 0x838B4, offset: 0x174C7E, size: 0x8, addend: 0x0, symName: __ZThn16_N7TlsTestD1Ev, symObjAddr: 0x1B3E0, symBinAddr: 0x100375010, symSize: 0x10 }
  - { offsetInCU: 0x83904, offset: 0x174CCE, size: 0x8, addend: 0x0, symName: __ZThn16_N7TlsTestD0Ev, symObjAddr: 0x1B3F0, symBinAddr: 0x100375020, symSize: 0x10 }
  - { offsetInCU: 0x8393A, offset: 0x174D04, size: 0x8, addend: 0x0, symName: __ZN7testing13TestWithParamIbED1Ev, symObjAddr: 0x1B400, symBinAddr: 0x100375030, symSize: 0x10 }
  - { offsetInCU: 0x8395B, offset: 0x174D25, size: 0x8, addend: 0x0, symName: __ZN7testing13TestWithParamIbED0Ev, symObjAddr: 0x1B410, symBinAddr: 0x100375040, symSize: 0x10 }
  - { offsetInCU: 0x83999, offset: 0x174D63, size: 0x8, addend: 0x0, symName: __ZThn16_N7testing13TestWithParamIbED1Ev, symObjAddr: 0x1B420, symBinAddr: 0x100375050, symSize: 0x10 }
  - { offsetInCU: 0x839ED, offset: 0x174DB7, size: 0x8, addend: 0x0, symName: __ZThn16_N7testing13TestWithParamIbED0Ev, symObjAddr: 0x1B430, symBinAddr: 0x100375060, symSize: 0x10 }
  - { offsetInCU: 0x83A24, offset: 0x174DEE, size: 0x8, addend: 0x0, symName: __ZN7testing18WithParamInterfaceIbED1Ev, symObjAddr: 0x1B440, symBinAddr: 0x1000464A0, symSize: 0x10 }
  - { offsetInCU: 0x83A4D, offset: 0x174E17, size: 0x8, addend: 0x0, symName: __ZN7testing18WithParamInterfaceIbED0Ev, symObjAddr: 0x1B450, symBinAddr: 0x1000464B0, symSize: 0x10 }
  - { offsetInCU: 0x83A9C, offset: 0x174E66, size: 0x8, addend: 0x0, symName: __ZN7testing8internal15TestFactoryImplI22TlsTest_Handshake_TestED1Ev, symObjAddr: 0x1B4E0, symBinAddr: 0x100046540, symSize: 0x10 }
  - { offsetInCU: 0x83AC8, offset: 0x174E92, size: 0x8, addend: 0x0, symName: __ZN7testing8internal15TestFactoryImplI22TlsTest_Handshake_TestED0Ev, symObjAddr: 0x1B4F0, symBinAddr: 0x100046550, symSize: 0x10 }
  - { offsetInCU: 0x83B28, offset: 0x174EF2, size: 0x8, addend: 0x0, symName: __ZN7testing8internal15TestFactoryImplI22TlsTest_Handshake_TestE10CreateTestEv, symObjAddr: 0x1B500, symBinAddr: 0x100046560, symSize: 0x50 }
  - { offsetInCU: 0x83BCF, offset: 0x174F99, size: 0x8, addend: 0x0, symName: __ZN7testing8internal15TestFactoryImplI34TlsTest_HandshakeCertFromFile_TestED1Ev, symObjAddr: 0x1B550, symBinAddr: 0x1000465B0, symSize: 0x10 }
  - { offsetInCU: 0x83BFB, offset: 0x174FC5, size: 0x8, addend: 0x0, symName: __ZN7testing8internal15TestFactoryImplI34TlsTest_HandshakeCertFromFile_TestED0Ev, symObjAddr: 0x1B560, symBinAddr: 0x1000465C0, symSize: 0x10 }
  - { offsetInCU: 0x83C5B, offset: 0x175025, size: 0x8, addend: 0x0, symName: __ZN7testing8internal15TestFactoryImplI34TlsTest_HandshakeCertFromFile_TestE10CreateTestEv, symObjAddr: 0x1B570, symBinAddr: 0x1000465D0, symSize: 0x50 }
  - { offsetInCU: 0x83D02, offset: 0x1750CC, size: 0x8, addend: 0x0, symName: __ZN7testing8internal15TestFactoryImplI38TlsTest_HandshakeParamInfoDefault_TestED1Ev, symObjAddr: 0x1B5C0, symBinAddr: 0x100046620, symSize: 0x10 }
  - { offsetInCU: 0x83D2E, offset: 0x1750F8, size: 0x8, addend: 0x0, symName: __ZN7testing8internal15TestFactoryImplI38TlsTest_HandshakeParamInfoDefault_TestED0Ev, symObjAddr: 0x1B5D0, symBinAddr: 0x100046630, symSize: 0x10 }
  - { offsetInCU: 0x83D8E, offset: 0x175158, size: 0x8, addend: 0x0, symName: __ZN7testing8internal15TestFactoryImplI38TlsTest_HandshakeParamInfoDefault_TestE10CreateTestEv, symObjAddr: 0x1B5E0, symBinAddr: 0x100046640, symSize: 0x50 }
  - { offsetInCU: 0x83E35, offset: 0x1751FF, size: 0x8, addend: 0x0, symName: __ZN7testing8internal15TestFactoryImplI40TlsTest_HandshakeParamInfoAES256GCM_TestED1Ev, symObjAddr: 0x1B630, symBinAddr: 0x100046690, symSize: 0x10 }
  - { offsetInCU: 0x83E61, offset: 0x17522B, size: 0x8, addend: 0x0, symName: __ZN7testing8internal15TestFactoryImplI40TlsTest_HandshakeParamInfoAES256GCM_TestED0Ev, symObjAddr: 0x1B640, symBinAddr: 0x1000466A0, symSize: 0x10 }
  - { offsetInCU: 0x83EC1, offset: 0x17528B, size: 0x8, addend: 0x0, symName: __ZN7testing8internal15TestFactoryImplI40TlsTest_HandshakeParamInfoAES256GCM_TestE10CreateTestEv, symObjAddr: 0x1B650, symBinAddr: 0x1000466B0, symSize: 0x50 }
  - { offsetInCU: 0x83F68, offset: 0x175332, size: 0x8, addend: 0x0, symName: __ZN7testing8internal15TestFactoryImplI40TlsTest_HandshakeParamInfoAES128GCM_TestED1Ev, symObjAddr: 0x1B6A0, symBinAddr: 0x100046700, symSize: 0x10 }
  - { offsetInCU: 0x83F94, offset: 0x17535E, size: 0x8, addend: 0x0, symName: __ZN7testing8internal15TestFactoryImplI40TlsTest_HandshakeParamInfoAES128GCM_TestED0Ev, symObjAddr: 0x1B6B0, symBinAddr: 0x100046710, symSize: 0x10 }
  - { offsetInCU: 0x83FF4, offset: 0x1753BE, size: 0x8, addend: 0x0, symName: __ZN7testing8internal15TestFactoryImplI40TlsTest_HandshakeParamInfoAES128GCM_TestE10CreateTestEv, symObjAddr: 0x1B6C0, symBinAddr: 0x100046720, symSize: 0x50 }
  - { offsetInCU: 0x8409B, offset: 0x175465, size: 0x8, addend: 0x0, symName: __ZN7testing8internal15TestFactoryImplI39TlsTest_HandshakeParamInfoChaCha20_TestED1Ev, symObjAddr: 0x1B710, symBinAddr: 0x100046770, symSize: 0x10 }
  - { offsetInCU: 0x840C7, offset: 0x175491, size: 0x8, addend: 0x0, symName: __ZN7testing8internal15TestFactoryImplI39TlsTest_HandshakeParamInfoChaCha20_TestED0Ev, symObjAddr: 0x1B720, symBinAddr: 0x100046780, symSize: 0x10 }
  - { offsetInCU: 0x84127, offset: 0x1754F1, size: 0x8, addend: 0x0, symName: __ZN7testing8internal15TestFactoryImplI39TlsTest_HandshakeParamInfoChaCha20_TestE10CreateTestEv, symObjAddr: 0x1B730, symBinAddr: 0x100046790, symSize: 0x50 }
  - { offsetInCU: 0x841CE, offset: 0x175598, size: 0x8, addend: 0x0, symName: __ZN7testing8internal15TestFactoryImplI41TlsTest_HandshakeParamNegotiatedAlpn_TestED1Ev, symObjAddr: 0x1B780, symBinAddr: 0x1000467E0, symSize: 0x10 }
  - { offsetInCU: 0x841FA, offset: 0x1755C4, size: 0x8, addend: 0x0, symName: __ZN7testing8internal15TestFactoryImplI41TlsTest_HandshakeParamNegotiatedAlpn_TestED0Ev, symObjAddr: 0x1B790, symBinAddr: 0x1000467F0, symSize: 0x10 }
  - { offsetInCU: 0x8425A, offset: 0x175624, size: 0x8, addend: 0x0, symName: __ZN7testing8internal15TestFactoryImplI41TlsTest_HandshakeParamNegotiatedAlpn_TestE10CreateTestEv, symObjAddr: 0x1B7A0, symBinAddr: 0x100046800, symSize: 0x50 }
  - { offsetInCU: 0x84301, offset: 0x1756CB, size: 0x8, addend: 0x0, symName: __ZN7testing8internal15TestFactoryImplI30TlsTest_HandshakeParallel_TestED1Ev, symObjAddr: 0x1B7F0, symBinAddr: 0x100046850, symSize: 0x10 }
  - { offsetInCU: 0x8432D, offset: 0x1756F7, size: 0x8, addend: 0x0, symName: __ZN7testing8internal15TestFactoryImplI30TlsTest_HandshakeParallel_TestED0Ev, symObjAddr: 0x1B800, symBinAddr: 0x100046860, symSize: 0x10 }
  - { offsetInCU: 0x8438D, offset: 0x175757, size: 0x8, addend: 0x0, symName: __ZN7testing8internal15TestFactoryImplI30TlsTest_HandshakeParallel_TestE10CreateTestEv, symObjAddr: 0x1B810, symBinAddr: 0x100046870, symSize: 0x50 }
  - { offsetInCU: 0x84434, offset: 0x1757FE, size: 0x8, addend: 0x0, symName: __ZN7testing8internal15TestFactoryImplI32TlsTest_HandshakeResumption_TestED1Ev, symObjAddr: 0x1B860, symBinAddr: 0x1000468C0, symSize: 0x10 }
  - { offsetInCU: 0x84460, offset: 0x17582A, size: 0x8, addend: 0x0, symName: __ZN7testing8internal15TestFactoryImplI32TlsTest_HandshakeResumption_TestED0Ev, symObjAddr: 0x1B870, symBinAddr: 0x1000468D0, symSize: 0x10 }
  - { offsetInCU: 0x844C0, offset: 0x17588A, size: 0x8, addend: 0x0, symName: __ZN7testing8internal15TestFactoryImplI32TlsTest_HandshakeResumption_TestE10CreateTestEv, symObjAddr: 0x1B880, symBinAddr: 0x1000468E0, symSize: 0x50 }
  - { offsetInCU: 0x84567, offset: 0x175931, size: 0x8, addend: 0x0, symName: __ZN7testing8internal15TestFactoryImplI41TlsTest_HandshakeResumptionRejection_TestED1Ev, symObjAddr: 0x1B8D0, symBinAddr: 0x100046930, symSize: 0x10 }
  - { offsetInCU: 0x84593, offset: 0x17595D, size: 0x8, addend: 0x0, symName: __ZN7testing8internal15TestFactoryImplI41TlsTest_HandshakeResumptionRejection_TestED0Ev, symObjAddr: 0x1B8E0, symBinAddr: 0x100046940, symSize: 0x10 }
  - { offsetInCU: 0x845F3, offset: 0x1759BD, size: 0x8, addend: 0x0, symName: __ZN7testing8internal15TestFactoryImplI41TlsTest_HandshakeResumptionRejection_TestE10CreateTestEv, symObjAddr: 0x1B8F0, symBinAddr: 0x100046950, symSize: 0x50 }
  - { offsetInCU: 0x8469A, offset: 0x175A64, size: 0x8, addend: 0x0, symName: __ZN7testing8internal15TestFactoryImplI46TlsTest_HandshakeResumptionClientDisabled_TestED1Ev, symObjAddr: 0x1B940, symBinAddr: 0x1000469A0, symSize: 0x10 }
  - { offsetInCU: 0x846C6, offset: 0x175A90, size: 0x8, addend: 0x0, symName: __ZN7testing8internal15TestFactoryImplI46TlsTest_HandshakeResumptionClientDisabled_TestED0Ev, symObjAddr: 0x1B950, symBinAddr: 0x1000469B0, symSize: 0x10 }
  - { offsetInCU: 0x84726, offset: 0x175AF0, size: 0x8, addend: 0x0, symName: __ZN7testing8internal15TestFactoryImplI46TlsTest_HandshakeResumptionClientDisabled_TestE10CreateTestEv, symObjAddr: 0x1B960, symBinAddr: 0x1000469C0, symSize: 0x50 }
  - { offsetInCU: 0x847CD, offset: 0x175B97, size: 0x8, addend: 0x0, symName: __ZN7testing8internal15TestFactoryImplI46TlsTest_HandshakeResumptionServerDisabled_TestED1Ev, symObjAddr: 0x1B9B0, symBinAddr: 0x100046A10, symSize: 0x10 }
  - { offsetInCU: 0x847F9, offset: 0x175BC3, size: 0x8, addend: 0x0, symName: __ZN7testing8internal15TestFactoryImplI46TlsTest_HandshakeResumptionServerDisabled_TestED0Ev, symObjAddr: 0x1B9C0, symBinAddr: 0x100046A20, symSize: 0x10 }
  - { offsetInCU: 0x84859, offset: 0x175C23, size: 0x8, addend: 0x0, symName: __ZN7testing8internal15TestFactoryImplI46TlsTest_HandshakeResumptionServerDisabled_TestE10CreateTestEv, symObjAddr: 0x1B9D0, symBinAddr: 0x100046A30, symSize: 0x50 }
  - { offsetInCU: 0x84900, offset: 0x175CCA, size: 0x8, addend: 0x0, symName: __ZN7testing8internal15TestFactoryImplI37TlsTest_HandshakeMultiAlpnServer_TestED1Ev, symObjAddr: 0x1BA20, symBinAddr: 0x100046A80, symSize: 0x10 }
  - { offsetInCU: 0x8492C, offset: 0x175CF6, size: 0x8, addend: 0x0, symName: __ZN7testing8internal15TestFactoryImplI37TlsTest_HandshakeMultiAlpnServer_TestED0Ev, symObjAddr: 0x1BA30, symBinAddr: 0x100046A90, symSize: 0x10 }
  - { offsetInCU: 0x8498C, offset: 0x175D56, size: 0x8, addend: 0x0, symName: __ZN7testing8internal15TestFactoryImplI37TlsTest_HandshakeMultiAlpnServer_TestE10CreateTestEv, symObjAddr: 0x1BA40, symBinAddr: 0x100046AA0, symSize: 0x50 }
  - { offsetInCU: 0x84A33, offset: 0x175DFD, size: 0x8, addend: 0x0, symName: __ZN7testing8internal15TestFactoryImplI37TlsTest_HandshakeMultiAlpnClient_TestED1Ev, symObjAddr: 0x1BA90, symBinAddr: 0x100046AF0, symSize: 0x10 }
  - { offsetInCU: 0x84A5F, offset: 0x175E29, size: 0x8, addend: 0x0, symName: __ZN7testing8internal15TestFactoryImplI37TlsTest_HandshakeMultiAlpnClient_TestED0Ev, symObjAddr: 0x1BAA0, symBinAddr: 0x100046B00, symSize: 0x10 }
  - { offsetInCU: 0x84ABF, offset: 0x175E89, size: 0x8, addend: 0x0, symName: __ZN7testing8internal15TestFactoryImplI37TlsTest_HandshakeMultiAlpnClient_TestE10CreateTestEv, symObjAddr: 0x1BAB0, symBinAddr: 0x100046B10, symSize: 0x50 }
  - { offsetInCU: 0x84B66, offset: 0x175F30, size: 0x8, addend: 0x0, symName: __ZN7testing8internal15TestFactoryImplI35TlsTest_HandshakeMultiAlpnBoth_TestED1Ev, symObjAddr: 0x1BB00, symBinAddr: 0x100046B60, symSize: 0x10 }
  - { offsetInCU: 0x84B92, offset: 0x175F5C, size: 0x8, addend: 0x0, symName: __ZN7testing8internal15TestFactoryImplI35TlsTest_HandshakeMultiAlpnBoth_TestED0Ev, symObjAddr: 0x1BB10, symBinAddr: 0x100046B70, symSize: 0x10 }
  - { offsetInCU: 0x84BF2, offset: 0x175FBC, size: 0x8, addend: 0x0, symName: __ZN7testing8internal15TestFactoryImplI35TlsTest_HandshakeMultiAlpnBoth_TestE10CreateTestEv, symObjAddr: 0x1BB20, symBinAddr: 0x100046B80, symSize: 0x50 }
  - { offsetInCU: 0x84C99, offset: 0x176063, size: 0x8, addend: 0x0, symName: __ZN7testing8internal15TestFactoryImplI32TlsTest_HandshakeFragmented_TestED1Ev, symObjAddr: 0x1BB70, symBinAddr: 0x100046BD0, symSize: 0x10 }
  - { offsetInCU: 0x84CC5, offset: 0x17608F, size: 0x8, addend: 0x0, symName: __ZN7testing8internal15TestFactoryImplI32TlsTest_HandshakeFragmented_TestED0Ev, symObjAddr: 0x1BB80, symBinAddr: 0x100046BE0, symSize: 0x10 }
  - { offsetInCU: 0x84D25, offset: 0x1760EF, size: 0x8, addend: 0x0, symName: __ZN7testing8internal15TestFactoryImplI32TlsTest_HandshakeFragmented_TestE10CreateTestEv, symObjAddr: 0x1BB90, symBinAddr: 0x100046BF0, symSize: 0x50 }
  - { offsetInCU: 0x84DCC, offset: 0x176196, size: 0x8, addend: 0x0, symName: __ZN7testing8internal15TestFactoryImplI36TlsTest_HandshakeVeryFragmented_TestED1Ev, symObjAddr: 0x1BBE0, symBinAddr: 0x100046C40, symSize: 0x10 }
  - { offsetInCU: 0x84DF8, offset: 0x1761C2, size: 0x8, addend: 0x0, symName: __ZN7testing8internal15TestFactoryImplI36TlsTest_HandshakeVeryFragmented_TestED0Ev, symObjAddr: 0x1BBF0, symBinAddr: 0x100046C50, symSize: 0x10 }
  - { offsetInCU: 0x84E58, offset: 0x176222, size: 0x8, addend: 0x0, symName: __ZN7testing8internal15TestFactoryImplI36TlsTest_HandshakeVeryFragmented_TestE10CreateTestEv, symObjAddr: 0x1BC00, symBinAddr: 0x100046C60, symSize: 0x50 }
  - { offsetInCU: 0x84EFF, offset: 0x1762C9, size: 0x8, addend: 0x0, symName: __ZN7testing8internal15TestFactoryImplI29TlsTest_HandshakesSerial_TestED1Ev, symObjAddr: 0x1BC50, symBinAddr: 0x100046CB0, symSize: 0x10 }
  - { offsetInCU: 0x84F2B, offset: 0x1762F5, size: 0x8, addend: 0x0, symName: __ZN7testing8internal15TestFactoryImplI29TlsTest_HandshakesSerial_TestED0Ev, symObjAddr: 0x1BC60, symBinAddr: 0x100046CC0, symSize: 0x10 }
  - { offsetInCU: 0x84F8B, offset: 0x176355, size: 0x8, addend: 0x0, symName: __ZN7testing8internal15TestFactoryImplI29TlsTest_HandshakesSerial_TestE10CreateTestEv, symObjAddr: 0x1BC70, symBinAddr: 0x100046CD0, symSize: 0x50 }
  - { offsetInCU: 0x85032, offset: 0x1763FC, size: 0x8, addend: 0x0, symName: __ZN7testing8internal15TestFactoryImplI34TlsTest_HandshakesInterleaved_TestED1Ev, symObjAddr: 0x1BCC0, symBinAddr: 0x100046D20, symSize: 0x10 }
  - { offsetInCU: 0x8505E, offset: 0x176428, size: 0x8, addend: 0x0, symName: __ZN7testing8internal15TestFactoryImplI34TlsTest_HandshakesInterleaved_TestED0Ev, symObjAddr: 0x1BCD0, symBinAddr: 0x100046D30, symSize: 0x10 }
  - { offsetInCU: 0x850BE, offset: 0x176488, size: 0x8, addend: 0x0, symName: __ZN7testing8internal15TestFactoryImplI34TlsTest_HandshakesInterleaved_TestE10CreateTestEv, symObjAddr: 0x1BCE0, symBinAddr: 0x100046D40, symSize: 0x50 }
  - { offsetInCU: 0x855E1, offset: 0x1769AB, size: 0x8, addend: 0x0, symName: __ZN7testing8internal15TestFactoryImplI29TlsTest_CertificateError_TestED1Ev, symObjAddr: 0x1C480, symBinAddr: 0x100047330, symSize: 0x10 }
  - { offsetInCU: 0x8560D, offset: 0x1769D7, size: 0x8, addend: 0x0, symName: __ZN7testing8internal15TestFactoryImplI29TlsTest_CertificateError_TestED0Ev, symObjAddr: 0x1C490, symBinAddr: 0x100047340, symSize: 0x10 }
  - { offsetInCU: 0x8566D, offset: 0x176A37, size: 0x8, addend: 0x0, symName: __ZN7testing8internal15TestFactoryImplI29TlsTest_CertificateError_TestE10CreateTestEv, symObjAddr: 0x1C4A0, symBinAddr: 0x100047350, symSize: 0x50 }
  - { offsetInCU: 0x85714, offset: 0x176ADE, size: 0x8, addend: 0x0, symName: __ZN7testing8internal15TestFactoryImplI47TlsTest_DeferredCertificateValidationAllow_TestED1Ev, symObjAddr: 0x1C4F0, symBinAddr: 0x1000473A0, symSize: 0x10 }
  - { offsetInCU: 0x85740, offset: 0x176B0A, size: 0x8, addend: 0x0, symName: __ZN7testing8internal15TestFactoryImplI47TlsTest_DeferredCertificateValidationAllow_TestED0Ev, symObjAddr: 0x1C500, symBinAddr: 0x1000473B0, symSize: 0x10 }
  - { offsetInCU: 0x857A0, offset: 0x176B6A, size: 0x8, addend: 0x0, symName: __ZN7testing8internal15TestFactoryImplI47TlsTest_DeferredCertificateValidationAllow_TestE10CreateTestEv, symObjAddr: 0x1C510, symBinAddr: 0x1000473C0, symSize: 0x50 }
  - { offsetInCU: 0x85847, offset: 0x176C11, size: 0x8, addend: 0x0, symName: __ZN7testing8internal15TestFactoryImplI49TlsTest_DeferredCertificateValidationAllowCa_TestED1Ev, symObjAddr: 0x1C560, symBinAddr: 0x100047410, symSize: 0x10 }
  - { offsetInCU: 0x85873, offset: 0x176C3D, size: 0x8, addend: 0x0, symName: __ZN7testing8internal15TestFactoryImplI49TlsTest_DeferredCertificateValidationAllowCa_TestED0Ev, symObjAddr: 0x1C570, symBinAddr: 0x100047420, symSize: 0x10 }
  - { offsetInCU: 0x858D3, offset: 0x176C9D, size: 0x8, addend: 0x0, symName: __ZN7testing8internal15TestFactoryImplI49TlsTest_DeferredCertificateValidationAllowCa_TestE10CreateTestEv, symObjAddr: 0x1C580, symBinAddr: 0x100047430, symSize: 0x50 }
  - { offsetInCU: 0x8597A, offset: 0x176D44, size: 0x8, addend: 0x0, symName: __ZN7testing8internal15TestFactoryImplI48TlsTest_DeferredCertificateValidationReject_TestED1Ev, symObjAddr: 0x1C5D0, symBinAddr: 0x100047480, symSize: 0x10 }
  - { offsetInCU: 0x859A6, offset: 0x176D70, size: 0x8, addend: 0x0, symName: __ZN7testing8internal15TestFactoryImplI48TlsTest_DeferredCertificateValidationReject_TestED0Ev, symObjAddr: 0x1C5E0, symBinAddr: 0x100047490, symSize: 0x10 }
  - { offsetInCU: 0x85A06, offset: 0x176DD0, size: 0x8, addend: 0x0, symName: __ZN7testing8internal15TestFactoryImplI48TlsTest_DeferredCertificateValidationReject_TestE10CreateTestEv, symObjAddr: 0x1C5F0, symBinAddr: 0x1000474A0, symSize: 0x50 }
  - { offsetInCU: 0x85AAD, offset: 0x176E77, size: 0x8, addend: 0x0, symName: __ZN7testing8internal15TestFactoryImplI45TlsTest_CustomCertificateValidationAllow_TestED1Ev, symObjAddr: 0x1C640, symBinAddr: 0x1000474F0, symSize: 0x10 }
  - { offsetInCU: 0x85AD9, offset: 0x176EA3, size: 0x8, addend: 0x0, symName: __ZN7testing8internal15TestFactoryImplI45TlsTest_CustomCertificateValidationAllow_TestED0Ev, symObjAddr: 0x1C650, symBinAddr: 0x100047500, symSize: 0x10 }
  - { offsetInCU: 0x85B39, offset: 0x176F03, size: 0x8, addend: 0x0, symName: __ZN7testing8internal15TestFactoryImplI45TlsTest_CustomCertificateValidationAllow_TestE10CreateTestEv, symObjAddr: 0x1C660, symBinAddr: 0x100047510, symSize: 0x50 }
  - { offsetInCU: 0x85BE0, offset: 0x176FAA, size: 0x8, addend: 0x0, symName: __ZN7testing8internal15TestFactoryImplI46TlsTest_CustomCertificateValidationReject_TestED1Ev, symObjAddr: 0x1C6B0, symBinAddr: 0x100047560, symSize: 0x10 }
  - { offsetInCU: 0x85C0C, offset: 0x176FD6, size: 0x8, addend: 0x0, symName: __ZN7testing8internal15TestFactoryImplI46TlsTest_CustomCertificateValidationReject_TestED0Ev, symObjAddr: 0x1C6C0, symBinAddr: 0x100047570, symSize: 0x10 }
  - { offsetInCU: 0x85C6C, offset: 0x177036, size: 0x8, addend: 0x0, symName: __ZN7testing8internal15TestFactoryImplI46TlsTest_CustomCertificateValidationReject_TestE10CreateTestEv, symObjAddr: 0x1C6D0, symBinAddr: 0x100047580, symSize: 0x50 }
  - { offsetInCU: 0x85D13, offset: 0x1770DD, size: 0x8, addend: 0x0, symName: __ZN7testing8internal15TestFactoryImplI60TlsTest_CustomCertificateValidationServerIndicateNoCert_TestED1Ev, symObjAddr: 0x1C720, symBinAddr: 0x1000475D0, symSize: 0x10 }
  - { offsetInCU: 0x85D3F, offset: 0x177109, size: 0x8, addend: 0x0, symName: __ZN7testing8internal15TestFactoryImplI60TlsTest_CustomCertificateValidationServerIndicateNoCert_TestED0Ev, symObjAddr: 0x1C730, symBinAddr: 0x1000475E0, symSize: 0x10 }
  - { offsetInCU: 0x85D9F, offset: 0x177169, size: 0x8, addend: 0x0, symName: __ZN7testing8internal15TestFactoryImplI60TlsTest_CustomCertificateValidationServerIndicateNoCert_TestE10CreateTestEv, symObjAddr: 0x1C740, symBinAddr: 0x1000475F0, symSize: 0x50 }
  - { offsetInCU: 0x85E46, offset: 0x177210, size: 0x8, addend: 0x0, symName: __ZN7testing8internal15TestFactoryImplI60TlsTest_CustomClientCertificateValidationServerIndicate_TestED1Ev, symObjAddr: 0x1C790, symBinAddr: 0x100047640, symSize: 0x10 }
  - { offsetInCU: 0x85E72, offset: 0x17723C, size: 0x8, addend: 0x0, symName: __ZN7testing8internal15TestFactoryImplI60TlsTest_CustomClientCertificateValidationServerIndicate_TestED0Ev, symObjAddr: 0x1C7A0, symBinAddr: 0x100047650, symSize: 0x10 }
  - { offsetInCU: 0x85ED2, offset: 0x17729C, size: 0x8, addend: 0x0, symName: __ZN7testing8internal15TestFactoryImplI60TlsTest_CustomClientCertificateValidationServerIndicate_TestE10CreateTestEv, symObjAddr: 0x1C7B0, symBinAddr: 0x100047660, symSize: 0x50 }
  - { offsetInCU: 0x85F79, offset: 0x177343, size: 0x8, addend: 0x0, symName: __ZN7testing8internal15TestFactoryImplI39TlsTest_ExtraCertificateValidation_TestED1Ev, symObjAddr: 0x1C800, symBinAddr: 0x1000476B0, symSize: 0x10 }
  - { offsetInCU: 0x85FA5, offset: 0x17736F, size: 0x8, addend: 0x0, symName: __ZN7testing8internal15TestFactoryImplI39TlsTest_ExtraCertificateValidation_TestED0Ev, symObjAddr: 0x1C810, symBinAddr: 0x1000476C0, symSize: 0x10 }
  - { offsetInCU: 0x86005, offset: 0x1773CF, size: 0x8, addend: 0x0, symName: __ZN7testing8internal15TestFactoryImplI39TlsTest_ExtraCertificateValidation_TestE10CreateTestEv, symObjAddr: 0x1C820, symBinAddr: 0x1000476D0, symSize: 0x50 }
  - { offsetInCU: 0x860AC, offset: 0x177476, size: 0x8, addend: 0x0, symName: __ZN7testing8internal15TestFactoryImplI42TlsTest_PortableCertificateValidation_TestED1Ev, symObjAddr: 0x1C870, symBinAddr: 0x100047720, symSize: 0x10 }
  - { offsetInCU: 0x860D8, offset: 0x1774A2, size: 0x8, addend: 0x0, symName: __ZN7testing8internal15TestFactoryImplI42TlsTest_PortableCertificateValidation_TestED0Ev, symObjAddr: 0x1C880, symBinAddr: 0x100047730, symSize: 0x10 }
  - { offsetInCU: 0x86138, offset: 0x177502, size: 0x8, addend: 0x0, symName: __ZN7testing8internal15TestFactoryImplI42TlsTest_PortableCertificateValidation_TestE10CreateTestEv, symObjAddr: 0x1C890, symBinAddr: 0x100047740, symSize: 0x50 }
  - { offsetInCU: 0x864C6, offset: 0x177890, size: 0x8, addend: 0x0, symName: __ZNSt3__110shared_ptrIN7testing8internal26ParameterizedTestSuiteInfoI7TlsTestE8TestInfoEEC1B8ue170006IS6_vEEPT_, symObjAddr: 0x1CCB0, symBinAddr: 0x100047B60, symSize: 0x60 }
  - { offsetInCU: 0x866BF, offset: 0x177A89, size: 0x8, addend: 0x0, symName: __ZNSt3__16vectorINS_10shared_ptrIN7testing8internal26ParameterizedTestSuiteInfoI7TlsTestE8TestInfoEEENS_9allocatorIS8_EEE24__emplace_back_slow_pathIJPS7_EEEvDpOT_, symObjAddr: 0x1CAE0, symBinAddr: 0x100047990, symSize: 0x1D0 }
  - { offsetInCU: 0x872D2, offset: 0x17869C, size: 0x8, addend: 0x0, symName: __ZNKSt3__16vectorINS_10shared_ptrIN7testing8internal26ParameterizedTestSuiteInfoI7TlsTestE8TestInfoEEENS_9allocatorIS8_EEE20__throw_length_errorB8ue170006Ev, symObjAddr: 0x1CE50, symBinAddr: 0x100047D00, symSize: 0x10 }
  - { offsetInCU: 0x87307, offset: 0x1786D1, size: 0x8, addend: 0x0, symName: __ZNSt3__114__split_bufferINS_10shared_ptrIN7testing8internal26ParameterizedTestSuiteInfoI7TlsTestE8TestInfoEEERNS_9allocatorIS8_EEED1Ev, symObjAddr: 0x1CDD0, symBinAddr: 0x100047C80, symSize: 0x80 }
  - { offsetInCU: 0x878E7, offset: 0x178CB1, size: 0x8, addend: 0x0, symName: __ZNSt3__110shared_ptrIN7testing8internal26ParameterizedTestSuiteInfoI7TlsTestE8TestInfoEEC1B8ue170006IS6_vEEPT_.cold.1, symObjAddr: 0x246B0, symBinAddr: 0x100375070, symSize: 0x48 }
  - { offsetInCU: 0x87C81, offset: 0x17904B, size: 0x8, addend: 0x0, symName: __ZNSt3__120__shared_ptr_pointerIPN7testing8internal26ParameterizedTestSuiteInfoI7TlsTestE8TestInfoENS_10shared_ptrIS6_E27__shared_ptr_default_deleteIS6_S6_EENS_9allocatorIS6_EEED1Ev, symObjAddr: 0x1CD10, symBinAddr: 0x100047BC0, symSize: 0x10 }
  - { offsetInCU: 0x87CDC, offset: 0x1790A6, size: 0x8, addend: 0x0, symName: __ZNSt3__120__shared_ptr_pointerIPN7testing8internal26ParameterizedTestSuiteInfoI7TlsTestE8TestInfoENS_10shared_ptrIS6_E27__shared_ptr_default_deleteIS6_S6_EENS_9allocatorIS6_EEED0Ev, symObjAddr: 0x1CD20, symBinAddr: 0x100047BD0, symSize: 0x20 }
  - { offsetInCU: 0x87E08, offset: 0x1791D2, size: 0x8, addend: 0x0, symName: __ZNSt3__120__shared_ptr_pointerIPN7testing8internal26ParameterizedTestSuiteInfoI7TlsTestE8TestInfoENS_10shared_ptrIS6_E27__shared_ptr_default_deleteIS6_S6_EENS_9allocatorIS6_EEE16__on_zero_sharedEv, symObjAddr: 0x1CD40, symBinAddr: 0x100047BF0, symSize: 0x60 }
  - { offsetInCU: 0x8821A, offset: 0x1795E4, size: 0x8, addend: 0x0, symName: __ZNKSt3__120__shared_ptr_pointerIPN7testing8internal26ParameterizedTestSuiteInfoI7TlsTestE8TestInfoENS_10shared_ptrIS6_E27__shared_ptr_default_deleteIS6_S6_EENS_9allocatorIS6_EEE13__get_deleterERKSt9type_info, symObjAddr: 0x1CDA0, symBinAddr: 0x100047C50, symSize: 0x20 }
  - { offsetInCU: 0x882E1, offset: 0x1796AB, size: 0x8, addend: 0x0, symName: __ZNSt3__120__shared_ptr_pointerIPN7testing8internal26ParameterizedTestSuiteInfoI7TlsTestE8TestInfoENS_10shared_ptrIS6_E27__shared_ptr_default_deleteIS6_S6_EENS_9allocatorIS6_EEE21__on_zero_shared_weakEv, symObjAddr: 0x1CDC0, symBinAddr: 0x100047C70, symSize: 0x10 }
  - { offsetInCU: 0x88425, offset: 0x1797EF, size: 0x8, addend: 0x0, symName: __ZN7testing8internal15TestMetaFactoryI23TlsTest_One1RttKey_TestED1Ev, symObjAddr: 0x1CF20, symBinAddr: 0x100047D10, symSize: 0x10 }
  - { offsetInCU: 0x88451, offset: 0x17981B, size: 0x8, addend: 0x0, symName: __ZN7testing8internal15TestMetaFactoryI23TlsTest_One1RttKey_TestED0Ev, symObjAddr: 0x1CF30, symBinAddr: 0x100047D20, symSize: 0x10 }
  - { offsetInCU: 0x884E7, offset: 0x1798B1, size: 0x8, addend: 0x0, symName: __ZN7testing8internal15TestMetaFactoryI23TlsTest_One1RttKey_TestE17CreateTestFactoryEb, symObjAddr: 0x1CF40, symBinAddr: 0x100047D30, symSize: 0x30 }
  - { offsetInCU: 0x88565, offset: 0x17992F, size: 0x8, addend: 0x0, symName: __ZN7testing8internal24ParameterizedTestFactoryI23TlsTest_One1RttKey_TestED1Ev, symObjAddr: 0x1CF70, symBinAddr: 0x100047D60, symSize: 0x10 }
  - { offsetInCU: 0x88591, offset: 0x17995B, size: 0x8, addend: 0x0, symName: __ZN7testing8internal24ParameterizedTestFactoryI23TlsTest_One1RttKey_TestED0Ev, symObjAddr: 0x1CF80, symBinAddr: 0x100047D70, symSize: 0x10 }
  - { offsetInCU: 0x88605, offset: 0x1799CF, size: 0x8, addend: 0x0, symName: __ZN7testing8internal24ParameterizedTestFactoryI23TlsTest_One1RttKey_TestE10CreateTestEv, symObjAddr: 0x1CF90, symBinAddr: 0x100047D80, symSize: 0x60 }
  - { offsetInCU: 0x886C6, offset: 0x179A90, size: 0x8, addend: 0x0, symName: __ZN7testing8internal15TestMetaFactoryI22TlsTest_KeyUpdate_TestED1Ev, symObjAddr: 0x1D130, symBinAddr: 0x100047F20, symSize: 0x10 }
  - { offsetInCU: 0x886F2, offset: 0x179ABC, size: 0x8, addend: 0x0, symName: __ZN7testing8internal15TestMetaFactoryI22TlsTest_KeyUpdate_TestED0Ev, symObjAddr: 0x1D140, symBinAddr: 0x100047F30, symSize: 0x10 }
  - { offsetInCU: 0x88788, offset: 0x179B52, size: 0x8, addend: 0x0, symName: __ZN7testing8internal15TestMetaFactoryI22TlsTest_KeyUpdate_TestE17CreateTestFactoryEb, symObjAddr: 0x1D150, symBinAddr: 0x100047F40, symSize: 0x30 }
  - { offsetInCU: 0x88806, offset: 0x179BD0, size: 0x8, addend: 0x0, symName: __ZN7testing8internal24ParameterizedTestFactoryI22TlsTest_KeyUpdate_TestED1Ev, symObjAddr: 0x1D180, symBinAddr: 0x100047F70, symSize: 0x10 }
  - { offsetInCU: 0x88832, offset: 0x179BFC, size: 0x8, addend: 0x0, symName: __ZN7testing8internal24ParameterizedTestFactoryI22TlsTest_KeyUpdate_TestED0Ev, symObjAddr: 0x1D190, symBinAddr: 0x100047F80, symSize: 0x10 }
  - { offsetInCU: 0x88892, offset: 0x179C5C, size: 0x8, addend: 0x0, symName: __ZN7testing8internal24ParameterizedTestFactoryI22TlsTest_KeyUpdate_TestE10CreateTestEv, symObjAddr: 0x1D1A0, symBinAddr: 0x100047F90, symSize: 0x60 }
  - { offsetInCU: 0x88953, offset: 0x179D1D, size: 0x8, addend: 0x0, symName: __ZN7testing8internal15TestMetaFactoryI33TlsTest_PacketEncryptionPerf_TestED1Ev, symObjAddr: 0x1D200, symBinAddr: 0x100047FF0, symSize: 0x10 }
  - { offsetInCU: 0x8897F, offset: 0x179D49, size: 0x8, addend: 0x0, symName: __ZN7testing8internal15TestMetaFactoryI33TlsTest_PacketEncryptionPerf_TestED0Ev, symObjAddr: 0x1D210, symBinAddr: 0x100048000, symSize: 0x10 }
  - { offsetInCU: 0x88A15, offset: 0x179DDF, size: 0x8, addend: 0x0, symName: __ZN7testing8internal15TestMetaFactoryI33TlsTest_PacketEncryptionPerf_TestE17CreateTestFactoryEb, symObjAddr: 0x1D220, symBinAddr: 0x100048010, symSize: 0x30 }
  - { offsetInCU: 0x88A93, offset: 0x179E5D, size: 0x8, addend: 0x0, symName: __ZN7testing8internal24ParameterizedTestFactoryI33TlsTest_PacketEncryptionPerf_TestED1Ev, symObjAddr: 0x1D250, symBinAddr: 0x100048040, symSize: 0x10 }
  - { offsetInCU: 0x88ABF, offset: 0x179E89, size: 0x8, addend: 0x0, symName: __ZN7testing8internal24ParameterizedTestFactoryI33TlsTest_PacketEncryptionPerf_TestED0Ev, symObjAddr: 0x1D260, symBinAddr: 0x100048050, symSize: 0x10 }
  - { offsetInCU: 0x88B1F, offset: 0x179EE9, size: 0x8, addend: 0x0, symName: __ZN7testing8internal24ParameterizedTestFactoryI33TlsTest_PacketEncryptionPerf_TestE10CreateTestEv, symObjAddr: 0x1D270, symBinAddr: 0x100048060, symSize: 0x60 }
  - { offsetInCU: 0x88BE5, offset: 0x179FAF, size: 0x8, addend: 0x0, symName: __ZN7testing8internal15TestFactoryImplI25TlsTest_LockPerfTest_TestED1Ev, symObjAddr: 0x1D2D0, symBinAddr: 0x1000480C0, symSize: 0x10 }
  - { offsetInCU: 0x88C11, offset: 0x179FDB, size: 0x8, addend: 0x0, symName: __ZN7testing8internal15TestFactoryImplI25TlsTest_LockPerfTest_TestED0Ev, symObjAddr: 0x1D2E0, symBinAddr: 0x1000480D0, symSize: 0x10 }
  - { offsetInCU: 0x88C71, offset: 0x17A03B, size: 0x8, addend: 0x0, symName: __ZN7testing8internal15TestFactoryImplI25TlsTest_LockPerfTest_TestE10CreateTestEv, symObjAddr: 0x1D2F0, symBinAddr: 0x1000480E0, symSize: 0x50 }
  - { offsetInCU: 0x88D18, offset: 0x17A0E2, size: 0x8, addend: 0x0, symName: __ZN7testing8internal15TestFactoryImplI44TlsTest_ClientCertificateFailValidation_TestED1Ev, symObjAddr: 0x1D340, symBinAddr: 0x100048130, symSize: 0x10 }
  - { offsetInCU: 0x88D44, offset: 0x17A10E, size: 0x8, addend: 0x0, symName: __ZN7testing8internal15TestFactoryImplI44TlsTest_ClientCertificateFailValidation_TestED0Ev, symObjAddr: 0x1D350, symBinAddr: 0x100048140, symSize: 0x10 }
  - { offsetInCU: 0x88DA4, offset: 0x17A16E, size: 0x8, addend: 0x0, symName: __ZN7testing8internal15TestFactoryImplI44TlsTest_ClientCertificateFailValidation_TestE10CreateTestEv, symObjAddr: 0x1D360, symBinAddr: 0x100048150, symSize: 0x50 }
  - { offsetInCU: 0x88E4B, offset: 0x17A215, size: 0x8, addend: 0x0, symName: __ZN7testing8internal15TestFactoryImplI45TlsTest_ClientCertificateDeferValidation_TestED1Ev, symObjAddr: 0x1D3B0, symBinAddr: 0x1000481A0, symSize: 0x10 }
  - { offsetInCU: 0x88E77, offset: 0x17A241, size: 0x8, addend: 0x0, symName: __ZN7testing8internal15TestFactoryImplI45TlsTest_ClientCertificateDeferValidation_TestED0Ev, symObjAddr: 0x1D3C0, symBinAddr: 0x1000481B0, symSize: 0x10 }
  - { offsetInCU: 0x88ED7, offset: 0x17A2A1, size: 0x8, addend: 0x0, symName: __ZN7testing8internal15TestFactoryImplI45TlsTest_ClientCertificateDeferValidation_TestE10CreateTestEv, symObjAddr: 0x1D3D0, symBinAddr: 0x1000481C0, symSize: 0x50 }
  - { offsetInCU: 0x88F7E, offset: 0x17A348, size: 0x8, addend: 0x0, symName: __ZN7testing8internal15TestFactoryImplI47TlsTest_ClientCertificateDeferValidationCa_TestED1Ev, symObjAddr: 0x1D420, symBinAddr: 0x100048210, symSize: 0x10 }
  - { offsetInCU: 0x88FAA, offset: 0x17A374, size: 0x8, addend: 0x0, symName: __ZN7testing8internal15TestFactoryImplI47TlsTest_ClientCertificateDeferValidationCa_TestED0Ev, symObjAddr: 0x1D430, symBinAddr: 0x100048220, symSize: 0x10 }
  - { offsetInCU: 0x8900A, offset: 0x17A3D4, size: 0x8, addend: 0x0, symName: __ZN7testing8internal15TestFactoryImplI47TlsTest_ClientCertificateDeferValidationCa_TestE10CreateTestEv, symObjAddr: 0x1D440, symBinAddr: 0x100048230, symSize: 0x50 }
  - { offsetInCU: 0x890B1, offset: 0x17A47B, size: 0x8, addend: 0x0, symName: __ZN7testing8internal15TestFactoryImplI51TlsTest_ClientCertificateDeferValidationNoCert_TestED1Ev, symObjAddr: 0x1D490, symBinAddr: 0x100048280, symSize: 0x10 }
  - { offsetInCU: 0x890DD, offset: 0x17A4A7, size: 0x8, addend: 0x0, symName: __ZN7testing8internal15TestFactoryImplI51TlsTest_ClientCertificateDeferValidationNoCert_TestED0Ev, symObjAddr: 0x1D4A0, symBinAddr: 0x100048290, symSize: 0x10 }
  - { offsetInCU: 0x8913D, offset: 0x17A507, size: 0x8, addend: 0x0, symName: __ZN7testing8internal15TestFactoryImplI51TlsTest_ClientCertificateDeferValidationNoCert_TestE10CreateTestEv, symObjAddr: 0x1D4B0, symBinAddr: 0x1000482A0, symSize: 0x50 }
  - { offsetInCU: 0x891E4, offset: 0x17A5AE, size: 0x8, addend: 0x0, symName: __ZN7testing8internal15TestFactoryImplI48TlsTest_ClientCertificateNoValidationNoCert_TestED1Ev, symObjAddr: 0x1D500, symBinAddr: 0x1000482F0, symSize: 0x10 }
  - { offsetInCU: 0x89210, offset: 0x17A5DA, size: 0x8, addend: 0x0, symName: __ZN7testing8internal15TestFactoryImplI48TlsTest_ClientCertificateNoValidationNoCert_TestED0Ev, symObjAddr: 0x1D510, symBinAddr: 0x100048300, symSize: 0x10 }
  - { offsetInCU: 0x89270, offset: 0x17A63A, size: 0x8, addend: 0x0, symName: __ZN7testing8internal15TestFactoryImplI48TlsTest_ClientCertificateNoValidationNoCert_TestE10CreateTestEv, symObjAddr: 0x1D520, symBinAddr: 0x100048310, symSize: 0x50 }
  - { offsetInCU: 0x89317, offset: 0x17A6E1, size: 0x8, addend: 0x0, symName: __ZN7testing8internal15TestFactoryImplI32TlsTest_CipherSuiteSuccess1_TestED1Ev, symObjAddr: 0x1D570, symBinAddr: 0x100048360, symSize: 0x10 }
  - { offsetInCU: 0x89343, offset: 0x17A70D, size: 0x8, addend: 0x0, symName: __ZN7testing8internal15TestFactoryImplI32TlsTest_CipherSuiteSuccess1_TestED0Ev, symObjAddr: 0x1D580, symBinAddr: 0x100048370, symSize: 0x10 }
  - { offsetInCU: 0x893A3, offset: 0x17A76D, size: 0x8, addend: 0x0, symName: __ZN7testing8internal15TestFactoryImplI32TlsTest_CipherSuiteSuccess1_TestE10CreateTestEv, symObjAddr: 0x1D590, symBinAddr: 0x100048380, symSize: 0x50 }
  - { offsetInCU: 0x8944A, offset: 0x17A814, size: 0x8, addend: 0x0, symName: __ZN7testing8internal15TestFactoryImplI32TlsTest_CipherSuiteSuccess2_TestED1Ev, symObjAddr: 0x1D5E0, symBinAddr: 0x1000483D0, symSize: 0x10 }
  - { offsetInCU: 0x89476, offset: 0x17A840, size: 0x8, addend: 0x0, symName: __ZN7testing8internal15TestFactoryImplI32TlsTest_CipherSuiteSuccess2_TestED0Ev, symObjAddr: 0x1D5F0, symBinAddr: 0x1000483E0, symSize: 0x10 }
  - { offsetInCU: 0x894D6, offset: 0x17A8A0, size: 0x8, addend: 0x0, symName: __ZN7testing8internal15TestFactoryImplI32TlsTest_CipherSuiteSuccess2_TestE10CreateTestEv, symObjAddr: 0x1D600, symBinAddr: 0x1000483F0, symSize: 0x50 }
  - { offsetInCU: 0x8957D, offset: 0x17A947, size: 0x8, addend: 0x0, symName: __ZN7testing8internal15TestFactoryImplI32TlsTest_CipherSuiteSuccess3_TestED1Ev, symObjAddr: 0x1D650, symBinAddr: 0x100048440, symSize: 0x10 }
  - { offsetInCU: 0x895A9, offset: 0x17A973, size: 0x8, addend: 0x0, symName: __ZN7testing8internal15TestFactoryImplI32TlsTest_CipherSuiteSuccess3_TestED0Ev, symObjAddr: 0x1D660, symBinAddr: 0x100048450, symSize: 0x10 }
  - { offsetInCU: 0x89609, offset: 0x17A9D3, size: 0x8, addend: 0x0, symName: __ZN7testing8internal15TestFactoryImplI32TlsTest_CipherSuiteSuccess3_TestE10CreateTestEv, symObjAddr: 0x1D670, symBinAddr: 0x100048460, symSize: 0x50 }
  - { offsetInCU: 0x896B0, offset: 0x17AA7A, size: 0x8, addend: 0x0, symName: __ZN7testing8internal15TestFactoryImplI32TlsTest_CipherSuiteMismatch_TestED1Ev, symObjAddr: 0x1D6C0, symBinAddr: 0x1000484B0, symSize: 0x10 }
  - { offsetInCU: 0x896DC, offset: 0x17AAA6, size: 0x8, addend: 0x0, symName: __ZN7testing8internal15TestFactoryImplI32TlsTest_CipherSuiteMismatch_TestED0Ev, symObjAddr: 0x1D6D0, symBinAddr: 0x1000484C0, symSize: 0x10 }
  - { offsetInCU: 0x8973C, offset: 0x17AB06, size: 0x8, addend: 0x0, symName: __ZN7testing8internal15TestFactoryImplI32TlsTest_CipherSuiteMismatch_TestE10CreateTestEv, symObjAddr: 0x1D6E0, symBinAddr: 0x1000484D0, symSize: 0x50 }
  - { offsetInCU: 0x897E3, offset: 0x17ABAD, size: 0x8, addend: 0x0, symName: __ZN7testing8internal15TestFactoryImplI31TlsTest_CipherSuiteInvalid_TestED1Ev, symObjAddr: 0x1D730, symBinAddr: 0x100048520, symSize: 0x10 }
  - { offsetInCU: 0x8980F, offset: 0x17ABD9, size: 0x8, addend: 0x0, symName: __ZN7testing8internal15TestFactoryImplI31TlsTest_CipherSuiteInvalid_TestED0Ev, symObjAddr: 0x1D740, symBinAddr: 0x100048530, symSize: 0x10 }
  - { offsetInCU: 0x8986F, offset: 0x17AC39, size: 0x8, addend: 0x0, symName: __ZN7testing8internal15TestFactoryImplI31TlsTest_CipherSuiteInvalid_TestE10CreateTestEv, symObjAddr: 0x1D750, symBinAddr: 0x100048540, symSize: 0x50 }
  - { offsetInCU: 0x89916, offset: 0x17ACE0, size: 0x8, addend: 0x0, symName: __ZN7testing8internal15TestFactoryImplI42TlsTest_PlatformSpecificFlagsSchannel_TestED1Ev, symObjAddr: 0x1D7A0, symBinAddr: 0x100048590, symSize: 0x10 }
  - { offsetInCU: 0x89942, offset: 0x17AD0C, size: 0x8, addend: 0x0, symName: __ZN7testing8internal15TestFactoryImplI42TlsTest_PlatformSpecificFlagsSchannel_TestED0Ev, symObjAddr: 0x1D7B0, symBinAddr: 0x1000485A0, symSize: 0x10 }
  - { offsetInCU: 0x899A2, offset: 0x17AD6C, size: 0x8, addend: 0x0, symName: __ZN7testing8internal15TestFactoryImplI42TlsTest_PlatformSpecificFlagsSchannel_TestE10CreateTestEv, symObjAddr: 0x1D7C0, symBinAddr: 0x1000485B0, symSize: 0x50 }
  - { offsetInCU: 0x89A49, offset: 0x17AE13, size: 0x8, addend: 0x0, symName: __ZN7testing8internal15TestFactoryImplI41TlsTest_PlatformSpecificFlagsOpenSsl_TestED1Ev, symObjAddr: 0x1D810, symBinAddr: 0x100048600, symSize: 0x10 }
  - { offsetInCU: 0x89A75, offset: 0x17AE3F, size: 0x8, addend: 0x0, symName: __ZN7testing8internal15TestFactoryImplI41TlsTest_PlatformSpecificFlagsOpenSsl_TestED0Ev, symObjAddr: 0x1D820, symBinAddr: 0x100048610, symSize: 0x10 }
  - { offsetInCU: 0x89AD5, offset: 0x17AE9F, size: 0x8, addend: 0x0, symName: __ZN7testing8internal15TestFactoryImplI41TlsTest_PlatformSpecificFlagsOpenSsl_TestE10CreateTestEv, symObjAddr: 0x1D830, symBinAddr: 0x100048620, symSize: 0x50 }
  - { offsetInCU: 0x89B7C, offset: 0x17AF46, size: 0x8, addend: 0x0, symName: __ZN7testing8internal15TestFactoryImplI30TlsTest_PortableCertFlags_TestED1Ev, symObjAddr: 0x1D880, symBinAddr: 0x100048670, symSize: 0x10 }
  - { offsetInCU: 0x89BA8, offset: 0x17AF72, size: 0x8, addend: 0x0, symName: __ZN7testing8internal15TestFactoryImplI30TlsTest_PortableCertFlags_TestED0Ev, symObjAddr: 0x1D890, symBinAddr: 0x100048680, symSize: 0x10 }
  - { offsetInCU: 0x89C08, offset: 0x17AFD2, size: 0x8, addend: 0x0, symName: __ZN7testing8internal15TestFactoryImplI30TlsTest_PortableCertFlags_TestE10CreateTestEv, symObjAddr: 0x1D8A0, symBinAddr: 0x100048690, symSize: 0x50 }
  - { offsetInCU: 0x8A4D4, offset: 0x17B89E, size: 0x8, addend: 0x0, symName: __ZNSt3__16vectorIbNS_9allocatorIbEEE16__init_with_sizeB8ue170006INS_14__bit_iteratorIS3_Lb1ELm0EEES6_EEvT_T0_m, symObjAddr: 0x1DBD0, symBinAddr: 0x1000489C0, symSize: 0x130 }
  - { offsetInCU: 0x8A8CB, offset: 0x17BC95, size: 0x8, addend: 0x0, symName: __ZN7testing8internal30ValuesInIteratorRangeGeneratorIbED1Ev, symObjAddr: 0x1DAB0, symBinAddr: 0x1000488A0, symSize: 0x30 }
  - { offsetInCU: 0x8AA23, offset: 0x17BDED, size: 0x8, addend: 0x0, symName: __ZN7testing8internal30ValuesInIteratorRangeGeneratorIbED0Ev, symObjAddr: 0x1DAE0, symBinAddr: 0x1000488D0, symSize: 0x40 }
  - { offsetInCU: 0x8ACF8, offset: 0x17C0C2, size: 0x8, addend: 0x0, symName: __ZNK7testing8internal30ValuesInIteratorRangeGeneratorIbE5BeginEv, symObjAddr: 0x1DB20, symBinAddr: 0x100048910, symSize: 0x50 }
  - { offsetInCU: 0x8AE6B, offset: 0x17C235, size: 0x8, addend: 0x0, symName: __ZNK7testing8internal30ValuesInIteratorRangeGeneratorIbE3EndEv, symObjAddr: 0x1DB70, symBinAddr: 0x100048960, symSize: 0x60 }
  - { offsetInCU: 0x8B12F, offset: 0x17C4F9, size: 0x8, addend: 0x0, symName: __ZNKSt3__16vectorIbNS_9allocatorIbEEE20__throw_length_errorB8ue170006Ev, symObjAddr: 0x1DD00, symBinAddr: 0x100048AF0, symSize: 0x10 }
  - { offsetInCU: 0x8B158, offset: 0x17C522, size: 0x8, addend: 0x0, symName: __ZN7testing8internal30ValuesInIteratorRangeGeneratorIbE8IteratorD1Ev, symObjAddr: 0x1DD10, symBinAddr: 0x100048B00, symSize: 0x30 }
  - { offsetInCU: 0x8B207, offset: 0x17C5D1, size: 0x8, addend: 0x0, symName: __ZN7testing8internal30ValuesInIteratorRangeGeneratorIbE8IteratorD1Ev, symObjAddr: 0x1DD10, symBinAddr: 0x100048B00, symSize: 0x30 }
  - { offsetInCU: 0x8B302, offset: 0x17C6CC, size: 0x8, addend: 0x0, symName: __ZN7testing8internal30ValuesInIteratorRangeGeneratorIbE8IteratorD0Ev, symObjAddr: 0x1DD40, symBinAddr: 0x100048B30, symSize: 0x40 }
  - { offsetInCU: 0x8B408, offset: 0x17C7D2, size: 0x8, addend: 0x0, symName: __ZNK7testing8internal30ValuesInIteratorRangeGeneratorIbE8Iterator13BaseGeneratorEv, symObjAddr: 0x1DD80, symBinAddr: 0x100048B70, symSize: 0x10 }
  - { offsetInCU: 0x8B42D, offset: 0x17C7F7, size: 0x8, addend: 0x0, symName: __ZN7testing8internal30ValuesInIteratorRangeGeneratorIbE8Iterator7AdvanceEv, symObjAddr: 0x1DD90, symBinAddr: 0x100048B80, symSize: 0x40 }
  - { offsetInCU: 0x8B512, offset: 0x17C8DC, size: 0x8, addend: 0x0, symName: __ZNK7testing8internal30ValuesInIteratorRangeGeneratorIbE8Iterator5CloneEv, symObjAddr: 0x1DDD0, symBinAddr: 0x100048BC0, symSize: 0x40 }
  - { offsetInCU: 0x8B65E, offset: 0x17CA28, size: 0x8, addend: 0x0, symName: __ZNK7testing8internal30ValuesInIteratorRangeGeneratorIbE8Iterator7CurrentEv, symObjAddr: 0x1DE10, symBinAddr: 0x100048C00, symSize: 0x40 }
  - { offsetInCU: 0x8B6F7, offset: 0x17CAC1, size: 0x8, addend: 0x0, symName: __ZNK7testing8internal30ValuesInIteratorRangeGeneratorIbE8Iterator6EqualsERKNS0_22ParamIteratorInterfaceIbEE, symObjAddr: 0x1DE50, symBinAddr: 0x100048C40, symSize: 0x150 }
  - { offsetInCU: 0x8B925, offset: 0x17CCEF, size: 0x8, addend: 0x0, symName: __ZNSt3__120__shared_ptr_pointerIPN7testing8internal23ParamGeneratorInterfaceIbEENS_10shared_ptrIKS4_E27__shared_ptr_default_deleteIS7_S4_EENS_9allocatorIS4_EEED1Ev, symObjAddr: 0x1E040, symBinAddr: 0x100048E30, symSize: 0x10 }
  - { offsetInCU: 0x8B980, offset: 0x17CD4A, size: 0x8, addend: 0x0, symName: __ZNSt3__120__shared_ptr_pointerIPN7testing8internal23ParamGeneratorInterfaceIbEENS_10shared_ptrIKS4_E27__shared_ptr_default_deleteIS7_S4_EENS_9allocatorIS4_EEED0Ev, symObjAddr: 0x1E050, symBinAddr: 0x100048E40, symSize: 0x20 }
  - { offsetInCU: 0x8B9E9, offset: 0x17CDB3, size: 0x8, addend: 0x0, symName: __ZNSt3__120__shared_ptr_pointerIPN7testing8internal23ParamGeneratorInterfaceIbEENS_10shared_ptrIKS4_E27__shared_ptr_default_deleteIS7_S4_EENS_9allocatorIS4_EEE16__on_zero_sharedEv, symObjAddr: 0x1E070, symBinAddr: 0x100048E60, symSize: 0x20 }
  - { offsetInCU: 0x8BA3D, offset: 0x17CE07, size: 0x8, addend: 0x0, symName: __ZNKSt3__120__shared_ptr_pointerIPN7testing8internal23ParamGeneratorInterfaceIbEENS_10shared_ptrIKS4_E27__shared_ptr_default_deleteIS7_S4_EENS_9allocatorIS4_EEE13__get_deleterERKSt9type_info, symObjAddr: 0x1E090, symBinAddr: 0x100048E80, symSize: 0x20 }
  - { offsetInCU: 0x8BB04, offset: 0x17CECE, size: 0x8, addend: 0x0, symName: __ZNSt3__120__shared_ptr_pointerIPN7testing8internal23ParamGeneratorInterfaceIbEENS_10shared_ptrIKS4_E27__shared_ptr_default_deleteIS7_S4_EENS_9allocatorIS4_EEE21__on_zero_shared_weakEv, symObjAddr: 0x1E0B0, symBinAddr: 0x100048EA0, symSize: 0x10 }
  - { offsetInCU: 0x8C9FD, offset: 0x17DDC7, size: 0x8, addend: 0x0, symName: __ZN7TlsTest14SetUpTestSuiteEv, symObjAddr: 0x1F960, symBinAddr: 0x10004A0C0, symSize: 0x860 }
  - { offsetInCU: 0x8E6CC, offset: 0x17FA96, size: 0x8, addend: 0x0, symName: __ZN7TlsTest8ReadFileEPKcPj, symObjAddr: 0x20200, symBinAddr: 0x10004A960, symSize: 0xF0 }
  - { offsetInCU: 0x8EAE6, offset: 0x17FEB0, size: 0x8, addend: 0x0, symName: __ZN7TlsTest17TearDownTestSuiteEv, symObjAddr: 0x20AD0, symBinAddr: 0x10004B230, symSize: 0xC0 }
  - { offsetInCU: 0x8FA94, offset: 0x180E5E, size: 0x8, addend: 0x0, symName: __ZN7testing8internal26ParameterizedTestSuiteInfoI7TlsTestED1Ev, symObjAddr: 0x226A0, symBinAddr: 0x10004C3B0, symSize: 0x10 }
  - { offsetInCU: 0x8FACC, offset: 0x180E96, size: 0x8, addend: 0x0, symName: __ZN7testing8internal26ParameterizedTestSuiteInfoI7TlsTestED2Ev, symObjAddr: 0x235A0, symBinAddr: 0x10004D2B0, symSize: 0xF0 }
  - { offsetInCU: 0x902FF, offset: 0x1816C9, size: 0x8, addend: 0x0, symName: __ZN7testing8internal26ParameterizedTestSuiteInfoI7TlsTestED0Ev, symObjAddr: 0x226B0, symBinAddr: 0x10004C3C0, symSize: 0x20 }
  - { offsetInCU: 0x90363, offset: 0x18172D, size: 0x8, addend: 0x0, symName: __ZNK7testing8internal26ParameterizedTestSuiteInfoI7TlsTestE16GetTestSuiteNameEv, symObjAddr: 0x226D0, symBinAddr: 0x10004C3E0, symSize: 0x10 }
  - { offsetInCU: 0x90388, offset: 0x181752, size: 0x8, addend: 0x0, symName: __ZNK7testing8internal26ParameterizedTestSuiteInfoI7TlsTestE18GetTestSuiteTypeIdEv, symObjAddr: 0x226E0, symBinAddr: 0x10004C3F0, symSize: 0x10 }
  - { offsetInCU: 0x90E41, offset: 0x18220B, size: 0x8, addend: 0x0, symName: __ZN7testing8internal26ParameterizedTestSuiteInfoI7TlsTestE13RegisterTestsEv, symObjAddr: 0x226F0, symBinAddr: 0x10004C400, symSize: 0xEB0 }
  - { offsetInCU: 0x950E1, offset: 0x1864AB, size: 0x8, addend: 0x0, symName: __ZN7testing8internal26ParameterizedTestSuiteInfoI7TlsTestE16IsValidParamNameERKNSt3__112basic_stringIcNS4_11char_traitsIcEENS4_9allocatorIcEEEE, symObjAddr: 0x23690, symBinAddr: 0x10004D3A0, symSize: 0xE0 }
  - { offsetInCU: 0x96A13, offset: 0x187DDD, size: 0x8, addend: 0x0, symName: __ZNSt3__16vectorIN7testing8internal26ParameterizedTestSuiteInfoI7TlsTestE17InstantiationInfoENS_9allocatorIS6_EEE24__emplace_back_slow_pathIJNS_12basic_stringIcNS_11char_traitsIcEENS7_IcEEEERPFNS2_14ParamGeneratorIbEEvERPFSF_RKNS1_13TestParamInfoIbEEERPKcRiEEEvDpOT_, symObjAddr: 0x24470, symBinAddr: 0x10004D710, symSize: 0x230 }
  - { offsetInCU: 0x97354, offset: 0x18871E, size: 0x8, addend: 0x0, symName: __ZNKSt3__16vectorIN7testing8internal26ParameterizedTestSuiteInfoI7TlsTestE17InstantiationInfoENS_9allocatorIS6_EEE20__throw_length_errorB8ue170006Ev, symObjAddr: 0x246A0, symBinAddr: 0x10004D940, symSize: 0x10 }
  - { offsetInCU: 0x9737D, offset: 0x188747, size: 0x8, addend: 0x0, symName: __ZNSt3__110shared_ptrIN7testing8internal26ParameterizedTestSuiteInfoI7TlsTestE8TestInfoEEC1B8ue170006IS6_vEEPT_.cold.1, symObjAddr: 0x246B0, symBinAddr: 0x100375070, symSize: 0x48 }
  - { offsetInCU: 0x26, offset: 0x188A14, size: 0x8, addend: 0x0, symName: _CxPlatTlsLogSecret, symObjAddr: 0x0, symBinAddr: 0x100050C00, symSize: 0x40 }
  - { offsetInCU: 0xDC, offset: 0x188ACA, size: 0x8, addend: 0x0, symName: _CxPlatTlsLogSecret, symObjAddr: 0x0, symBinAddr: 0x100050C00, symSize: 0x40 }
  - { offsetInCU: 0x133, offset: 0x188B21, size: 0x8, addend: 0x0, symName: _CxPlatHkdfFormatLabel, symObjAddr: 0x40, symBinAddr: 0x100050C40, symSize: 0xB0 }
  - { offsetInCU: 0x197, offset: 0x188B85, size: 0x8, addend: 0x0, symName: _CxPlatHkdfFormatLabel, symObjAddr: 0x40, symBinAddr: 0x100050C40, symSize: 0xB0 }
  - { offsetInCU: 0x246, offset: 0x188C34, size: 0x8, addend: 0x0, symName: _CxPlatHkdfExpandLabel, symObjAddr: 0xF0, symBinAddr: 0x100050CF0, symSize: 0x80 }
  - { offsetInCU: 0x485, offset: 0x188E73, size: 0x8, addend: 0x0, symName: _CxPlatTlsDeriveInitialSecrets, symObjAddr: 0x170, symBinAddr: 0x100050D70, symSize: 0x1E0 }
  - { offsetInCU: 0x909, offset: 0x1892F7, size: 0x8, addend: 0x0, symName: _QuicPacketKeyDerive, symObjAddr: 0x350, symBinAddr: 0x100050F50, symSize: 0x350 }
  - { offsetInCU: 0xDE1, offset: 0x1897CF, size: 0x8, addend: 0x0, symName: _QuicPacketKeyFree, symObjAddr: 0x6A0, symBinAddr: 0x1000512A0, symSize: 0x60 }
  - { offsetInCU: 0xE3D, offset: 0x18982B, size: 0x8, addend: 0x0, symName: _QuicPacketKeyDeriveOffload, symObjAddr: 0x700, symBinAddr: 0x100051300, symSize: 0x220 }
  - { offsetInCU: 0x1149, offset: 0x189B37, size: 0x8, addend: 0x0, symName: _QuicPacketKeyCreateInitial, symObjAddr: 0x920, symBinAddr: 0x100051520, symSize: 0x210 }
  - { offsetInCU: 0x138F, offset: 0x189D7D, size: 0x8, addend: 0x0, symName: _QuicPacketKeyUpdate, symObjAddr: 0xB30, symBinAddr: 0x100051730, symSize: 0x1A2 }
  - { offsetInCU: 0x26, offset: 0x18A356, size: 0x8, addend: 0x0, symName: _CxPlatHashtableInitialize, symObjAddr: 0x0, symBinAddr: 0x1000518E0, symSize: 0x270 }
  - { offsetInCU: 0x1E5, offset: 0x18A515, size: 0x8, addend: 0x0, symName: _CxPlatHashtableInitialize, symObjAddr: 0x0, symBinAddr: 0x1000518E0, symSize: 0x270 }
  - { offsetInCU: 0x519, offset: 0x18A849, size: 0x8, addend: 0x0, symName: _CxPlatHashtableUninitialize, symObjAddr: 0x270, symBinAddr: 0x100051B50, symSize: 0x260 }
  - { offsetInCU: 0xAA6, offset: 0x18ADD6, size: 0x8, addend: 0x0, symName: _CxPlatHashtableInsert, symObjAddr: 0x4D0, symBinAddr: 0x100051DB0, symSize: 0x250 }
  - { offsetInCU: 0xE30, offset: 0x18B160, size: 0x8, addend: 0x0, symName: _CxPlatGetChainHead, symObjAddr: 0x12F0, symBinAddr: 0x100052BD0, symSize: 0x130 }
  - { offsetInCU: 0x1032, offset: 0x18B362, size: 0x8, addend: 0x0, symName: _CxPlatHashTableExpand, symObjAddr: 0x720, symBinAddr: 0x100052000, symSize: 0x410 }
  - { offsetInCU: 0x15B9, offset: 0x18B8E9, size: 0x8, addend: 0x0, symName: _CxPlatHashtableRemove, symObjAddr: 0xB30, symBinAddr: 0x100052410, symSize: 0x1D0 }
  - { offsetInCU: 0x185D, offset: 0x18BB8D, size: 0x8, addend: 0x0, symName: _CxPlatHashtableLookup, symObjAddr: 0xD00, symBinAddr: 0x1000525E0, symSize: 0x130 }
  - { offsetInCU: 0x1A32, offset: 0x18BD62, size: 0x8, addend: 0x0, symName: _CxPlatHashtableLookupNext, symObjAddr: 0xE30, symBinAddr: 0x100052710, symSize: 0x170 }
  - { offsetInCU: 0x1C15, offset: 0x18BF45, size: 0x8, addend: 0x0, symName: _CxPlatHashtableEnumerateBegin, symObjAddr: 0xFA0, symBinAddr: 0x100052880, symSize: 0x120 }
  - { offsetInCU: 0x1DFF, offset: 0x18C12F, size: 0x8, addend: 0x0, symName: _CxPlatHashtableEnumerateNext, symObjAddr: 0x10C0, symBinAddr: 0x1000529A0, symSize: 0x230 }
  - { offsetInCU: 0x2112, offset: 0x18C442, size: 0x8, addend: 0x0, symName: _CxPlatHashtableEnumerateEnd, symObjAddr: 0x1420, symBinAddr: 0x100052D00, symSize: 0x153 }
  - { offsetInCU: 0x26, offset: 0x18C6EA, size: 0x8, addend: 0x0, symName: _CxPlatPcpInitialize, symObjAddr: 0x0, symBinAddr: 0x100052E60, symSize: 0x230 }
  - { offsetInCU: 0x40, offset: 0x18C704, size: 0x8, addend: 0x0, symName: _CXPLAT_PCP_PORT, symObjAddr: 0xABE, symBinAddr: 0x1003B958A, symSize: 0x0 }
  - { offsetInCU: 0x6F, offset: 0x18C733, size: 0x8, addend: 0x0, symName: _PCP_MAX_UDP_PAYLOAD, symObjAddr: 0xAC0, symBinAddr: 0x1003B958C, symSize: 0x0 }
  - { offsetInCU: 0x85, offset: 0x18C749, size: 0x8, addend: 0x0, symName: _PCP_VERSION, symObjAddr: 0xAC2, symBinAddr: 0x1003B958E, symSize: 0x0 }
  - { offsetInCU: 0xB4, offset: 0x18C778, size: 0x8, addend: 0x0, symName: _PCP_RESULT_SUCCESS, symObjAddr: 0xAC3, symBinAddr: 0x1003B958F, symSize: 0x0 }
  - { offsetInCU: 0xCA, offset: 0x18C78E, size: 0x8, addend: 0x0, symName: _PCP_OPCODE_MAP, symObjAddr: 0xAC4, symBinAddr: 0x1003B9590, symSize: 0x0 }
  - { offsetInCU: 0xE0, offset: 0x18C7A4, size: 0x8, addend: 0x0, symName: _PCP_OPCODE_PEER, symObjAddr: 0xAC5, symBinAddr: 0x1003B9591, symSize: 0x0 }
  - { offsetInCU: 0xF6, offset: 0x18C7BA, size: 0x8, addend: 0x0, symName: _PCP_MAP_REQUEST_SIZE, symObjAddr: 0xAC6, symBinAddr: 0x1003B9592, symSize: 0x0 }
  - { offsetInCU: 0x10C, offset: 0x18C7D0, size: 0x8, addend: 0x0, symName: _PCP_PEER_REQUEST_SIZE, symObjAddr: 0xAC8, symBinAddr: 0x1003B9594, symSize: 0x0 }
  - { offsetInCU: 0x122, offset: 0x18C7E6, size: 0x8, addend: 0x0, symName: _PCP_MAP_RESPONSE_SIZE, symObjAddr: 0xACA, symBinAddr: 0x1003B9596, symSize: 0x0 }
  - { offsetInCU: 0x138, offset: 0x18C7FC, size: 0x8, addend: 0x0, symName: _PCP_PEER_RESPONSE_SIZE, symObjAddr: 0xACC, symBinAddr: 0x1003B9598, symSize: 0x0 }
  - { offsetInCU: 0x91F, offset: 0x18CFE3, size: 0x8, addend: 0x0, symName: _CxPlatPcpInitialize, symObjAddr: 0x0, symBinAddr: 0x100052E60, symSize: 0x230 }
  - { offsetInCU: 0xD76, offset: 0x18D43A, size: 0x8, addend: 0x0, symName: _CxPlatPcpUninitialize, symObjAddr: 0x230, symBinAddr: 0x100053090, symSize: 0x80 }
  - { offsetInCU: 0xE58, offset: 0x18D51C, size: 0x8, addend: 0x0, symName: _CxPlatPcpProcessDatagram, symObjAddr: 0x2B0, symBinAddr: 0x100053110, symSize: 0x1E0 }
  - { offsetInCU: 0xFE7, offset: 0x18D6AB, size: 0x8, addend: 0x0, symName: _CxPlatPcpRecvCallback, symObjAddr: 0x490, symBinAddr: 0x1000532F0, symSize: 0x80 }
  - { offsetInCU: 0x12C9, offset: 0x18D98D, size: 0x8, addend: 0x0, symName: _CxPlatSocketMatchesLocalAddr, symObjAddr: 0x510, symBinAddr: 0x100053370, symSize: 0x80 }
  - { offsetInCU: 0x1379, offset: 0x18DA3D, size: 0x8, addend: 0x0, symName: _CxPlatPcpSendMapRequestInternal, symObjAddr: 0x590, symBinAddr: 0x1000533F0, symSize: 0x140 }
  - { offsetInCU: 0x168F, offset: 0x18DD53, size: 0x8, addend: 0x0, symName: _CxPlatPcpSendMapRequest, symObjAddr: 0x6D0, symBinAddr: 0x100053530, symSize: 0x140 }
  - { offsetInCU: 0x1827, offset: 0x18DEEB, size: 0x8, addend: 0x0, symName: _CxPlatPcpSendPeerRequestInternal, symObjAddr: 0x810, symBinAddr: 0x100053670, symSize: 0x170 }
  - { offsetInCU: 0x1A05, offset: 0x18E0C9, size: 0x8, addend: 0x0, symName: _CxPlatPcpSendPeerRequest, symObjAddr: 0x980, symBinAddr: 0x1000537E0, symSize: 0x13E }
  - { offsetInCU: 0x1B95, offset: 0x18E259, size: 0x8, addend: 0x0, symName: _CXPLAT_PCP_PORT, symObjAddr: 0xABE, symBinAddr: 0x1003B958A, symSize: 0x0 }
  - { offsetInCU: 0x26, offset: 0x18E2E4, size: 0x8, addend: 0x0, symName: _CxPlatWorkersInit, symObjAddr: 0x0, symBinAddr: 0x100053920, symSize: 0xE0 }
  - { offsetInCU: 0x40, offset: 0x18E2FE, size: 0x8, addend: 0x0, symName: _WorkerWakeEventPayload, symObjAddr: 0x1050, symBinAddr: 0x1003B959C, symSize: 0x0 }
  - { offsetInCU: 0x6F, offset: 0x18E32D, size: 0x8, addend: 0x0, symName: _WorkerUpdatePollEventPayload, symObjAddr: 0x1054, symBinAddr: 0x1003B95A0, symSize: 0x0 }
  - { offsetInCU: 0xAF, offset: 0x18E36D, size: 0x8, addend: 0x0, symName: _CxPlatWorkerLock, symBinAddr: 0x1004329E0, symSize: 0x0 }
  - { offsetInCU: 0x12F, offset: 0x18E3ED, size: 0x8, addend: 0x0, symName: _CxPlatWorkerRundown, symBinAddr: 0x100432A20, symSize: 0x0 }
  - { offsetInCU: 0x239, offset: 0x18E4F7, size: 0x8, addend: 0x0, symName: _CxPlatWorkerCount, symBinAddr: 0x1004329D8, symSize: 0x0 }
  - { offsetInCU: 0x24F, offset: 0x18E50D, size: 0x8, addend: 0x0, symName: _CxPlatWorkers, symBinAddr: 0x100432AB0, symSize: 0x0 }
  - { offsetInCU: 0x60F, offset: 0x18E8CD, size: 0x8, addend: 0x0, symName: _CxPlatWorkersInit, symObjAddr: 0x0, symBinAddr: 0x100053920, symSize: 0xE0 }
  - { offsetInCU: 0x969, offset: 0x18EC27, size: 0x8, addend: 0x0, symName: _CxPlatWorkersLazyStart, symObjAddr: 0xE0, symBinAddr: 0x100053A00, symSize: 0x670 }
  - { offsetInCU: 0x1204, offset: 0x18F4C2, size: 0x8, addend: 0x0, symName: _CxPlatWorkerThread, symObjAddr: 0x750, symBinAddr: 0x100054070, symSize: 0x100 }
  - { offsetInCU: 0x135E, offset: 0x18F61C, size: 0x8, addend: 0x0, symName: _CxPlatRunExecutionContexts, symObjAddr: 0xD90, symBinAddr: 0x1000546B0, symSize: 0x130 }
  - { offsetInCU: 0x145E, offset: 0x18F71C, size: 0x8, addend: 0x0, symName: _CxPlatProcessEvents, symObjAddr: 0xEC0, symBinAddr: 0x1000547E0, symSize: 0x16B }
  - { offsetInCU: 0x1636, offset: 0x18F8F4, size: 0x8, addend: 0x0, symName: _CxPlatWorkersUninit, symObjAddr: 0x850, symBinAddr: 0x100054170, symSize: 0x220 }
  - { offsetInCU: 0x18CC, offset: 0x18FB8A, size: 0x8, addend: 0x0, symName: _CxPlatWorkerGetEventQ, symObjAddr: 0xA70, symBinAddr: 0x100054390, symSize: 0x70 }
  - { offsetInCU: 0x1943, offset: 0x18FC01, size: 0x8, addend: 0x0, symName: _CxPlatAddExecutionContext, symObjAddr: 0xAE0, symBinAddr: 0x100054400, symSize: 0x160 }
  - { offsetInCU: 0x1B19, offset: 0x18FDD7, size: 0x8, addend: 0x0, symName: _CxPlatWakeExecutionContext, symObjAddr: 0xC40, symBinAddr: 0x100054560, symSize: 0x80 }
  - { offsetInCU: 0x1BE1, offset: 0x18FE9F, size: 0x8, addend: 0x0, symName: _CxPlatUpdateExecutionContexts, symObjAddr: 0xCC0, symBinAddr: 0x1000545E0, symSize: 0xD0 }
  - { offsetInCU: 0x26, offset: 0x19011C, size: 0x8, addend: 0x0, symName: _CxPlatToeplitzHashInitialize, symObjAddr: 0x0, symBinAddr: 0x100054950, symSize: 0x110 }
  - { offsetInCU: 0x55, offset: 0x19014B, size: 0x8, addend: 0x0, symName: _CxPlatToeplitzHashInitialize, symObjAddr: 0x0, symBinAddr: 0x100054950, symSize: 0x110 }
  - { offsetInCU: 0x13D, offset: 0x190233, size: 0x8, addend: 0x0, symName: _CxPlatToeplitzHashCompute, symObjAddr: 0x110, symBinAddr: 0x100054A60, symSize: 0x8E }
  - { offsetInCU: 0x26, offset: 0x190430, size: 0x8, addend: 0x0, symName: _MaxUdpPayloadSizeFromMTU, symObjAddr: 0x0, symBinAddr: 0x100054AF0, symSize: 0x10 }
  - { offsetInCU: 0x16B, offset: 0x190575, size: 0x8, addend: 0x0, symName: _MaxUdpPayloadSizeFromMTU, symObjAddr: 0x0, symBinAddr: 0x100054AF0, symSize: 0x10 }
  - { offsetInCU: 0x196, offset: 0x1905A0, size: 0x8, addend: 0x0, symName: _MaxUdpPayloadSizeForFamily, symObjAddr: 0x10, symBinAddr: 0x100054B00, symSize: 0x20 }
  - { offsetInCU: 0x1CF, offset: 0x1905D9, size: 0x8, addend: 0x0, symName: _CxPlatPoolInitialize, symObjAddr: 0x30, symBinAddr: 0x100054B20, symSize: 0x140 }
  - { offsetInCU: 0x4C0, offset: 0x1908CA, size: 0x8, addend: 0x0, symName: _CxPlatPoolUninitialize, symObjAddr: 0x170, symBinAddr: 0x100054C60, symSize: 0x1C0 }
  - { offsetInCU: 0x7B5, offset: 0x190BBF, size: 0x8, addend: 0x0, symName: _CxPlatPoolAlloc, symObjAddr: 0x330, symBinAddr: 0x100054E20, symSize: 0x130 }
  - { offsetInCU: 0x996, offset: 0x190DA0, size: 0x8, addend: 0x0, symName: _CxPlatPoolFree, symObjAddr: 0x460, symBinAddr: 0x100054F50, symSize: 0x110 }
  - { offsetInCU: 0xB03, offset: 0x190F0D, size: 0x8, addend: 0x0, symName: _CxPlatListInitializeHead, symObjAddr: 0x570, symBinAddr: 0x100055060, symSize: 0x10 }
  - { offsetInCU: 0xB25, offset: 0x190F2F, size: 0x8, addend: 0x0, symName: _CxPlatListInitializeHead, symObjAddr: 0x570, symBinAddr: 0x100055060, symSize: 0x10 }
  - { offsetInCU: 0xB42, offset: 0x190F4C, size: 0x8, addend: 0x0, symName: _CxPlatListIsEmpty, symObjAddr: 0x580, symBinAddr: 0x100055070, symSize: 0x10 }
  - { offsetInCU: 0xB5F, offset: 0x190F69, size: 0x8, addend: 0x0, symName: _CxPlatListIsEmptyNoFence, symObjAddr: 0x590, symBinAddr: 0x100055080, symSize: 0x10 }
  - { offsetInCU: 0xB8A, offset: 0x190F94, size: 0x8, addend: 0x0, symName: _CxPlatListInsertHead, symObjAddr: 0x5A0, symBinAddr: 0x100055090, symSize: 0x60 }
  - { offsetInCU: 0xC1F, offset: 0x191029, size: 0x8, addend: 0x0, symName: _CxPlatListInsertTail, symObjAddr: 0x600, symBinAddr: 0x1000550F0, symSize: 0x60 }
  - { offsetInCU: 0xCB4, offset: 0x1910BE, size: 0x8, addend: 0x0, symName: _CxPlatListRemoveHead, symObjAddr: 0x660, symBinAddr: 0x100055150, symSize: 0x60 }
  - { offsetInCU: 0xD4D, offset: 0x191157, size: 0x8, addend: 0x0, symName: _CxPlatListEntryRemove, symObjAddr: 0x6C0, symBinAddr: 0x1000551B0, symSize: 0x60 }
  - { offsetInCU: 0xE5E, offset: 0x191268, size: 0x8, addend: 0x0, symName: _CxPlatListMoveItems, symObjAddr: 0x720, symBinAddr: 0x100055210, symSize: 0x50 }
  - { offsetInCU: 0xEF1, offset: 0x1912FB, size: 0x8, addend: 0x0, symName: _CxPlatListPushEntry, symObjAddr: 0x770, symBinAddr: 0x100055260, symSize: 0x10 }
  - { offsetInCU: 0xF16, offset: 0x191320, size: 0x8, addend: 0x0, symName: _CxPlatListPopEntry, symObjAddr: 0x780, symBinAddr: 0x100055270, symSize: 0x20 }
  - { offsetInCU: 0xF3D, offset: 0x191347, size: 0x8, addend: 0x0, symName: _InterlockedIncrement, symObjAddr: 0x7A0, symBinAddr: 0x100055290, symSize: 0x20 }
  - { offsetInCU: 0xF5A, offset: 0x191364, size: 0x8, addend: 0x0, symName: _InterlockedDecrement, symObjAddr: 0x7C0, symBinAddr: 0x1000552B0, symSize: 0x20 }
  - { offsetInCU: 0xF83, offset: 0x19138D, size: 0x8, addend: 0x0, symName: _InterlockedAnd, symObjAddr: 0x7E0, symBinAddr: 0x1000552D0, symSize: 0x30 }
  - { offsetInCU: 0xFBA, offset: 0x1913C4, size: 0x8, addend: 0x0, symName: _InterlockedOr, symObjAddr: 0x810, symBinAddr: 0x100055300, symSize: 0x30 }
  - { offsetInCU: 0xFF1, offset: 0x1913FB, size: 0x8, addend: 0x0, symName: _InterlockedExchangeAdd64, symObjAddr: 0x840, symBinAddr: 0x100055330, symSize: 0x10 }
  - { offsetInCU: 0x1028, offset: 0x191432, size: 0x8, addend: 0x0, symName: _InterlockedCompareExchange16, symObjAddr: 0x850, symBinAddr: 0x100055340, symSize: 0x10 }
  - { offsetInCU: 0x106D, offset: 0x191477, size: 0x8, addend: 0x0, symName: _InterlockedCompareExchange, symObjAddr: 0x860, symBinAddr: 0x100055350, symSize: 0x10 }
  - { offsetInCU: 0x10B2, offset: 0x1914BC, size: 0x8, addend: 0x0, symName: _InterlockedCompareExchange64, symObjAddr: 0x870, symBinAddr: 0x100055360, symSize: 0x10 }
  - { offsetInCU: 0x10F7, offset: 0x191501, size: 0x8, addend: 0x0, symName: _InterlockedExchangePointer, symObjAddr: 0x880, symBinAddr: 0x100055370, symSize: 0x10 }
  - { offsetInCU: 0x112E, offset: 0x191538, size: 0x8, addend: 0x0, symName: _InterlockedFetchAndClearPointer, symObjAddr: 0x890, symBinAddr: 0x100055380, symSize: 0x10 }
  - { offsetInCU: 0x1157, offset: 0x191561, size: 0x8, addend: 0x0, symName: _InterlockedFetchAndClearBoolean, symObjAddr: 0x8A0, symBinAddr: 0x100055390, symSize: 0x10 }
  - { offsetInCU: 0x1180, offset: 0x19158A, size: 0x8, addend: 0x0, symName: _InterlockedFetchAndSetBoolean, symObjAddr: 0x8B0, symBinAddr: 0x1000553A0, symSize: 0x20 }
  - { offsetInCU: 0x11A9, offset: 0x1915B3, size: 0x8, addend: 0x0, symName: _InterlockedIncrement16, symObjAddr: 0x8D0, symBinAddr: 0x1000553C0, symSize: 0x20 }
  - { offsetInCU: 0x11D2, offset: 0x1915DC, size: 0x8, addend: 0x0, symName: _InterlockedDecrement16, symObjAddr: 0x8F0, symBinAddr: 0x1000553E0, symSize: 0x20 }
  - { offsetInCU: 0x11FB, offset: 0x191605, size: 0x8, addend: 0x0, symName: _InterlockedIncrement64, symObjAddr: 0x910, symBinAddr: 0x100055400, symSize: 0x20 }
  - { offsetInCU: 0x1224, offset: 0x19162E, size: 0x8, addend: 0x0, symName: _CxPlatHashtableInitializeEx, symObjAddr: 0x930, symBinAddr: 0x100055420, symSize: 0x20 }
  - { offsetInCU: 0x134F, offset: 0x191759, size: 0x8, addend: 0x0, symName: _CxPlatHashSimple, symObjAddr: 0x950, symBinAddr: 0x100055440, symSize: 0x40 }
  - { offsetInCU: 0x13B7, offset: 0x1917C1, size: 0x8, addend: 0x0, symName: _CxPlatHashLength, symObjAddr: 0x990, symBinAddr: 0x100055480, symSize: 0x50 }
  - { offsetInCU: 0x142A, offset: 0x191834, size: 0x8, addend: 0x0, symName: _CxPlatKeyLength, symObjAddr: 0x9E0, symBinAddr: 0x1000554D0, symSize: 0x50 }
  - { offsetInCU: 0x147C, offset: 0x191886, size: 0x8, addend: 0x0, symName: _CxPlatTimeDiff64, symObjAddr: 0xA30, symBinAddr: 0x100055520, symSize: 0x10 }
  - { offsetInCU: 0x149D, offset: 0x1918A7, size: 0x8, addend: 0x0, symName: _CxPlatTimeDiff64, symObjAddr: 0xA30, symBinAddr: 0x100055520, symSize: 0x10 }
  - { offsetInCU: 0x14D7, offset: 0x1918E1, size: 0x8, addend: 0x0, symName: _CxPlatTimeDiff32, symObjAddr: 0xA40, symBinAddr: 0x100055530, symSize: 0x10 }
  - { offsetInCU: 0x1511, offset: 0x19191B, size: 0x8, addend: 0x0, symName: _CxPlatTimeAtOrBefore64, symObjAddr: 0xA50, symBinAddr: 0x100055540, symSize: 0x10 }
  - { offsetInCU: 0x154B, offset: 0x191955, size: 0x8, addend: 0x0, symName: _CxPlatTimeAtOrBefore32, symObjAddr: 0xA60, symBinAddr: 0x100055550, symSize: 0x10 }
  - { offsetInCU: 0x1587, offset: 0x191991, size: 0x8, addend: 0x0, symName: _CxPlatTlsAlpnFindInList, symObjAddr: 0xA70, symBinAddr: 0x100055560, symSize: 0xB0 }
  - { offsetInCU: 0x1631, offset: 0x191A3B, size: 0x8, addend: 0x0, symName: _QuicAddrFamilyIsValid, symObjAddr: 0xB20, symBinAddr: 0x100055610, symSize: 0x20 }
  - { offsetInCU: 0x168C, offset: 0x191A96, size: 0x8, addend: 0x0, symName: _QuicAddrIsValid, symObjAddr: 0xB40, symBinAddr: 0x100055630, symSize: 0x20 }
  - { offsetInCU: 0x16D5, offset: 0x191ADF, size: 0x8, addend: 0x0, symName: _QuicAddrCompareIp, symObjAddr: 0xB60, symBinAddr: 0x100055650, symSize: 0x60 }
  - { offsetInCU: 0x170C, offset: 0x191B16, size: 0x8, addend: 0x0, symName: _QuicAddrCompare, symObjAddr: 0xBC0, symBinAddr: 0x1000556B0, symSize: 0x50 }
  - { offsetInCU: 0x1746, offset: 0x191B50, size: 0x8, addend: 0x0, symName: _QuicAddrGetFamily, symObjAddr: 0xC10, symBinAddr: 0x100055700, symSize: 0x10 }
  - { offsetInCU: 0x1763, offset: 0x191B6D, size: 0x8, addend: 0x0, symName: _QuicAddrSetFamily, symObjAddr: 0xC20, symBinAddr: 0x100055710, symSize: 0x10 }
  - { offsetInCU: 0x1799, offset: 0x191BA3, size: 0x8, addend: 0x0, symName: _QuicAddrGetPort, symObjAddr: 0xC30, symBinAddr: 0x100055720, symSize: 0x20 }
  - { offsetInCU: 0x17C4, offset: 0x191BCE, size: 0x8, addend: 0x0, symName: _QuicAddrSetPort, symObjAddr: 0xC50, symBinAddr: 0x100055740, symSize: 0x10 }
  - { offsetInCU: 0x17FC, offset: 0x191C06, size: 0x8, addend: 0x0, symName: _QuicAddrIncrement, symObjAddr: 0xC60, symBinAddr: 0x100055750, symSize: 0x20 }
  - { offsetInCU: 0x1823, offset: 0x191C2D, size: 0x8, addend: 0x0, symName: _QuicAddrSetToLoopback, symObjAddr: 0xC80, symBinAddr: 0x100055770, symSize: 0x30 }
  - { offsetInCU: 0x184A, offset: 0x191C54, size: 0x8, addend: 0x0, symName: _QuicAddrHash, symObjAddr: 0xCB0, symBinAddr: 0x1000557A0, symSize: 0x90 }
  - { offsetInCU: 0x18C2, offset: 0x191CCC, size: 0x8, addend: 0x0, symName: _QuicAddrIsWildCard, symObjAddr: 0xD40, symBinAddr: 0x100055830, symSize: 0x40 }
  - { offsetInCU: 0x1945, offset: 0x191D4F, size: 0x8, addend: 0x0, symName: _QuicAddr4FromString, symObjAddr: 0xD80, symBinAddr: 0x100055870, symSize: 0xF0 }
  - { offsetInCU: 0x1A47, offset: 0x191E51, size: 0x8, addend: 0x0, symName: _QuicAddr6FromString, symObjAddr: 0xE70, symBinAddr: 0x100055960, symSize: 0x100 }
  - { offsetInCU: 0x1D99, offset: 0x1921A3, size: 0x8, addend: 0x0, symName: _QuicAddrFromString, symObjAddr: 0xF70, symBinAddr: 0x100055A60, symSize: 0x1B0 }
  - { offsetInCU: 0x1FAA, offset: 0x1923B4, size: 0x8, addend: 0x0, symName: _QuicAddrToString, symObjAddr: 0x1120, symBinAddr: 0x100055C10, symSize: 0xC0 }
  - { offsetInCU: 0x2089, offset: 0x192493, size: 0x8, addend: 0x0, symName: _CxPlatEventInitialize, symObjAddr: 0x11E0, symBinAddr: 0x100055CD0, symSize: 0x150 }
  - { offsetInCU: 0x2373, offset: 0x19277D, size: 0x8, addend: 0x0, symName: _CxPlatInternalEventUninitialize, symObjAddr: 0x1330, symBinAddr: 0x100055E20, symSize: 0x90 }
  - { offsetInCU: 0x2479, offset: 0x192883, size: 0x8, addend: 0x0, symName: _CxPlatInternalEventSet, symObjAddr: 0x13C0, symBinAddr: 0x100055EB0, symSize: 0xC0 }
  - { offsetInCU: 0x25E9, offset: 0x1929F3, size: 0x8, addend: 0x0, symName: _CxPlatInternalEventReset, symObjAddr: 0x1480, symBinAddr: 0x100055F70, symSize: 0x90 }
  - { offsetInCU: 0x26E4, offset: 0x192AEE, size: 0x8, addend: 0x0, symName: _CxPlatInternalEventWaitForever, symObjAddr: 0x1510, symBinAddr: 0x100056000, symSize: 0xE0 }
  - { offsetInCU: 0x2864, offset: 0x192C6E, size: 0x8, addend: 0x0, symName: _CxPlatInternalEventWaitWithTimeout, symObjAddr: 0x15F0, symBinAddr: 0x1000560E0, symSize: 0x160 }
  - { offsetInCU: 0x2B23, offset: 0x192F2D, size: 0x8, addend: 0x0, symName: _CxPlatToeplitzHashComputeAddr, symObjAddr: 0x1750, symBinAddr: 0x100056240, symSize: 0x90 }
  - { offsetInCU: 0x2C93, offset: 0x19309D, size: 0x8, addend: 0x0, symName: _CxPlatEventQInitialize, symObjAddr: 0x17E0, symBinAddr: 0x1000562D0, symSize: 0x30 }
  - { offsetInCU: 0x2CDB, offset: 0x1930E5, size: 0x8, addend: 0x0, symName: _CxPlatEventQCleanup, symObjAddr: 0x1810, symBinAddr: 0x100056300, symSize: 0x10 }
  - { offsetInCU: 0x2D2A, offset: 0x193134, size: 0x8, addend: 0x0, symName: _CxPlatEventQEnqueue, symObjAddr: 0x1820, symBinAddr: 0x100056310, symSize: 0x50 }
  - { offsetInCU: 0x2E8F, offset: 0x193299, size: 0x8, addend: 0x0, symName: _CxPlatEventQDequeue, symObjAddr: 0x1870, symBinAddr: 0x100056360, symSize: 0xA0 }
  - { offsetInCU: 0x2F40, offset: 0x19334A, size: 0x8, addend: 0x0, symName: _CxPlatEventQReturn, symObjAddr: 0x1910, symBinAddr: 0x100056400, symSize: 0x10 }
  - { offsetInCU: 0x2F9C, offset: 0x1933A6, size: 0x8, addend: 0x0, symName: _CxPlatSqeInitialize, symObjAddr: 0x1920, symBinAddr: 0x100056410, symSize: 0x20 }
  - { offsetInCU: 0x3006, offset: 0x193410, size: 0x8, addend: 0x0, symName: _CxPlatSqeCleanup, symObjAddr: 0x1940, symBinAddr: 0x100056430, symSize: 0x10 }
  - { offsetInCU: 0x303C, offset: 0x193446, size: 0x8, addend: 0x0, symName: _CxPlatCqeUserData, symObjAddr: 0x1950, symBinAddr: 0x100056440, symSize: 0x10 }
  - { offsetInCU: 0x3067, offset: 0x193471, size: 0x8, addend: 0x0, symName: _casted_clog_bytearray, symObjAddr: 0x1960, symBinAddr: 0x100056450, symSize: 0x10 }
  - { offsetInCU: 0x30AC, offset: 0x1934B6, size: 0x8, addend: 0x0, symName: _clog_stdout, symObjAddr: 0x1970, symBinAddr: 0x100056460, symSize: 0x6 }
  - { offsetInCU: 0x26, offset: 0x193705, size: 0x8, addend: 0x0, symName: _quic_bugcheck, symObjAddr: 0x0, symBinAddr: 0x100056470, symSize: 0x20 }
  - { offsetInCU: 0x40, offset: 0x19371F, size: 0x8, addend: 0x0, symName: _CxPlatform, symObjAddr: 0x6F40, symBinAddr: 0x100432AB8, symSize: 0x0 }
  - { offsetInCU: 0xB3, offset: 0x193792, size: 0x8, addend: 0x0, symName: _RandomFd, symObjAddr: 0xB70, symBinAddr: 0x10042C900, symSize: 0x0 }
  - { offsetInCU: 0xC9, offset: 0x1937A8, size: 0x8, addend: 0x0, symName: _CxPlatCurrentSqe, symObjAddr: 0xB78, symBinAddr: 0x10042C908, symSize: 0x0 }
  - { offsetInCU: 0xED, offset: 0x1937CC, size: 0x8, addend: 0x0, symName: _QuicTraceRundownCallback, symBinAddr: 0x100432AE0, symSize: 0x0 }
  - { offsetInCU: 0x117, offset: 0x1937F6, size: 0x8, addend: 0x0, symName: _CxPlatProcessorCount, symBinAddr: 0x100432AD0, symSize: 0x0 }
  - { offsetInCU: 0x140, offset: 0x19381F, size: 0x8, addend: 0x0, symName: _CxPlatTotalMemory, symBinAddr: 0x100432AD8, symSize: 0x0 }
  - { offsetInCU: 0x169, offset: 0x193848, size: 0x8, addend: 0x0, symName: _TpLibName, symObjAddr: 0xD40, symBinAddr: 0x1003B95B0, symSize: 0x0 }
  - { offsetInCU: 0x1F4, offset: 0x1938D3, size: 0x8, addend: 0x0, symName: _quic_bugcheck, symObjAddr: 0x0, symBinAddr: 0x100056470, symSize: 0x20 }
  - { offsetInCU: 0x25D, offset: 0x19393C, size: 0x8, addend: 0x0, symName: _CxPlatSystemLoad, symObjAddr: 0x20, symBinAddr: 0x100056490, symSize: 0x120 }
  - { offsetInCU: 0x431, offset: 0x193B10, size: 0x8, addend: 0x0, symName: _CxPlatAlloc, symObjAddr: 0x140, symBinAddr: 0x1000565B0, symSize: 0xB0 }
  - { offsetInCU: 0x5A4, offset: 0x193C83, size: 0x8, addend: 0x0, symName: _CxPlatFree, symObjAddr: 0x1F0, symBinAddr: 0x100056660, symSize: 0x10 }
  - { offsetInCU: 0x5C9, offset: 0x193CA8, size: 0x8, addend: 0x0, symName: _CxPlatSystemUnload, symObjAddr: 0x200, symBinAddr: 0x100056670, symSize: 0x10 }
  - { offsetInCU: 0x5DF, offset: 0x193CBE, size: 0x8, addend: 0x0, symName: _CxPlatInitialize, symObjAddr: 0x210, symBinAddr: 0x100056680, symSize: 0x70 }
  - { offsetInCU: 0x6D1, offset: 0x193DB0, size: 0x8, addend: 0x0, symName: _CxPlatUninitialize, symObjAddr: 0x280, symBinAddr: 0x1000566F0, symSize: 0x20 }
  - { offsetInCU: 0x725, offset: 0x193E04, size: 0x8, addend: 0x0, symName: _CxPlatLogAssert, symObjAddr: 0x2A0, symBinAddr: 0x100056710, symSize: 0x10 }
  - { offsetInCU: 0x76A, offset: 0x193E49, size: 0x8, addend: 0x0, symName: _CxPlatRandom, symObjAddr: 0x2B0, symBinAddr: 0x100056720, symSize: 0x30 }
  - { offsetInCU: 0x7B2, offset: 0x193E91, size: 0x8, addend: 0x0, symName: _CxPlatRefInitialize, symObjAddr: 0x2E0, symBinAddr: 0x100056750, symSize: 0x10 }
  - { offsetInCU: 0x7CF, offset: 0x193EAE, size: 0x8, addend: 0x0, symName: _CxPlatRefInitializeEx, symObjAddr: 0x2F0, symBinAddr: 0x100056760, symSize: 0x10 }
  - { offsetInCU: 0x805, offset: 0x193EE4, size: 0x8, addend: 0x0, symName: _CxPlatRefIncrement, symObjAddr: 0x300, symBinAddr: 0x100056770, symSize: 0x30 }
  - { offsetInCU: 0x845, offset: 0x193F24, size: 0x8, addend: 0x0, symName: _CxPlatRefIncrementNonZero, symObjAddr: 0x330, symBinAddr: 0x1000567A0, symSize: 0x60 }
  - { offsetInCU: 0x8A8, offset: 0x193F87, size: 0x8, addend: 0x0, symName: _CxPlatRefDecrement, symObjAddr: 0x390, symBinAddr: 0x100056800, symSize: 0x40 }
  - { offsetInCU: 0x913, offset: 0x193FF2, size: 0x8, addend: 0x0, symName: _CxPlatRundownInitialize, symObjAddr: 0x3D0, symBinAddr: 0x100056840, symSize: 0x20 }
  - { offsetInCU: 0x95C, offset: 0x19403B, size: 0x8, addend: 0x0, symName: _CxPlatRundownInitializeDisabled, symObjAddr: 0x3F0, symBinAddr: 0x100056860, symSize: 0x20 }
  - { offsetInCU: 0x983, offset: 0x194062, size: 0x8, addend: 0x0, symName: _CxPlatRundownReInitialize, symObjAddr: 0x410, symBinAddr: 0x100056880, symSize: 0x20 }
  - { offsetInCU: 0xACD, offset: 0x1941AC, size: 0x8, addend: 0x0, symName: _CxPlatRundownUninitialize, symObjAddr: 0x430, symBinAddr: 0x1000568A0, symSize: 0x60 }
  - { offsetInCU: 0xBF0, offset: 0x1942CF, size: 0x8, addend: 0x0, symName: _CxPlatRundownAcquire, symObjAddr: 0x490, symBinAddr: 0x100056900, symSize: 0x70 }
  - { offsetInCU: 0xCCD, offset: 0x1943AC, size: 0x8, addend: 0x0, symName: _CxPlatRundownRelease, symObjAddr: 0x500, symBinAddr: 0x100056970, symSize: 0xB0 }
  - { offsetInCU: 0xE34, offset: 0x194513, size: 0x8, addend: 0x0, symName: _CxPlatRundownReleaseAndWait, symObjAddr: 0x5B0, symBinAddr: 0x100056A20, symSize: 0xC0 }
  - { offsetInCU: 0xF2C, offset: 0x19460B, size: 0x8, addend: 0x0, symName: _CxPlatTimespecToUs, symObjAddr: 0x670, symBinAddr: 0x100056AE0, symSize: 0x30 }
  - { offsetInCU: 0xF6A, offset: 0x194649, size: 0x8, addend: 0x0, symName: _CxPlatTimespecToUs, symObjAddr: 0x670, symBinAddr: 0x100056AE0, symSize: 0x30 }
  - { offsetInCU: 0xFDF, offset: 0x1946BE, size: 0x8, addend: 0x0, symName: _CxPlatGetTimerResolution, symObjAddr: 0x6A0, symBinAddr: 0x100056B10, symSize: 0x70 }
  - { offsetInCU: 0x109B, offset: 0x19477A, size: 0x8, addend: 0x0, symName: _CxPlatTimeUs64, symObjAddr: 0x710, symBinAddr: 0x100056B80, symSize: 0x70 }
  - { offsetInCU: 0x1145, offset: 0x194824, size: 0x8, addend: 0x0, symName: _CxPlatGetAbsoluteTime, symObjAddr: 0x780, symBinAddr: 0x100056BF0, symSize: 0xE0 }
  - { offsetInCU: 0x1208, offset: 0x1948E7, size: 0x8, addend: 0x0, symName: _CxPlatSleep, symObjAddr: 0x860, symBinAddr: 0x100056CD0, symSize: 0x60 }
  - { offsetInCU: 0x12A3, offset: 0x194982, size: 0x8, addend: 0x0, symName: _CxPlatProcCurrentNumber, symObjAddr: 0x8C0, symBinAddr: 0x100056D30, symSize: 0x10 }
  - { offsetInCU: 0x12BE, offset: 0x19499D, size: 0x8, addend: 0x0, symName: _CxPlatConvertToMappedV6, symObjAddr: 0x8D0, symBinAddr: 0x100056D40, symSize: 0x60 }
  - { offsetInCU: 0x130F, offset: 0x1949EE, size: 0x8, addend: 0x0, symName: _CxPlatConvertFromMappedV6, symObjAddr: 0x930, symBinAddr: 0x100056DA0, symSize: 0x80 }
  - { offsetInCU: 0x138D, offset: 0x194A6C, size: 0x8, addend: 0x0, symName: _CxPlatSetAllocFailDenominator, symObjAddr: 0x9B0, symBinAddr: 0x100056E20, symSize: 0x20 }
  - { offsetInCU: 0x13B4, offset: 0x194A93, size: 0x8, addend: 0x0, symName: _CxPlatGetAllocFailDenominator, symObjAddr: 0x9D0, symBinAddr: 0x100056E40, symSize: 0x10 }
  - { offsetInCU: 0x13CF, offset: 0x194AAE, size: 0x8, addend: 0x0, symName: _CxPlatThreadCreate, symObjAddr: 0x9E0, symBinAddr: 0x100056E50, symSize: 0xB0 }
  - { offsetInCU: 0x16EB, offset: 0x194DCA, size: 0x8, addend: 0x0, symName: _CxPlatThreadDelete, symObjAddr: 0xA90, symBinAddr: 0x100056F00, symSize: 0x10 }
  - { offsetInCU: 0x1712, offset: 0x194DF1, size: 0x8, addend: 0x0, symName: _CxPlatThreadWait, symObjAddr: 0xAA0, symBinAddr: 0x100056F10, symSize: 0x70 }
  - { offsetInCU: 0x17ED, offset: 0x194ECC, size: 0x8, addend: 0x0, symName: _CxPlatCurThreadID, symObjAddr: 0xB10, symBinAddr: 0x100056F80, symSize: 0x5A }
  - { offsetInCU: 0x26, offset: 0x1952AD, size: 0x8, addend: 0x0, symName: _CGroupGetMemoryLimit, symObjAddr: 0x0, symBinAddr: 0x100056FE0, symSize: 0x7E0 }
  - { offsetInCU: 0x4E, offset: 0x1952D5, size: 0x8, addend: 0x0, symName: _CGroupVersion, symObjAddr: 0x4AD8, symBinAddr: 0x100432C60, symSize: 0x0 }
  - { offsetInCU: 0x79, offset: 0x195300, size: 0x8, addend: 0x0, symName: _CGroupMemoryPath, symObjAddr: 0x4AE0, symBinAddr: 0x100432C68, symSize: 0x0 }
  - { offsetInCU: 0x71F, offset: 0x1959A6, size: 0x8, addend: 0x0, symName: _CGroupGetMemoryLimit, symObjAddr: 0x0, symBinAddr: 0x100056FE0, symSize: 0x7E0 }
  - { offsetInCU: 0xCB2, offset: 0x195F39, size: 0x8, addend: 0x0, symName: _GetCGroupMemoryLimit, symObjAddr: 0x800, symBinAddr: 0x1000577E0, symSize: 0x180 }
  - { offsetInCU: 0xE7D, offset: 0x196104, size: 0x8, addend: 0x0, symName: _IsCGroup1MemorySubsystem, symObjAddr: 0x7E0, symBinAddr: 0x1000577C0, symSize: 0x20 }
  - { offsetInCU: 0x26, offset: 0x196213, size: 0x8, addend: 0x0, symName: _CxPlatDataPathGetLocalAddresses, symObjAddr: 0x0, symBinAddr: 0x100057960, symSize: 0x20 }
  - { offsetInCU: 0x22E, offset: 0x19641B, size: 0x8, addend: 0x0, symName: _CxPlatDataPathGetLocalAddresses, symObjAddr: 0x0, symBinAddr: 0x100057960, symSize: 0x20 }
  - { offsetInCU: 0x273, offset: 0x196460, size: 0x8, addend: 0x0, symName: _CxPlatDataPathGetGatewayAddresses, symObjAddr: 0x20, symBinAddr: 0x100057980, symSize: 0x20 }
  - { offsetInCU: 0x2B8, offset: 0x1964A5, size: 0x8, addend: 0x0, symName: _CxPlatDataPathPopulateTargetAddress, symObjAddr: 0x40, symBinAddr: 0x1000579A0, symSize: 0x110 }
  - { offsetInCU: 0x442, offset: 0x19662F, size: 0x8, addend: 0x0, symName: _CxPlatDataPathResolveAddress, symObjAddr: 0x150, symBinAddr: 0x100057AB0, symSize: 0xC6 }
  - { offsetInCU: 0x26, offset: 0x1969C1, size: 0x8, addend: 0x0, symName: _CxPlatProcessorContextInitialize, symObjAddr: 0x0, symBinAddr: 0x100057B80, symSize: 0xE0 }
  - { offsetInCU: 0xED0, offset: 0x19786B, size: 0x8, addend: 0x0, symName: _CxPlatProcessorContextInitialize, symObjAddr: 0x0, symBinAddr: 0x100057B80, symSize: 0xE0 }
  - { offsetInCU: 0x104B, offset: 0x1979E6, size: 0x8, addend: 0x0, symName: _CxPlatDataPathInitialize, symObjAddr: 0xE0, symBinAddr: 0x100057C60, symSize: 0x1F0 }
  - { offsetInCU: 0x12E9, offset: 0x197C84, size: 0x8, addend: 0x0, symName: _CxPlatDataPathRelease, symObjAddr: 0x2D0, symBinAddr: 0x100057E50, symSize: 0xB0 }
  - { offsetInCU: 0x141D, offset: 0x197DB8, size: 0x8, addend: 0x0, symName: _CxPlatProcessorContextRelease, symObjAddr: 0x380, symBinAddr: 0x100057F00, symSize: 0x90 }
  - { offsetInCU: 0x148A, offset: 0x197E25, size: 0x8, addend: 0x0, symName: _CxPlatDataPathUninitialize, symObjAddr: 0x410, symBinAddr: 0x100057F90, symSize: 0x80 }
  - { offsetInCU: 0x14AC, offset: 0x197E47, size: 0x8, addend: 0x0, symName: _CxPlatDataPathUninitialize, symObjAddr: 0x410, symBinAddr: 0x100057F90, symSize: 0x80 }
  - { offsetInCU: 0x1569, offset: 0x197F04, size: 0x8, addend: 0x0, symName: _CxPlatDataPathUpdateConfig, symObjAddr: 0x490, symBinAddr: 0x100058010, symSize: 0x10 }
  - { offsetInCU: 0x159F, offset: 0x197F3A, size: 0x8, addend: 0x0, symName: _CxPlatDataPathGetSupportedFeatures, symObjAddr: 0x4A0, symBinAddr: 0x100058020, symSize: 0x10 }
  - { offsetInCU: 0x15CA, offset: 0x197F65, size: 0x8, addend: 0x0, symName: _CxPlatDataPathIsPaddingPreferred, symObjAddr: 0x4B0, symBinAddr: 0x100058030, symSize: 0x10 }
  - { offsetInCU: 0x1604, offset: 0x197F9F, size: 0x8, addend: 0x0, symName: _CxPlatDataPathAllocRxIoBlock, symObjAddr: 0x4C0, symBinAddr: 0x100058040, symSize: 0x60 }
  - { offsetInCU: 0x1689, offset: 0x198024, size: 0x8, addend: 0x0, symName: _CxPlatSocketContextInitialize, symObjAddr: 0x520, symBinAddr: 0x1000580A0, symSize: 0x390 }
  - { offsetInCU: 0x1B20, offset: 0x1984BB, size: 0x8, addend: 0x0, symName: _CxPlatSocketRelease, symObjAddr: 0x8B0, symBinAddr: 0x100058430, symSize: 0xA0 }
  - { offsetInCU: 0x1CE9, offset: 0x198684, size: 0x8, addend: 0x0, symName: _CxPlatSocketContextUninitializeComplete, symObjAddr: 0x950, symBinAddr: 0x1000584D0, symSize: 0x250 }
  - { offsetInCU: 0x20D9, offset: 0x198A74, size: 0x8, addend: 0x0, symName: _CxPlatRecvDataReturn, symObjAddr: 0xBA0, symBinAddr: 0x100058720, symSize: 0x40 }
  - { offsetInCU: 0x211B, offset: 0x198AB6, size: 0x8, addend: 0x0, symName: _CxPlatSendDataFree, symObjAddr: 0xBE0, symBinAddr: 0x100058760, symSize: 0x80 }
  - { offsetInCU: 0x21AA, offset: 0x198B45, size: 0x8, addend: 0x0, symName: _CxPlatSocketContextUninitialize, symObjAddr: 0xC60, symBinAddr: 0x1000587E0, symSize: 0x110 }
  - { offsetInCU: 0x22F1, offset: 0x198C8C, size: 0x8, addend: 0x0, symName: _CxPlatSocketContextPrepareReceive, symObjAddr: 0xD70, symBinAddr: 0x1000588F0, symSize: 0x140 }
  - { offsetInCU: 0x2385, offset: 0x198D20, size: 0x8, addend: 0x0, symName: _CxPlatSocketContextPrepareReceive, symObjAddr: 0xD70, symBinAddr: 0x1000588F0, symSize: 0x140 }
  - { offsetInCU: 0x23DD, offset: 0x198D78, size: 0x8, addend: 0x0, symName: _CxPlatSocketContextStartReceive, symObjAddr: 0xEB0, symBinAddr: 0x100058A30, symSize: 0x80 }
  - { offsetInCU: 0x2485, offset: 0x198E20, size: 0x8, addend: 0x0, symName: _CxPlatSocketContextRecvComplete, symObjAddr: 0xF30, symBinAddr: 0x100058AB0, symSize: 0x440 }
  - { offsetInCU: 0x286D, offset: 0x199208, size: 0x8, addend: 0x0, symName: _CxPlatSocketContextPendSend, symObjAddr: 0x1370, symBinAddr: 0x100058EF0, symSize: 0xA0 }
  - { offsetInCU: 0x2921, offset: 0x1992BC, size: 0x8, addend: 0x0, symName: _CxPlatSocketContextSendComplete, symObjAddr: 0x1410, symBinAddr: 0x100058F90, symSize: 0x280 }
  - { offsetInCU: 0x2C3E, offset: 0x1995D9, size: 0x8, addend: 0x0, symName: _CxPlatSocketSendInternal, symObjAddr: 0x1690, symBinAddr: 0x100059210, symSize: 0x600 }
  - { offsetInCU: 0x3298, offset: 0x199C33, size: 0x8, addend: 0x0, symName: _CxPlatSendDataFinalizeSendBuffer, symObjAddr: 0x2720, symBinAddr: 0x10005A2A0, symSize: 0x150 }
  - { offsetInCU: 0x344D, offset: 0x199DE8, size: 0x8, addend: 0x0, symName: _CxPlatDataPathSocketProcessIoCompletion, symObjAddr: 0x1C90, symBinAddr: 0x100059810, symSize: 0x180 }
  - { offsetInCU: 0x36FE, offset: 0x19A099, size: 0x8, addend: 0x0, symName: _CxPlatSocketCreateUdp, symObjAddr: 0x1E10, symBinAddr: 0x100059990, symSize: 0x4D0 }
  - { offsetInCU: 0x3C5F, offset: 0x19A5FA, size: 0x8, addend: 0x0, symName: _CxPlatSocketDelete, symObjAddr: 0x22E0, symBinAddr: 0x100059E60, symSize: 0xC0 }
  - { offsetInCU: 0x3D4B, offset: 0x19A6E6, size: 0x8, addend: 0x0, symName: _CxPlatSocketCreateTcp, symObjAddr: 0x23A0, symBinAddr: 0x100059F20, symSize: 0x10 }
  - { offsetInCU: 0x3DB2, offset: 0x19A74D, size: 0x8, addend: 0x0, symName: _CxPlatSocketCreateTcpListener, symObjAddr: 0x23B0, symBinAddr: 0x100059F30, symSize: 0x10 }
  - { offsetInCU: 0x3E0A, offset: 0x19A7A5, size: 0x8, addend: 0x0, symName: _CxPlatSocketUpdateQeo, symObjAddr: 0x23C0, symBinAddr: 0x100059F40, symSize: 0x10 }
  - { offsetInCU: 0x3E53, offset: 0x19A7EE, size: 0x8, addend: 0x0, symName: _CxPlatSocketGetLocalAddress, symObjAddr: 0x23D0, symBinAddr: 0x100059F50, symSize: 0x50 }
  - { offsetInCU: 0x3ED7, offset: 0x19A872, size: 0x8, addend: 0x0, symName: _CxPlatSocketGetRemoteAddress, symObjAddr: 0x2420, symBinAddr: 0x100059FA0, symSize: 0x50 }
  - { offsetInCU: 0x3F5B, offset: 0x19A8F6, size: 0x8, addend: 0x0, symName: _CxPlatSendDataAlloc, symObjAddr: 0x2470, symBinAddr: 0x100059FF0, symSize: 0xD0 }
  - { offsetInCU: 0x40D6, offset: 0x19AA71, size: 0x8, addend: 0x0, symName: _CxPlatSendDataAllocBuffer, symObjAddr: 0x2540, symBinAddr: 0x10005A0C0, symSize: 0x1E0 }
  - { offsetInCU: 0x4354, offset: 0x19ACEF, size: 0x8, addend: 0x0, symName: _CxPlatSendDataCanAllocSendSegment, symObjAddr: 0x2B70, symBinAddr: 0x10005A6F0, symSize: 0xA3 }
  - { offsetInCU: 0x4437, offset: 0x19ADD2, size: 0x8, addend: 0x0, symName: _CxPlatSendDataFreeBuffer, symObjAddr: 0x2870, symBinAddr: 0x10005A3F0, symSize: 0xE0 }
  - { offsetInCU: 0x4527, offset: 0x19AEC2, size: 0x8, addend: 0x0, symName: _CxPlatSendDataIsFull, symObjAddr: 0x2950, symBinAddr: 0x10005A4D0, symSize: 0x30 }
  - { offsetInCU: 0x458D, offset: 0x19AF28, size: 0x8, addend: 0x0, symName: _CxPlatSendDataComplete, symObjAddr: 0x2980, symBinAddr: 0x10005A500, symSize: 0x80 }
  - { offsetInCU: 0x460E, offset: 0x19AFA9, size: 0x8, addend: 0x0, symName: _CxPlatSocketSend, symObjAddr: 0x2A00, symBinAddr: 0x10005A580, symSize: 0x60 }
  - { offsetInCU: 0x46BC, offset: 0x19B057, size: 0x8, addend: 0x0, symName: _CxPlatSocketGetLocalMtu, symObjAddr: 0x2A60, symBinAddr: 0x10005A5E0, symSize: 0x50 }
  - { offsetInCU: 0x46DE, offset: 0x19B079, size: 0x8, addend: 0x0, symName: _CxPlatSocketGetLocalMtu, symObjAddr: 0x2A60, symBinAddr: 0x10005A5E0, symSize: 0x50 }
  - { offsetInCU: 0x4755, offset: 0x19B0F0, size: 0x8, addend: 0x0, symName: _CxPlatSocketGetTcpStatistics, symObjAddr: 0x2AB0, symBinAddr: 0x10005A630, symSize: 0x10 }
  - { offsetInCU: 0x47C4, offset: 0x19B15F, size: 0x8, addend: 0x0, symName: _CxPlatDataPathProcessCqe, symObjAddr: 0x2AC0, symBinAddr: 0x10005A640, symSize: 0x40 }
  - { offsetInCU: 0x4868, offset: 0x19B203, size: 0x8, addend: 0x0, symName: _QuicCopyRouteInfo, symObjAddr: 0x2B00, symBinAddr: 0x10005A680, symSize: 0x40 }
  - { offsetInCU: 0x489E, offset: 0x19B239, size: 0x8, addend: 0x0, symName: _CxPlatResolveRouteComplete, symObjAddr: 0x2B40, symBinAddr: 0x10005A6C0, symSize: 0x10 }
  - { offsetInCU: 0x48F2, offset: 0x19B28D, size: 0x8, addend: 0x0, symName: _CxPlatResolveRoute, symObjAddr: 0x2B50, symBinAddr: 0x10005A6D0, symSize: 0x10 }
  - { offsetInCU: 0x4959, offset: 0x19B2F4, size: 0x8, addend: 0x0, symName: _CxPlatUpdateRoute, symObjAddr: 0x2B60, symBinAddr: 0x10005A6E0, symSize: 0x10 }
  - { offsetInCU: 0x26, offset: 0x19B8A5, size: 0x8, addend: 0x0, symName: _CxPlatTlsNegotiatedCiphers, symObjAddr: 0x0, symBinAddr: 0x10005A7A0, symSize: 0x70 }
  - { offsetInCU: 0x40, offset: 0x19B8BF, size: 0x8, addend: 0x0, symName: _CxPlatTlsTPHeaderSize, symObjAddr: 0x11DE4, symBinAddr: 0x100432AE8, symSize: 0x0 }
  - { offsetInCU: 0x69, offset: 0x19B8E8, size: 0x8, addend: 0x0, symName: _OpenSslFilePrefixLength, symObjAddr: 0x2228, symBinAddr: 0x1003B95E8, symSize: 0x0 }
  - { offsetInCU: 0xB5, offset: 0x19B934, size: 0x8, addend: 0x0, symName: _OpenSslQuicCallbacks, symObjAddr: 0x2550, symBinAddr: 0x10042C910, symSize: 0x0 }
  - { offsetInCU: 0x679, offset: 0x19BEF8, size: 0x8, addend: 0x0, symName: _CxPlatTlsNegotiatedCiphers, symObjAddr: 0x0, symBinAddr: 0x10005A7A0, symSize: 0x70 }
  - { offsetInCU: 0xE5F, offset: 0x19C6DE, size: 0x8, addend: 0x0, symName: _CxPlatTlsSetEncryptionSecretsCallback, symObjAddr: 0x70, symBinAddr: 0x10005A810, symSize: 0x430 }
  - { offsetInCU: 0x123E, offset: 0x19CABD, size: 0x8, addend: 0x0, symName: _CxPlatTlsAddHandshakeDataCallback, symObjAddr: 0x4A0, symBinAddr: 0x10005AC40, symSize: 0x1C0 }
  - { offsetInCU: 0x142E, offset: 0x19CCAD, size: 0x8, addend: 0x0, symName: _CxPlatTlsFlushFlightCallback, symObjAddr: 0x660, symBinAddr: 0x10005AE00, symSize: 0x10 }
  - { offsetInCU: 0x1457, offset: 0x19CCD6, size: 0x8, addend: 0x0, symName: _CxPlatTlsSendAlertCallback, symObjAddr: 0x670, symBinAddr: 0x10005AE10, symSize: 0x30 }
  - { offsetInCU: 0x14D0, offset: 0x19CD4F, size: 0x8, addend: 0x0, symName: _CxPlatTlsClientHelloCallback, symObjAddr: 0x6A0, symBinAddr: 0x10005AE40, symSize: 0x60 }
  - { offsetInCU: 0x15CD, offset: 0x19CE4C, size: 0x8, addend: 0x0, symName: _CxPlatTlsOnClientSessionTicketReceived, symObjAddr: 0x700, symBinAddr: 0x10005AEA0, symSize: 0xA0 }
  - { offsetInCU: 0x1829, offset: 0x19D0A8, size: 0x8, addend: 0x0, symName: _CxPlatTlsOnSessionTicketKeyNeeded, symObjAddr: 0x7A0, symBinAddr: 0x10005AF40, symSize: 0x270 }
  - { offsetInCU: 0x1C40, offset: 0x19D4BF, size: 0x8, addend: 0x0, symName: _CxPlatTlsOnServerSessionTicketGenerated, symObjAddr: 0xA10, symBinAddr: 0x10005B1B0, symSize: 0x20 }
  - { offsetInCU: 0x1CAC, offset: 0x19D52B, size: 0x8, addend: 0x0, symName: _CxPlatTlsOnServerSessionTicketDecrypted, symObjAddr: 0xA30, symBinAddr: 0x10005B1D0, symSize: 0xA0 }
  - { offsetInCU: 0x1DF6, offset: 0x19D675, size: 0x8, addend: 0x0, symName: _CxPlatTlsGetProvider, symObjAddr: 0xAD0, symBinAddr: 0x10005B270, symSize: 0x10 }
  - { offsetInCU: 0x1E11, offset: 0x19D690, size: 0x8, addend: 0x0, symName: _CxPlatTlsSecConfigCreate, symObjAddr: 0xAE0, symBinAddr: 0x10005B280, symSize: 0x930 }
  - { offsetInCU: 0x280B, offset: 0x19E08A, size: 0x8, addend: 0x0, symName: _CxPlatTlsSecConfigDelete, symObjAddr: 0x17E0, symBinAddr: 0x10005BF80, symSize: 0x40 }
  - { offsetInCU: 0x2E80, offset: 0x19E6FF, size: 0x8, addend: 0x0, symName: _CxPlatTlsCertificateVerifyCallback, symObjAddr: 0x1410, symBinAddr: 0x10005BBB0, symSize: 0x360 }
  - { offsetInCU: 0x3A98, offset: 0x19F317, size: 0x8, addend: 0x0, symName: _CxPlatTlsAlpnSelectCallback, symObjAddr: 0x1770, symBinAddr: 0x10005BF10, symSize: 0x70 }
  - { offsetInCU: 0x3B8E, offset: 0x19F40D, size: 0x8, addend: 0x0, symName: _CxPlatTlsSecConfigSetTicketKeys, symObjAddr: 0x1820, symBinAddr: 0x10005BFC0, symSize: 0xD0 }
  - { offsetInCU: 0x3CF2, offset: 0x19F571, size: 0x8, addend: 0x0, symName: _CxPlatTlsInitialize, symObjAddr: 0x18F0, symBinAddr: 0x10005C090, symSize: 0x330 }
  - { offsetInCU: 0x427A, offset: 0x19FAF9, size: 0x8, addend: 0x0, symName: _CxPlatTlsUninitialize, symObjAddr: 0x1C20, symBinAddr: 0x10005C3C0, symSize: 0x60 }
  - { offsetInCU: 0x42E2, offset: 0x19FB61, size: 0x8, addend: 0x0, symName: _CxPlatTlsUpdateHkdfLabels, symObjAddr: 0x1C80, symBinAddr: 0x10005C420, symSize: 0x10 }
  - { offsetInCU: 0x4318, offset: 0x19FB97, size: 0x8, addend: 0x0, symName: _CxPlatTlsProcessData, symObjAddr: 0x1C90, symBinAddr: 0x10005C430, symSize: 0x3E0 }
  - { offsetInCU: 0x48DD, offset: 0x1A015C, size: 0x8, addend: 0x0, symName: _CxPlatSecConfigParamSet, symObjAddr: 0x2070, symBinAddr: 0x10005C810, symSize: 0x10 }
  - { offsetInCU: 0x4935, offset: 0x1A01B4, size: 0x8, addend: 0x0, symName: _CxPlatSecConfigParamGet, symObjAddr: 0x2080, symBinAddr: 0x10005C820, symSize: 0x10 }
  - { offsetInCU: 0x498D, offset: 0x1A020C, size: 0x8, addend: 0x0, symName: _CxPlatTlsParamSet, symObjAddr: 0x2090, symBinAddr: 0x10005C830, symSize: 0x10 }
  - { offsetInCU: 0x4A2A, offset: 0x1A02A9, size: 0x8, addend: 0x0, symName: _CxPlatTlsParamGet, symObjAddr: 0x20A0, symBinAddr: 0x10005C840, symSize: 0x170 }
  - { offsetInCU: 0x4BB0, offset: 0x1A042F, size: 0x8, addend: 0x0, symName: _QuicTlsPopulateOffloadKeys, symObjAddr: 0x2210, symBinAddr: 0x10005C9B0, symSize: 0x18 }
  - { offsetInCU: 0x26, offset: 0x1A09AA, size: 0x8, addend: 0x0, symName: _CxPlatLoadCipher, symObjAddr: 0x0, symBinAddr: 0x10005C9D0, symSize: 0x40 }
  - { offsetInCU: 0x42, offset: 0x1A09C6, size: 0x8, addend: 0x0, symName: _CxPlatHpComputeMask, symObjAddr: 0xAE0, symBinAddr: 0x10005D4B0, symSize: 0xC0 }
  - { offsetInCU: 0x6A, offset: 0x1A09EE, size: 0x8, addend: 0x0, symName: _CxPlatHpComputeMask.Zero, symObjAddr: 0xE6B, symBinAddr: 0x1003B95FC, symSize: 0x0 }
  - { offsetInCU: 0x19D, offset: 0x1A0B21, size: 0x8, addend: 0x0, symName: _CXPLAT_AES_128_GCM_ALG_HANDLE, symBinAddr: 0x100432AF8, symSize: 0x0 }
  - { offsetInCU: 0x1CA, offset: 0x1A0B4E, size: 0x8, addend: 0x0, symName: _CXPLAT_AES_256_GCM_ALG_HANDLE, symBinAddr: 0x100432B10, symSize: 0x0 }
  - { offsetInCU: 0x1E0, offset: 0x1A0B64, size: 0x8, addend: 0x0, symName: _CXPLAT_AES_256_CBC_ALG_HANDLE, symBinAddr: 0x100432B00, symSize: 0x0 }
  - { offsetInCU: 0x1F6, offset: 0x1A0B7A, size: 0x8, addend: 0x0, symName: _CXPLAT_AES_128_ECB_ALG_HANDLE, symBinAddr: 0x100432AF0, symSize: 0x0 }
  - { offsetInCU: 0x20C, offset: 0x1A0B90, size: 0x8, addend: 0x0, symName: _CXPLAT_AES_256_ECB_ALG_HANDLE, symBinAddr: 0x100432B08, symSize: 0x0 }
  - { offsetInCU: 0x222, offset: 0x1A0BA6, size: 0x8, addend: 0x0, symName: _CXPLAT_CHACHA20_ALG_HANDLE, symBinAddr: 0x100432B18, symSize: 0x0 }
  - { offsetInCU: 0x238, offset: 0x1A0BBC, size: 0x8, addend: 0x0, symName: _CXPLAT_CHACHA20_POLY1305_ALG_HANDLE, symBinAddr: 0x100432B20, symSize: 0x0 }
  - { offsetInCU: 0x24E, offset: 0x1A0BD2, size: 0x8, addend: 0x0, symName: _CXPLAT_HMAC_SHA256_CTX_HANDLE, symBinAddr: 0x100432B28, symSize: 0x0 }
  - { offsetInCU: 0x27B, offset: 0x1A0BFF, size: 0x8, addend: 0x0, symName: _CXPLAT_HMAC_SHA384_CTX_HANDLE, symBinAddr: 0x100432B30, symSize: 0x0 }
  - { offsetInCU: 0x291, offset: 0x1A0C15, size: 0x8, addend: 0x0, symName: _CXPLAT_HMAC_SHA512_CTX_HANDLE, symBinAddr: 0x100432B38, symSize: 0x0 }
  - { offsetInCU: 0x318, offset: 0x1A0C9C, size: 0x8, addend: 0x0, symName: _CxPlatLoadCipher, symObjAddr: 0x0, symBinAddr: 0x10005C9D0, symSize: 0x40 }
  - { offsetInCU: 0x3D9, offset: 0x1A0D5D, size: 0x8, addend: 0x0, symName: _CxPlatLoadMAC, symObjAddr: 0x40, symBinAddr: 0x10005CA10, symSize: 0x40 }
  - { offsetInCU: 0x47A, offset: 0x1A0DFE, size: 0x8, addend: 0x0, symName: _CxPlatLoadHMACCTX, symObjAddr: 0x80, symBinAddr: 0x10005CA50, symSize: 0xD0 }
  - { offsetInCU: 0x73B, offset: 0x1A10BF, size: 0x8, addend: 0x0, symName: _CxPlatCryptInitialize, symObjAddr: 0x150, symBinAddr: 0x10005CB20, symSize: 0x2E0 }
  - { offsetInCU: 0xBE2, offset: 0x1A1566, size: 0x8, addend: 0x0, symName: _CxPlatCryptUninitialize, symObjAddr: 0x430, symBinAddr: 0x10005CE00, symSize: 0xE0 }
  - { offsetInCU: 0xC88, offset: 0x1A160C, size: 0x8, addend: 0x0, symName: _CxPlatCryptSupports, symObjAddr: 0x510, symBinAddr: 0x10005CEE0, symSize: 0x40 }
  - { offsetInCU: 0xCC9, offset: 0x1A164D, size: 0x8, addend: 0x0, symName: _CxPlatKeyCreate, symObjAddr: 0x550, symBinAddr: 0x10005CF20, symSize: 0x150 }
  - { offsetInCU: 0xEB3, offset: 0x1A1837, size: 0x8, addend: 0x0, symName: _CxPlatKeyFree, symObjAddr: 0x6A0, symBinAddr: 0x10005D070, symSize: 0x10 }
  - { offsetInCU: 0xEE7, offset: 0x1A186B, size: 0x8, addend: 0x0, symName: _CxPlatEncrypt, symObjAddr: 0x6B0, symBinAddr: 0x10005D080, symSize: 0x190 }
  - { offsetInCU: 0x120E, offset: 0x1A1B92, size: 0x8, addend: 0x0, symName: _CxPlatDecrypt, symObjAddr: 0x840, symBinAddr: 0x10005D210, symSize: 0x180 }
  - { offsetInCU: 0x151D, offset: 0x1A1EA1, size: 0x8, addend: 0x0, symName: _CxPlatHpKeyCreate, symObjAddr: 0x9C0, symBinAddr: 0x10005D390, symSize: 0xF0 }
  - { offsetInCU: 0x1684, offset: 0x1A2008, size: 0x8, addend: 0x0, symName: _CxPlatHpKeyFree, symObjAddr: 0xAB0, symBinAddr: 0x10005D480, symSize: 0x30 }
  - { offsetInCU: 0x1740, offset: 0x1A20C4, size: 0x8, addend: 0x0, symName: _CxPlatHashCreate, symObjAddr: 0xBA0, symBinAddr: 0x10005D570, symSize: 0xE0 }
  - { offsetInCU: 0x187B, offset: 0x1A21FF, size: 0x8, addend: 0x0, symName: _CxPlatHashFree, symObjAddr: 0xC80, symBinAddr: 0x10005D650, symSize: 0x30 }
  - { offsetInCU: 0x18C9, offset: 0x1A224D, size: 0x8, addend: 0x0, symName: _CxPlatHashCompute, symObjAddr: 0xCB0, symBinAddr: 0x10005D680, symSize: 0xBA }
  - { offsetInCU: 0x26, offset: 0x1A2465, size: 0x8, addend: 0x0, symName: _CxPlatCertVerifyRawCertificate, symObjAddr: 0x0, symBinAddr: 0x10005D740, symSize: 0x250 }
  - { offsetInCU: 0x1BD, offset: 0x1A25FC, size: 0x8, addend: 0x0, symName: _CxPlatCertVerifyRawCertificate, symObjAddr: 0x0, symBinAddr: 0x10005D740, symSize: 0x250 }
  - { offsetInCU: 0x810, offset: 0x1A2C4F, size: 0x8, addend: 0x0, symName: _CxPlatCertExtractPrivateKey, symObjAddr: 0x250, symBinAddr: 0x10005D990, symSize: 0xB }
  - { offsetInCU: 0x26, offset: 0x1A2FDF, size: 0x8, addend: 0x0, symName: _GenerateX509Cert, symObjAddr: 0x0, symBinAddr: 0x10005D9A0, symSize: 0x300 }
  - { offsetInCU: 0x556, offset: 0x1A350F, size: 0x8, addend: 0x0, symName: _GenerateX509Cert, symObjAddr: 0x0, symBinAddr: 0x10005D9A0, symSize: 0x300 }
  - { offsetInCU: 0xEB2, offset: 0x1A3E6B, size: 0x8, addend: 0x0, symName: _CxPlatTlsGenerateSelfSignedCert, symObjAddr: 0x300, symBinAddr: 0x10005DCA0, symSize: 0x2B0 }
  - { offsetInCU: 0x14E5, offset: 0x1A449E, size: 0x8, addend: 0x0, symName: _FindOrCreateTempFiles, symObjAddr: 0x5B0, symBinAddr: 0x10005DF50, symSize: 0x260 }
  - { offsetInCU: 0x1A73, offset: 0x1A4A2C, size: 0x8, addend: 0x0, symName: _FindOrCreateTempCaFile, symObjAddr: 0x810, symBinAddr: 0x10005E1B0, symSize: 0x180 }
  - { offsetInCU: 0x1B69, offset: 0x1A4B22, size: 0x8, addend: 0x0, symName: _CxPlatGetSelfSignedCertCaCertificateFileName, symObjAddr: 0x990, symBinAddr: 0x10005E330, symSize: 0x50 }
  - { offsetInCU: 0x1BCE, offset: 0x1A4B87, size: 0x8, addend: 0x0, symName: _CxPlatGetSelfSignedCert, symObjAddr: 0x9E0, symBinAddr: 0x10005E380, symSize: 0x1C0 }
  - { offsetInCU: 0x1CEC, offset: 0x1A4CA5, size: 0x8, addend: 0x0, symName: _CxPlatGetTestCertificate, symObjAddr: 0xBA0, symBinAddr: 0x10005E540, symSize: 0x3B0 }
  - { offsetInCU: 0x1EBE, offset: 0x1A4E77, size: 0x8, addend: 0x0, symName: _ReadPkcs12, symObjAddr: 0xF50, symBinAddr: 0x10005E8F0, symSize: 0xE0 }
  - { offsetInCU: 0x1FCB, offset: 0x1A4F84, size: 0x8, addend: 0x0, symName: _CxPlatFreeTestCert, symObjAddr: 0x1030, symBinAddr: 0x10005E9D0, symSize: 0x50 }
  - { offsetInCU: 0x1FF4, offset: 0x1A4FAD, size: 0x8, addend: 0x0, symName: _CxPlatFreeSelfSignedCert, symObjAddr: 0x1080, symBinAddr: 0x10005EA20, symSize: 0x10 }
  - { offsetInCU: 0x202A, offset: 0x1A4FE3, size: 0x8, addend: 0x0, symName: _CxPlatFreeSelfSignedCertCaFile, symObjAddr: 0x1090, symBinAddr: 0x10005EA30, symSize: 0xA }
  - { offsetInCU: 0x57, offset: 0x1A50B8, size: 0x8, addend: 0x0, symName: __ZN7testing28FLAGS_gtest_death_test_styleE, symObjAddr: 0x56F408, symBinAddr: 0x100432B40, symSize: 0x0 }
  - { offsetInCU: 0x71, offset: 0x1A50D2, size: 0x8, addend: 0x0, symName: __ZN7testing31FLAGS_gtest_death_test_use_forkE, symObjAddr: 0x56F420, symBinAddr: 0x100432B58, symSize: 0x0 }
  - { offsetInCU: 0x8B, offset: 0x1A50EC, size: 0x8, addend: 0x0, symName: __ZN7testing35FLAGS_gtest_internal_run_death_testE, symObjAddr: 0x56F428, symBinAddr: 0x100432B60, symSize: 0x0 }
  - { offsetInCU: 0xA4, offset: 0x1A5105, size: 0x8, addend: 0x0, symName: __ZN7testing8internal9DeathTest24last_death_test_message_E, symObjAddr: 0x56F440, symBinAddr: 0x100432B78, symSize: 0x0 }
  - { offsetInCU: 0x617, offset: 0x1A5678, size: 0x8, addend: 0x0, symName: __ZN7testing8internal17kStackTraceMarkerE, symObjAddr: 0x479E5, symBinAddr: 0x1003B9685, symSize: 0x0 }
  - { offsetInCU: 0x631, offset: 0x1A5692, size: 0x8, addend: 0x0, symName: __ZN7testing8internal11g_help_flagE, symObjAddr: 0x56F459, symBinAddr: 0x100432B91, symSize: 0x0 }
  - { offsetInCU: 0x645, offset: 0x1A56A6, size: 0x8, addend: 0x0, symName: __ZN7testing8internal6Random9kMaxRangeE, symObjAddr: 0x479F4, symBinAddr: 0x1003B9694, symSize: 0x0 }
  - { offsetInCU: 0x700, offset: 0x1A5761, size: 0x8, addend: 0x0, symName: __ZN7testing8internalL7g_argvsE, symObjAddr: 0x56F528, symBinAddr: 0x100432C90, symSize: 0x0 }
  - { offsetInCU: 0x71B, offset: 0x1A577C, size: 0x8, addend: 0x0, symName: __ZN7testing8internal23kTestTypeIdInGoogleTestE, symObjAddr: 0x56F500, symBinAddr: 0x100432C38, symSize: 0x0 }
  - { offsetInCU: 0x76C, offset: 0x1A57CD, size: 0x8, addend: 0x0, symName: __ZN7testing8internal27OsStackTraceGetterInterface19kElidedFramesMarkerE, symObjAddr: 0x46DF0, symBinAddr: 0x1003E4CB0, symSize: 0x0 }
  - { offsetInCU: 0x2191, offset: 0x1A71F2, size: 0x8, addend: 0x0, symName: __ZN7testing8internalL26g_in_fast_death_test_childE, symObjAddr: 0x56F508, symBinAddr: 0x100432C70, symSize: 0x0 }
  - { offsetInCU: 0x21C0, offset: 0x1A7221, size: 0x8, addend: 0x0, symName: __ZN7testing8internalL23kCurrentDirectoryStringE, symObjAddr: 0x479D5, symBinAddr: 0x1003B9675, symSize: 0x0 }
  - { offsetInCU: 0x21DB, offset: 0x1A723C, size: 0x8, addend: 0x0, symName: __ZN7testing8internalL12kUnknownFileE, symObjAddr: 0x479D8, symBinAddr: 0x1003B9678, symSize: 0x0 }
  - { offsetInCU: 0x21F6, offset: 0x1A7257, size: 0x8, addend: 0x0, symName: __ZN7testing8internalL17g_captured_stdoutE, symObjAddr: 0x56F510, symBinAddr: 0x100432C78, symSize: 0x0 }
  - { offsetInCU: 0x22AB, offset: 0x1A730C, size: 0x8, addend: 0x0, symName: __ZN7testing8internalL17g_captured_stderrE, symObjAddr: 0x56F518, symBinAddr: 0x100432C80, symSize: 0x0 }
  - { offsetInCU: 0x22C6, offset: 0x1A7327, size: 0x8, addend: 0x0, symName: __ZN7testing8internalL21g_injected_test_argvsE, symObjAddr: 0x56F520, symBinAddr: 0x100432C88, symSize: 0x0 }
  - { offsetInCU: 0x22D4, offset: 0x1A7335, size: 0x8, addend: 0x0, symName: __ZN7testing8internalL13ColoredPrintfENS0_12_GLOBAL__N_110GTestColorEPKcz, symObjAddr: 0x1E3A0, symBinAddr: 0x10007CA10, symSize: 0x190 }
  - { offsetInCU: 0x22FC, offset: 0x1A735D, size: 0x8, addend: 0x0, symName: __ZZN7testing8internalL13ColoredPrintfENS0_12_GLOBAL__N_110GTestColorEPKczE13in_color_mode, symObjAddr: 0x56F5A8, symBinAddr: 0x100432D10, symSize: 0x0 }
  - { offsetInCU: 0x23C4, offset: 0x1A7425, size: 0x8, addend: 0x0, symName: __ZN7testing8internalL15kTypeParamLabelE, symObjAddr: 0x47A32, symBinAddr: 0x1003B96D2, symSize: 0x0 }
  - { offsetInCU: 0x23EE, offset: 0x1A744F, size: 0x8, addend: 0x0, symName: __ZN7testing8internalL16kValueParamLabelE, symObjAddr: 0x47A88, symBinAddr: 0x1003B9728, symSize: 0x0 }
  - { offsetInCU: 0x2F27, offset: 0x1A7F88, size: 0x8, addend: 0x0, symName: __ZN7testing8internal12TypeIdHelperINS0_12_GLOBAL__N_111FailureTestEE6dummy_E, symObjAddr: 0x56F5B8, symBinAddr: 0x100432D20, symSize: 0x0 }
  - { offsetInCU: 0x3321, offset: 0x1A8382, size: 0x8, addend: 0x0, symName: __ZN7testing8internal12_GLOBAL__N_118SplitEscapedStringERKNSt3__112basic_stringIcNS2_11char_traitsIcEENS2_9allocatorIcEEEE, symObjAddr: 0x15C90, symBinAddr: 0x1000743E0, symSize: 0x360 }
  - { offsetInCU: 0x436E, offset: 0x1A93CF, size: 0x8, addend: 0x0, symName: __ZN7testing8internal12TypeIdHelperINS_4TestEE6dummy_E, symObjAddr: 0x49164, symBinAddr: 0x10042C930, symSize: 0x0 }
  - { offsetInCU: 0x43AA, offset: 0x1A940B, size: 0x8, addend: 0x0, symName: __ZN7testing8internalL24kColorEncodedHelpMessageE, symObjAddr: 0x486A0, symBinAddr: 0x1003BA340, symSize: 0x0 }
  - { offsetInCU: 0x4453, offset: 0x1A94B4, size: 0x8, addend: 0x0, symName: __ZN7testing8internal13edit_distance21CalculateOptimalEditsERKNSt3__16vectorImNS2_9allocatorImEEEES8_, symObjAddr: 0x140D0, symBinAddr: 0x1000728A0, symSize: 0x6B0 }
  - { offsetInCU: 0x5FDC, offset: 0x1AB03D, size: 0x8, addend: 0x0, symName: __ZN7testing8internal13edit_distance21CalculateOptimalEditsERKNSt3__16vectorINS2_12basic_stringIcNS2_11char_traitsIcEENS2_9allocatorIcEEEENS7_IS9_EEEESD_, symObjAddr: 0x14860, symBinAddr: 0x100073030, symSize: 0x3F0 }
  - { offsetInCU: 0x783E, offset: 0x1AC89F, size: 0x8, addend: 0x0, symName: __ZN7testing8internal13edit_distance17CreateUnifiedDiffERKNSt3__16vectorINS2_12basic_stringIcNS2_11char_traitsIcEENS2_9allocatorIcEEEENS7_IS9_EEEESD_m, symObjAddr: 0x14C50, symBinAddr: 0x100073420, symSize: 0x840 }
  - { offsetInCU: 0x9BF4, offset: 0x1AEC55, size: 0x8, addend: 0x0, symName: __ZN7testing8internal20StringStreamToStringEPNSt3__118basic_stringstreamIcNS1_11char_traitsIcEENS1_9allocatorIcEEEE, symObjAddr: 0x13FD0, symBinAddr: 0x1000727A0, symSize: 0x100 }
  - { offsetInCU: 0xA19C, offset: 0x1AF1FD, size: 0x8, addend: 0x0, symName: __ZN7testing8internal5posix6FDOpenEiPKc, symObjAddr: 0x32830, symBinAddr: 0x100090E30, symSize: 0x10 }
  - { offsetInCU: 0xA30E, offset: 0x1AF36F, size: 0x8, addend: 0x0, symName: __ZN7testing8internal5posix6IsATTYEi, symObjAddr: 0x36380, symBinAddr: 0x100093F00, symSize: 0x30 }
  - { offsetInCU: 0xA3FE, offset: 0x1AF45F, size: 0x8, addend: 0x0, symName: __ZN7testing8internal18StringFromGTestEnvEPKcS2_, symObjAddr: 0x440, symBinAddr: 0x10005ED60, symSize: 0x60 }
  - { offsetInCU: 0xA5E1, offset: 0x1AF642, size: 0x8, addend: 0x0, symName: __ZN7testing8internalL12FlagToEnvVarEPKc, symObjAddr: 0xADF0, symBinAddr: 0x1000696F0, symSize: 0x1E0 }
  - { offsetInCU: 0xAE70, offset: 0x1AFED1, size: 0x8, addend: 0x0, symName: __ZN7testing8internal16BoolFromGTestEnvEPKcb, symObjAddr: 0x530, symBinAddr: 0x10005EE50, symSize: 0x70 }
  - { offsetInCU: 0xB06A, offset: 0x1B00CB, size: 0x8, addend: 0x0, symName: __ZN7testing8internal16InDeathTestChildEv, symObjAddr: 0x5A0, symBinAddr: 0x10005EEC0, symSize: 0x80 }
  - { offsetInCU: 0xB19D, offset: 0x1B01FE, size: 0x8, addend: 0x0, symName: __ZN7testing8internal20ExitedUnsuccessfullyEi, symObjAddr: 0x6A0, symBinAddr: 0x10005EFC0, symSize: 0x10 }
  - { offsetInCU: 0xB1E7, offset: 0x1B0248, size: 0x8, addend: 0x0, symName: __ZN7testing8internal23GetLastErrnoDescriptionEv, symObjAddr: 0x6B0, symBinAddr: 0x10005EFD0, symSize: 0xB0 }
  - { offsetInCU: 0xB666, offset: 0x1B06C7, size: 0x8, addend: 0x0, symName: __ZN7testing8internal15GetUnitTestImplEv, symObjAddr: 0x7D0, symBinAddr: 0x10005F0F0, symSize: 0xD0 }
  - { offsetInCU: 0xB75F, offset: 0x1B07C0, size: 0x8, addend: 0x0, symName: __ZN7testing8internalL14DeathTestAbortERKNSt3__112basic_stringIcNS1_11char_traitsIcEENS1_9allocatorIcEEEE, symObjAddr: 0x8A0, symBinAddr: 0x10005F1C0, symSize: 0xA0 }
  - { offsetInCU: 0xBC61, offset: 0x1B0CC2, size: 0x8, addend: 0x0, symName: __ZN7testing8internal18StreamableToStringIiEENSt3__112basic_stringIcNS2_11char_traitsIcEENS2_9allocatorIcEEEERKT_, symObjAddr: 0x1310, symBinAddr: 0x10005FC30, symSize: 0x90 }
  - { offsetInCU: 0xBEDF, offset: 0x1B0F40, size: 0x8, addend: 0x0, symName: __ZN7testing8internal17GetCapturedStderrEv, symObjAddr: 0x1410, symBinAddr: 0x10005FD30, symSize: 0x70 }
  - { offsetInCU: 0xC209, offset: 0x1B126A, size: 0x8, addend: 0x0, symName: __ZN7testing8internalL21FormatDeathTestOutputERKNSt3__112basic_stringIcNS1_11char_traitsIcEENS1_9allocatorIcEEEE, symObjAddr: 0x2130, symBinAddr: 0x100060A50, symSize: 0x2E0 }
  - { offsetInCU: 0xD2B3, offset: 0x1B2314, size: 0x8, addend: 0x0, symName: __ZN7testing8internalL13CaptureStreamEiPKcPPNS0_14CapturedStreamE, symObjAddr: 0xA6B0, symBinAddr: 0x100068FB0, symSize: 0xE0 }
  - { offsetInCU: 0xD50B, offset: 0x1B256C, size: 0x8, addend: 0x0, symName: __ZN7testing8internal14GetThreadCountEv, symObjAddr: 0x3480, symBinAddr: 0x100061DA0, symSize: 0x50 }
  - { offsetInCU: 0xD581, offset: 0x1B25E2, size: 0x8, addend: 0x0, symName: __ZN7testing8internal6IsTrueEb, symObjAddr: 0x34D0, symBinAddr: 0x100061DF0, symSize: 0x10 }
  - { offsetInCU: 0xD5BD, offset: 0x1B261E, size: 0x8, addend: 0x0, symName: __ZN7testing8internal13CaptureStderrEv, symObjAddr: 0x34E0, symBinAddr: 0x100061E00, symSize: 0x20 }
  - { offsetInCU: 0xD738, offset: 0x1B2799, size: 0x8, addend: 0x0, symName: __ZN7testing8internalL22ExecDeathTestChildMainEPv, symObjAddr: 0x329B0, symBinAddr: 0x100090EF0, symSize: 0x800 }
  - { offsetInCU: 0xFE78, offset: 0x1B4ED9, size: 0x8, addend: 0x0, symName: __ZN7testing8internal29ParseInternalRunDeathTestFlagEv, symObjAddr: 0x5A20, symBinAddr: 0x100064340, symSize: 0x240 }
  - { offsetInCU: 0x108DC, offset: 0x1B593D, size: 0x8, addend: 0x0, symName: __ZN7testing8internal11SplitStringERKNSt3__112basic_stringIcNS1_11char_traitsIcEENS1_9allocatorIcEEEEcPNS1_6vectorIS7_NS5_IS7_EEEE, symObjAddr: 0x5C60, symBinAddr: 0x100064580, symSize: 0x390 }
  - { offsetInCU: 0x11C41, offset: 0x1B6CA2, size: 0x8, addend: 0x0, symName: __ZN7testing8internal18ParseNaturalNumberIiEEbRKNSt3__112basic_stringIcNS2_11char_traitsIcEENS2_9allocatorIcEEEEPT_, symObjAddr: 0x5FF0, symBinAddr: 0x100064910, symSize: 0xB0 }
  - { offsetInCU: 0x12217, offset: 0x1B7278, size: 0x8, addend: 0x0, symName: __ZN7testing8internal30GetBoolAssertionFailureMessageERKNS_15AssertionResultEPKcS5_S5_, symObjAddr: 0x9990, symBinAddr: 0x1000682A0, symSize: 0x1C0 }
  - { offsetInCU: 0x12A43, offset: 0x1B7AA4, size: 0x8, addend: 0x0, symName: __ZN7testing8internal17AppendUserMessageERKNSt3__112basic_stringIcNS1_11char_traitsIcEENS1_9allocatorIcEEEERKNS_7MessageE, symObjAddr: 0xE400, symBinAddr: 0x10006CD00, symSize: 0x2C0 }
  - { offsetInCU: 0x13E41, offset: 0x1B8EA2, size: 0x8, addend: 0x0, symName: __ZN7testing8internal18FormatFileLocationEPKci, symObjAddr: 0x9D60, symBinAddr: 0x100068670, symSize: 0x3E0 }
  - { offsetInCU: 0x158CE, offset: 0x1BA92F, size: 0x8, addend: 0x0, symName: __ZN7testing8internal37FormatCompilerIndependentFileLocationEPKci, symObjAddr: 0xA140, symBinAddr: 0x100068A50, symSize: 0x330 }
  - { offsetInCU: 0x17037, offset: 0x1BC098, size: 0x8, addend: 0x0, symName: __ZN7testing8internal13CaptureStdoutEv, symObjAddr: 0xA690, symBinAddr: 0x100068F90, symSize: 0x20 }
  - { offsetInCU: 0x17067, offset: 0x1BC0C8, size: 0x8, addend: 0x0, symName: __ZN7testing8internal17GetCapturedStdoutEv, symObjAddr: 0xA790, symBinAddr: 0x100069090, symSize: 0x70 }
  - { offsetInCU: 0x172E9, offset: 0x1BC34A, size: 0x8, addend: 0x0, symName: __ZN7testing8internal11GetFileSizeEP7__sFILE, symObjAddr: 0xA800, symBinAddr: 0x100069100, symSize: 0x30 }
  - { offsetInCU: 0x1735E, offset: 0x1BC3BF, size: 0x8, addend: 0x0, symName: __ZN7testing8internal14ReadEntireFileEP7__sFILE, symObjAddr: 0xA830, symBinAddr: 0x100069130, symSize: 0xF0 }
  - { offsetInCU: 0x17876, offset: 0x1BC8D7, size: 0x8, addend: 0x0, symName: __ZN7testing8internal18GetInjectableArgvsEv, symObjAddr: 0xA920, symBinAddr: 0x100069220, symSize: 0x30 }
  - { offsetInCU: 0x178A2, offset: 0x1BC903, size: 0x8, addend: 0x0, symName: __ZN7testing8internal8GetArgvsEv, symObjAddr: 0xA950, symBinAddr: 0x100069250, symSize: 0x20 }
  - { offsetInCU: 0x178F7, offset: 0x1BC958, size: 0x8, addend: 0x0, symName: __ZN7testing8internal18SetInjectableArgvsEPKNSt3__16vectorINS1_12basic_stringIcNS1_11char_traitsIcEENS1_9allocatorIcEEEENS6_IS8_EEEE, symObjAddr: 0xA970, symBinAddr: 0x100069270, symSize: 0x80 }
  - { offsetInCU: 0x17C0C, offset: 0x1BCC6D, size: 0x8, addend: 0x0, symName: __ZN7testing8internal18SetInjectableArgvsERKNSt3__16vectorINS1_12basic_stringIcNS1_11char_traitsIcEENS1_9allocatorIcEEEENS6_IS8_EEEE, symObjAddr: 0xA9F0, symBinAddr: 0x1000692F0, symSize: 0xA0 }
  - { offsetInCU: 0x17FA9, offset: 0x1BD00A, size: 0x8, addend: 0x0, symName: __ZN7testing8internal20ClearInjectableArgvsEv, symObjAddr: 0xAA90, symBinAddr: 0x100069390, symSize: 0x80 }
  - { offsetInCU: 0x182A0, offset: 0x1BD301, size: 0x8, addend: 0x0, symName: __ZN7testing8internal10ParseInt32ERKNS_7MessageEPKcPi, symObjAddr: 0xAB10, symBinAddr: 0x100069410, symSize: 0x2E0 }
  - { offsetInCU: 0x18F80, offset: 0x1BDFE1, size: 0x8, addend: 0x0, symName: __ZN7testing8internal17Int32FromGTestEnvEPKci, symObjAddr: 0xAFD0, symBinAddr: 0x1000698D0, symSize: 0x1D0 }
  - { offsetInCU: 0x19AF5, offset: 0x1BEB56, size: 0x8, addend: 0x0, symName: __ZN7testing8internal25OutputFlagAlsoCheckEnvVarEv, symObjAddr: 0xB1A0, symBinAddr: 0x100069AA0, symSize: 0x110 }
  - { offsetInCU: 0x1A2FF, offset: 0x1BF360, size: 0x8, addend: 0x0, symName: __ZN7testing8internal20PrintBytesInObjectToEPKhmPNSt3__113basic_ostreamIcNS3_11char_traitsIcEEEE, symObjAddr: 0xB2B0, symBinAddr: 0x100069BB0, symSize: 0xA0 }
  - { offsetInCU: 0x1A4B9, offset: 0x1BF51A, size: 0x8, addend: 0x0, symName: __ZN7testing8internal7PrintToEhPNSt3__113basic_ostreamIcNS1_11char_traitsIcEEEE, symObjAddr: 0xB350, symBinAddr: 0x100069C50, symSize: 0x10 }
  - { offsetInCU: 0x1A512, offset: 0x1BF573, size: 0x8, addend: 0x0, symName: __ZN7testing8internal18PrintCharAndCodeToIhEEvT_PNSt3__113basic_ostreamIcNS3_11char_traitsIcEEEE, symObjAddr: 0xB360, symBinAddr: 0x100069C60, symSize: 0x380 }
  - { offsetInCU: 0x1AE2D, offset: 0x1BFE8E, size: 0x8, addend: 0x0, symName: __ZN7testing8internal7PrintToEaPNSt3__113basic_ostreamIcNS1_11char_traitsIcEEEE, symObjAddr: 0xB6E0, symBinAddr: 0x100069FE0, symSize: 0x10 }
  - { offsetInCU: 0x1AE86, offset: 0x1BFEE7, size: 0x8, addend: 0x0, symName: __ZN7testing8internal18PrintCharAndCodeToIaEEvT_PNSt3__113basic_ostreamIcNS3_11char_traitsIcEEEE, symObjAddr: 0xB6F0, symBinAddr: 0x100069FF0, symSize: 0x390 }
  - { offsetInCU: 0x1B783, offset: 0x1C07E4, size: 0x8, addend: 0x0, symName: __ZN7testing8internal7PrintToEwPNSt3__113basic_ostreamIcNS1_11char_traitsIcEEEE, symObjAddr: 0xBA80, symBinAddr: 0x10006A380, symSize: 0x10 }
  - { offsetInCU: 0x1B7DC, offset: 0x1C083D, size: 0x8, addend: 0x0, symName: __ZN7testing8internal18PrintCharAndCodeToIwEEvT_PNSt3__113basic_ostreamIcNS3_11char_traitsIcEEEE, symObjAddr: 0xBA90, symBinAddr: 0x10006A390, symSize: 0x390 }
  - { offsetInCU: 0x1C0D9, offset: 0x1C113A, size: 0x8, addend: 0x0, symName: __ZN7testing8internal7PrintToEDiPNSt3__113basic_ostreamIcNS1_11char_traitsIcEEEE, symObjAddr: 0xBE20, symBinAddr: 0x10006A720, symSize: 0xF0 }
  - { offsetInCU: 0x1C347, offset: 0x1C13A8, size: 0x8, addend: 0x0, symName: __ZN7testing8internal7PrintToEoPNSt3__113basic_ostreamIcNS1_11char_traitsIcEEEE, symObjAddr: 0xBF10, symBinAddr: 0x10006A810, symSize: 0x130 }
  - { offsetInCU: 0x1C4FF, offset: 0x1C1560, size: 0x8, addend: 0x0, symName: __ZN7testing8internal7PrintToEnPNSt3__113basic_ostreamIcNS1_11char_traitsIcEEEE, symObjAddr: 0xC040, symBinAddr: 0x10006A940, symSize: 0x160 }
  - { offsetInCU: 0x1C6F4, offset: 0x1C1755, size: 0x8, addend: 0x0, symName: __ZN7testing8internal19UniversalPrintArrayEPKcmPNSt3__113basic_ostreamIcNS3_11char_traitsIcEEEE, symObjAddr: 0xC1A0, symBinAddr: 0x10006AAA0, symSize: 0x50 }
  - { offsetInCU: 0x1C7EA, offset: 0x1C184B, size: 0x8, addend: 0x0, symName: __ZN7testing8internalL20PrintCharsAsStringToIcEENS0_10CharFormatEPKT_mPNSt3__113basic_ostreamIcNS6_11char_traitsIcEEEE, symObjAddr: 0xC780, symBinAddr: 0x10006B080, symSize: 0x100 }
  - { offsetInCU: 0x1CAAB, offset: 0x1C1B0C, size: 0x8, addend: 0x0, symName: __ZN7testing8internal19UniversalPrintArrayEPKDsmPNSt3__113basic_ostreamIcNS3_11char_traitsIcEEEE, symObjAddr: 0xC1F0, symBinAddr: 0x10006AAF0, symSize: 0x50 }
  - { offsetInCU: 0x1CBA2, offset: 0x1C1C03, size: 0x8, addend: 0x0, symName: __ZN7testing8internalL20PrintCharsAsStringToIDsEENS0_10CharFormatEPKT_mPNSt3__113basic_ostreamIcNS6_11char_traitsIcEEEE, symObjAddr: 0xC8B0, symBinAddr: 0x10006B1B0, symSize: 0xF0 }
  - { offsetInCU: 0x1CE64, offset: 0x1C1EC5, size: 0x8, addend: 0x0, symName: __ZN7testing8internal19UniversalPrintArrayEPKDimPNSt3__113basic_ostreamIcNS3_11char_traitsIcEEEE, symObjAddr: 0xC240, symBinAddr: 0x10006AB40, symSize: 0x50 }
  - { offsetInCU: 0x1CF5B, offset: 0x1C1FBC, size: 0x8, addend: 0x0, symName: __ZN7testing8internalL20PrintCharsAsStringToIDiEENS0_10CharFormatEPKT_mPNSt3__113basic_ostreamIcNS6_11char_traitsIcEEEE, symObjAddr: 0xC9D0, symBinAddr: 0x10006B2D0, symSize: 0xF0 }
  - { offsetInCU: 0x1D214, offset: 0x1C2275, size: 0x8, addend: 0x0, symName: __ZN7testing8internal19UniversalPrintArrayEPKwmPNSt3__113basic_ostreamIcNS3_11char_traitsIcEEEE, symObjAddr: 0xC290, symBinAddr: 0x10006AB90, symSize: 0x50 }
  - { offsetInCU: 0x1D30B, offset: 0x1C236C, size: 0x8, addend: 0x0, symName: __ZN7testing8internalL20PrintCharsAsStringToIwEENS0_10CharFormatEPKT_mPNSt3__113basic_ostreamIcNS6_11char_traitsIcEEEE, symObjAddr: 0xCAF0, symBinAddr: 0x10006B3F0, symSize: 0xF0 }
  - { offsetInCU: 0x1D5AF, offset: 0x1C2610, size: 0x8, addend: 0x0, symName: __ZN7testing8internal7PrintToEPKcPNSt3__113basic_ostreamIcNS3_11char_traitsIcEEEE, symObjAddr: 0xC2E0, symBinAddr: 0x10006ABE0, symSize: 0x70 }
  - { offsetInCU: 0x1D6F7, offset: 0x1C2758, size: 0x8, addend: 0x0, symName: __ZN7testing8internal7PrintToEPKDsPNSt3__113basic_ostreamIcNS3_11char_traitsIcEEEE, symObjAddr: 0xC350, symBinAddr: 0x10006AC50, symSize: 0x80 }
  - { offsetInCU: 0x1D846, offset: 0x1C28A7, size: 0x8, addend: 0x0, symName: __ZN7testing8internal7PrintToEPKDiPNSt3__113basic_ostreamIcNS3_11char_traitsIcEEEE, symObjAddr: 0xC3D0, symBinAddr: 0x10006ACD0, symSize: 0x80 }
  - { offsetInCU: 0x1D995, offset: 0x1C29F6, size: 0x8, addend: 0x0, symName: __ZN7testing8internal7PrintToEPKwPNSt3__113basic_ostreamIcNS3_11char_traitsIcEEEE, symObjAddr: 0xC450, symBinAddr: 0x10006AD50, symSize: 0x70 }
  - { offsetInCU: 0x1DADE, offset: 0x1C2B3F, size: 0x8, addend: 0x0, symName: __ZN7testing8internal13PrintStringToERKNSt3__112basic_stringIcNS1_11char_traitsIcEENS1_9allocatorIcEEEEPNS1_13basic_ostreamIcS4_EE, symObjAddr: 0xC4C0, symBinAddr: 0x10006ADC0, symSize: 0x2C0 }
  - { offsetInCU: 0x1DEC3, offset: 0x1C2F24, size: 0x8, addend: 0x0, symName: __ZN7testing8internalL22PrintAsStringLiteralToEDiPNSt3__113basic_ostreamIcNS1_11char_traitsIcEEEE, symObjAddr: 0x39600, symBinAddr: 0x100097180, symSize: 0x2A0 }
  - { offsetInCU: 0x1E27B, offset: 0x1C32DC, size: 0x8, addend: 0x0, symName: __ZN7testing8internal16PrintU16StringToERKNSt3__112basic_stringIDsNS1_11char_traitsIDsEENS1_9allocatorIDsEEEEPNS1_13basic_ostreamIcNS3_IcEEEE, symObjAddr: 0xC880, symBinAddr: 0x10006B180, symSize: 0x30 }
  - { offsetInCU: 0x1E386, offset: 0x1C33E7, size: 0x8, addend: 0x0, symName: __ZN7testing8internal16PrintU32StringToERKNSt3__112basic_stringIDiNS1_11char_traitsIDiEENS1_9allocatorIDiEEEEPNS1_13basic_ostreamIcNS3_IcEEEE, symObjAddr: 0xC9A0, symBinAddr: 0x10006B2A0, symSize: 0x30 }
  - { offsetInCU: 0x1E467, offset: 0x1C34C8, size: 0x8, addend: 0x0, symName: __ZN7testing8internal17PrintWideStringToERKNSt3__112basic_stringIwNS1_11char_traitsIwEENS1_9allocatorIwEEEEPNS1_13basic_ostreamIcNS3_IcEEEE, symObjAddr: 0xCAC0, symBinAddr: 0x10006B3C0, symSize: 0x30 }
  - { offsetInCU: 0x1E7BD, offset: 0x1C381E, size: 0x8, addend: 0x0, symName: __ZN7testing8internal19GetPrefixUntilCommaEPKc, symObjAddr: 0x33920, symBinAddr: 0x100091B80, symSize: 0x110 }
  - { offsetInCU: 0x1EF4D, offset: 0x1C3FAE, size: 0x8, addend: 0x0, symName: __ZN7testing8internal34RegisterTypeParameterizedTestSuiteEPKcNS0_12CodeLocationE, symObjAddr: 0xDBF0, symBinAddr: 0x10006C4F0, symSize: 0x90 }
  - { offsetInCU: 0x1F46D, offset: 0x1C44CE, size: 0x8, addend: 0x0, symName: __ZN7testing8internal33GetIgnoredParameterizedTestSuitesEv, symObjAddr: 0xE730, symBinAddr: 0x10006D030, symSize: 0xD0 }
  - { offsetInCU: 0x1F584, offset: 0x1C45E5, size: 0x8, addend: 0x0, symName: __ZN7testing8internal23InsertSyntheticTestCaseERKNSt3__112basic_stringIcNS1_11char_traitsIcEENS1_9allocatorIcEEEENS0_12CodeLocationEb, symObjAddr: 0xE950, symBinAddr: 0x10006D250, symSize: 0x950 }
  - { offsetInCU: 0x229A4, offset: 0x1C7A05, size: 0x8, addend: 0x0, symName: __ZN7testing8internal23MakeAndRegisterTestInfoENSt3__112basic_stringIcNS1_11char_traitsIcEENS1_9allocatorIcEEEEPKcS9_S9_NS0_12CodeLocationEPKvPFvvESE_PNS0_15TestFactoryBaseE, symObjAddr: 0x1B8D0, symBinAddr: 0x100079F40, symSize: 0x1F0 }
  - { offsetInCU: 0x238A2, offset: 0x1C8903, size: 0x8, addend: 0x0, symName: __ZN7testing8internal47RegisterTypeParameterizedTestSuiteInstantiationEPKc, symObjAddr: 0xF500, symBinAddr: 0x10006DE00, symSize: 0x30 }
  - { offsetInCU: 0x23923, offset: 0x1C8984, size: 0x8, addend: 0x0, symName: __ZN7testing8internal24GetCurrentExecutableNameEv, symObjAddr: 0xFF30, symBinAddr: 0x10006E830, symSize: 0x1C0 }
  - { offsetInCU: 0x24BD8, offset: 0x1C9C39, size: 0x8, addend: 0x0, symName: __ZN7testing8internal13GetTestTypeIdEv, symObjAddr: 0x127C0, symBinAddr: 0x1000710C0, symSize: 0x10 }
  - { offsetInCU: 0x24EA4, offset: 0x1C9F05, size: 0x8, addend: 0x0, symName: __ZN7testing8internal15GetTimeInMillisEv, symObjAddr: 0x13B60, symBinAddr: 0x100072460, symSize: 0x40 }
  - { offsetInCU: 0x24F12, offset: 0x1C9F73, size: 0x8, addend: 0x0, symName: __ZN7testing8internal10AlwaysTrueEv, symObjAddr: 0x13BD0, symBinAddr: 0x1000724D0, symSize: 0x10 }
  - { offsetInCU: 0x24F30, offset: 0x1C9F91, size: 0x8, addend: 0x0, symName: __ZN7testing8internal16WideStringToUtf8EPKwi, symObjAddr: 0x18C30, symBinAddr: 0x1000772A0, symSize: 0x190 }
  - { offsetInCU: 0x25523, offset: 0x1CA584, size: 0x8, addend: 0x0, symName: __ZN7testing8internal9EqFailureEPKcS2_RKNSt3__112basic_stringIcNS3_11char_traitsIcEENS3_9allocatorIcEEEESB_b, symObjAddr: 0x15780, symBinAddr: 0x100073ED0, symSize: 0x510 }
  - { offsetInCU: 0x270F5, offset: 0x1CC156, size: 0x8, addend: 0x0, symName: __ZN7testing8internal20DoubleNearPredFormatEPKcS2_S2_ddd, symObjAddr: 0x15FF0, symBinAddr: 0x100074740, symSize: 0x3B0 }
  - { offsetInCU: 0x27830, offset: 0x1CC891, size: 0x8, addend: 0x0, symName: __ZN7testing8internal15FloatingPointLEIfEENS_15AssertionResultEPKcS4_T_S5_, symObjAddr: 0x16F20, symBinAddr: 0x100075590, symSize: 0x390 }
  - { offsetInCU: 0x286E1, offset: 0x1CD742, size: 0x8, addend: 0x0, symName: __ZN7testing8internal15FloatingPointLEIdEENS_15AssertionResultEPKcS4_T_S5_, symObjAddr: 0x172D0, symBinAddr: 0x100075940, symSize: 0x3B0 }
  - { offsetInCU: 0x2958C, offset: 0x1CE5ED, size: 0x8, addend: 0x0, symName: __ZN7testing8internal14CmpHelperSTREQEPKcS2_S2_S2_, symObjAddr: 0x17680, symBinAddr: 0x100075CF0, symSize: 0xF0 }
  - { offsetInCU: 0x29C8D, offset: 0x1CECEE, size: 0x8, addend: 0x0, symName: __ZN7testing8internal18CmpHelperSTRCASEEQEPKcS2_S2_S2_, symObjAddr: 0x17860, symBinAddr: 0x100075ED0, symSize: 0x100 }
  - { offsetInCU: 0x2A397, offset: 0x1CF3F8, size: 0x8, addend: 0x0, symName: __ZN7testing8internal14CmpHelperSTRNEEPKcS2_S2_S2_, symObjAddr: 0x17990, symBinAddr: 0x100076000, symSize: 0x140 }
  - { offsetInCU: 0x2A8FB, offset: 0x1CF95C, size: 0x8, addend: 0x0, symName: __ZN7testing8internal18CmpHelperSTRCASENEEPKcS2_S2_S2_, symObjAddr: 0x17C70, symBinAddr: 0x1000762E0, symSize: 0x140 }
  - { offsetInCU: 0x2AECA, offset: 0x1CFF2B, size: 0x8, addend: 0x0, symName: __ZN7testing8internal15CodePointToUtf8Ej, symObjAddr: 0x18920, symBinAddr: 0x100076F90, symSize: 0x1F0 }
  - { offsetInCU: 0x2B9D5, offset: 0x1D0A36, size: 0x8, addend: 0x0, symName: __ZN7testing8internal14CmpHelperSTREQEPKcS2_PKwS4_, symObjAddr: 0x18DF0, symBinAddr: 0x100077460, symSize: 0xF0 }
  - { offsetInCU: 0x2C0D6, offset: 0x1D1137, size: 0x8, addend: 0x0, symName: __ZN7testing8internal14CmpHelperSTRNEEPKcS2_PKwS4_, symObjAddr: 0x18FD0, symBinAddr: 0x100077640, symSize: 0x190 }
  - { offsetInCU: 0x2CB7F, offset: 0x1D1BE0, size: 0x8, addend: 0x0, symName: __ZN7testing8internal30ReportFailureInUnknownLocationENS_14TestPartResult4TypeERKNSt3__112basic_stringIcNS3_11char_traitsIcEENS3_9allocatorIcEEEE, symObjAddr: 0x1A700, symBinAddr: 0x100078D70, symSize: 0xD0 }
  - { offsetInCU: 0x2CF17, offset: 0x1D1F78, size: 0x8, addend: 0x0, symName: __ZN7testing8internalL27PrintTestPartResultToStringERKNS_14TestPartResultE, symObjAddr: 0x1AD50, symBinAddr: 0x1000793C0, symSize: 0x1A0 }
  - { offsetInCU: 0x2D7FF, offset: 0x1D2860, size: 0x8, addend: 0x0, symName: __ZN7testing8internal35HandleExceptionsInMethodIfSupportedINS_4TestEvEET0_PT_MS4_FS3_vEPKc, symObjAddr: 0x1B1D0, symBinAddr: 0x100079840, symSize: 0x170 }
  - { offsetInCU: 0x2DC57, offset: 0x1D2CB8, size: 0x8, addend: 0x0, symName: __ZN7testing8internalL25FormatCxxExceptionMessageEPKcS2_, symObjAddr: 0x3BA60, symBinAddr: 0x100099470, symSize: 0x140 }
  - { offsetInCU: 0x2E135, offset: 0x1D3196, size: 0x8, addend: 0x0, symName: __ZN7testing8internal26ReportInvalidTestSuiteTypeEPKcRKNS0_12CodeLocationE, symObjAddr: 0x1BC00, symBinAddr: 0x10007A270, symSize: 0x2A0 }
  - { offsetInCU: 0x2F10A, offset: 0x1D416B, size: 0x8, addend: 0x0, symName: __ZN7testing8internal35HandleExceptionsInMethodIfSupportedINS0_15TestFactoryBaseEPNS_4TestEEET0_PT_MS6_FS5_vEPKc, symObjAddr: 0x1C4E0, symBinAddr: 0x10007AB50, symSize: 0x160 }
  - { offsetInCU: 0x2F60D, offset: 0x1D466E, size: 0x8, addend: 0x0, symName: __ZN7testing8internal35HandleExceptionsInMethodIfSupportedINS_9TestSuiteEvEET0_PT_MS4_FS3_vEPKc, symObjAddr: 0x1D7F0, symBinAddr: 0x10007BE60, symSize: 0x170 }
  - { offsetInCU: 0x2FA95, offset: 0x1D4AF6, size: 0x8, addend: 0x0, symName: __ZN7testing8internal12ShuffleRangeIiEEvPNS0_6RandomEiiPNSt3__16vectorIT_NS4_9allocatorIS6_EEEE, symObjAddr: 0x30A70, symBinAddr: 0x10008F0E0, symSize: 0x210 }
  - { offsetInCU: 0x2FF45, offset: 0x1D4FA6, size: 0x8, addend: 0x0, symName: __ZN7testing8internal14ShouldUseColorEb, symObjAddr: 0x1DD70, symBinAddr: 0x10007C3E0, symSize: 0x2F0 }
  - { offsetInCU: 0x30FD0, offset: 0x1D6031, size: 0x8, addend: 0x0, symName: __ZN7testing8internal11ShouldShardEPKcS2_b, symObjAddr: 0x1E530, symBinAddr: 0x10007CBA0, symSize: 0x500 }
  - { offsetInCU: 0x32942, offset: 0x1D79A3, size: 0x8, addend: 0x0, symName: __ZN7testing8internal17Int32FromEnvOrDieEPKci, symObjAddr: 0x1EA30, symBinAddr: 0x10007D0A0, symSize: 0x110 }
  - { offsetInCU: 0x32E8B, offset: 0x1D7EEC, size: 0x8, addend: 0x0, symName: __ZN7testing8internalL29PrintFullTestCommentIfPresentERKNS_8TestInfoE, symObjAddr: 0x1F400, symBinAddr: 0x10007DA70, symSize: 0xB0 }
  - { offsetInCU: 0x333A7, offset: 0x1D8408, size: 0x8, addend: 0x0, symName: __ZN7testing8internalL18OpenFileForWritingERKNSt3__112basic_stringIcNS1_11char_traitsIcEENS1_9allocatorIcEEEE, symObjAddr: 0x21D00, symBinAddr: 0x100080370, symSize: 0x210 }
  - { offsetInCU: 0x341BF, offset: 0x1D9220, size: 0x8, addend: 0x0, symName: __ZN7testing8internal27FormatTimeInMillisAsSecondsEx, symObjAddr: 0x22F60, symBinAddr: 0x1000815D0, symSize: 0x1D0 }
  - { offsetInCU: 0x3451E, offset: 0x1D957F, size: 0x8, addend: 0x0, symName: __ZN7testing8internal32FormatEpochTimeInMillisAsIso8601Ex, symObjAddr: 0x23130, symBinAddr: 0x1000817A0, symSize: 0xB00 }
  - { offsetInCU: 0x37D22, offset: 0x1DCD83, size: 0x8, addend: 0x0, symName: __ZN7testing8internalL32FormatEpochTimeInMillisAsRFC3339Ex, symObjAddr: 0x29720, symBinAddr: 0x100087D90, symSize: 0x9A0 }
  - { offsetInCU: 0x3AEFC, offset: 0x1DFF5D, size: 0x8, addend: 0x0, symName: __ZN7testing8internalL28FormatTimeInMillisAsDurationEx, symObjAddr: 0x29610, symBinAddr: 0x100087C80, symSize: 0x110 }
  - { offsetInCU: 0x3B54F, offset: 0x1E05B0, size: 0x8, addend: 0x0, symName: __ZN7testing8internal35HandleExceptionsInMethodIfSupportedINS0_12UnitTestImplEbEET0_PT_MS4_FS3_vEPKc, symObjAddr: 0x2D350, symBinAddr: 0x10008B9C0, symSize: 0x160 }
  - { offsetInCU: 0x3BAC9, offset: 0x1E0B2A, size: 0x8, addend: 0x0, symName: __ZN7testing8internal30WriteToShardStatusFileIfNeededEv, symObjAddr: 0x2FC70, symBinAddr: 0x10008E2E0, symSize: 0x80 }
  - { offsetInCU: 0x3BB9E, offset: 0x1E0BFF, size: 0x8, addend: 0x0, symName: __ZN7testing8internal17GetNextRandomSeedEi, symObjAddr: 0x30920, symBinAddr: 0x10008EF90, symSize: 0xD0 }
  - { offsetInCU: 0x3BE2C, offset: 0x1E0E8D, size: 0x8, addend: 0x0, symName: __ZN7testing8internal20ShouldRunTestOnShardEiii, symObjAddr: 0x309F0, symBinAddr: 0x10008F060, symSize: 0x10 }
  - { offsetInCU: 0x3BE5A, offset: 0x1E0EBB, size: 0x8, addend: 0x0, symName: __ZN7testing8internal31GetCurrentOsStackTraceExceptTopEi, symObjAddr: 0x30C80, symBinAddr: 0x10008F2F0, symSize: 0x30 }
  - { offsetInCU: 0x3BEB7, offset: 0x1E0F18, size: 0x8, addend: 0x0, symName: __ZN7testing8internal10SkipPrefixEPKcPS2_, symObjAddr: 0x30CB0, symBinAddr: 0x10008F320, symSize: 0x50 }
  - { offsetInCU: 0x3BEE9, offset: 0x1E0F4A, size: 0x8, addend: 0x0, symName: __ZN7testing8internal9ParseFlagEPKcS2_Pi, symObjAddr: 0x30D00, symBinAddr: 0x10008F370, symSize: 0x100 }
  - { offsetInCU: 0x3C3B8, offset: 0x1E1419, size: 0x8, addend: 0x0, symName: __ZN7testing8internalL14ParseFlagValueEPKcS2_b, symObjAddr: 0x30E00, symBinAddr: 0x10008F470, symSize: 0x180 }
  - { offsetInCU: 0x3CDC9, offset: 0x1E1E2A, size: 0x8, addend: 0x0, symName: __ZN7testing8internal24ParseGoogleTestFlagsOnlyEPiPPc, symObjAddr: 0x30F80, symBinAddr: 0x10008F5F0, symSize: 0x30 }
  - { offsetInCU: 0x3CE11, offset: 0x1E1E72, size: 0x8, addend: 0x0, symName: __ZN7testing8internal28ParseGoogleTestFlagsOnlyImplIcEEvPiPPT_, symObjAddr: 0x30FB0, symBinAddr: 0x10008F620, symSize: 0x1D0 }
  - { offsetInCU: 0x3D6CC, offset: 0x1E272D, size: 0x8, addend: 0x0, symName: __ZN7testing8internal18StreamableToStringIPcEENSt3__112basic_stringIcNS3_11char_traitsIcEENS3_9allocatorIcEEEERKT_, symObjAddr: 0x3DCA0, symBinAddr: 0x10009B6A0, symSize: 0xC0 }
  - { offsetInCU: 0x3D9A0, offset: 0x1E2A01, size: 0x8, addend: 0x0, symName: __ZN7testing8internalL19ParseGoogleTestFlagEPKc, symObjAddr: 0x3DD60, symBinAddr: 0x10009B760, symSize: 0x670 }
  - { offsetInCU: 0x3F03D, offset: 0x1E409E, size: 0x8, addend: 0x0, symName: __ZN7testing8internalL17LoadFlagsFromFileERKNSt3__112basic_stringIcNS1_11char_traitsIcEENS1_9allocatorIcEEEE, symObjAddr: 0x3E400, symBinAddr: 0x10009BE00, symSize: 0x220 }
  - { offsetInCU: 0x3FAA9, offset: 0x1E4B0A, size: 0x8, addend: 0x0, symName: __ZN7testing8internalL23HasGoogleTestFlagPrefixEPKc, symObjAddr: 0x3E620, symBinAddr: 0x10009C020, symSize: 0xB0 }
  - { offsetInCU: 0x3FBB7, offset: 0x1E4C18, size: 0x8, addend: 0x0, symName: __ZN7testing8internalL17PrintColorEncodedEPKc, symObjAddr: 0x3E6D0, symBinAddr: 0x10009C0D0, symSize: 0x200 }
  - { offsetInCU: 0x40285, offset: 0x1E52E6, size: 0x8, addend: 0x0, symName: __ZN7testing8internal24ParseGoogleTestFlagsOnlyEPiPPw, symObjAddr: 0x31180, symBinAddr: 0x10008F7F0, symSize: 0x10 }
  - { offsetInCU: 0x402C9, offset: 0x1E532A, size: 0x8, addend: 0x0, symName: __ZN7testing8internal28ParseGoogleTestFlagsOnlyImplIwEEvPiPPT_, symObjAddr: 0x31190, symBinAddr: 0x10008F800, symSize: 0x1D0 }
  - { offsetInCU: 0x40B38, offset: 0x1E5B99, size: 0x8, addend: 0x0, symName: __ZN7testing8internal18StreamableToStringIPwEENSt3__112basic_stringIcNS3_11char_traitsIcEENS3_9allocatorIcEEEERKT_, symObjAddr: 0x3E910, symBinAddr: 0x10009C310, symSize: 0xB0 }
  - { offsetInCU: 0x40EE0, offset: 0x1E5F41, size: 0x8, addend: 0x0, symName: __ZN7testing8internal18InitGoogleTestImplIcEEvPiPPT_, symObjAddr: 0x31370, symBinAddr: 0x10008F9E0, symSize: 0x1C0 }
  - { offsetInCU: 0x4190B, offset: 0x1E696C, size: 0x8, addend: 0x0, symName: __ZN7testing8internal18InitGoogleTestImplIwEEvPiPPT_, symObjAddr: 0x31540, symBinAddr: 0x10008FBB0, symSize: 0x1A0 }
  - { offsetInCU: 0x4254F, offset: 0x1E75B0, size: 0x8, addend: 0x0, symName: __ZN7testing8internalL9ParseFlagEPKcS2_Pb, symObjAddr: 0x3E8D0, symBinAddr: 0x10009C2D0, symSize: 0x40 }
  - { offsetInCU: 0x425B1, offset: 0x1E7612, size: 0x8, addend: 0x0, symName: __ZN7testing8internalL9ParseFlagINSt3__112basic_stringIcNS2_11char_traitsIcEENS2_9allocatorIcEEEEEEbPKcSA_PT_, symObjAddr: 0x3E3D0, symBinAddr: 0x10009BDD0, symSize: 0x30 }
  - { offsetInCU: 0x42922, offset: 0x1E7983, size: 0x8, addend: 0x0, symName: __ZN7testing21FLAGS_gtest_fail_fastE, symObjAddr: 0x56F45A, symBinAddr: 0x100432B92, symSize: 0x0 }
  - { offsetInCU: 0x4293D, offset: 0x1E799E, size: 0x8, addend: 0x0, symName: __ZN7testing35FLAGS_gtest_also_run_disabled_testsE, symObjAddr: 0x56F45B, symBinAddr: 0x100432B93, symSize: 0x0 }
  - { offsetInCU: 0x42958, offset: 0x1E79B9, size: 0x8, addend: 0x0, symName: __ZN7testing28FLAGS_gtest_break_on_failureE, symObjAddr: 0x56F45C, symBinAddr: 0x100432B94, symSize: 0x0 }
  - { offsetInCU: 0x42973, offset: 0x1E79D4, size: 0x8, addend: 0x0, symName: __ZN7testing28FLAGS_gtest_catch_exceptionsE, symObjAddr: 0x56F45D, symBinAddr: 0x100432B95, symSize: 0x0 }
  - { offsetInCU: 0x4298E, offset: 0x1E79EF, size: 0x8, addend: 0x0, symName: __ZN7testing17FLAGS_gtest_colorE, symObjAddr: 0x56F460, symBinAddr: 0x100432B98, symSize: 0x0 }
  - { offsetInCU: 0x429A9, offset: 0x1E7A0A, size: 0x8, addend: 0x0, symName: __ZN7testing18FLAGS_gtest_filterE, symObjAddr: 0x56F478, symBinAddr: 0x100432BB0, symSize: 0x0 }
  - { offsetInCU: 0x429C4, offset: 0x1E7A25, size: 0x8, addend: 0x0, symName: __ZN7testing42FLAGS_gtest_install_failure_signal_handlerE, symObjAddr: 0x56F490, symBinAddr: 0x100432BC8, symSize: 0x0 }
  - { offsetInCU: 0x429DF, offset: 0x1E7A40, size: 0x8, addend: 0x0, symName: __ZN7testing22FLAGS_gtest_list_testsE, symObjAddr: 0x56F491, symBinAddr: 0x100432BC9, symSize: 0x0 }
  - { offsetInCU: 0x429FA, offset: 0x1E7A5B, size: 0x8, addend: 0x0, symName: __ZN7testing18FLAGS_gtest_outputE, symObjAddr: 0x56F498, symBinAddr: 0x100432BD0, symSize: 0x0 }
  - { offsetInCU: 0x42A15, offset: 0x1E7A76, size: 0x8, addend: 0x0, symName: __ZN7testing17FLAGS_gtest_briefE, symObjAddr: 0x56F4B0, symBinAddr: 0x100432BE8, symSize: 0x0 }
  - { offsetInCU: 0x42A30, offset: 0x1E7A91, size: 0x8, addend: 0x0, symName: __ZN7testing22FLAGS_gtest_print_timeE, symObjAddr: 0x56F4B1, symBinAddr: 0x100432BE9, symSize: 0x0 }
  - { offsetInCU: 0x42A4B, offset: 0x1E7AAC, size: 0x8, addend: 0x0, symName: __ZN7testing22FLAGS_gtest_print_utf8E, symObjAddr: 0x56F458, symBinAddr: 0x100432B90, symSize: 0x0 }
  - { offsetInCU: 0x42A66, offset: 0x1E7AC7, size: 0x8, addend: 0x0, symName: __ZN7testing23FLAGS_gtest_random_seedE, symObjAddr: 0x56F4B4, symBinAddr: 0x100432BEC, symSize: 0x0 }
  - { offsetInCU: 0x42A81, offset: 0x1E7AE2, size: 0x8, addend: 0x0, symName: __ZN7testing18FLAGS_gtest_repeatE, symObjAddr: 0x56F4B8, symBinAddr: 0x100432BF0, symSize: 0x0 }
  - { offsetInCU: 0x42A9C, offset: 0x1E7AFD, size: 0x8, addend: 0x0, symName: __ZN7testing48FLAGS_gtest_recreate_environments_when_repeatingE, symObjAddr: 0x56F4BC, symBinAddr: 0x100432BF4, symSize: 0x0 }
  - { offsetInCU: 0x42AB7, offset: 0x1E7B18, size: 0x8, addend: 0x0, symName: __ZN7testing38FLAGS_gtest_show_internal_stack_framesE, symObjAddr: 0x56F4BD, symBinAddr: 0x100432BF5, symSize: 0x0 }
  - { offsetInCU: 0x42AD2, offset: 0x1E7B33, size: 0x8, addend: 0x0, symName: __ZN7testing19FLAGS_gtest_shuffleE, symObjAddr: 0x56F4BE, symBinAddr: 0x100432BF6, symSize: 0x0 }
  - { offsetInCU: 0x42AFA, offset: 0x1E7B5B, size: 0x8, addend: 0x0, symName: __ZN7testing29FLAGS_gtest_stack_trace_depthE, symObjAddr: 0x56F4C0, symBinAddr: 0x100432BF8, symSize: 0x0 }
  - { offsetInCU: 0x42B15, offset: 0x1E7B76, size: 0x8, addend: 0x0, symName: __ZN7testing28FLAGS_gtest_stream_result_toE, symObjAddr: 0x56F4C8, symBinAddr: 0x100432C00, symSize: 0x0 }
  - { offsetInCU: 0x42B30, offset: 0x1E7B91, size: 0x8, addend: 0x0, symName: __ZN7testing28FLAGS_gtest_throw_on_failureE, symObjAddr: 0x56F4E0, symBinAddr: 0x100432C18, symSize: 0x0 }
  - { offsetInCU: 0x42B4B, offset: 0x1E7BAC, size: 0x8, addend: 0x0, symName: __ZN7testing20FLAGS_gtest_flagfileE, symObjAddr: 0x56F4E8, symBinAddr: 0x100432C20, symSize: 0x0 }
  - { offsetInCU: 0x43F5D, offset: 0x1E8FBE, size: 0x8, addend: 0x0, symName: __ZN7testingL29kReservedTestSuitesAttributesE, symObjAddr: 0x47410, symBinAddr: 0x1003E52D0, symSize: 0x0 }
  - { offsetInCU: 0x43F78, offset: 0x1E8FD9, size: 0x8, addend: 0x0, symName: __ZN7testingL28kReservedTestSuiteAttributesE, symObjAddr: 0x47450, symBinAddr: 0x1003E5310, symSize: 0x0 }
  - { offsetInCU: 0x43F93, offset: 0x1E8FF4, size: 0x8, addend: 0x0, symName: __ZN7testingL27kReservedTestCaseAttributesE, symObjAddr: 0x47490, symBinAddr: 0x1003E5350, symSize: 0x0 }
  - { offsetInCU: 0x43FAD, offset: 0x1E900E, size: 0x8, addend: 0x0, symName: __ZN7testingL16kUniversalFilterE, symObjAddr: 0x479F8, symBinAddr: 0x1003B9698, symSize: 0x0 }
  - { offsetInCU: 0x43FC7, offset: 0x1E9028, size: 0x8, addend: 0x0, symName: __ZN7testingL16kTestTotalShardsE, symObjAddr: 0x47A00, symBinAddr: 0x1003B96A0, symSize: 0x0 }
  - { offsetInCU: 0x43FE1, offset: 0x1E9042, size: 0x8, addend: 0x0, symName: __ZN7testingL15kTestShardIndexE, symObjAddr: 0x47A20, symBinAddr: 0x1003B96C0, symSize: 0x0 }
  - { offsetInCU: 0x43FFC, offset: 0x1E905D, size: 0x8, addend: 0x0, symName: __ZN7testingL33kReservedOutputTestCaseAttributesE, symObjAddr: 0x474D0, symBinAddr: 0x1003E5390, symSize: 0x0 }
  - { offsetInCU: 0x44016, offset: 0x1E9077, size: 0x8, addend: 0x0, symName: __ZN7testingL20kTestShardStatusFileE, symObjAddr: 0x47A70, symBinAddr: 0x1003B9710, symSize: 0x0 }
  - { offsetInCU: 0x452C0, offset: 0x1EA321, size: 0x8, addend: 0x0, symName: __ZN7testing12_GLOBAL__N_126PrintByteSegmentInObjectToEPKhmmPNSt3__113basic_ostreamIcNS3_11char_traitsIcEEEE, symObjAddr: 0x33580, symBinAddr: 0x100091AC0, symSize: 0xC0 }
  - { offsetInCU: 0x4543D, offset: 0x1EA49E, size: 0x8, addend: 0x0, symName: __ZN7testing12_GLOBAL__N_115IsSubstringImplIPKcEENS_15AssertionResultEbS3_S3_RKT_S7_, symObjAddr: 0x17EC0, symBinAddr: 0x100076530, symSize: 0x1D0 }
  - { offsetInCU: 0x45AA3, offset: 0x1EAB04, size: 0x8, addend: 0x0, symName: __ZN7testing12_GLOBAL__N_115IsSubstringImplIPKwEENS_15AssertionResultEbPKcS6_RKT_S9_, symObjAddr: 0x180D0, symBinAddr: 0x100076740, symSize: 0x1D0 }
  - { offsetInCU: 0x4613D, offset: 0x1EB19E, size: 0x8, addend: 0x0, symName: __ZN7testing12_GLOBAL__N_115IsSubstringImplINSt3__112basic_stringIcNS2_11char_traitsIcEENS2_9allocatorIcEEEEEENS_15AssertionResultEbPKcSB_RKT_SE_, symObjAddr: 0x18350, symBinAddr: 0x1000769C0, symSize: 0x2A0 }
  - { offsetInCU: 0x46968, offset: 0x1EB9C9, size: 0x8, addend: 0x0, symName: __ZN7testing12_GLOBAL__N_115IsSubstringImplINSt3__112basic_stringIwNS2_11char_traitsIwEENS2_9allocatorIwEEEEEENS_15AssertionResultEbPKcSB_RKT_SE_, symObjAddr: 0x18650, symBinAddr: 0x100076CC0, symSize: 0x2A0 }
  - { offsetInCU: 0x471DE, offset: 0x1EC23F, size: 0x8, addend: 0x0, symName: __ZN7testing16AssertionSuccessEv, symObjAddr: 0x280, symBinAddr: 0x10005EBA0, symSize: 0x20 }
  - { offsetInCU: 0x472DD, offset: 0x1EC33E, size: 0x8, addend: 0x0, symName: __ZN7testing16AssertionFailureEv, symObjAddr: 0x2A0, symBinAddr: 0x10005EBC0, symSize: 0x20 }
  - { offsetInCU: 0x473ED, offset: 0x1EC44E, size: 0x8, addend: 0x0, symName: __ZN7testing16AssertionFailureERKNS_7MessageE, symObjAddr: 0x2C0, symBinAddr: 0x10005EBE0, symSize: 0x80 }
  - { offsetInCU: 0x47B44, offset: 0x1ECBA5, size: 0x8, addend: 0x0, symName: __ZN7testinglsERNSt3__113basic_ostreamIcNS0_11char_traitsIcEEEERKNS_14TestPartResultE, symObjAddr: 0xCCF0, symBinAddr: 0x10006B5F0, symSize: 0x1B0 }
  - { offsetInCU: 0x48443, offset: 0x1ED4A4, size: 0x8, addend: 0x0, symName: __ZN7testing7FloatLEEPKcS1_ff, symObjAddr: 0x16F00, symBinAddr: 0x100075570, symSize: 0x20 }
  - { offsetInCU: 0x484DE, offset: 0x1ED53F, size: 0x8, addend: 0x0, symName: __ZN7testing8DoubleLEEPKcS1_dd, symObjAddr: 0x172B0, symBinAddr: 0x100075920, symSize: 0x20 }
  - { offsetInCU: 0x48579, offset: 0x1ED5DA, size: 0x8, addend: 0x0, symName: __ZN7testing13PrintToStringIPKcEENSt3__112basic_stringIcNS3_11char_traitsIcEENS3_9allocatorIcEEEERKT_, symObjAddr: 0x17770, symBinAddr: 0x100075DE0, symSize: 0xF0 }
  - { offsetInCU: 0x487BD, offset: 0x1ED81E, size: 0x8, addend: 0x0, symName: __ZN7testing11IsSubstringEPKcS1_S1_S1_, symObjAddr: 0x17E80, symBinAddr: 0x1000764F0, symSize: 0x40 }
  - { offsetInCU: 0x4885C, offset: 0x1ED8BD, size: 0x8, addend: 0x0, symName: __ZN7testing11IsSubstringEPKcS1_PKwS3_, symObjAddr: 0x18090, symBinAddr: 0x100076700, symSize: 0x40 }
  - { offsetInCU: 0x488FB, offset: 0x1ED95C, size: 0x8, addend: 0x0, symName: __ZN7testing14IsNotSubstringEPKcS1_S1_S1_, symObjAddr: 0x182A0, symBinAddr: 0x100076910, symSize: 0x40 }
  - { offsetInCU: 0x4899A, offset: 0x1ED9FB, size: 0x8, addend: 0x0, symName: __ZN7testing14IsNotSubstringEPKcS1_PKwS3_, symObjAddr: 0x182E0, symBinAddr: 0x100076950, symSize: 0x40 }
  - { offsetInCU: 0x48A39, offset: 0x1EDA9A, size: 0x8, addend: 0x0, symName: __ZN7testing11IsSubstringEPKcS1_RKNSt3__112basic_stringIcNS2_11char_traitsIcEENS2_9allocatorIcEEEESA_, symObjAddr: 0x18320, symBinAddr: 0x100076990, symSize: 0x30 }
  - { offsetInCU: 0x48ADA, offset: 0x1EDB3B, size: 0x8, addend: 0x0, symName: __ZN7testing14IsNotSubstringEPKcS1_RKNSt3__112basic_stringIcNS2_11char_traitsIcEENS2_9allocatorIcEEEESA_, symObjAddr: 0x185F0, symBinAddr: 0x100076C60, symSize: 0x30 }
  - { offsetInCU: 0x48B7B, offset: 0x1EDBDC, size: 0x8, addend: 0x0, symName: __ZN7testing11IsSubstringEPKcS1_RKNSt3__112basic_stringIwNS2_11char_traitsIwEENS2_9allocatorIwEEEESA_, symObjAddr: 0x18620, symBinAddr: 0x100076C90, symSize: 0x30 }
  - { offsetInCU: 0x48C1C, offset: 0x1EDC7D, size: 0x8, addend: 0x0, symName: __ZN7testing14IsNotSubstringEPKcS1_RKNSt3__112basic_stringIwNS2_11char_traitsIwEENS2_9allocatorIwEEEESA_, symObjAddr: 0x188F0, symBinAddr: 0x100076F60, symSize: 0x30 }
  - { offsetInCU: 0x48CBD, offset: 0x1EDD1E, size: 0x8, addend: 0x0, symName: __ZN7testing13PrintToStringIPKwEENSt3__112basic_stringIcNS3_11char_traitsIcEENS3_9allocatorIcEEEERKT_, symObjAddr: 0x18EE0, symBinAddr: 0x100077550, symSize: 0xF0 }
  - { offsetInCU: 0x4901F, offset: 0x1EE080, size: 0x8, addend: 0x0, symName: __ZN7testingL19FormatCountableNounEiPKcS1_, symObjAddr: 0x1ED80, symBinAddr: 0x10007D3F0, symSize: 0x160 }
  - { offsetInCU: 0x497DD, offset: 0x1EE83E, size: 0x8, addend: 0x0, symName: __ZN7testingL37GetReservedOutputAttributesForElementERKNSt3__112basic_stringIcNS0_11char_traitsIcEENS0_9allocatorIcEEEE, symObjAddr: 0x23FD0, symBinAddr: 0x100082640, symSize: 0x1D0 }
  - { offsetInCU: 0x49E55, offset: 0x1EEEB6, size: 0x8, addend: 0x0, symName: __ZN7testing14InitGoogleTestEPiPPc, symObjAddr: 0x31360, symBinAddr: 0x10008F9D0, symSize: 0x10 }
  - { offsetInCU: 0x49EAE, offset: 0x1EEF0F, size: 0x8, addend: 0x0, symName: __ZN7testing14InitGoogleTestEPiPPw, symObjAddr: 0x31530, symBinAddr: 0x10008FBA0, symSize: 0x10 }
  - { offsetInCU: 0x49F07, offset: 0x1EEF68, size: 0x8, addend: 0x0, symName: __ZN7testing14InitGoogleTestEv, symObjAddr: 0x316E0, symBinAddr: 0x10008FD50, symSize: 0x30 }
  - { offsetInCU: 0x49F83, offset: 0x1EEFE4, size: 0x8, addend: 0x0, symName: __ZN7testing7TempDirEv, symObjAddr: 0x31710, symBinAddr: 0x10008FD80, symSize: 0x70 }
  - { offsetInCU: 0x49FC8, offset: 0x1EF029, size: 0x8, addend: 0x0, symName: __ZN7testingL13GetDirFromEnvESt16initializer_listIPKcES2_c, symObjAddr: 0x31780, symBinAddr: 0x10008FDF0, symSize: 0x2F0 }
  - { offsetInCU: 0x4B431, offset: 0x1F0492, size: 0x8, addend: 0x0, symName: __ZN7testing6SrcDirEv, symObjAddr: 0x31A70, symBinAddr: 0x1000900E0, symSize: 0x2F0 }
  - { offsetInCU: 0x6879A, offset: 0x20D7FB, size: 0x8, addend: 0x0, symName: __ZNSt3__119piecewise_constructE, symObjAddr: 0x48145, symBinAddr: 0x1003B9DE5, symSize: 0x0 }
  - { offsetInCU: 0x7C4A8, offset: 0x221509, size: 0x8, addend: 0x0, symName: '__ZNSt3__113__stable_sortINS_17_ClassicAlgPolicyERZN7testing9TestSuite3RunEvE3$_2NS_11__wrap_iterIPPNS2_8TestInfoEEEEEvT1_SB_T0_NS_15iterator_traitsISB_E15difference_typeEPNSE_10value_typeEl', symObjAddr: 0x3BBC0, symBinAddr: 0x1000995C0, symSize: 0x380 }
  - { offsetInCU: 0x7EC07, offset: 0x223C68, size: 0x8, addend: 0x0, symName: __ZNSt3__1plB8ue170006IcNS_11char_traitsIcEENS_9allocatorIcEEEENS_12basic_stringIT_T0_T1_EEOS9_SA_, symObjAddr: 0x12B0, symBinAddr: 0x10005FBD0, symSize: 0x60 }
  - { offsetInCU: 0x8B4AF, offset: 0x230510, size: 0x8, addend: 0x0, symName: __ZNSt3__135__uninitialized_allocator_copy_implB8ue170006INS_9allocatorINS_12basic_stringIcNS_11char_traitsIcEENS1_IcEEEEEEPKPKcSB_PS6_EET2_RT_T0_T1_SD_, symObjAddr: 0x35ED0, symBinAddr: 0x100093A50, symSize: 0x120 }
  - { offsetInCU: 0x8BF6F, offset: 0x230FD0, size: 0x8, addend: 0x0, symName: __ZNSt3__120__throw_out_of_rangeB8ue170006EPKc, symObjAddr: 0x38B50, symBinAddr: 0x1000966D0, symSize: 0x50 }
  - { offsetInCU: 0x8C090, offset: 0x2310F1, size: 0x8, addend: 0x0, symName: __ZNSt3__135__uninitialized_allocator_copy_implB8ue170006INS_9allocatorINS_12basic_stringIcNS_11char_traitsIcEENS1_IcEEEEEEPS6_S8_S8_EET2_RT_T0_T1_S9_, symObjAddr: 0x392F0, symBinAddr: 0x100096E70, symSize: 0x120 }
  - { offsetInCU: 0x8C731, offset: 0x231792, size: 0x8, addend: 0x0, symName: __ZNSt3__135__uninitialized_allocator_copy_implB8ue170006INS_9allocatorINS_12basic_stringIcNS_11char_traitsIcEENS1_IcEEEEEEPKS6_S9_PS6_EET2_RT_T0_T1_SB_, symObjAddr: 0x394E0, symBinAddr: 0x100097060, symSize: 0x120 }
  - { offsetInCU: 0x8DA59, offset: 0x232ABA, size: 0x8, addend: 0x0, symName: '__ZNSt3__115__inplace_mergeINS_17_ClassicAlgPolicyERZN7testing9TestSuite3RunEvE3$_2NS_11__wrap_iterIPPNS2_8TestInfoEEEEEvT1_SB_SB_OT0_NS_15iterator_traitsISB_E15difference_typeESG_PNSF_10value_typeEl', symObjAddr: 0x3C2C0, symBinAddr: 0x100099CC0, symSize: 0x620 }
  - { offsetInCU: 0x8EEDC, offset: 0x233F3D, size: 0x8, addend: 0x0, symName: '__ZNSt3__118__stable_sort_moveINS_17_ClassicAlgPolicyERZN7testing9TestSuite3RunEvE3$_2NS_11__wrap_iterIPPNS2_8TestInfoEEEEEvT1_SB_T0_NS_15iterator_traitsISB_E15difference_typeEPNSE_10value_typeE', symObjAddr: 0x3BF40, symBinAddr: 0x100099940, symSize: 0x380 }
  - { offsetInCU: 0x90981, offset: 0x2359E2, size: 0x8, addend: 0x0, symName: __ZNSt3__18__rotateB8ue170006INS_17_ClassicAlgPolicyENS_11__wrap_iterIPPN7testing8TestInfoEEES7_EENS_4pairIT0_S9_EES9_S9_T1_, symObjAddr: 0x3C8E0, symBinAddr: 0x10009A2E0, symSize: 0x190 }
  - { offsetInCU: 0x94827, offset: 0x239888, size: 0x8, addend: 0x0, symName: __ZN7testing8UnitTest11GetInstanceEv, symObjAddr: 0xDF00, symBinAddr: 0x10006C800, symSize: 0x80 }
  - { offsetInCU: 0x94847, offset: 0x2398A8, size: 0x8, addend: 0x0, symName: __ZZN7testing8UnitTest11GetInstanceEvE8instance, symObjAddr: 0x56F540, symBinAddr: 0x100432CA8, symSize: 0x0 }
  - { offsetInCU: 0x963FD, offset: 0x23B45E, size: 0x8, addend: 0x0, symName: __ZN7testing9TestSuite3RunEv, symObjAddr: 0x1CEF0, symBinAddr: 0x10007B560, symSize: 0x8B0 }
  - { offsetInCU: 0x99722, offset: 0x23E783, size: 0x8, addend: 0x0, symName: __ZN7testing15AssertionResultC2ERKS0_, symObjAddr: 0x0, symBinAddr: 0x10005EA40, symSize: 0xE0 }
  - { offsetInCU: 0x99C90, offset: 0x23ECF1, size: 0x8, addend: 0x0, symName: __ZN7testing8internal19GetPrefixUntilCommaEPKc, symObjAddr: 0x33920, symBinAddr: 0x100091B80, symSize: 0x110 }
  - { offsetInCU: 0x99C9C, offset: 0x23ECFD, size: 0x8, addend: 0x0, symName: __ZN7testing15AssertionResultC1ERKS0_, symObjAddr: 0xE0, symBinAddr: 0x10005EB20, symSize: 0x10 }
  - { offsetInCU: 0x99D28, offset: 0x23ED89, size: 0x8, addend: 0x0, symName: __ZN7testing15AssertionResult4swapERS0_, symObjAddr: 0xF0, symBinAddr: 0x10005EB30, symSize: 0x20 }
  - { offsetInCU: 0x99FB2, offset: 0x23F013, size: 0x8, addend: 0x0, symName: __ZNK7testing15AssertionResultntEv, symObjAddr: 0x110, symBinAddr: 0x10005EB50, symSize: 0x50 }
  - { offsetInCU: 0x9AC7E, offset: 0x23FCDF, size: 0x8, addend: 0x0, symName: __ZN7testing15AssertionResultlsINS_7MessageEEERS0_RKT_, symObjAddr: 0x340, symBinAddr: 0x10005EC60, symSize: 0x100 }
  - { offsetInCU: 0x9B4CF, offset: 0x240530, size: 0x8, addend: 0x0, symName: __ZNSt3__112basic_stringIcNS_11char_traitsIcEENS_9allocatorIcEEEC1B8ue170006ILi0EEEPKc, symObjAddr: 0x4A0, symBinAddr: 0x10005EDC0, symSize: 0x90 }
  - { offsetInCU: 0x9B9CB, offset: 0x240A2C, size: 0x8, addend: 0x0, symName: __ZN7testing14ExitedWithCodeC2Ei, symObjAddr: 0x620, symBinAddr: 0x10005EF40, symSize: 0x10 }
  - { offsetInCU: 0x9BA21, offset: 0x240A82, size: 0x8, addend: 0x0, symName: __ZN7testing14ExitedWithCodeC1Ei, symObjAddr: 0x630, symBinAddr: 0x10005EF50, symSize: 0x10 }
  - { offsetInCU: 0x9BA80, offset: 0x240AE1, size: 0x8, addend: 0x0, symName: __ZNK7testing14ExitedWithCodeclEi, symObjAddr: 0x640, symBinAddr: 0x10005EF60, symSize: 0x20 }
  - { offsetInCU: 0x9BAB8, offset: 0x240B19, size: 0x8, addend: 0x0, symName: __ZN7testing14KilledBySignalC2Ei, symObjAddr: 0x660, symBinAddr: 0x10005EF80, symSize: 0x10 }
  - { offsetInCU: 0x9BB0E, offset: 0x240B6F, size: 0x8, addend: 0x0, symName: __ZN7testing14KilledBySignalC1Ei, symObjAddr: 0x670, symBinAddr: 0x10005EF90, symSize: 0x10 }
  - { offsetInCU: 0x9BB6D, offset: 0x240BCE, size: 0x8, addend: 0x0, symName: __ZNK7testing14KilledBySignalclEi, symObjAddr: 0x680, symBinAddr: 0x10005EFA0, symSize: 0x20 }
  - { offsetInCU: 0x9BBFA, offset: 0x240C5B, size: 0x8, addend: 0x0, symName: __ZN7testing8internal9DeathTestC2Ev, symObjAddr: 0x760, symBinAddr: 0x10005F080, symSize: 0x70 }
  - { offsetInCU: 0x9BE59, offset: 0x240EBA, size: 0x8, addend: 0x0, symName: __ZN7testing8internal5MutexC2Ev, symObjAddr: 0x35CE0, symBinAddr: 0x100093860, symSize: 0xA0 }
  - { offsetInCU: 0x9C004, offset: 0x241065, size: 0x8, addend: 0x0, symName: __ZN7testing8internal12UnitTestImplC2EPNS_8UnitTestE, symObjAddr: 0x2E470, symBinAddr: 0x10008CAE0, symSize: 0x460 }
  - { offsetInCU: 0x9D6CD, offset: 0x24272E, size: 0x8, addend: 0x0, symName: __ZN7testing8internal5MutexD2Ev, symObjAddr: 0x35D80, symBinAddr: 0x100093900, symSize: 0x80 }
  - { offsetInCU: 0x9DA25, offset: 0x242A86, size: 0x8, addend: 0x0, symName: __ZN7testing8internal9DeathTest6CreateEPKcNS_7MatcherIRKNSt3__112basic_stringIcNS5_11char_traitsIcEENS5_9allocatorIcEEEEEES3_iPPS1_, symObjAddr: 0x940, symBinAddr: 0x10005F260, symSize: 0xE0 }
  - { offsetInCU: 0x9DCB5, offset: 0x242D16, size: 0x8, addend: 0x0, symName: __ZN7testing7MatcherIRKNSt3__112basic_stringIcNS1_11char_traitsIcEENS1_9allocatorIcEEEEED1Ev, symObjAddr: 0xA20, symBinAddr: 0x10005F340, symSize: 0x40 }
  - { offsetInCU: 0x9DDCD, offset: 0x242E2E, size: 0x8, addend: 0x0, symName: __ZN7testing8internal9DeathTest11LastMessageEv, symObjAddr: 0xA60, symBinAddr: 0x10005F380, symSize: 0x20 }
  - { offsetInCU: 0x9DE40, offset: 0x242EA1, size: 0x8, addend: 0x0, symName: __ZN7testing8internal9DeathTest27set_last_death_test_messageERKNSt3__112basic_stringIcNS2_11char_traitsIcEENS2_9allocatorIcEEEE, symObjAddr: 0xA80, symBinAddr: 0x10005F3A0, symSize: 0x20 }
  - { offsetInCU: 0x9DFF9, offset: 0x24305A, size: 0x8, addend: 0x0, symName: __ZN7testing8internal13DeathTestImpl26ReadAndInterpretStatusByteEv, symObjAddr: 0xAA0, symBinAddr: 0x10005F3C0, symSize: 0x7F0 }
  - { offsetInCU: 0x9F9F4, offset: 0x244A55, size: 0x8, addend: 0x0, symName: __ZN7testing8internal8GTestLogC2ENS0_16GTestLogSeverityEPKci, symObjAddr: 0xA470, symBinAddr: 0x100068D80, symSize: 0x160 }
  - { offsetInCU: 0x9FF6F, offset: 0x244FD0, size: 0x8, addend: 0x0, symName: __ZN7testing8internal8GTestLogD2Ev, symObjAddr: 0xA5D0, symBinAddr: 0x100068EE0, symSize: 0xB0 }
  - { offsetInCU: 0xA007D, offset: 0x2450DE, size: 0x8, addend: 0x0, symName: __ZN7testing8internal8GTestLogC1ENS0_16GTestLogSeverityEPKci, symObjAddr: 0x1290, symBinAddr: 0x10005FBB0, symSize: 0x10 }
  - { offsetInCU: 0xA00E5, offset: 0x245146, size: 0x8, addend: 0x0, symName: __ZN7testing8internal8GTestLogD1Ev, symObjAddr: 0x12A0, symBinAddr: 0x10005FBC0, symSize: 0x10 }
  - { offsetInCU: 0xA01C0, offset: 0x245221, size: 0x8, addend: 0x0, symName: __ZN7testing8internal13DeathTestImpl12GetErrorLogsEv, symObjAddr: 0x13A0, symBinAddr: 0x10005FCC0, symSize: 0x70 }
  - { offsetInCU: 0xA045D, offset: 0x2454BE, size: 0x8, addend: 0x0, symName: __ZN7testing8internal14CapturedStream17GetCapturedStringEv, symObjAddr: 0x33470, symBinAddr: 0x1000919B0, symSize: 0x110 }
  - { offsetInCU: 0xA080B, offset: 0x24586C, size: 0x8, addend: 0x0, symName: __ZN7testing8internal13DeathTestImpl5AbortENS0_9DeathTest11AbortReasonE, symObjAddr: 0x1480, symBinAddr: 0x10005FDA0, symSize: 0x3B0 }
  - { offsetInCU: 0xA1F59, offset: 0x246FBA, size: 0x8, addend: 0x0, symName: __ZN7testing8internal13DeathTestImpl6PassedEb, symObjAddr: 0x1830, symBinAddr: 0x100060150, symSize: 0x8B0 }
  - { offsetInCU: 0xA45A3, offset: 0x249604, size: 0x8, addend: 0x0, symName: __ZNSt3__119basic_ostringstreamIcNS_11char_traitsIcEENS_9allocatorIcEEED1Ev, symObjAddr: 0x24A0, symBinAddr: 0x100060DC0, symSize: 0x80 }
  - { offsetInCU: 0xA4758, offset: 0x2497B9, size: 0x8, addend: 0x0, symName: __ZN7testing7MessageC1Ev, symObjAddr: 0x20E0, symBinAddr: 0x100060A00, symSize: 0x50 }
  - { offsetInCU: 0xA49CF, offset: 0x249A30, size: 0x8, addend: 0x0, symName: __ZNKSt3__112basic_stringIcNS_11char_traitsIcEENS_9allocatorIcEEE20__throw_out_of_rangeB8ue170006Ev, symObjAddr: 0x38B40, symBinAddr: 0x1000966C0, symSize: 0x10 }
  - { offsetInCU: 0xA49F8, offset: 0x249A59, size: 0x8, addend: 0x0, symName: __ZNSt3__120__throw_out_of_rangeB8ue170006EPKc, symObjAddr: 0x38B50, symBinAddr: 0x1000966D0, symSize: 0x50 }
  - { offsetInCU: 0xA4A04, offset: 0x249A65, size: 0x8, addend: 0x0, symName: __ZNK7testing8internal11MatcherBaseIRKNSt3__112basic_stringIcNS2_11char_traitsIcEENS2_9allocatorIcEEEEE10DescribeToEPNS2_13basic_ostreamIcS5_EE, symObjAddr: 0x2410, symBinAddr: 0x100060D30, symSize: 0x90 }
  - { offsetInCU: 0xA4B5B, offset: 0x249BBC, size: 0x8, addend: 0x0, symName: __ZNK7testing7Message9GetStringEv, symObjAddr: 0x2520, symBinAddr: 0x100060E40, symSize: 0x20 }
  - { offsetInCU: 0xA4C2C, offset: 0x249C8D, size: 0x8, addend: 0x0, symName: __ZN7testing8internal16ForkingDeathTestC2EPKcNS_7MatcherIRKNSt3__112basic_stringIcNS5_11char_traitsIcEENS5_9allocatorIcEEEEEE, symObjAddr: 0x2540, symBinAddr: 0x100060E60, symSize: 0x110 }
  - { offsetInCU: 0xA4FD2, offset: 0x24A033, size: 0x8, addend: 0x0, symName: __ZN7testing8internal16ForkingDeathTest4WaitEv, symObjAddr: 0x2650, symBinAddr: 0x100060F70, symSize: 0x320 }
  - { offsetInCU: 0xA60CC, offset: 0x24B12D, size: 0x8, addend: 0x0, symName: __ZN7testing8internal15NoExecDeathTest10AssumeRoleEv, symObjAddr: 0x2970, symBinAddr: 0x100061290, symSize: 0xB10 }
  - { offsetInCU: 0xA7C51, offset: 0x24CCB2, size: 0x8, addend: 0x0, symName: __ZN7testing18TestEventListeners23SuppressEventForwardingEb, symObjAddr: 0x3500, symBinAddr: 0x100061E20, symSize: 0x20 }
  - { offsetInCU: 0xA853A, offset: 0x24D59B, size: 0x8, addend: 0x0, symName: __ZN7testing8internal13ExecDeathTest10AssumeRoleEv, symObjAddr: 0x3520, symBinAddr: 0x100061E40, symSize: 0x1B60 }
  - { offsetInCU: 0xB05DE, offset: 0x25563F, size: 0x8, addend: 0x0, symName: __ZNSt3__16vectorINS_12basic_stringIcNS_11char_traitsIcEENS_9allocatorIcEEEENS4_IS6_EEEC2ERKS8_, symObjAddr: 0x39220, symBinAddr: 0x100096DA0, symSize: 0xD0 }
  - { offsetInCU: 0xB08B4, offset: 0x255915, size: 0x8, addend: 0x0, symName: __ZNSt3__16vectorINS_12basic_stringIcNS_11char_traitsIcEENS_9allocatorIcEEEENS4_IS6_EEE21__push_back_slow_pathIRKS6_EEvOT_, symObjAddr: 0x38BF0, symBinAddr: 0x100096770, symSize: 0x260 }
  - { offsetInCU: 0xB144F, offset: 0x2564B0, size: 0x8, addend: 0x0, symName: __ZNKSt3__16vectorIPcNS_9allocatorIS1_EEE20__throw_length_errorB8ue170006Ev, symObjAddr: 0x328E0, symBinAddr: 0x100090EE0, symSize: 0x10 }
  - { offsetInCU: 0xB1484, offset: 0x2564E5, size: 0x8, addend: 0x0, symName: __ZNSt3__16vectorINS_12basic_stringIcNS_11char_traitsIcEENS_9allocatorIcEEEENS4_IS6_EEED1B8ue170006Ev, symObjAddr: 0x5080, symBinAddr: 0x1000639A0, symSize: 0x70 }
  - { offsetInCU: 0xB17D7, offset: 0x256838, size: 0x8, addend: 0x0, symName: __ZN7testing8internal23DefaultDeathTestFactory6CreateEPKcNS_7MatcherIRKNSt3__112basic_stringIcNS5_11char_traitsIcEENS5_9allocatorIcEEEEEES3_iPPNS0_9DeathTestE, symObjAddr: 0x50F0, symBinAddr: 0x100063A10, symSize: 0x770 }
  - { offsetInCU: 0xB376D, offset: 0x2587CE, size: 0x8, addend: 0x0, symName: __ZN7testing8internal15NoExecDeathTestC1EPKcNS_7MatcherIRKNSt3__112basic_stringIcNS5_11char_traitsIcEENS5_9allocatorIcEEEEEE, symObjAddr: 0x5950, symBinAddr: 0x100064270, symSize: 0xD0 }
  - { offsetInCU: 0xB3AC0, offset: 0x258B21, size: 0x8, addend: 0x0, symName: __ZN7testing8internal13ExecDeathTestC1EPKcNS_7MatcherIRKNSt3__112basic_stringIcNS5_11char_traitsIcEENS5_9allocatorIcEEEEEES3_i, symObjAddr: 0x5860, symBinAddr: 0x100064180, symSize: 0xF0 }
  - { offsetInCU: 0xB40AB, offset: 0x25910C, size: 0x8, addend: 0x0, symName: __ZNSt3__16vectorINS_12basic_stringIcNS_11char_traitsIcEENS_9allocatorIcEEEENS4_IS6_EEE21__push_back_slow_pathIS6_EEvOT_, symObjAddr: 0x39DC0, symBinAddr: 0x100097940, symSize: 0x180 }
  - { offsetInCU: 0xB48B9, offset: 0x25991A, size: 0x8, addend: 0x0, symName: __ZN7testing8internal8FilePath13GetCurrentDirEv, symObjAddr: 0x60A0, symBinAddr: 0x1000649C0, symSize: 0x150 }
  - { offsetInCU: 0xB503A, offset: 0x25A09B, size: 0x8, addend: 0x0, symName: __ZN7testing8internal8FilePathC2ENSt3__112basic_stringIcNS2_11char_traitsIcEENS2_9allocatorIcEEEE, symObjAddr: 0x331B0, symBinAddr: 0x1000916F0, symSize: 0x110 }
  - { offsetInCU: 0xB572C, offset: 0x25A78D, size: 0x8, addend: 0x0, symName: __ZNK7testing8internal8FilePath15RemoveExtensionEPKc, symObjAddr: 0x61F0, symBinAddr: 0x100064B10, symSize: 0x270 }
  - { offsetInCU: 0xB6972, offset: 0x25B9D3, size: 0x8, addend: 0x0, symName: __ZN7testing8internal6String23EndsWithCaseInsensitiveERKNSt3__112basic_stringIcNS2_11char_traitsIcEENS2_9allocatorIcEEEESA_, symObjAddr: 0x6460, symBinAddr: 0x100064D80, symSize: 0x80 }
  - { offsetInCU: 0xB6B6E, offset: 0x25BBCF, size: 0x8, addend: 0x0, symName: __ZNK7testing8internal8FilePath21FindLastPathSeparatorEv, symObjAddr: 0x64E0, symBinAddr: 0x100064E00, symSize: 0x20 }
  - { offsetInCU: 0xB6CE4, offset: 0x25BD45, size: 0x8, addend: 0x0, symName: __ZNK7testing8internal8FilePath19CalculateRootLengthEv, symObjAddr: 0x6500, symBinAddr: 0x100064E20, symSize: 0x70 }
  - { offsetInCU: 0xB6F6D, offset: 0x25BFCE, size: 0x8, addend: 0x0, symName: __ZNK7testing8internal8FilePath19RemoveDirectoryNameEv, symObjAddr: 0x6570, symBinAddr: 0x100064E90, symSize: 0x190 }
  - { offsetInCU: 0xB7B1A, offset: 0x25CB7B, size: 0x8, addend: 0x0, symName: __ZNK7testing8internal8FilePath19RemoveDirectoryNameEv.cold.1, symObjAddr: 0x3E9C0, symBinAddr: 0x100375120, symSize: 0x20 }
  - { offsetInCU: 0xB7D02, offset: 0x25CD63, size: 0x8, addend: 0x0, symName: __ZNK7testing8internal8FilePath14RemoveFileNameEv, symObjAddr: 0x6700, symBinAddr: 0x100065020, symSize: 0x250 }
  - { offsetInCU: 0xB8FE8, offset: 0x25E049, size: 0x8, addend: 0x0, symName: __ZN7testing8internal8FilePath12MakeFileNameERKS1_S3_iPKc, symObjAddr: 0x6950, symBinAddr: 0x100065270, symSize: 0x5D0 }
  - { offsetInCU: 0xBB203, offset: 0x260264, size: 0x8, addend: 0x0, symName: __ZN7testing8internal8FilePath11ConcatPathsERKS1_S3_, symObjAddr: 0x6F20, symBinAddr: 0x100065840, symSize: 0x290 }
  - { offsetInCU: 0xBC4DF, offset: 0x261540, size: 0x8, addend: 0x0, symName: __ZNK7testing8internal8FilePath27RemoveTrailingPathSeparatorEv, symObjAddr: 0x71B0, symBinAddr: 0x100065AD0, symSize: 0x1E0 }
  - { offsetInCU: 0xBD173, offset: 0x2621D4, size: 0x8, addend: 0x0, symName: __ZNK7testing8internal8FilePath27RemoveTrailingPathSeparatorEv.cold.1, symObjAddr: 0x3E9E0, symBinAddr: 0x100375140, symSize: 0x20 }
  - { offsetInCU: 0xBD28C, offset: 0x2622ED, size: 0x8, addend: 0x0, symName: __ZNK7testing8internal8FilePath21FileOrDirectoryExistsEv, symObjAddr: 0x7390, symBinAddr: 0x100065CB0, symSize: 0x60 }
  - { offsetInCU: 0xBD3DC, offset: 0x26243D, size: 0x8, addend: 0x0, symName: __ZNK7testing8internal8FilePath15DirectoryExistsEv, symObjAddr: 0x73F0, symBinAddr: 0x100065D10, symSize: 0x80 }
  - { offsetInCU: 0xBD57C, offset: 0x2625DD, size: 0x8, addend: 0x0, symName: __ZNK7testing8internal8FilePath15IsRootDirectoryEv, symObjAddr: 0x7470, symBinAddr: 0x100065D90, symSize: 0xA0 }
  - { offsetInCU: 0xBD8F7, offset: 0x262958, size: 0x8, addend: 0x0, symName: __ZNK7testing8internal8FilePath14IsAbsolutePathEv, symObjAddr: 0x7510, symBinAddr: 0x100065E30, symSize: 0x70 }
  - { offsetInCU: 0xBDBE2, offset: 0x262C43, size: 0x8, addend: 0x0, symName: __ZN7testing8internal8FilePath22GenerateUniqueFileNameERKS1_S3_PKc, symObjAddr: 0x7580, symBinAddr: 0x100065EA0, symSize: 0x130 }
  - { offsetInCU: 0xBE2A6, offset: 0x263307, size: 0x8, addend: 0x0, symName: __ZNK7testing8internal8FilePath11IsDirectoryEv, symObjAddr: 0x76B0, symBinAddr: 0x100065FD0, symSize: 0x50 }
  - { offsetInCU: 0xBE4C1, offset: 0x263522, size: 0x8, addend: 0x0, symName: __ZNK7testing8internal8FilePath28CreateDirectoriesRecursivelyEv, symObjAddr: 0x7700, symBinAddr: 0x100066020, symSize: 0x210 }
  - { offsetInCU: 0xBEFAE, offset: 0x26400F, size: 0x8, addend: 0x0, symName: __ZNK7testing8internal8FilePath12CreateFolderEv, symObjAddr: 0x7910, symBinAddr: 0x100066230, symSize: 0xA0 }
  - { offsetInCU: 0xBF2BC, offset: 0x26431D, size: 0x8, addend: 0x0, symName: __ZN7testing8internal8FilePath9NormalizeEv, symObjAddr: 0x79B0, symBinAddr: 0x1000662D0, symSize: 0xD0 }
  - { offsetInCU: 0xBFB1B, offset: 0x264B7C, size: 0x8, addend: 0x0, symName: __ZN7testing7MatcherIRKNSt3__112basic_stringIcNS1_11char_traitsIcEENS1_9allocatorIcEEEEEC2ES9_, symObjAddr: 0x7A80, symBinAddr: 0x1000663A0, symSize: 0x280 }
  - { offsetInCU: 0xC0FB1, offset: 0x266012, size: 0x8, addend: 0x0, symName: __ZN7testing8internal11MatcherBaseIRKNSt3__112basic_stringIcNS2_11char_traitsIcEENS2_9allocatorIcEEEEED2Ev, symObjAddr: 0x7D00, symBinAddr: 0x100066620, symSize: 0x40 }
  - { offsetInCU: 0xC1097, offset: 0x2660F8, size: 0x8, addend: 0x0, symName: __ZN7testing7MatcherIRKNSt3__112basic_stringIcNS1_11char_traitsIcEENS1_9allocatorIcEEEEEC1ES9_, symObjAddr: 0x7D40, symBinAddr: 0x100066660, symSize: 0x10 }
  - { offsetInCU: 0xC10EF, offset: 0x266150, size: 0x8, addend: 0x0, symName: __ZN7testing7MatcherIRKNSt3__112basic_stringIcNS1_11char_traitsIcEENS1_9allocatorIcEEEEEC2EPKc, symObjAddr: 0x7D50, symBinAddr: 0x100066670, symSize: 0x290 }
  - { offsetInCU: 0xC25C4, offset: 0x267625, size: 0x8, addend: 0x0, symName: __ZN7testing7MatcherIRKNSt3__112basic_stringIcNS1_11char_traitsIcEENS1_9allocatorIcEEEEEC1EPKc, symObjAddr: 0x7FE0, symBinAddr: 0x100066900, symSize: 0x10 }
  - { offsetInCU: 0xC2807, offset: 0x267868, size: 0x8, addend: 0x0, symName: __ZN7testing7MatcherINSt3__112basic_stringIcNS1_11char_traitsIcEENS1_9allocatorIcEEEEEC2ERKS7_, symObjAddr: 0x7FF0, symBinAddr: 0x100066910, symSize: 0x280 }
  - { offsetInCU: 0xC3C9D, offset: 0x268CFE, size: 0x8, addend: 0x0, symName: __ZN7testing7MatcherINSt3__112basic_stringIcNS1_11char_traitsIcEENS1_9allocatorIcEEEEED1Ev, symObjAddr: 0x8270, symBinAddr: 0x100066B90, symSize: 0x40 }
  - { offsetInCU: 0xC3DB5, offset: 0x268E16, size: 0x8, addend: 0x0, symName: __ZN7testing8internal11MatcherBaseINSt3__112basic_stringIcNS2_11char_traitsIcEENS2_9allocatorIcEEEEED2Ev, symObjAddr: 0x82B0, symBinAddr: 0x100066BD0, symSize: 0x40 }
  - { offsetInCU: 0xC3E9B, offset: 0x268EFC, size: 0x8, addend: 0x0, symName: __ZN7testing7MatcherINSt3__112basic_stringIcNS1_11char_traitsIcEENS1_9allocatorIcEEEEEC1ERKS7_, symObjAddr: 0x82F0, symBinAddr: 0x100066C10, symSize: 0x10 }
  - { offsetInCU: 0xC3EF3, offset: 0x268F54, size: 0x8, addend: 0x0, symName: __ZN7testing7MatcherINSt3__112basic_stringIcNS1_11char_traitsIcEENS1_9allocatorIcEEEEEC2EPKc, symObjAddr: 0x8300, symBinAddr: 0x100066C20, symSize: 0x290 }
  - { offsetInCU: 0xC53C8, offset: 0x26A429, size: 0x8, addend: 0x0, symName: __ZN7testing7MatcherINSt3__112basic_stringIcNS1_11char_traitsIcEENS1_9allocatorIcEEEEEC1EPKc, symObjAddr: 0x8590, symBinAddr: 0x100066EB0, symSize: 0x10 }
  - { offsetInCU: 0xC560B, offset: 0x26A66C, size: 0x8, addend: 0x0, symName: __ZN7testing7MatcherIRKNSt3__117basic_string_viewIcNS1_11char_traitsIcEEEEEC2ERKNS1_12basic_stringIcS4_NS1_9allocatorIcEEEE, symObjAddr: 0x85A0, symBinAddr: 0x100066EC0, symSize: 0x280 }
  - { offsetInCU: 0xC6AA1, offset: 0x26BB02, size: 0x8, addend: 0x0, symName: __ZN7testing7MatcherIRKNSt3__117basic_string_viewIcNS1_11char_traitsIcEEEEED1Ev, symObjAddr: 0x8820, symBinAddr: 0x100067140, symSize: 0x40 }
  - { offsetInCU: 0xC6BB9, offset: 0x26BC1A, size: 0x8, addend: 0x0, symName: __ZN7testing8internal11MatcherBaseIRKNSt3__117basic_string_viewIcNS2_11char_traitsIcEEEEED2Ev, symObjAddr: 0x8860, symBinAddr: 0x100067180, symSize: 0x40 }
  - { offsetInCU: 0xC6C9F, offset: 0x26BD00, size: 0x8, addend: 0x0, symName: __ZN7testing7MatcherIRKNSt3__117basic_string_viewIcNS1_11char_traitsIcEEEEEC1ERKNS1_12basic_stringIcS4_NS1_9allocatorIcEEEE, symObjAddr: 0x88A0, symBinAddr: 0x1000671C0, symSize: 0x10 }
  - { offsetInCU: 0xC6CF7, offset: 0x26BD58, size: 0x8, addend: 0x0, symName: __ZN7testing7MatcherIRKNSt3__117basic_string_viewIcNS1_11char_traitsIcEEEEEC2EPKc, symObjAddr: 0x88B0, symBinAddr: 0x1000671D0, symSize: 0x290 }
  - { offsetInCU: 0xC81CC, offset: 0x26D22D, size: 0x8, addend: 0x0, symName: __ZN7testing7MatcherIRKNSt3__117basic_string_viewIcNS1_11char_traitsIcEEEEEC1EPKc, symObjAddr: 0x8B40, symBinAddr: 0x100067460, symSize: 0x10 }
  - { offsetInCU: 0xC829E, offset: 0x26D2FF, size: 0x8, addend: 0x0, symName: __ZN7testing7MatcherIRKNSt3__117basic_string_viewIcNS1_11char_traitsIcEEEEEC2ES5_, symObjAddr: 0x8B50, symBinAddr: 0x100067470, symSize: 0x270 }
  - { offsetInCU: 0xC9700, offset: 0x26E761, size: 0x8, addend: 0x0, symName: __ZN7testing7MatcherIRKNSt3__117basic_string_viewIcNS1_11char_traitsIcEEEEEC1ES5_, symObjAddr: 0x8DC0, symBinAddr: 0x1000676E0, symSize: 0x10 }
  - { offsetInCU: 0xC994D, offset: 0x26E9AE, size: 0x8, addend: 0x0, symName: __ZN7testing7MatcherINSt3__117basic_string_viewIcNS1_11char_traitsIcEEEEEC2ERKNS1_12basic_stringIcS4_NS1_9allocatorIcEEEE, symObjAddr: 0x8DD0, symBinAddr: 0x1000676F0, symSize: 0x280 }
  - { offsetInCU: 0xCADE3, offset: 0x26FE44, size: 0x8, addend: 0x0, symName: __ZN7testing7MatcherINSt3__117basic_string_viewIcNS1_11char_traitsIcEEEEED1Ev, symObjAddr: 0x9050, symBinAddr: 0x100067970, symSize: 0x40 }
  - { offsetInCU: 0xCAEFB, offset: 0x26FF5C, size: 0x8, addend: 0x0, symName: __ZN7testing8internal11MatcherBaseINSt3__117basic_string_viewIcNS2_11char_traitsIcEEEEED2Ev, symObjAddr: 0x9090, symBinAddr: 0x1000679B0, symSize: 0x40 }
  - { offsetInCU: 0xCAFE1, offset: 0x270042, size: 0x8, addend: 0x0, symName: __ZN7testing7MatcherINSt3__117basic_string_viewIcNS1_11char_traitsIcEEEEEC1ERKNS1_12basic_stringIcS4_NS1_9allocatorIcEEEE, symObjAddr: 0x90D0, symBinAddr: 0x1000679F0, symSize: 0x10 }
  - { offsetInCU: 0xCB039, offset: 0x27009A, size: 0x8, addend: 0x0, symName: __ZN7testing7MatcherINSt3__117basic_string_viewIcNS1_11char_traitsIcEEEEEC2EPKc, symObjAddr: 0x90E0, symBinAddr: 0x100067A00, symSize: 0x290 }
  - { offsetInCU: 0xCC50E, offset: 0x27156F, size: 0x8, addend: 0x0, symName: __ZN7testing7MatcherINSt3__117basic_string_viewIcNS1_11char_traitsIcEEEEEC1EPKc, symObjAddr: 0x9370, symBinAddr: 0x100067C90, symSize: 0x10 }
  - { offsetInCU: 0xCC566, offset: 0x2715C7, size: 0x8, addend: 0x0, symName: __ZN7testing7MatcherINSt3__117basic_string_viewIcNS1_11char_traitsIcEEEEEC2ES5_, symObjAddr: 0x9380, symBinAddr: 0x100067CA0, symSize: 0x270 }
  - { offsetInCU: 0xCD9C8, offset: 0x272A29, size: 0x8, addend: 0x0, symName: __ZN7testing7MatcherINSt3__117basic_string_viewIcNS1_11char_traitsIcEEEEEC1ES5_, symObjAddr: 0x95F0, symBinAddr: 0x100067F10, symSize: 0x10 }
  - { offsetInCU: 0xCDA89, offset: 0x272AEA, size: 0x8, addend: 0x0, symName: __ZN7testing8internal2RED2Ev, symObjAddr: 0x9600, symBinAddr: 0x100067F20, symSize: 0x50 }
  - { offsetInCU: 0xCDC32, offset: 0x272C93, size: 0x8, addend: 0x0, symName: __ZN7testing8internal2RED1Ev, symObjAddr: 0x9660, symBinAddr: 0x100067F70, symSize: 0x50 }
  - { offsetInCU: 0xCDDCB, offset: 0x272E2C, size: 0x8, addend: 0x0, symName: __ZN7testing8internal2RE9FullMatchEPKcRKS1_, symObjAddr: 0x96B0, symBinAddr: 0x100067FC0, symSize: 0x40 }
  - { offsetInCU: 0xCDE9F, offset: 0x272F00, size: 0x8, addend: 0x0, symName: __ZN7testing8internal2RE12PartialMatchEPKcRKS1_, symObjAddr: 0x96F0, symBinAddr: 0x100068000, symSize: 0x40 }
  - { offsetInCU: 0xCE0B8, offset: 0x273119, size: 0x8, addend: 0x0, symName: __ZN7testing8internal2RE4InitEPKc, symObjAddr: 0x9730, symBinAddr: 0x100068040, symSize: 0x260 }
  - { offsetInCU: 0xCEEDD, offset: 0x273F3E, size: 0x8, addend: 0x0, symName: __ZN7testing8internal12AssertHelperC2ENS_14TestPartResult4TypeEPKciS5_, symObjAddr: 0xDDE0, symBinAddr: 0x10006C6E0, symSize: 0xE0 }
  - { offsetInCU: 0xCF3E5, offset: 0x274446, size: 0x8, addend: 0x0, symName: __ZNK7testing8internal12AssertHelperaSERKNS_7MessageE, symObjAddr: 0x9B60, symBinAddr: 0x100068470, symSize: 0x1C0 }
  - { offsetInCU: 0xCFA65, offset: 0x274AC6, size: 0x8, addend: 0x0, symName: __ZN7testing8internal12AssertHelperD1Ev, symObjAddr: 0x9D20, symBinAddr: 0x100068630, symSize: 0x40 }
  - { offsetInCU: 0xCFCA7, offset: 0x274D08, size: 0x8, addend: 0x0, symName: __ZN7testing8internal12AssertHelperC1ENS_14TestPartResult4TypeEPKciS5_, symObjAddr: 0x9B50, symBinAddr: 0x100068460, symSize: 0x10 }
  - { offsetInCU: 0xCFD1F, offset: 0x274D80, size: 0x8, addend: 0x0, symName: __ZN7testing8internal12UnitTestImpl28CurrentOsStackTraceExceptTopEi, symObjAddr: 0xE6C0, symBinAddr: 0x10006CFC0, symSize: 0x70 }
  - { offsetInCU: 0xCFDD4, offset: 0x274E35, size: 0x8, addend: 0x0, symName: __ZN7testing8UnitTest17AddTestPartResultENS_14TestPartResult4TypeEPKciRKNSt3__112basic_stringIcNS5_11char_traitsIcEENS5_9allocatorIcEEEESD_, symObjAddr: 0xDF80, symBinAddr: 0x10006C880, symSize: 0x480 }
  - { offsetInCU: 0xD116D, offset: 0x2761CE, size: 0x8, addend: 0x0, symName: __ZN7testing8UnitTestC1Ev, symObjAddr: 0x2CB00, symBinAddr: 0x10008B170, symSize: 0x70 }
  - { offsetInCU: 0xD12F2, offset: 0x276353, size: 0x8, addend: 0x0, symName: __ZN7testing8internal14CapturedStreamC2Ei, symObjAddr: 0x332C0, symBinAddr: 0x100091800, symSize: 0x1B0 }
  - { offsetInCU: 0xD1C9D, offset: 0x276CFE, size: 0x8, addend: 0x0, symName: __ZNSt3__16vectorINS_12basic_stringIcNS_11char_traitsIcEENS_9allocatorIcEEEENS4_IS6_EEEC2INS_11__wrap_iterIPKS6_EELi0EEET_SE_, symObjAddr: 0x39410, symBinAddr: 0x100096F90, symSize: 0xD0 }
  - { offsetInCU: 0xD2237, offset: 0x277298, size: 0x8, addend: 0x0, symName: __ZN7testing8internal6String15FormatHexUInt32Ej, symObjAddr: 0x18B10, symBinAddr: 0x100077180, symSize: 0x120 }
  - { offsetInCU: 0xD2B42, offset: 0x277BA3, size: 0x8, addend: 0x0, symName: __ZN7testing14TestPartResult14ExtractSummaryEPKc, symObjAddr: 0xCBE0, symBinAddr: 0x10006B4E0, symSize: 0x110 }
  - { offsetInCU: 0xD347B, offset: 0x2784DC, size: 0x8, addend: 0x0, symName: __ZN7testing19TestPartResultArray6AppendERKNS_14TestPartResultE, symObjAddr: 0xCEA0, symBinAddr: 0x10006B7A0, symSize: 0x50 }
  - { offsetInCU: 0xD3605, offset: 0x278666, size: 0x8, addend: 0x0, symName: __ZN7testing14TestPartResultC2ERKS0_, symObjAddr: 0x39AE0, symBinAddr: 0x100097660, symSize: 0x230 }
  - { offsetInCU: 0xD44C0, offset: 0x279521, size: 0x8, addend: 0x0, symName: __ZNSt3__16vectorIN7testing14TestPartResultENS_9allocatorIS2_EEE21__push_back_slow_pathIRKS2_EEvOT_, symObjAddr: 0x398A0, symBinAddr: 0x100097420, symSize: 0x240 }
  - { offsetInCU: 0xD50BF, offset: 0x27A120, size: 0x8, addend: 0x0, symName: __ZNK7testing19TestPartResultArray17GetTestPartResultEi, symObjAddr: 0xCEF0, symBinAddr: 0x10006B7F0, symSize: 0x40 }
  - { offsetInCU: 0xD515C, offset: 0x27A1BD, size: 0x8, addend: 0x0, symName: __ZNK7testing19TestPartResultArray4sizeEv, symObjAddr: 0xCF30, symBinAddr: 0x10006B830, symSize: 0x20 }
  - { offsetInCU: 0xD5260, offset: 0x27A2C1, size: 0x8, addend: 0x0, symName: __ZN7testing8internal24HasNewFatalFailureHelperC2Ev, symObjAddr: 0xCF50, symBinAddr: 0x10006B850, symSize: 0x50 }
  - { offsetInCU: 0xD5381, offset: 0x27A3E2, size: 0x8, addend: 0x0, symName: __ZNK7testing8internal11ThreadLocalIPNS_31TestPartResultReporterInterfaceEE16GetOrCreateValueEv, symObjAddr: 0x3ACB0, symBinAddr: 0x1000986C0, symSize: 0x120 }
  - { offsetInCU: 0xD55F3, offset: 0x27A654, size: 0x8, addend: 0x0, symName: __ZN7testing8internal12UnitTestImpl41GetTestPartResultReporterForCurrentThreadEv, symObjAddr: 0xCFA0, symBinAddr: 0x10006B8A0, symSize: 0x20 }
  - { offsetInCU: 0xD5662, offset: 0x27A6C3, size: 0x8, addend: 0x0, symName: __ZN7testing8internal12UnitTestImpl41SetTestPartResultReporterForCurrentThreadEPNS_31TestPartResultReporterInterfaceE, symObjAddr: 0xCFC0, symBinAddr: 0x10006B8C0, symSize: 0x20 }
  - { offsetInCU: 0xD56FE, offset: 0x27A75F, size: 0x8, addend: 0x0, symName: __ZN7testing8internal24HasNewFatalFailureHelperC1Ev, symObjAddr: 0xCFE0, symBinAddr: 0x10006B8E0, symSize: 0x50 }
  - { offsetInCU: 0xD5849, offset: 0x27A8AA, size: 0x8, addend: 0x0, symName: __ZN7testing8internal24HasNewFatalFailureHelperD2Ev, symObjAddr: 0xD030, symBinAddr: 0x10006B930, symSize: 0x40 }
  - { offsetInCU: 0xD590C, offset: 0x27A96D, size: 0x8, addend: 0x0, symName: __ZN7testing8internal24HasNewFatalFailureHelperD1Ev, symObjAddr: 0xD070, symBinAddr: 0x10006B970, symSize: 0x40 }
  - { offsetInCU: 0xD59E7, offset: 0x27AA48, size: 0x8, addend: 0x0, symName: __ZN7testing8internal24HasNewFatalFailureHelperD0Ev, symObjAddr: 0xD0B0, symBinAddr: 0x10006B9B0, symSize: 0x50 }
  - { offsetInCU: 0xD5ADE, offset: 0x27AB3F, size: 0x8, addend: 0x0, symName: __ZN7testing8internal24HasNewFatalFailureHelper20ReportTestPartResultERKNS_14TestPartResultE, symObjAddr: 0xD100, symBinAddr: 0x10006BA00, symSize: 0x20 }
  - { offsetInCU: 0xD6325, offset: 0x27B386, size: 0x8, addend: 0x0, symName: __ZN7testing8internal20TypedTestSuitePState25VerifyRegisteredTestNamesEPKcS3_iS3_, symObjAddr: 0xD120, symBinAddr: 0x10006BA20, symSize: 0xAD0 }
  - { offsetInCU: 0xD9438, offset: 0x27E499, size: 0x8, addend: 0x0, symName: __ZN7testing8internal34TypeParameterizedTestSuiteRegistry17RegisterTestSuiteEPKcNS0_12CodeLocationE, symObjAddr: 0xF2E0, symBinAddr: 0x10006DBE0, symSize: 0x220 }
  - { offsetInCU: 0xDA28F, offset: 0x27F2F0, size: 0x8, addend: 0x0, symName: __ZNKSt3__16__treeINS_12__value_typeINS_12basic_stringIcNS_11char_traitsIcEENS_9allocatorIcEEEEN7testing8internal12CodeLocationEEENS_19__map_value_compareIS7_SB_NS_4lessIvEELb1EEENS5_ISB_EEE14__count_uniqueIS7_EEmRKT_, symObjAddr: 0x38610, symBinAddr: 0x100096190, symSize: 0x110 }
  - { offsetInCU: 0xDA627, offset: 0x27F688, size: 0x8, addend: 0x0, symName: __ZNSt3__16__treeINS_12basic_stringIcNS_11char_traitsIcEENS_9allocatorIcEEEENS_4lessIS6_EENS4_IS6_EEE16__construct_nodeIJRKS6_EEENS_10unique_ptrINS_11__tree_nodeIS6_PvEENS_22__tree_node_destructorINS4_ISH_EEEEEEDpOT_, symObjAddr: 0x3A0B0, symBinAddr: 0x100097AC0, symSize: 0xF0 }
  - { offsetInCU: 0xDAE11, offset: 0x27FE72, size: 0x8, addend: 0x0, symName: __ZN7testing8internal6Random8GenerateEj, symObjAddr: 0xDC80, symBinAddr: 0x10006C580, symSize: 0x160 }
  - { offsetInCU: 0xDB1D1, offset: 0x280232, size: 0x8, addend: 0x0, symName: __ZN7testing8internal12AssertHelperD2Ev, symObjAddr: 0xDEC0, symBinAddr: 0x10006C7C0, symSize: 0x40 }
  - { offsetInCU: 0xDB546, offset: 0x2805A7, size: 0x8, addend: 0x0, symName: __ZN7testing8internal9MutexBase4LockEv, symObjAddr: 0x35590, symBinAddr: 0x1000932B0, symSize: 0xA0 }
  - { offsetInCU: 0xDB6F4, offset: 0x280755, size: 0x8, addend: 0x0, symName: __ZNK7testing8internal11ThreadLocalINSt3__16vectorINS0_9TraceInfoENS2_9allocatorIS4_EEEEE16GetOrCreateValueEv, symObjAddr: 0x363B0, symBinAddr: 0x100093F30, symSize: 0x120 }
  - { offsetInCU: 0xDB966, offset: 0x2809C7, size: 0x8, addend: 0x0, symName: __ZN7testing14TestPartResultC2ENS0_4TypeEPKciS3_, symObjAddr: 0x36210, symBinAddr: 0x100093D90, symSize: 0x170 }
  - { offsetInCU: 0xDC4EC, offset: 0x28154D, size: 0x8, addend: 0x0, symName: __ZN7testing8internal9MutexBase6UnlockEv, symObjAddr: 0x35630, symBinAddr: 0x100093350, symSize: 0x90 }
  - { offsetInCU: 0xDC68C, offset: 0x2816ED, size: 0x8, addend: 0x0, symName: __ZN7testing8internal26GoogleTestFailureExceptionC1ERKNS_14TestPartResultE, symObjAddr: 0x1AEF0, symBinAddr: 0x100079560, symSize: 0x70 }
  - { offsetInCU: 0xDCA02, offset: 0x281A63, size: 0x8, addend: 0x0, symName: __ZN7testing14TestPartResultD1Ev, symObjAddr: 0x1C8E0, symBinAddr: 0x10007AF50, symSize: 0x50 }
  - { offsetInCU: 0xDCFB5, offset: 0x282016, size: 0x8, addend: 0x0, symName: __ZN7testing8internal13MarkAsIgnoredC2EPKc, symObjAddr: 0xE800, symBinAddr: 0x10006D100, symSize: 0x140 }
  - { offsetInCU: 0xDD961, offset: 0x2829C2, size: 0x8, addend: 0x0, symName: __ZN7testing8internal13MarkAsIgnoredC1EPKc, symObjAddr: 0xE940, symBinAddr: 0x10006D240, symSize: 0x10 }
  - { offsetInCU: 0xDDB43, offset: 0x282BA4, size: 0x8, addend: 0x0, symName: __ZNKSt3__16__treeINS_12basic_stringIcNS_11char_traitsIcEENS_9allocatorIcEEEENS_4lessIS6_EENS4_IS6_EEE4findIS6_EENS_21__tree_const_iteratorIS6_PNS_11__tree_nodeIS6_PvEElEERKT_, symObjAddr: 0x3A1E0, symBinAddr: 0x100097BF0, symSize: 0x150 }
  - { offsetInCU: 0xDDE8E, offset: 0x282EEF, size: 0x8, addend: 0x0, symName: '__ZZN7testing8internal23InsertSyntheticTestCaseERKNSt3__112basic_stringIcNS1_11char_traitsIcEENS1_9allocatorIcEEEENS0_12CodeLocationEbEN3$_0D1Ev', symObjAddr: 0xF2A0, symBinAddr: 0x10006DBA0, symSize: 0x40 }
  - { offsetInCU: 0xDE55A, offset: 0x2835BB, size: 0x8, addend: 0x0, symName: __ZNSt3__16__treeINS_12__value_typeINS_12basic_stringIcNS_11char_traitsIcEENS_9allocatorIcEEEEN7testing8internal34TypeParameterizedTestSuiteRegistry30TypeParameterizedTestSuiteInfoEEENS_19__map_value_compareIS7_SC_NS_4lessIS7_EELb1EEENS5_ISC_EEE12__find_equalIS7_EERPNS_16__tree_node_baseIPvEERPNS_15__tree_end_nodeISN_EERKT_, symObjAddr: 0x3A880, symBinAddr: 0x100098290, symSize: 0x120 }
  - { offsetInCU: 0xDE7F3, offset: 0x283854, size: 0x8, addend: 0x0, symName: __ZN7testing8internal34TypeParameterizedTestSuiteRegistry21RegisterInstantiationEPKc, symObjAddr: 0xF530, symBinAddr: 0x10006DE30, symSize: 0x160 }
  - { offsetInCU: 0xDF228, offset: 0x284289, size: 0x8, addend: 0x0, symName: __ZNSt3__16__treeINS_12__value_typeINS_12basic_stringIcNS_11char_traitsIcEENS_9allocatorIcEEEEN7testing8internal34TypeParameterizedTestSuiteRegistry30TypeParameterizedTestSuiteInfoEEENS_19__map_value_compareIS7_SC_NS_4lessIS7_EELb1EEENS5_ISC_EEE4findIS7_EENS_15__tree_iteratorISC_PNS_11__tree_nodeISC_PvEElEERKT_, symObjAddr: 0x3A9A0, symBinAddr: 0x1000983B0, symSize: 0x150 }
  - { offsetInCU: 0xDF60E, offset: 0x28466F, size: 0x8, addend: 0x0, symName: __ZN7testing8internal34TypeParameterizedTestSuiteRegistry22CheckForInstantiationsEv, symObjAddr: 0xF690, symBinAddr: 0x10006DF90, symSize: 0x850 }
  - { offsetInCU: 0xE297A, offset: 0x2879DB, size: 0x8, addend: 0x0, symName: __ZNSt3__14pairIKNS_12basic_stringIcNS_11char_traitsIcEENS_9allocatorIcEEEEN7testing8internal34TypeParameterizedTestSuiteRegistry30TypeParameterizedTestSuiteInfoEEC2B8ue170006ERKSC_, symObjAddr: 0x33A30, symBinAddr: 0x100091C90, symSize: 0x160 }
  - { offsetInCU: 0xE3387, offset: 0x2883E8, size: 0x8, addend: 0x0, symName: '__ZZN7testing8internal34TypeParameterizedTestSuiteRegistry22CheckForInstantiationsEvEN3$_1D1Ev', symObjAddr: 0xFEE0, symBinAddr: 0x10006E7E0, symSize: 0x50 }
  - { offsetInCU: 0xE37A0, offset: 0x288801, size: 0x8, addend: 0x0, symName: __ZN7testing8internal15UnitTestOptions15GetOutputFormatEv, symObjAddr: 0x100F0, symBinAddr: 0x10006E9F0, symSize: 0x220 }
  - { offsetInCU: 0xE4652, offset: 0x2896B3, size: 0x8, addend: 0x0, symName: __ZN7testing8internal15UnitTestOptions27GetAbsolutePathToOutputFileEv, symObjAddr: 0x10310, symBinAddr: 0x10006EC10, symSize: 0xBF0 }
  - { offsetInCU: 0xE9AE3, offset: 0x28EB44, size: 0x8, addend: 0x0, symName: __ZNK7testing8UnitTest20original_working_dirEv, symObjAddr: 0x10F00, symBinAddr: 0x10006F800, symSize: 0x20 }
  - { offsetInCU: 0xE9E24, offset: 0x28EE85, size: 0x8, addend: 0x0, symName: __ZN7testing8internal15UnitTestOptions13MatchesFilterERKNSt3__112basic_stringIcNS2_11char_traitsIcEENS2_9allocatorIcEEEEPKc, symObjAddr: 0x10F20, symBinAddr: 0x10006F820, symSize: 0x170 }
  - { offsetInCU: 0xEACD5, offset: 0x28FD36, size: 0x8, addend: 0x0, symName: __ZN7testing8internal12_GLOBAL__N_114UnitTestFilterC1ERKNSt3__112basic_stringIcNS3_11char_traitsIcEENS3_9allocatorIcEEEE, symObjAddr: 0x11090, symBinAddr: 0x10006F990, symSize: 0x300 }
  - { offsetInCU: 0xEC0B5, offset: 0x291116, size: 0x8, addend: 0x0, symName: __ZNK7testing8internal12_GLOBAL__N_114UnitTestFilter11MatchesNameERKNSt3__112basic_stringIcNS3_11char_traitsIcEENS3_9allocatorIcEEEE, symObjAddr: 0x11390, symBinAddr: 0x10006FC90, symSize: 0x1A0 }
  - { offsetInCU: 0xEC7B8, offset: 0x291819, size: 0x8, addend: 0x0, symName: __ZNSt3__16vectorINS_12basic_stringIcNS_11char_traitsIcEENS_9allocatorIcEEEENS4_IS6_EEE7reserveEm, symObjAddr: 0x33B90, symBinAddr: 0x100091DF0, symSize: 0x150 }
  - { offsetInCU: 0xECDFE, offset: 0x291E5F, size: 0x8, addend: 0x0, symName: __ZNSt3__16vectorINS_12basic_stringIcNS_11char_traitsIcEENS_9allocatorIcEEEENS4_IS6_EEE6insertENS_11__wrap_iterIPKS6_EEOS6_, symObjAddr: 0x33D50, symBinAddr: 0x100091FB0, symSize: 0x390 }
  - { offsetInCU: 0xEDD3A, offset: 0x292D9B, size: 0x8, addend: 0x0, symName: __ZNSt3__112__hash_tableINS_12basic_stringIcNS_11char_traitsIcEENS_9allocatorIcEEEENS_4hashIS6_EENS_8equal_toIS6_EENS4_IS6_EEE25__emplace_unique_key_argsIS6_JS6_EEENS_4pairINS_15__hash_iteratorIPNS_11__hash_nodeIS6_PvEEEEbEERKT_DpOT0_, symObjAddr: 0x34370, symBinAddr: 0x1000925D0, symSize: 0x3F0 }
  - { offsetInCU: 0xEE549, offset: 0x2935AA, size: 0x8, addend: 0x0, symName: __ZN7testing8internal12_GLOBAL__N_114UnitTestFilterC1ERKNSt3__112basic_stringIcNS3_11char_traitsIcEENS3_9allocatorIcEEEE.cold.1, symObjAddr: 0x3EA00, symBinAddr: 0x100375160, symSize: 0x50 }
  - { offsetInCU: 0xEE839, offset: 0x29389A, size: 0x8, addend: 0x0, symName: __ZNKSt3__112__hash_tableINS_12basic_stringIcNS_11char_traitsIcEENS_9allocatorIcEEEENS_4hashIS6_EENS_8equal_toIS6_EENS4_IS6_EEE4findIS6_EENS_21__hash_const_iteratorIPNS_11__hash_nodeIS6_PvEEEERKT_, symObjAddr: 0x34F50, symBinAddr: 0x100092D00, symSize: 0x230 }
  - { offsetInCU: 0xEEB01, offset: 0x293B62, size: 0x8, addend: 0x0, symName: __ZN7testing8internal12_GLOBAL__N_114UnitTestFilterD1Ev, symObjAddr: 0x11530, symBinAddr: 0x10006FE30, symSize: 0xC0 }
  - { offsetInCU: 0xEF269, offset: 0x2942CA, size: 0x8, addend: 0x0, symName: __ZN7testing8internal15UnitTestOptions17FilterMatchesTestERKNSt3__112basic_stringIcNS2_11char_traitsIcEENS2_9allocatorIcEEEESA_, symObjAddr: 0x115F0, symBinAddr: 0x10006FEF0, symSize: 0x70 }
  - { offsetInCU: 0xEF30B, offset: 0x29436C, size: 0x8, addend: 0x0, symName: __ZN7testing8internal12_GLOBAL__N_133PositiveAndNegativeUnitTestFilterC1ERKNSt3__112basic_stringIcNS3_11char_traitsIcEENS3_9allocatorIcEEEE, symObjAddr: 0x11660, symBinAddr: 0x10006FF60, symSize: 0xB00 }
  - { offsetInCU: 0xF41C6, offset: 0x299227, size: 0x8, addend: 0x0, symName: __ZNK7testing8internal12_GLOBAL__N_133PositiveAndNegativeUnitTestFilter11MatchesTestERKNSt3__112basic_stringIcNS3_11char_traitsIcEENS3_9allocatorIcEEEESB_, symObjAddr: 0x12160, symBinAddr: 0x100070A60, symSize: 0x190 }
  - { offsetInCU: 0xF4BE2, offset: 0x299C43, size: 0x8, addend: 0x0, symName: __ZN7testing8internal12_GLOBAL__N_133PositiveAndNegativeUnitTestFilterD1Ev, symObjAddr: 0x122F0, symBinAddr: 0x100070BF0, symSize: 0x170 }
  - { offsetInCU: 0xF5C98, offset: 0x29ACF9, size: 0x8, addend: 0x0, symName: __ZNSt3__112__hash_tableINS_12basic_stringIcNS_11char_traitsIcEENS_9allocatorIcEEEENS_4hashIS6_EENS_8equal_toIS6_EENS4_IS6_EEE13__move_assignERSC_NS_17integral_constantIbLb1EEE, symObjAddr: 0x35180, symBinAddr: 0x100092F30, symSize: 0x120 }
  - { offsetInCU: 0xF6225, offset: 0x29B286, size: 0x8, addend: 0x0, symName: __ZN7testing32ScopedFakeTestPartResultReporterC2EPNS_19TestPartResultArrayE, symObjAddr: 0x12460, symBinAddr: 0x100070D60, symSize: 0x20 }
  - { offsetInCU: 0xF6265, offset: 0x29B2C6, size: 0x8, addend: 0x0, symName: __ZN7testing32ScopedFakeTestPartResultReporter4InitEv, symObjAddr: 0x12480, symBinAddr: 0x100070D80, symSize: 0x90 }
  - { offsetInCU: 0xF6578, offset: 0x29B5D9, size: 0x8, addend: 0x0, symName: __ZN7testing32ScopedFakeTestPartResultReporterC1EPNS_19TestPartResultArrayE, symObjAddr: 0x12510, symBinAddr: 0x100070E10, symSize: 0x20 }
  - { offsetInCU: 0xF65F1, offset: 0x29B652, size: 0x8, addend: 0x0, symName: __ZN7testing32ScopedFakeTestPartResultReporterC2ENS0_13InterceptModeEPNS_19TestPartResultArrayE, symObjAddr: 0x12530, symBinAddr: 0x100070E30, symSize: 0x20 }
  - { offsetInCU: 0xF666E, offset: 0x29B6CF, size: 0x8, addend: 0x0, symName: __ZN7testing32ScopedFakeTestPartResultReporterC1ENS0_13InterceptModeEPNS_19TestPartResultArrayE, symObjAddr: 0x12550, symBinAddr: 0x100070E50, symSize: 0x20 }
  - { offsetInCU: 0xF66FE, offset: 0x29B75F, size: 0x8, addend: 0x0, symName: __ZN7testing8internal12UnitTestImpl31GetGlobalTestPartResultReporterEv, symObjAddr: 0x12570, symBinAddr: 0x100070E70, symSize: 0x40 }
  - { offsetInCU: 0xF67B2, offset: 0x29B813, size: 0x8, addend: 0x0, symName: __ZN7testing8internal12UnitTestImpl31SetGlobalTestPartResultReporterEPNS_31TestPartResultReporterInterfaceE, symObjAddr: 0x125B0, symBinAddr: 0x100070EB0, symSize: 0x40 }
  - { offsetInCU: 0xF6870, offset: 0x29B8D1, size: 0x8, addend: 0x0, symName: __ZN7testing32ScopedFakeTestPartResultReporterD2Ev, symObjAddr: 0x125F0, symBinAddr: 0x100070EF0, symSize: 0x80 }
  - { offsetInCU: 0xF6A0E, offset: 0x29BA6F, size: 0x8, addend: 0x0, symName: __ZN7testing32ScopedFakeTestPartResultReporterD1Ev, symObjAddr: 0x12670, symBinAddr: 0x100070F70, symSize: 0x80 }
  - { offsetInCU: 0xF6BB7, offset: 0x29BC18, size: 0x8, addend: 0x0, symName: __ZN7testing32ScopedFakeTestPartResultReporterD0Ev, symObjAddr: 0x126F0, symBinAddr: 0x100070FF0, symSize: 0x80 }
  - { offsetInCU: 0xF6D8B, offset: 0x29BDEC, size: 0x8, addend: 0x0, symName: __ZN7testing32ScopedFakeTestPartResultReporter20ReportTestPartResultERKNS_14TestPartResultE, symObjAddr: 0x12770, symBinAddr: 0x100071070, symSize: 0x50 }
  - { offsetInCU: 0xF6F4B, offset: 0x29BFAC, size: 0x8, addend: 0x0, symName: __ZN7testing8internal20SingleFailureCheckerC2EPKNS_19TestPartResultArrayENS_14TestPartResult4TypeERKNSt3__112basic_stringIcNS7_11char_traitsIcEENS7_9allocatorIcEEEE, symObjAddr: 0x127D0, symBinAddr: 0x1000710D0, symSize: 0xA0 }
  - { offsetInCU: 0xF73B5, offset: 0x29C416, size: 0x8, addend: 0x0, symName: __ZN7testing8internal20SingleFailureCheckerC1EPKNS_19TestPartResultArrayENS_14TestPartResult4TypeERKNSt3__112basic_stringIcNS7_11char_traitsIcEENS7_9allocatorIcEEEE, symObjAddr: 0x12870, symBinAddr: 0x100071170, symSize: 0xA0 }
  - { offsetInCU: 0xF78B2, offset: 0x29C913, size: 0x8, addend: 0x0, symName: __ZN7testing8internal20SingleFailureCheckerD2Ev, symObjAddr: 0x12910, symBinAddr: 0x100071210, symSize: 0x530 }
  - { offsetInCU: 0xF96A6, offset: 0x29E707, size: 0x8, addend: 0x0, symName: __ZN7testing15AssertionResultlsIA11_cEERS0_RKT_, symObjAddr: 0x352A0, symBinAddr: 0x100093050, symSize: 0xD0 }
  - { offsetInCU: 0xF9AB3, offset: 0x29EB14, size: 0x8, addend: 0x0, symName: __ZN7testing15AssertionResultlsIA2_cEERS0_RKT_, symObjAddr: 0x16E30, symBinAddr: 0x1000754A0, symSize: 0xD0 }
  - { offsetInCU: 0xF9EC0, offset: 0x29EF21, size: 0x8, addend: 0x0, symName: __ZN7testing15AssertionResultlsINS_14TestPartResultEEERS0_RKT_, symObjAddr: 0x35370, symBinAddr: 0x100093120, symSize: 0xC0 }
  - { offsetInCU: 0xFA279, offset: 0x29F2DA, size: 0x8, addend: 0x0, symName: __ZN7testing15AssertionResultlsIA14_cEERS0_RKT_, symObjAddr: 0x35430, symBinAddr: 0x1000931E0, symSize: 0xD0 }
  - { offsetInCU: 0xFA686, offset: 0x29F6E7, size: 0x8, addend: 0x0, symName: __ZN7testing15AssertionResultlsIA3_cEERS0_RKT_, symObjAddr: 0x16950, symBinAddr: 0x100074FC0, symSize: 0xD0 }
  - { offsetInCU: 0xFAA93, offset: 0x29FAF4, size: 0x8, addend: 0x0, symName: __ZN7testing8internal20SingleFailureCheckerD1Ev, symObjAddr: 0x12E40, symBinAddr: 0x100071740, symSize: 0x10 }
  - { offsetInCU: 0xFAAD6, offset: 0x29FB37, size: 0x8, addend: 0x0, symName: __ZN7testing8internal35DefaultGlobalTestPartResultReporterC2EPNS0_12UnitTestImplE, symObjAddr: 0x12E50, symBinAddr: 0x100071750, symSize: 0x20 }
  - { offsetInCU: 0xFAB2D, offset: 0x29FB8E, size: 0x8, addend: 0x0, symName: __ZN7testing8internal35DefaultGlobalTestPartResultReporterC1EPNS0_12UnitTestImplE, symObjAddr: 0x12E70, symBinAddr: 0x100071770, symSize: 0x20 }
  - { offsetInCU: 0xFABD4, offset: 0x29FC35, size: 0x8, addend: 0x0, symName: __ZN7testing8internal35DefaultGlobalTestPartResultReporter20ReportTestPartResultERKNS_14TestPartResultE, symObjAddr: 0x12E90, symBinAddr: 0x100071790, symSize: 0xA0 }
  - { offsetInCU: 0xFADFB, offset: 0x29FE5C, size: 0x8, addend: 0x0, symName: __ZN7testing8internal12UnitTestImpl19current_test_resultEv, symObjAddr: 0x12F30, symBinAddr: 0x100071830, symSize: 0x40 }
  - { offsetInCU: 0xFAE1E, offset: 0x29FE7F, size: 0x8, addend: 0x0, symName: __ZN7testing10TestResult17AddTestPartResultERKNS_14TestPartResultE, symObjAddr: 0x12F70, symBinAddr: 0x100071870, symSize: 0x50 }
  - { offsetInCU: 0xFAFAF, offset: 0x2A0010, size: 0x8, addend: 0x0, symName: __ZN7testing18TestEventListeners8repeaterEv, symObjAddr: 0x12FC0, symBinAddr: 0x1000718C0, symSize: 0x10 }
  - { offsetInCU: 0xFAFD0, offset: 0x2A0031, size: 0x8, addend: 0x0, symName: __ZN7testing8internal38DefaultPerThreadTestPartResultReporterC2EPNS0_12UnitTestImplE, symObjAddr: 0x12FD0, symBinAddr: 0x1000718D0, symSize: 0x20 }
  - { offsetInCU: 0xFB027, offset: 0x2A0088, size: 0x8, addend: 0x0, symName: __ZN7testing8internal38DefaultPerThreadTestPartResultReporterC1EPNS0_12UnitTestImplE, symObjAddr: 0x12FF0, symBinAddr: 0x1000718F0, symSize: 0x20 }
  - { offsetInCU: 0xFB077, offset: 0x2A00D8, size: 0x8, addend: 0x0, symName: __ZN7testing8internal38DefaultPerThreadTestPartResultReporter20ReportTestPartResultERKNS_14TestPartResultE, symObjAddr: 0x13010, symBinAddr: 0x100071910, symSize: 0x50 }
  - { offsetInCU: 0xFB1F0, offset: 0x2A0251, size: 0x8, addend: 0x0, symName: __ZNK7testing8internal12UnitTestImpl27successful_test_suite_countEv, symObjAddr: 0x13060, symBinAddr: 0x100071960, symSize: 0x70 }
  - { offsetInCU: 0xFB312, offset: 0x2A0373, size: 0x8, addend: 0x0, symName: __ZNK7testing9TestSuite6FailedEv, symObjAddr: 0x30740, symBinAddr: 0x10008EDB0, symSize: 0x160 }
  - { offsetInCU: 0xFB5A6, offset: 0x2A0607, size: 0x8, addend: 0x0, symName: __ZNK7testing8internal12UnitTestImpl23failed_test_suite_countEv, symObjAddr: 0x130D0, symBinAddr: 0x1000719D0, symSize: 0x70 }
  - { offsetInCU: 0xFB6BD, offset: 0x2A071E, size: 0x8, addend: 0x0, symName: __ZNK7testing8internal12UnitTestImpl22total_test_suite_countEv, symObjAddr: 0x13140, symBinAddr: 0x100071A40, symSize: 0x20 }
  - { offsetInCU: 0xFB718, offset: 0x2A0779, size: 0x8, addend: 0x0, symName: __ZNK7testing8internal12UnitTestImpl23test_suite_to_run_countEv, symObjAddr: 0x13160, symBinAddr: 0x100071A60, symSize: 0x40 }
  - { offsetInCU: 0xFB8ED, offset: 0x2A094E, size: 0x8, addend: 0x0, symName: __ZNK7testing8internal12UnitTestImpl21successful_test_countEv, symObjAddr: 0x131A0, symBinAddr: 0x100071AA0, symSize: 0xB0 }
  - { offsetInCU: 0xFBA92, offset: 0x2A0AF3, size: 0x8, addend: 0x0, symName: __ZNK7testing10TestResult6PassedEv, symObjAddr: 0x1F2C0, symBinAddr: 0x10007D930, symSize: 0x140 }
  - { offsetInCU: 0xFBD06, offset: 0x2A0D67, size: 0x8, addend: 0x0, symName: __ZNK7testing9TestSuite21successful_test_countEv, symObjAddr: 0x13250, symBinAddr: 0x100071B50, symSize: 0x60 }
  - { offsetInCU: 0xFBF4F, offset: 0x2A0FB0, size: 0x8, addend: 0x0, symName: __ZNK7testing8internal12UnitTestImpl18skipped_test_countEv, symObjAddr: 0x132B0, symBinAddr: 0x100071BB0, symSize: 0x180 }
  - { offsetInCU: 0xFC27F, offset: 0x2A12E0, size: 0x8, addend: 0x0, symName: __ZNKSt3__16vectorIN7testing14TestPartResultENS_9allocatorIS2_EEE20__throw_out_of_rangeB8ue170006Ev, symObjAddr: 0x3B480, symBinAddr: 0x100098E90, symSize: 0x10 }
  - { offsetInCU: 0xFC2A8, offset: 0x2A1309, size: 0x8, addend: 0x0, symName: __ZNKSt3__16vectorIN7testing12TestPropertyENS_9allocatorIS2_EEE20__throw_out_of_rangeB8ue170006Ev, symObjAddr: 0x3B490, symBinAddr: 0x100098EA0, symSize: 0x10 }
  - { offsetInCU: 0xFC2B4, offset: 0x2A1315, size: 0x8, addend: 0x0, symName: __ZNK7testing9TestSuite18skipped_test_countEv, symObjAddr: 0x13430, symBinAddr: 0x100071D30, symSize: 0x120 }
  - { offsetInCU: 0xFC586, offset: 0x2A15E7, size: 0x8, addend: 0x0, symName: __ZNK7testing8internal12UnitTestImpl17failed_test_countEv, symObjAddr: 0x13550, symBinAddr: 0x100071E50, symSize: 0x140 }
  - { offsetInCU: 0xFC7AD, offset: 0x2A180E, size: 0x8, addend: 0x0, symName: __ZNK7testing9TestSuite17failed_test_countEv, symObjAddr: 0x13690, symBinAddr: 0x100071F90, symSize: 0xE0 }
  - { offsetInCU: 0xFC7B9, offset: 0x2A181A, size: 0x8, addend: 0x0, symName: __ZNK7testing9TestSuite17failed_test_countEv, symObjAddr: 0x13690, symBinAddr: 0x100071F90, symSize: 0xE0 }
  - { offsetInCU: 0xFC9B6, offset: 0x2A1A17, size: 0x8, addend: 0x0, symName: __ZNK7testing8internal12UnitTestImpl30reportable_disabled_test_countEv, symObjAddr: 0x13770, symBinAddr: 0x100072070, symSize: 0xA0 }
  - { offsetInCU: 0xFCB62, offset: 0x2A1BC3, size: 0x8, addend: 0x0, symName: __ZNK7testing9TestSuite30reportable_disabled_test_countEv, symObjAddr: 0x13810, symBinAddr: 0x100072110, symSize: 0x40 }
  - { offsetInCU: 0xFCCB8, offset: 0x2A1D19, size: 0x8, addend: 0x0, symName: __ZNK7testing8internal12UnitTestImpl19disabled_test_countEv, symObjAddr: 0x13850, symBinAddr: 0x100072150, symSize: 0x80 }
  - { offsetInCU: 0xFCE43, offset: 0x2A1EA4, size: 0x8, addend: 0x0, symName: __ZNK7testing9TestSuite19disabled_test_countEv, symObjAddr: 0x138D0, symBinAddr: 0x1000721D0, symSize: 0x40 }
  - { offsetInCU: 0xFCF68, offset: 0x2A1FC9, size: 0x8, addend: 0x0, symName: __ZNK7testing8internal12UnitTestImpl21reportable_test_countEv, symObjAddr: 0x13910, symBinAddr: 0x100072210, symSize: 0x90 }
  - { offsetInCU: 0xFD106, offset: 0x2A2167, size: 0x8, addend: 0x0, symName: __ZNK7testing9TestSuite21reportable_test_countEv, symObjAddr: 0x139A0, symBinAddr: 0x1000722A0, symSize: 0x40 }
  - { offsetInCU: 0xFD250, offset: 0x2A22B1, size: 0x8, addend: 0x0, symName: __ZNK7testing8internal12UnitTestImpl16total_test_countEv, symObjAddr: 0x139E0, symBinAddr: 0x1000722E0, symSize: 0x60 }
  - { offsetInCU: 0xFD323, offset: 0x2A2384, size: 0x8, addend: 0x0, symName: __ZNK7testing9TestSuite16total_test_countEv, symObjAddr: 0x13A40, symBinAddr: 0x100072340, symSize: 0x20 }
  - { offsetInCU: 0xFD392, offset: 0x2A23F3, size: 0x8, addend: 0x0, symName: __ZNK7testing8internal12UnitTestImpl17test_to_run_countEv, symObjAddr: 0x13A60, symBinAddr: 0x100072360, symSize: 0x80 }
  - { offsetInCU: 0xFD53C, offset: 0x2A259D, size: 0x8, addend: 0x0, symName: __ZNK7testing9TestSuite17test_to_run_countEv, symObjAddr: 0x13AE0, symBinAddr: 0x1000723E0, symSize: 0x40 }
  - { offsetInCU: 0xFD653, offset: 0x2A26B4, size: 0x8, addend: 0x0, symName: __ZN7testing8internal12UnitTestImpl21os_stack_trace_getterEv, symObjAddr: 0x13B20, symBinAddr: 0x100072420, symSize: 0x40 }
  - { offsetInCU: 0xFD708, offset: 0x2A2769, size: 0x8, addend: 0x0, symName: __ZN7testing8internal6String13CStringEqualsEPKcS3_, symObjAddr: 0x13BA0, symBinAddr: 0x1000724A0, symSize: 0x30 }
  - { offsetInCU: 0xFD731, offset: 0x2A2792, size: 0x8, addend: 0x0, symName: __ZN7testing7MessageC2Ev, symObjAddr: 0x13BE0, symBinAddr: 0x1000724E0, symSize: 0x50 }
  - { offsetInCU: 0xFD8EC, offset: 0x2A294D, size: 0x8, addend: 0x0, symName: __ZN7testing7MessagelsEPKw, symObjAddr: 0x13D60, symBinAddr: 0x100072530, symSize: 0x90 }
  - { offsetInCU: 0xFDE81, offset: 0x2A2EE2, size: 0x8, addend: 0x0, symName: __ZN7testing8internal6String15ShowWideCStringEPKw, symObjAddr: 0x13DF0, symBinAddr: 0x1000725C0, symSize: 0x40 }
  - { offsetInCU: 0xFE0E7, offset: 0x2A3148, size: 0x8, addend: 0x0, symName: __ZN7testing7MessagelsEPw, symObjAddr: 0x13E30, symBinAddr: 0x100072600, symSize: 0x90 }
  - { offsetInCU: 0xFE692, offset: 0x2A36F3, size: 0x8, addend: 0x0, symName: __ZN7testing7MessagelsERKNSt3__112basic_stringIwNS1_11char_traitsIwEENS1_9allocatorIwEEEE, symObjAddr: 0x13EC0, symBinAddr: 0x100072690, symSize: 0x110 }
  - { offsetInCU: 0xFF846, offset: 0x2A48A7, size: 0x8, addend: 0x0, symName: __ZNSt3__16vectorINS0_IdNS_9allocatorIdEEEENS1_IS3_EEEC2EmRKS3_, symObjAddr: 0x3ADE0, symBinAddr: 0x1000987F0, symSize: 0x150 }
  - { offsetInCU: 0xFFFDE, offset: 0x2A503F, size: 0x8, addend: 0x0, symName: __ZNSt3__16vectorINS0_IN7testing8internal13edit_distance8EditTypeENS_9allocatorIS4_EEEENS5_IS7_EEEC2EmRKS7_, symObjAddr: 0x3AFC0, symBinAddr: 0x1000989D0, symSize: 0x150 }
  - { offsetInCU: 0x100776, offset: 0x2A57D7, size: 0x8, addend: 0x0, symName: __ZNKSt3__16vectorIN7testing8internal13edit_distance8EditTypeENS_9allocatorIS4_EEE20__throw_length_errorB8ue170006Ev, symObjAddr: 0x3AFB0, symBinAddr: 0x1000989C0, symSize: 0x10 }
  - { offsetInCU: 0x10079F, offset: 0x2A5800, size: 0x8, addend: 0x0, symName: __ZNSt3__16vectorINS0_IN7testing8internal13edit_distance8EditTypeENS_9allocatorIS4_EEEENS5_IS7_EEEC2EmRKS7_, symObjAddr: 0x3AFC0, symBinAddr: 0x1000989D0, symSize: 0x150 }
  - { offsetInCU: 0x1007AB, offset: 0x2A580C, size: 0x8, addend: 0x0, symName: __ZNKSt3__16vectorIdNS_9allocatorIdEEE20__throw_length_errorB8ue170006Ev, symObjAddr: 0x3ADD0, symBinAddr: 0x1000987E0, symSize: 0x10 }
  - { offsetInCU: 0x1007D4, offset: 0x2A5835, size: 0x8, addend: 0x0, symName: __ZNSt3__16vectorINS0_IdNS_9allocatorIdEEEENS1_IS3_EEEC2EmRKS3_, symObjAddr: 0x3ADE0, symBinAddr: 0x1000987F0, symSize: 0x150 }
  - { offsetInCU: 0x1007E0, offset: 0x2A5841, size: 0x8, addend: 0x0, symName: __ZNSt3__16vectorINS0_IN7testing8internal13edit_distance8EditTypeENS_9allocatorIS4_EEEENS5_IS7_EEED1B8ue170006Ev, symObjAddr: 0x14780, symBinAddr: 0x100072F50, symSize: 0x70 }
  - { offsetInCU: 0x100B11, offset: 0x2A5B72, size: 0x8, addend: 0x0, symName: __ZNSt3__16vectorINS0_IdNS_9allocatorIdEEEENS1_IS3_EEED1B8ue170006Ev, symObjAddr: 0x147F0, symBinAddr: 0x100072FC0, symSize: 0x70 }
  - { offsetInCU: 0x1015C8, offset: 0x2A6629, size: 0x8, addend: 0x0, symName: __ZNSt3__16__treeINS_12__value_typeINS_12basic_stringIcNS_11char_traitsIcEENS_9allocatorIcEEEEmEENS_19__map_value_compareIS7_S8_NS_4lessIS7_EELb1EEENS5_IS8_EEE4findIS7_EENS_15__tree_iteratorIS8_PNS_11__tree_nodeIS8_PvEElEERKT_, symObjAddr: 0x35750, symBinAddr: 0x100093470, symSize: 0x150 }
  - { offsetInCU: 0x101960, offset: 0x2A69C1, size: 0x8, addend: 0x0, symName: __ZNSt3__13mapINS_12basic_stringIcNS_11char_traitsIcEENS_9allocatorIcEEEEmNS_4lessIS6_EENS4_INS_4pairIKS6_mEEEEEixERSA_, symObjAddr: 0x356C0, symBinAddr: 0x1000933E0, symSize: 0x90 }
  - { offsetInCU: 0x101AF9, offset: 0x2A6B5A, size: 0x8, addend: 0x0, symName: __ZNSt3__16__treeINS_12__value_typeINS_12basic_stringIcNS_11char_traitsIcEENS_9allocatorIcEEEEmEENS_19__map_value_compareIS7_S8_NS_4lessIS7_EELb1EEENS5_IS8_EEE7destroyEPNS_11__tree_nodeIS8_PvEE, symObjAddr: 0x35C90, symBinAddr: 0x100093810, symSize: 0x50 }
  - { offsetInCU: 0x101DEB, offset: 0x2A6E4C, size: 0x8, addend: 0x0, symName: __ZNKSt3__16vectorImNS_9allocatorImEEE20__throw_length_errorB8ue170006Ev, symObjAddr: 0x3B190, symBinAddr: 0x100098BA0, symSize: 0x10 }
  - { offsetInCU: 0x101E14, offset: 0x2A6E75, size: 0x8, addend: 0x0, symName: __ZN7testing15AssertionResultlsIA16_cEERS0_RKT_, symObjAddr: 0x3B1A0, symBinAddr: 0x100098BB0, symSize: 0xD0 }
  - { offsetInCU: 0x102572, offset: 0x2A75D3, size: 0x8, addend: 0x0, symName: __ZN7testing8internal13edit_distance12_GLOBAL__N_14Hunk8PushLineEcPKc, symObjAddr: 0x15490, symBinAddr: 0x100073C60, symSize: 0x170 }
  - { offsetInCU: 0x102C7C, offset: 0x2A7CDD, size: 0x8, addend: 0x0, symName: __ZN7testing8internal13edit_distance12_GLOBAL__N_14HunkD1Ev, symObjAddr: 0x15600, symBinAddr: 0x100073DD0, symSize: 0x100 }
  - { offsetInCU: 0x1033E6, offset: 0x2A8447, size: 0x8, addend: 0x0, symName: __ZN7testing15AssertionResultlsIA24_cEERS0_RKT_, symObjAddr: 0x163A0, symBinAddr: 0x100074AF0, symSize: 0xD0 }
  - { offsetInCU: 0x103A4D, offset: 0x2A8AAE, size: 0x8, addend: 0x0, symName: __ZN7testing15AssertionResultlsIA6_cEERS0_RKT_, symObjAddr: 0x16550, symBinAddr: 0x100074BC0, symSize: 0xD0 }
  - { offsetInCU: 0x103E70, offset: 0x2A8ED1, size: 0x8, addend: 0x0, symName: __ZN7testing15AssertionResultlsIA5_cEERS0_RKT_, symObjAddr: 0x16620, symBinAddr: 0x100074C90, symSize: 0xD0 }
  - { offsetInCU: 0x10427D, offset: 0x2A92DE, size: 0x8, addend: 0x0, symName: __ZN7testing15AssertionResultlsIdEERS0_RKT_, symObjAddr: 0x166F0, symBinAddr: 0x100074D60, symSize: 0xC0 }
  - { offsetInCU: 0x104620, offset: 0x2A9681, size: 0x8, addend: 0x0, symName: __ZN7testing15AssertionResultlsIA9_cEERS0_RKT_, symObjAddr: 0x167B0, symBinAddr: 0x100074E20, symSize: 0xD0 }
  - { offsetInCU: 0x104A2D, offset: 0x2A9A8E, size: 0x8, addend: 0x0, symName: __ZN7testing15AssertionResultlsIA15_cEERS0_RKT_, symObjAddr: 0x16880, symBinAddr: 0x100074EF0, symSize: 0xD0 }
  - { offsetInCU: 0x104E50, offset: 0x2A9EB1, size: 0x8, addend: 0x0, symName: __ZN7testing15AssertionResultlsIA27_cEERS0_RKT_, symObjAddr: 0x16A20, symBinAddr: 0x100075090, symSize: 0xD0 }
  - { offsetInCU: 0x105273, offset: 0x2AA2D4, size: 0x8, addend: 0x0, symName: __ZN7testing15AssertionResultlsIA100_cEERS0_RKT_, symObjAddr: 0x16AF0, symBinAddr: 0x100075160, symSize: 0xD0 }
  - { offsetInCU: 0x105696, offset: 0x2AA6F7, size: 0x8, addend: 0x0, symName: __ZN7testing15AssertionResultlsIA106_cEERS0_RKT_, symObjAddr: 0x16BC0, symBinAddr: 0x100075230, symSize: 0xD0 }
  - { offsetInCU: 0x105AB9, offset: 0x2AAB1A, size: 0x8, addend: 0x0, symName: __ZN7testing15AssertionResultlsIA17_cEERS0_RKT_, symObjAddr: 0x16C90, symBinAddr: 0x100075300, symSize: 0xD0 }
  - { offsetInCU: 0x105EC6, offset: 0x2AAF27, size: 0x8, addend: 0x0, symName: __ZN7testing15AssertionResultlsIA7_cEERS0_RKT_, symObjAddr: 0x16D60, symBinAddr: 0x1000753D0, symSize: 0xD0 }
  - { offsetInCU: 0x106502, offset: 0x2AB563, size: 0x8, addend: 0x0, symName: __ZN7testing15AssertionResultlsIA12_cEERS0_RKT_, symObjAddr: 0x17AD0, symBinAddr: 0x100076140, symSize: 0xD0 }
  - { offsetInCU: 0x1069D1, offset: 0x2ABA32, size: 0x8, addend: 0x0, symName: __ZN7testing8internal21UniversalTersePrinterIPKcE5PrintES3_PNSt3__113basic_ostreamIcNS5_11char_traitsIcEEEE, symObjAddr: 0x38720, symBinAddr: 0x1000962A0, symSize: 0xF0 }
  - { offsetInCU: 0x1071A5, offset: 0x2AC206, size: 0x8, addend: 0x0, symName: __ZN7testing8internal6String28CaseInsensitiveCStringEqualsEPKcS3_, symObjAddr: 0x17960, symBinAddr: 0x100075FD0, symSize: 0x30 }
  - { offsetInCU: 0x107203, offset: 0x2AC264, size: 0x8, addend: 0x0, symName: __ZN7testing15AssertionResultlsIA13_cEERS0_RKT_, symObjAddr: 0x17BA0, symBinAddr: 0x100076210, symSize: 0xD0 }
  - { offsetInCU: 0x107626, offset: 0x2AC687, size: 0x8, addend: 0x0, symName: __ZN7testing15AssertionResultlsIA29_cEERS0_RKT_, symObjAddr: 0x17DB0, symBinAddr: 0x100076420, symSize: 0xD0 }
  - { offsetInCU: 0x107A65, offset: 0x2ACAC6, size: 0x8, addend: 0x0, symName: __ZN7testing15AssertionResultlsIA16_cEERS0_RKT_, symObjAddr: 0x3B1A0, symBinAddr: 0x100098BB0, symSize: 0xD0 }
  - { offsetInCU: 0x107EE6, offset: 0x2ACF47, size: 0x8, addend: 0x0, symName: __ZN7testing15AssertionResultlsIPKwEERS0_RKT_, symObjAddr: 0x3B270, symBinAddr: 0x100098C80, symSize: 0xB0 }
  - { offsetInCU: 0x10835B, offset: 0x2AD3BC, size: 0x8, addend: 0x0, symName: __ZN7testing15AssertionResultlsINSt3__112basic_stringIwNS2_11char_traitsIwEENS2_9allocatorIwEEEEEERS0_RKT_, symObjAddr: 0x3B320, symBinAddr: 0x100098D30, symSize: 0xB0 }
  - { offsetInCU: 0x1086DD, offset: 0x2AD73E, size: 0x8, addend: 0x0, symName: __ZN7testing8internal6String17WideCStringEqualsEPKwS3_, symObjAddr: 0x18DC0, symBinAddr: 0x100077430, symSize: 0x30 }
  - { offsetInCU: 0x108729, offset: 0x2AD78A, size: 0x8, addend: 0x0, symName: __ZN7testing8internal21UniversalTersePrinterIPKwE5PrintES3_PNSt3__113basic_ostreamIcNS5_11char_traitsIcEEEE, symObjAddr: 0x38810, symBinAddr: 0x100096390, symSize: 0x140 }
  - { offsetInCU: 0x108F7A, offset: 0x2ADFDB, size: 0x8, addend: 0x0, symName: __ZN7testing8internal6String32CaseInsensitiveWideCStringEqualsEPKwS3_, symObjAddr: 0x19160, symBinAddr: 0x1000777D0, symSize: 0x70 }
  - { offsetInCU: 0x109018, offset: 0x2AE079, size: 0x8, addend: 0x0, symName: __ZN7testing8internal6String15FormatIntWidth2Ei, symObjAddr: 0x191D0, symBinAddr: 0x100077840, symSize: 0x20 }
  - { offsetInCU: 0x10905C, offset: 0x2AE0BD, size: 0x8, addend: 0x0, symName: __ZN7testing8internal6String15FormatIntWidthNEii, symObjAddr: 0x191F0, symBinAddr: 0x100077860, symSize: 0x190 }
  - { offsetInCU: 0x1093AE, offset: 0x2AE40F, size: 0x8, addend: 0x0, symName: __ZN7testing8internal6String12FormatHexIntEi, symObjAddr: 0x19380, symBinAddr: 0x1000779F0, symSize: 0x20 }
  - { offsetInCU: 0x1093EC, offset: 0x2AE44D, size: 0x8, addend: 0x0, symName: __ZN7testing8internal6String10FormatByteEh, symObjAddr: 0x193A0, symBinAddr: 0x100077A10, symSize: 0x1B0 }
  - { offsetInCU: 0x109877, offset: 0x2AE8D8, size: 0x8, addend: 0x0, symName: __ZN7testing10TestResultC2Ev, symObjAddr: 0x19550, symBinAddr: 0x100077BC0, symSize: 0x40 }
  - { offsetInCU: 0x109931, offset: 0x2AE992, size: 0x8, addend: 0x0, symName: __ZN7testing10TestResultC1Ev, symObjAddr: 0x19590, symBinAddr: 0x100077C00, symSize: 0x40 }
  - { offsetInCU: 0x109BEC, offset: 0x2AEC4D, size: 0x8, addend: 0x0, symName: __ZN7testing10TestResultD2Ev, symObjAddr: 0x195D0, symBinAddr: 0x100077C40, symSize: 0x90 }
  - { offsetInCU: 0x10A136, offset: 0x2AF197, size: 0x8, addend: 0x0, symName: __ZNSt3__16vectorIN7testing14TestPartResultENS_9allocatorIS2_EEE16__destroy_vectorclB8ue170006Ev, symObjAddr: 0x3B3D0, symBinAddr: 0x100098DE0, symSize: 0xB0 }
  - { offsetInCU: 0x10A69E, offset: 0x2AF6FF, size: 0x8, addend: 0x0, symName: __ZN7testing10TestResultD1Ev, symObjAddr: 0x19660, symBinAddr: 0x100077CD0, symSize: 0x10 }
  - { offsetInCU: 0x10A6EF, offset: 0x2AF750, size: 0x8, addend: 0x0, symName: __ZNK7testing10TestResult17GetTestPartResultEi, symObjAddr: 0x19670, symBinAddr: 0x100077CE0, symSize: 0x50 }
  - { offsetInCU: 0x10A790, offset: 0x2AF7F1, size: 0x8, addend: 0x0, symName: __ZNK7testing10TestResult16total_part_countEv, symObjAddr: 0x196C0, symBinAddr: 0x100077D30, symSize: 0x20 }
  - { offsetInCU: 0x10A82B, offset: 0x2AF88C, size: 0x8, addend: 0x0, symName: __ZNK7testing10TestResult15GetTestPropertyEi, symObjAddr: 0x196E0, symBinAddr: 0x100077D50, symSize: 0x50 }
  - { offsetInCU: 0x10A8CC, offset: 0x2AF92D, size: 0x8, addend: 0x0, symName: __ZNKSt3__16vectorIN7testing12TestPropertyENS_9allocatorIS2_EEE20__throw_out_of_rangeB8ue170006Ev, symObjAddr: 0x3B490, symBinAddr: 0x100098EA0, symSize: 0x10 }
  - { offsetInCU: 0x10A8F5, offset: 0x2AF956, size: 0x8, addend: 0x0, symName: __ZNSt3__16vectorIN7testing12TestPropertyENS_9allocatorIS2_EEE21__push_back_slow_pathIRKS2_EEvOT_, symObjAddr: 0x3B4A0, symBinAddr: 0x100098EB0, symSize: 0x200 }
  - { offsetInCU: 0x10A901, offset: 0x2AF962, size: 0x8, addend: 0x0, symName: __ZNK7testing10TestResult19test_property_countEv, symObjAddr: 0x19730, symBinAddr: 0x100077DA0, symSize: 0x20 }
  - { offsetInCU: 0x10A9F6, offset: 0x2AFA57, size: 0x8, addend: 0x0, symName: __ZN7testing10TestResult20ClearTestPartResultsEv, symObjAddr: 0x19750, symBinAddr: 0x100077DC0, symSize: 0x70 }
  - { offsetInCU: 0x10B165, offset: 0x2B01C6, size: 0x8, addend: 0x0, symName: __ZN7testing10TestResult14RecordPropertyERKNSt3__112basic_stringIcNS1_11char_traitsIcEENS1_9allocatorIcEEEERKNS_12TestPropertyE, symObjAddr: 0x197C0, symBinAddr: 0x100077E30, symSize: 0x370 }
  - { offsetInCU: 0x10C78A, offset: 0x2B17EB, size: 0x8, addend: 0x0, symName: __ZN7testing10TestResult20ValidateTestPropertyERKNSt3__112basic_stringIcNS1_11char_traitsIcEENS1_9allocatorIcEEEERKNS_12TestPropertyE, symObjAddr: 0x19B30, symBinAddr: 0x1000781A0, symSize: 0x6C0 }
  - { offsetInCU: 0x10E8A9, offset: 0x2B390A, size: 0x8, addend: 0x0, symName: __ZN7testing12TestPropertyC2ERKS0_, symObjAddr: 0x3B6A0, symBinAddr: 0x1000990B0, symSize: 0x150 }
  - { offsetInCU: 0x10F21F, offset: 0x2B4280, size: 0x8, addend: 0x0, symName: __ZNSt3__16vectorIN7testing12TestPropertyENS_9allocatorIS2_EEE21__push_back_slow_pathIRKS2_EEvOT_, symObjAddr: 0x3B4A0, symBinAddr: 0x100098EB0, symSize: 0x200 }
  - { offsetInCU: 0x10FCA3, offset: 0x2B4D04, size: 0x8, addend: 0x0, symName: __ZNSt3__16vectorINS_12basic_stringIcNS_11char_traitsIcEENS_9allocatorIcEEEENS4_IS6_EEEC2IPKPKcLi0EEET_SE_, symObjAddr: 0x35E00, symBinAddr: 0x100093980, symSize: 0xD0 }
  - { offsetInCU: 0x10FFD4, offset: 0x2B5035, size: 0x8, addend: 0x0, symName: __ZN7testing10TestResult5ClearEv, symObjAddr: 0x1A1F0, symBinAddr: 0x100078860, symSize: 0xC0 }
  - { offsetInCU: 0x110840, offset: 0x2B58A1, size: 0x8, addend: 0x0, symName: __ZNK7testing10TestResult7SkippedEv, symObjAddr: 0x1A2B0, symBinAddr: 0x100078920, symSize: 0xD0 }
  - { offsetInCU: 0x1109F4, offset: 0x2B5A55, size: 0x8, addend: 0x0, symName: __ZNK7testing10TestResult6FailedEv, symObjAddr: 0x1A380, symBinAddr: 0x1000789F0, symSize: 0x80 }
  - { offsetInCU: 0x110AC3, offset: 0x2B5B24, size: 0x8, addend: 0x0, symName: __ZNK7testing10TestResult15HasFatalFailureEv, symObjAddr: 0x1A400, symBinAddr: 0x100078A70, symSize: 0x40 }
  - { offsetInCU: 0x110BF3, offset: 0x2B5C54, size: 0x8, addend: 0x0, symName: __ZNK7testing10TestResult18HasNonfatalFailureEv, symObjAddr: 0x1A440, symBinAddr: 0x100078AB0, symSize: 0x40 }
  - { offsetInCU: 0x110E46, offset: 0x2B5EA7, size: 0x8, addend: 0x0, symName: __ZN7testing4TestC2Ev, symObjAddr: 0x1A480, symBinAddr: 0x100078AF0, symSize: 0x50 }
  - { offsetInCU: 0x110F47, offset: 0x2B5FA8, size: 0x8, addend: 0x0, symName: __ZN7testing8internal14GTestFlagSaverC2Ev, symObjAddr: 0x35FF0, symBinAddr: 0x100093B70, symSize: 0x220 }
  - { offsetInCU: 0x11185E, offset: 0x2B68BF, size: 0x8, addend: 0x0, symName: __ZN7testing4TestD2Ev, symObjAddr: 0x1A4D0, symBinAddr: 0x100078B40, symSize: 0x40 }
  - { offsetInCU: 0x11194A, offset: 0x2B69AB, size: 0x8, addend: 0x0, symName: __ZN7testing8internal14GTestFlagSaverD2Ev, symObjAddr: 0x3B880, symBinAddr: 0x100099290, symSize: 0x1E0 }
  - { offsetInCU: 0x111FFF, offset: 0x2B7060, size: 0x8, addend: 0x0, symName: __ZN7testing4TestD1Ev, symObjAddr: 0x1A510, symBinAddr: 0x100078B80, symSize: 0x10 }
  - { offsetInCU: 0x112029, offset: 0x2B708A, size: 0x8, addend: 0x0, symName: __ZN7testing4TestD0Ev, symObjAddr: 0x1A520, symBinAddr: 0x100078B90, symSize: 0x10 }
  - { offsetInCU: 0x112053, offset: 0x2B70B4, size: 0x8, addend: 0x0, symName: __ZN7testing4Test5SetUpEv, symObjAddr: 0x1A530, symBinAddr: 0x100078BA0, symSize: 0x10 }
  - { offsetInCU: 0x112079, offset: 0x2B70DA, size: 0x8, addend: 0x0, symName: __ZN7testing4Test8TearDownEv, symObjAddr: 0x1A540, symBinAddr: 0x100078BB0, symSize: 0x10 }
  - { offsetInCU: 0x112102, offset: 0x2B7163, size: 0x8, addend: 0x0, symName: __ZN7testing4Test14RecordPropertyERKNSt3__112basic_stringIcNS1_11char_traitsIcEENS1_9allocatorIcEEEES9_, symObjAddr: 0x1A550, symBinAddr: 0x100078BC0, symSize: 0x140 }
  - { offsetInCU: 0x112696, offset: 0x2B76F7, size: 0x8, addend: 0x0, symName: __ZN7testing12TestPropertyC2ERKNSt3__112basic_stringIcNS1_11char_traitsIcEENS1_9allocatorIcEEEES9_, symObjAddr: 0x364D0, symBinAddr: 0x100094050, symSize: 0x140 }
  - { offsetInCU: 0x113033, offset: 0x2B8094, size: 0x8, addend: 0x0, symName: __ZN7testing8internal12UnitTestImpl14RecordPropertyERKNS_12TestPropertyE, symObjAddr: 0x2D1A0, symBinAddr: 0x10008B810, symSize: 0xD0 }
  - { offsetInCU: 0x113409, offset: 0x2B846A, size: 0x8, addend: 0x0, symName: __ZN7testing4Test14RecordPropertyERKNSt3__112basic_stringIcNS1_11char_traitsIcEENS1_9allocatorIcEEEES9_.cold.1, symObjAddr: 0x3EA50, symBinAddr: 0x1003751B0, symSize: 0x20 }
  - { offsetInCU: 0x11354C, offset: 0x2B85AD, size: 0x8, addend: 0x0, symName: __ZN7testing8UnitTest14RecordPropertyERKNSt3__112basic_stringIcNS1_11char_traitsIcEENS1_9allocatorIcEEEES9_, symObjAddr: 0x1A690, symBinAddr: 0x100078D00, symSize: 0x70 }
  - { offsetInCU: 0x11388F, offset: 0x2B88F0, size: 0x8, addend: 0x0, symName: __ZN7testing12TestPropertyD1Ev, symObjAddr: 0x2D270, symBinAddr: 0x10008B8E0, symSize: 0x40 }
  - { offsetInCU: 0x113D00, offset: 0x2B8D61, size: 0x8, addend: 0x0, symName: __ZN7testing4Test19HasSameFixtureClassEv, symObjAddr: 0x1A7D0, symBinAddr: 0x100078E40, symSize: 0x510 }
  - { offsetInCU: 0x1158A5, offset: 0x2BA906, size: 0x8, addend: 0x0, symName: __ZN7testing8internal26GoogleTestFailureExceptionC2ERKNS_14TestPartResultE, symObjAddr: 0x1ACE0, symBinAddr: 0x100079350, symSize: 0x70 }
  - { offsetInCU: 0x115C41, offset: 0x2BACA2, size: 0x8, addend: 0x0, symName: __ZN7testing4Test3RunEv, symObjAddr: 0x1AF60, symBinAddr: 0x1000795D0, symSize: 0x270 }
  - { offsetInCU: 0x116186, offset: 0x2BB1E7, size: 0x8, addend: 0x0, symName: __ZN7testing4Test15HasFatalFailureEv, symObjAddr: 0x1B340, symBinAddr: 0x1000799B0, symSize: 0x70 }
  - { offsetInCU: 0x1162E2, offset: 0x2BB343, size: 0x8, addend: 0x0, symName: __ZN7testing4Test9IsSkippedEv, symObjAddr: 0x1B3B0, symBinAddr: 0x100079A20, symSize: 0xF0 }
  - { offsetInCU: 0x1164D7, offset: 0x2BB538, size: 0x8, addend: 0x0, symName: __ZN7testing4Test18HasNonfatalFailureEv, symObjAddr: 0x1B4A0, symBinAddr: 0x100079B10, symSize: 0x70 }
  - { offsetInCU: 0x116772, offset: 0x2BB7D3, size: 0x8, addend: 0x0, symName: __ZN7testing8TestInfoC2ENSt3__112basic_stringIcNS1_11char_traitsIcEENS1_9allocatorIcEEEES7_PKcS9_NS_8internal12CodeLocationEPKvPNSA_15TestFactoryBaseE, symObjAddr: 0x1B510, symBinAddr: 0x100079B80, symSize: 0x2B0 }
  - { offsetInCU: 0x117797, offset: 0x2BC7F8, size: 0x8, addend: 0x0, symName: __ZNSt3__110unique_ptrIKNS_12basic_stringIcNS_11char_traitsIcEENS_9allocatorIcEEEENS_14default_deleteIS7_EEED1B8ue170006Ev, symObjAddr: 0x1B7C0, symBinAddr: 0x100079E30, symSize: 0x40 }
  - { offsetInCU: 0x1179D3, offset: 0x2BCA34, size: 0x8, addend: 0x0, symName: __ZN7testing8TestInfoC1ENSt3__112basic_stringIcNS1_11char_traitsIcEENS1_9allocatorIcEEEES7_PKcS9_NS_8internal12CodeLocationEPKvPNSA_15TestFactoryBaseE, symObjAddr: 0x1B800, symBinAddr: 0x100079E70, symSize: 0x10 }
  - { offsetInCU: 0x117AA7, offset: 0x2BCB08, size: 0x8, addend: 0x0, symName: __ZN7testing8TestInfoD2Ev, symObjAddr: 0x1B810, symBinAddr: 0x100079E80, symSize: 0xB0 }
  - { offsetInCU: 0x118261, offset: 0x2BD2C2, size: 0x8, addend: 0x0, symName: __ZN7testing8TestInfoD1Ev, symObjAddr: 0x1B8C0, symBinAddr: 0x100079F30, symSize: 0x10 }
  - { offsetInCU: 0x11830A, offset: 0x2BD36B, size: 0x8, addend: 0x0, symName: __ZN7testing8internal12UnitTestImpl11AddTestInfoEPFvvES3_PNS_8TestInfoE, symObjAddr: 0x1BAC0, symBinAddr: 0x10007A130, symSize: 0x140 }
  - { offsetInCU: 0x1188FF, offset: 0x2BD960, size: 0x8, addend: 0x0, symName: __ZN7testing8internal12UnitTestImpl12GetTestSuiteERKNSt3__112basic_stringIcNS2_11char_traitsIcEENS2_9allocatorIcEEEEPKcPFvvESE_, symObjAddr: 0x2F520, symBinAddr: 0x10008DB90, symSize: 0x4E0 }
  - { offsetInCU: 0x11A48B, offset: 0x2BF4EC, size: 0x8, addend: 0x0, symName: __ZN7testing9TestSuite11AddTestInfoEPNS_8TestInfoE, symObjAddr: 0x1CCF0, symBinAddr: 0x10007B360, symSize: 0x200 }
  - { offsetInCU: 0x11AFAF, offset: 0x2C0010, size: 0x8, addend: 0x0, symName: __ZN7testing9TestSuite3RunEv, symObjAddr: 0x1CEF0, symBinAddr: 0x10007B560, symSize: 0x8B0 }
  - { offsetInCU: 0x11B0EE, offset: 0x2C014F, size: 0x8, addend: 0x0, symName: __ZN7testing8internal12UnitTestImpl26RegisterParameterizedTestsEv, symObjAddr: 0x1BEA0, symBinAddr: 0x10007A510, symSize: 0x60 }
  - { offsetInCU: 0x11B378, offset: 0x2C03D9, size: 0x8, addend: 0x0, symName: __ZN7testing8TestInfo3RunEv, symObjAddr: 0x1BF00, symBinAddr: 0x10007A570, symSize: 0x530 }
  - { offsetInCU: 0x11BCBF, offset: 0x2C0D20, size: 0x8, addend: 0x0, symName: __ZN7testing8UnitTest9listenersEv, symObjAddr: 0x1C430, symBinAddr: 0x10007AAA0, symSize: 0x10 }
  - { offsetInCU: 0x11BCF6, offset: 0x2C0D57, size: 0x8, addend: 0x0, symName: __ZN7testing8UnitTest21set_current_test_infoEPNS_8TestInfoE, symObjAddr: 0x1C440, symBinAddr: 0x10007AAB0, symSize: 0x50 }
  - { offsetInCU: 0x11BDDB, offset: 0x2C0E3C, size: 0x8, addend: 0x0, symName: __ZN7testing8UnitTest16UponLeavingGTestEv, symObjAddr: 0x1C490, symBinAddr: 0x10007AB00, symSize: 0x50 }
  - { offsetInCU: 0x11BE9B, offset: 0x2C0EFC, size: 0x8, addend: 0x0, symName: __ZN7testing4Test11DeleteSelf_Ev, symObjAddr: 0x1C640, symBinAddr: 0x10007ACB0, symSize: 0x20 }
  - { offsetInCU: 0x11BEF8, offset: 0x2C0F59, size: 0x8, addend: 0x0, symName: __ZN7testing8TestInfo4SkipEv, symObjAddr: 0x1C660, symBinAddr: 0x10007ACD0, symSize: 0x280 }
  - { offsetInCU: 0x11C8CE, offset: 0x2C192F, size: 0x8, addend: 0x0, symName: __ZN7testing9TestSuiteC2ERKNSt3__112basic_stringIcNS1_11char_traitsIcEENS1_9allocatorIcEEEEPKcPFvvESD_, symObjAddr: 0x1C930, symBinAddr: 0x10007AFA0, symSize: 0x230 }
  - { offsetInCU: 0x11D742, offset: 0x2C27A3, size: 0x8, addend: 0x0, symName: __ZN7testing9TestSuiteC1ERKNSt3__112basic_stringIcNS1_11char_traitsIcEENS1_9allocatorIcEEEEPKcPFvvESD_, symObjAddr: 0x1CB60, symBinAddr: 0x10007B1D0, symSize: 0x10 }
  - { offsetInCU: 0x11D7E3, offset: 0x2C2844, size: 0x8, addend: 0x0, symName: __ZN7testing9TestSuiteD2Ev, symObjAddr: 0x1CB70, symBinAddr: 0x10007B1E0, symSize: 0xD0 }
  - { offsetInCU: 0x11DEF5, offset: 0x2C2F56, size: 0x8, addend: 0x0, symName: __ZN7testing9TestSuiteD1Ev, symObjAddr: 0x1CC40, symBinAddr: 0x10007B2B0, symSize: 0x10 }
  - { offsetInCU: 0x11DF4A, offset: 0x2C2FAB, size: 0x8, addend: 0x0, symName: __ZN7testing9TestSuiteD0Ev, symObjAddr: 0x1CC50, symBinAddr: 0x10007B2C0, symSize: 0x20 }
  - { offsetInCU: 0x11DFC9, offset: 0x2C302A, size: 0x8, addend: 0x0, symName: __ZNK7testing9TestSuite11GetTestInfoEi, symObjAddr: 0x1CC70, symBinAddr: 0x10007B2E0, symSize: 0x40 }
  - { offsetInCU: 0x11E09B, offset: 0x2C30FC, size: 0x8, addend: 0x0, symName: __ZN7testing9TestSuite18GetMutableTestInfoEi, symObjAddr: 0x1CCB0, symBinAddr: 0x10007B320, symSize: 0x40 }
  - { offsetInCU: 0x11E891, offset: 0x2C38F2, size: 0x8, addend: 0x0, symName: '__ZNSt3__113__stable_sortINS_17_ClassicAlgPolicyERZN7testing9TestSuite3RunEvE3$_2NS_11__wrap_iterIPPNS2_8TestInfoEEEEEvT1_SB_T0_NS_15iterator_traitsISB_E15difference_typeEPNSE_10value_typeEl', symObjAddr: 0x3BBC0, symBinAddr: 0x1000995C0, symSize: 0x380 }
  - { offsetInCU: 0x11E89D, offset: 0x2C38FE, size: 0x8, addend: 0x0, symName: __ZNKSt3__16vectorIPN7testing8TestInfoENS_9allocatorIS3_EEE20__throw_length_errorB8ue170006Ev, symObjAddr: 0x3BBA0, symBinAddr: 0x1000995B0, symSize: 0x10 }
  - { offsetInCU: 0x11EACD, offset: 0x2C3B2E, size: 0x8, addend: 0x0, symName: __ZN7testing8UnitTest22set_current_test_suiteEPNS_9TestSuiteE, symObjAddr: 0x1D7A0, symBinAddr: 0x10007BE10, symSize: 0x50 }
  - { offsetInCU: 0x11EBC3, offset: 0x2C3C24, size: 0x8, addend: 0x0, symName: __ZN7testing9TestSuite17RunSetUpTestSuiteEv, symObjAddr: 0x1D960, symBinAddr: 0x10007BFD0, symSize: 0x20 }
  - { offsetInCU: 0x11EBF4, offset: 0x2C3C55, size: 0x8, addend: 0x0, symName: __ZN7testing9TestSuite20RunTearDownTestSuiteEv, symObjAddr: 0x1D980, symBinAddr: 0x10007BFF0, symSize: 0x20 }
  - { offsetInCU: 0x11EC25, offset: 0x2C3C86, size: 0x8, addend: 0x0, symName: __ZN7testing9TestSuite4SkipEv, symObjAddr: 0x1D9A0, symBinAddr: 0x10007C010, symSize: 0x320 }
  - { offsetInCU: 0x11F1AF, offset: 0x2C4210, size: 0x8, addend: 0x0, symName: __ZN7testing9TestSuite11ClearResultEv, symObjAddr: 0x1DCC0, symBinAddr: 0x10007C330, symSize: 0x50 }
  - { offsetInCU: 0x11F2C8, offset: 0x2C4329, size: 0x8, addend: 0x0, symName: __ZN7testing9TestSuite12ShuffleTestsEPNS_8internal6RandomE, symObjAddr: 0x1DD10, symBinAddr: 0x10007C380, symSize: 0x20 }
  - { offsetInCU: 0x11F35A, offset: 0x2C43BB, size: 0x8, addend: 0x0, symName: __ZN7testing9TestSuite14UnshuffleTestsEv, symObjAddr: 0x1DD30, symBinAddr: 0x10007C3A0, symSize: 0x40 }
  - { offsetInCU: 0x11F442, offset: 0x2C44A3, size: 0x8, addend: 0x0, symName: __ZN7testing8internal27PrettyUnitTestResultPrinter20OnTestIterationStartERKNS_8UnitTestEi, symObjAddr: 0x1E060, symBinAddr: 0x10007C6D0, symSize: 0x340 }
  - { offsetInCU: 0x12053D, offset: 0x2C559E, size: 0x8, addend: 0x0, symName: __ZN7testing8internalL13ColoredPrintfENS0_12_GLOBAL__N_110GTestColorEPKcz.cold.1, symObjAddr: 0x3EA70, symBinAddr: 0x1003751D0, symSize: 0x30 }
  - { offsetInCU: 0x12067B, offset: 0x2C56DC, size: 0x8, addend: 0x0, symName: __ZN7testing7MessageC2ERKS0_, symObjAddr: 0x383E0, symBinAddr: 0x100095F60, symSize: 0xC0 }
  - { offsetInCU: 0x120B78, offset: 0x2C5BD9, size: 0x8, addend: 0x0, symName: __ZNK7testing8UnitTest11random_seedEv, symObjAddr: 0x1EB40, symBinAddr: 0x10007D1B0, symSize: 0x10 }
  - { offsetInCU: 0x120BB8, offset: 0x2C5C19, size: 0x8, addend: 0x0, symName: __ZNK7testing8UnitTest17test_to_run_countEv, symObjAddr: 0x1EB50, symBinAddr: 0x10007D1C0, symSize: 0x90 }
  - { offsetInCU: 0x120DA1, offset: 0x2C5E02, size: 0x8, addend: 0x0, symName: __ZNK7testing8UnitTest23test_suite_to_run_countEv, symObjAddr: 0x1EBE0, symBinAddr: 0x10007D250, symSize: 0x40 }
  - { offsetInCU: 0x120EFA, offset: 0x2C5F5B, size: 0x8, addend: 0x0, symName: __ZN7testing8internal27PrettyUnitTestResultPrinter24OnEnvironmentsSetUpStartERKNS_8UnitTestE, symObjAddr: 0x1EC20, symBinAddr: 0x10007D290, symSize: 0x40 }
  - { offsetInCU: 0x120F77, offset: 0x2C5FD8, size: 0x8, addend: 0x0, symName: __ZN7testing8internal27PrettyUnitTestResultPrinter15OnTestCaseStartERKNS_9TestSuiteE, symObjAddr: 0x1EC60, symBinAddr: 0x10007D2D0, symSize: 0x120 }
  - { offsetInCU: 0x12163C, offset: 0x2C669D, size: 0x8, addend: 0x0, symName: __ZN7testing8internal27PrettyUnitTestResultPrinter11OnTestStartERKNS_8TestInfoE, symObjAddr: 0x1EEE0, symBinAddr: 0x10007D550, symSize: 0x70 }
  - { offsetInCU: 0x1217BA, offset: 0x2C681B, size: 0x8, addend: 0x0, symName: __ZN7testing8internal27PrettyUnitTestResultPrinter14OnTestDisabledERKNS_8TestInfoE, symObjAddr: 0x1EF50, symBinAddr: 0x10007D5C0, symSize: 0x70 }
  - { offsetInCU: 0x121938, offset: 0x2C6999, size: 0x8, addend: 0x0, symName: __ZN7testing8internal27PrettyUnitTestResultPrinter16OnTestPartResultERKNS_14TestPartResultE, symObjAddr: 0x1EFC0, symBinAddr: 0x10007D630, symSize: 0x60 }
  - { offsetInCU: 0x121BDA, offset: 0x2C6C3B, size: 0x8, addend: 0x0, symName: __ZN7testing8internal27PrettyUnitTestResultPrinter9OnTestEndERKNS_8TestInfoE, symObjAddr: 0x1F020, symBinAddr: 0x10007D690, symSize: 0x2A0 }
  - { offsetInCU: 0x12244B, offset: 0x2C74AC, size: 0x8, addend: 0x0, symName: __ZN7testing8internal27PrettyUnitTestResultPrinter13OnTestCaseEndERKNS_9TestSuiteE, symObjAddr: 0x1F4B0, symBinAddr: 0x10007DB20, symSize: 0x180 }
  - { offsetInCU: 0x122D59, offset: 0x2C7DBA, size: 0x8, addend: 0x0, symName: __ZN7testing8internal27PrettyUnitTestResultPrinter27OnEnvironmentsTearDownStartERKNS_8UnitTestE, symObjAddr: 0x1F630, symBinAddr: 0x10007DCA0, symSize: 0x40 }
  - { offsetInCU: 0x122E60, offset: 0x2C7EC1, size: 0x8, addend: 0x0, symName: __ZN7testing8internal27PrettyUnitTestResultPrinter16PrintFailedTestsERKNS_8UnitTestE, symObjAddr: 0x1F670, symBinAddr: 0x10007DCE0, symSize: 0x390 }
  - { offsetInCU: 0x12374F, offset: 0x2C87B0, size: 0x8, addend: 0x0, symName: __ZNK7testing8UnitTest17failed_test_countEv, symObjAddr: 0x1FA00, symBinAddr: 0x10007E070, symSize: 0x140 }
  - { offsetInCU: 0x1239B4, offset: 0x2C8A15, size: 0x8, addend: 0x0, symName: __ZNK7testing8UnitTest22total_test_suite_countEv, symObjAddr: 0x1FB40, symBinAddr: 0x10007E1B0, symSize: 0x20 }
  - { offsetInCU: 0x1239D9, offset: 0x2C8A3A, size: 0x8, addend: 0x0, symName: __ZNK7testing8UnitTest22total_test_suite_countEv, symObjAddr: 0x1FB40, symBinAddr: 0x10007E1B0, symSize: 0x20 }
  - { offsetInCU: 0x123A7E, offset: 0x2C8ADF, size: 0x8, addend: 0x0, symName: __ZNK7testing8UnitTest12GetTestSuiteEi, symObjAddr: 0x1FB60, symBinAddr: 0x10007E1D0, symSize: 0x50 }
  - { offsetInCU: 0x123B3B, offset: 0x2C8B9C, size: 0x8, addend: 0x0, symName: __ZN7testing8internal27PrettyUnitTestResultPrinter21PrintFailedTestSuitesERKNS_8UnitTestE, symObjAddr: 0x1FBB0, symBinAddr: 0x10007E220, symSize: 0x1D0 }
  - { offsetInCU: 0x123E68, offset: 0x2C8EC9, size: 0x8, addend: 0x0, symName: __ZN7testing8internal27PrettyUnitTestResultPrinter17PrintSkippedTestsERKNS_8UnitTestE, symObjAddr: 0x1FD80, symBinAddr: 0x10007E3F0, symSize: 0x3C0 }
  - { offsetInCU: 0x124739, offset: 0x2C979A, size: 0x8, addend: 0x0, symName: __ZNK7testing8UnitTest18skipped_test_countEv, symObjAddr: 0x20140, symBinAddr: 0x10007E7B0, symSize: 0x10 }
  - { offsetInCU: 0x12487E, offset: 0x2C98DF, size: 0x8, addend: 0x0, symName: __ZN7testing8internal27PrettyUnitTestResultPrinter18OnTestIterationEndERKNS_8UnitTestEi, symObjAddr: 0x20150, symBinAddr: 0x10007E7C0, symSize: 0x650 }
  - { offsetInCU: 0x1261B1, offset: 0x2CB212, size: 0x8, addend: 0x0, symName: __ZNK7testing8UnitTest12elapsed_timeEv, symObjAddr: 0x207A0, symBinAddr: 0x10007EE10, symSize: 0x20 }
  - { offsetInCU: 0x126210, offset: 0x2CB271, size: 0x8, addend: 0x0, symName: __ZNK7testing8UnitTest21successful_test_countEv, symObjAddr: 0x207C0, symBinAddr: 0x10007EE30, symSize: 0xB0 }
  - { offsetInCU: 0x1263F5, offset: 0x2CB456, size: 0x8, addend: 0x0, symName: __ZNK7testing8UnitTest6PassedEv, symObjAddr: 0x20870, symBinAddr: 0x10007EEE0, symSize: 0xF0 }
  - { offsetInCU: 0x12661C, offset: 0x2CB67D, size: 0x8, addend: 0x0, symName: __ZNK7testing8UnitTest30reportable_disabled_test_countEv, symObjAddr: 0x20960, symBinAddr: 0x10007EFD0, symSize: 0xB0 }
  - { offsetInCU: 0x12680C, offset: 0x2CB86D, size: 0x8, addend: 0x0, symName: __ZN7testing8internal26BriefUnitTestResultPrinter16OnTestPartResultERKNS_14TestPartResultE, symObjAddr: 0x20A10, symBinAddr: 0x10007F080, symSize: 0x60 }
  - { offsetInCU: 0x126A7C, offset: 0x2CBADD, size: 0x8, addend: 0x0, symName: __ZN7testing8internal26BriefUnitTestResultPrinter9OnTestEndERKNS_8TestInfoE, symObjAddr: 0x20A70, symBinAddr: 0x10007F0E0, symSize: 0x1D0 }
  - { offsetInCU: 0x1270CF, offset: 0x2CC130, size: 0x8, addend: 0x0, symName: __ZN7testing8internal26BriefUnitTestResultPrinter18OnTestIterationEndERKNS_8UnitTestEi, symObjAddr: 0x20C40, symBinAddr: 0x10007F2B0, symSize: 0x560 }
  - { offsetInCU: 0x12889B, offset: 0x2CD8FC, size: 0x8, addend: 0x0, symName: __ZN7testing8internal17TestEventRepeaterD2Ev, symObjAddr: 0x211A0, symBinAddr: 0x10007F810, symSize: 0x70 }
  - { offsetInCU: 0x128B2C, offset: 0x2CDB8D, size: 0x8, addend: 0x0, symName: __ZN7testing8internal17TestEventRepeaterD1Ev, symObjAddr: 0x21210, symBinAddr: 0x10007F880, symSize: 0x70 }
  - { offsetInCU: 0x128DDE, offset: 0x2CDE3F, size: 0x8, addend: 0x0, symName: __ZN7testing8internal17TestEventRepeaterD0Ev, symObjAddr: 0x21280, symBinAddr: 0x10007F8F0, symSize: 0x70 }
  - { offsetInCU: 0x129448, offset: 0x2CE4A9, size: 0x8, addend: 0x0, symName: __ZN7testing8internal17TestEventRepeater6AppendEPNS_17TestEventListenerE, symObjAddr: 0x212F0, symBinAddr: 0x10007F960, symSize: 0x120 }
  - { offsetInCU: 0x1299FD, offset: 0x2CEA5E, size: 0x8, addend: 0x0, symName: __ZNKSt3__16vectorIPN7testing17TestEventListenerENS_9allocatorIS3_EEE20__throw_length_errorB8ue170006Ev, symObjAddr: 0x3CA70, symBinAddr: 0x10009A470, symSize: 0x10 }
  - { offsetInCU: 0x129A26, offset: 0x2CEA87, size: 0x8, addend: 0x0, symName: __ZNKSt3__16vectorIPN7testing11EnvironmentENS_9allocatorIS3_EEE20__throw_length_errorB8ue170006Ev, symObjAddr: 0x3CA80, symBinAddr: 0x10009A480, symSize: 0x10 }
  - { offsetInCU: 0x129B71, offset: 0x2CEBD2, size: 0x8, addend: 0x0, symName: __ZN7testing8internal17TestEventRepeater7ReleaseEPNS_17TestEventListenerE, symObjAddr: 0x21410, symBinAddr: 0x10007FA80, symSize: 0x90 }
  - { offsetInCU: 0x129DF3, offset: 0x2CEE54, size: 0x8, addend: 0x0, symName: __ZN7testing8internal17TestEventRepeater18OnTestProgramStartERKNS_8UnitTestE, symObjAddr: 0x214A0, symBinAddr: 0x10007FB10, symSize: 0x60 }
  - { offsetInCU: 0x129E7A, offset: 0x2CEEDB, size: 0x8, addend: 0x0, symName: __ZN7testing8internal17TestEventRepeater24OnEnvironmentsSetUpStartERKNS_8UnitTestE, symObjAddr: 0x21500, symBinAddr: 0x10007FB70, symSize: 0x60 }
  - { offsetInCU: 0x129F01, offset: 0x2CEF62, size: 0x8, addend: 0x0, symName: __ZN7testing8internal17TestEventRepeater15OnTestCaseStartERKNS_9TestSuiteE, symObjAddr: 0x21560, symBinAddr: 0x10007FBD0, symSize: 0x60 }
  - { offsetInCU: 0x129F88, offset: 0x2CEFE9, size: 0x8, addend: 0x0, symName: __ZN7testing8internal17TestEventRepeater16OnTestSuiteStartERKNS_9TestSuiteE, symObjAddr: 0x215C0, symBinAddr: 0x10007FC30, symSize: 0x60 }
  - { offsetInCU: 0x12A00F, offset: 0x2CF070, size: 0x8, addend: 0x0, symName: __ZN7testing8internal17TestEventRepeater11OnTestStartERKNS_8TestInfoE, symObjAddr: 0x21620, symBinAddr: 0x10007FC90, symSize: 0x60 }
  - { offsetInCU: 0x12A096, offset: 0x2CF0F7, size: 0x8, addend: 0x0, symName: __ZN7testing8internal17TestEventRepeater14OnTestDisabledERKNS_8TestInfoE, symObjAddr: 0x21680, symBinAddr: 0x10007FCF0, symSize: 0x60 }
  - { offsetInCU: 0x12A11D, offset: 0x2CF17E, size: 0x8, addend: 0x0, symName: __ZN7testing8internal17TestEventRepeater16OnTestPartResultERKNS_14TestPartResultE, symObjAddr: 0x216E0, symBinAddr: 0x10007FD50, symSize: 0x60 }
  - { offsetInCU: 0x12A1A4, offset: 0x2CF205, size: 0x8, addend: 0x0, symName: __ZN7testing8internal17TestEventRepeater27OnEnvironmentsTearDownStartERKNS_8UnitTestE, symObjAddr: 0x21740, symBinAddr: 0x10007FDB0, symSize: 0x60 }
  - { offsetInCU: 0x12A24F, offset: 0x2CF2B0, size: 0x8, addend: 0x0, symName: __ZN7testing8internal17TestEventRepeater22OnEnvironmentsSetUpEndERKNS_8UnitTestE, symObjAddr: 0x217A0, symBinAddr: 0x10007FE10, symSize: 0x60 }
  - { offsetInCU: 0x12A2EC, offset: 0x2CF34D, size: 0x8, addend: 0x0, symName: __ZN7testing8internal17TestEventRepeater25OnEnvironmentsTearDownEndERKNS_8UnitTestE, symObjAddr: 0x21800, symBinAddr: 0x10007FE70, symSize: 0x60 }
  - { offsetInCU: 0x12A389, offset: 0x2CF3EA, size: 0x8, addend: 0x0, symName: __ZN7testing8internal17TestEventRepeater9OnTestEndERKNS_8TestInfoE, symObjAddr: 0x21860, symBinAddr: 0x10007FED0, symSize: 0x60 }
  - { offsetInCU: 0x12A426, offset: 0x2CF487, size: 0x8, addend: 0x0, symName: __ZN7testing8internal17TestEventRepeater13OnTestCaseEndERKNS_9TestSuiteE, symObjAddr: 0x218C0, symBinAddr: 0x10007FF30, symSize: 0x60 }
  - { offsetInCU: 0x12A4C3, offset: 0x2CF524, size: 0x8, addend: 0x0, symName: __ZN7testing8internal17TestEventRepeater14OnTestSuiteEndERKNS_9TestSuiteE, symObjAddr: 0x21920, symBinAddr: 0x10007FF90, symSize: 0x60 }
  - { offsetInCU: 0x12A560, offset: 0x2CF5C1, size: 0x8, addend: 0x0, symName: __ZN7testing8internal17TestEventRepeater16OnTestProgramEndERKNS_8UnitTestE, symObjAddr: 0x21980, symBinAddr: 0x10007FFF0, symSize: 0x60 }
  - { offsetInCU: 0x12A5FD, offset: 0x2CF65E, size: 0x8, addend: 0x0, symName: __ZN7testing8internal17TestEventRepeater20OnTestIterationStartERKNS_8UnitTestEi, symObjAddr: 0x219E0, symBinAddr: 0x100080050, symSize: 0x60 }
  - { offsetInCU: 0x12A69C, offset: 0x2CF6FD, size: 0x8, addend: 0x0, symName: __ZN7testing8internal17TestEventRepeater18OnTestIterationEndERKNS_8UnitTestEi, symObjAddr: 0x21A40, symBinAddr: 0x1000800B0, symSize: 0x60 }
  - { offsetInCU: 0x12A751, offset: 0x2CF7B2, size: 0x8, addend: 0x0, symName: __ZN7testing8internal24XmlUnitTestResultPrinterC2EPKc, symObjAddr: 0x21AA0, symBinAddr: 0x100080110, symSize: 0x130 }
  - { offsetInCU: 0x12AEA1, offset: 0x2CFF02, size: 0x8, addend: 0x0, symName: __ZN7testing8internal24XmlUnitTestResultPrinterC1EPKc, symObjAddr: 0x21BD0, symBinAddr: 0x100080240, symSize: 0x10 }
  - { offsetInCU: 0x12AEE9, offset: 0x2CFF4A, size: 0x8, addend: 0x0, symName: __ZN7testing8internal24XmlUnitTestResultPrinter18OnTestIterationEndERKNS_8UnitTestEi, symObjAddr: 0x21BE0, symBinAddr: 0x100080250, symSize: 0x120 }
  - { offsetInCU: 0x12B32C, offset: 0x2D038D, size: 0x8, addend: 0x0, symName: __ZN7testing8internal24XmlUnitTestResultPrinter16PrintXmlUnitTestEPNSt3__113basic_ostreamIcNS2_11char_traitsIcEEEERKNS_8UnitTestE, symObjAddr: 0x21F10, symBinAddr: 0x100080580, symSize: 0x850 }
  - { offsetInCU: 0x12F09C, offset: 0x2D40FD, size: 0x8, addend: 0x0, symName: __ZN7testing8internal24XmlUnitTestResultPrinter18OutputXmlAttributeEPNSt3__113basic_ostreamIcNS2_11char_traitsIcEEEERKNS2_12basic_stringIcS5_NS2_9allocatorIcEEEESD_SD_, symObjAddr: 0x23CF0, symBinAddr: 0x100082360, symSize: 0x2E0 }
  - { offsetInCU: 0x12FD59, offset: 0x2D4DBA, size: 0x8, addend: 0x0, symName: __ZN7testing8internal24XmlUnitTestResultPrinter29TestPropertiesAsXmlAttributesERKNS_10TestResultE, symObjAddr: 0x26EC0, symBinAddr: 0x100085530, symSize: 0x310 }
  - { offsetInCU: 0x130E20, offset: 0x2D5E81, size: 0x8, addend: 0x0, symName: __ZN7testing8internal24XmlUnitTestResultPrinter17PrintXmlTestSuiteEPNSt3__113basic_ostreamIcNS2_11char_traitsIcEEEERKNS_9TestSuiteE, symObjAddr: 0x265A0, symBinAddr: 0x100084C10, symSize: 0x920 }
  - { offsetInCU: 0x134DE4, offset: 0x2D9E45, size: 0x8, addend: 0x0, symName: __ZN7testing8internal24XmlUnitTestResultPrinter31OutputXmlTestSuiteForTestResultEPNSt3__113basic_ostreamIcNS2_11char_traitsIcEEEERKNS_10TestResultE, symObjAddr: 0x241A0, symBinAddr: 0x100082810, symSize: 0xA90 }
  - { offsetInCU: 0x13CB00, offset: 0x2E1B61, size: 0x8, addend: 0x0, symName: __ZN7testing8internal24XmlUnitTestResultPrinter23ListTestsMatchingFilterERKNSt3__16vectorIPNS_9TestSuiteENS2_9allocatorIS5_EEEE, symObjAddr: 0x22760, symBinAddr: 0x100080DD0, symSize: 0x120 }
  - { offsetInCU: 0x13CF3A, offset: 0x2E1F9B, size: 0x8, addend: 0x0, symName: __ZN7testing8internal24XmlUnitTestResultPrinter17PrintXmlTestsListEPNSt3__113basic_ostreamIcNS2_11char_traitsIcEEEERKNS2_6vectorIPNS_9TestSuiteENS2_9allocatorISA_EEEE, symObjAddr: 0x22880, symBinAddr: 0x100080EF0, symSize: 0x2C0 }
  - { offsetInCU: 0x13E504, offset: 0x2E3565, size: 0x8, addend: 0x0, symName: __ZN7testing8internal24XmlUnitTestResultPrinter9EscapeXmlERKNSt3__112basic_stringIcNS2_11char_traitsIcEENS2_9allocatorIcEEEEb, symObjAddr: 0x22B40, symBinAddr: 0x1000811B0, symSize: 0x320 }
  - { offsetInCU: 0x13EDA1, offset: 0x2E3E02, size: 0x8, addend: 0x0, symName: __ZN7testing8internal24XmlUnitTestResultPrinter26RemoveInvalidXmlCharactersERKNSt3__112basic_stringIcNS2_11char_traitsIcEENS2_9allocatorIcEEEE, symObjAddr: 0x22E60, symBinAddr: 0x1000814D0, symSize: 0x100 }
  - { offsetInCU: 0x13F101, offset: 0x2E4162, size: 0x8, addend: 0x0, symName: __ZN7testing8internal24XmlUnitTestResultPrinter21OutputXmlCDataSectionEPNSt3__113basic_ostreamIcNS2_11char_traitsIcEEEEPKc, symObjAddr: 0x23C30, symBinAddr: 0x1000822A0, symSize: 0xC0 }
  - { offsetInCU: 0x13F364, offset: 0x2E43C5, size: 0x8, addend: 0x0, symName: __ZN7testing8internal24XmlUnitTestResultPrinter19OutputXmlTestResultEPNSt3__113basic_ostreamIcNS2_11char_traitsIcEEEERKNS_10TestResultE, symObjAddr: 0x24C30, symBinAddr: 0x1000832A0, symSize: 0xA90 }
  - { offsetInCU: 0x142F99, offset: 0x2E7FFA, size: 0x8, addend: 0x0, symName: __ZN7testing8internal24XmlUnitTestResultPrinter31OutputXmlTestSuiteForTestResultEPNSt3__113basic_ostreamIcNS2_11char_traitsIcEEEERKNS_10TestResultE.cold.1, symObjAddr: 0x3EAA0, symBinAddr: 0x100375200, symSize: 0x30 }
  - { offsetInCU: 0x143074, offset: 0x2E80D5, size: 0x8, addend: 0x0, symName: __ZN7testing8internal24XmlUnitTestResultPrinter31OutputXmlTestSuiteForTestResultEPNSt3__113basic_ostreamIcNS2_11char_traitsIcEEEERKNS_10TestResultE.cold.2, symObjAddr: 0x3EAD0, symBinAddr: 0x100375230, symSize: 0x30 }
  - { offsetInCU: 0x14314F, offset: 0x2E81B0, size: 0x8, addend: 0x0, symName: __ZN7testing8internal24XmlUnitTestResultPrinter31OutputXmlTestSuiteForTestResultEPNSt3__113basic_ostreamIcNS2_11char_traitsIcEEEERKNS_10TestResultE.cold.3, symObjAddr: 0x3EB00, symBinAddr: 0x100375260, symSize: 0x30 }
  - { offsetInCU: 0x14322A, offset: 0x2E828B, size: 0x8, addend: 0x0, symName: __ZN7testing8internal24XmlUnitTestResultPrinter31OutputXmlTestSuiteForTestResultEPNSt3__113basic_ostreamIcNS2_11char_traitsIcEEEERKNS_10TestResultE.cold.4, symObjAddr: 0x3EB30, symBinAddr: 0x100375290, symSize: 0x30 }
  - { offsetInCU: 0x143305, offset: 0x2E8366, size: 0x8, addend: 0x0, symName: __ZN7testing8internal24XmlUnitTestResultPrinter31OutputXmlTestSuiteForTestResultEPNSt3__113basic_ostreamIcNS2_11char_traitsIcEEEERKNS_10TestResultE.cold.5, symObjAddr: 0x3EB60, symBinAddr: 0x1003752C0, symSize: 0x30 }
  - { offsetInCU: 0x1433E0, offset: 0x2E8441, size: 0x8, addend: 0x0, symName: __ZN7testing8internal24XmlUnitTestResultPrinter31OutputXmlTestSuiteForTestResultEPNSt3__113basic_ostreamIcNS2_11char_traitsIcEEEERKNS_10TestResultE.cold.6, symObjAddr: 0x3EB90, symBinAddr: 0x1003752F0, symSize: 0x30 }
  - { offsetInCU: 0x1434BB, offset: 0x2E851C, size: 0x8, addend: 0x0, symName: __ZN7testing8internal24XmlUnitTestResultPrinter31OutputXmlTestSuiteForTestResultEPNSt3__113basic_ostreamIcNS2_11char_traitsIcEEEERKNS_10TestResultE.cold.7, symObjAddr: 0x3EBC0, symBinAddr: 0x100375320, symSize: 0x30 }
  - { offsetInCU: 0x143596, offset: 0x2E85F7, size: 0x8, addend: 0x0, symName: __ZN7testing8internal24XmlUnitTestResultPrinter31OutputXmlTestSuiteForTestResultEPNSt3__113basic_ostreamIcNS2_11char_traitsIcEEEERKNS_10TestResultE.cold.8, symObjAddr: 0x3EBF0, symBinAddr: 0x100375350, symSize: 0x30 }
  - { offsetInCU: 0x143671, offset: 0x2E86D2, size: 0x8, addend: 0x0, symName: __ZN7testing8internal24XmlUnitTestResultPrinter31OutputXmlTestSuiteForTestResultEPNSt3__113basic_ostreamIcNS2_11char_traitsIcEEEERKNS_10TestResultE.cold.9, symObjAddr: 0x3EC20, symBinAddr: 0x100375380, symSize: 0x30 }
  - { offsetInCU: 0x14374C, offset: 0x2E87AD, size: 0x8, addend: 0x0, symName: __ZN7testing8internal24XmlUnitTestResultPrinter31OutputXmlTestSuiteForTestResultEPNSt3__113basic_ostreamIcNS2_11char_traitsIcEEEERKNS_10TestResultE.cold.10, symObjAddr: 0x3EC50, symBinAddr: 0x1003753B0, symSize: 0x30 }
  - { offsetInCU: 0x14383D, offset: 0x2E889E, size: 0x8, addend: 0x0, symName: __ZN7testing8internal24XmlUnitTestResultPrinter23OutputXmlTestPropertiesEPNSt3__113basic_ostreamIcNS2_11char_traitsIcEEEERKNS_10TestResultE, symObjAddr: 0x26060, symBinAddr: 0x1000846D0, symSize: 0x540 }
  - { offsetInCU: 0x1456E0, offset: 0x2EA741, size: 0x8, addend: 0x0, symName: __ZN7testing8internal24XmlUnitTestResultPrinter17OutputXmlTestInfoEPNSt3__113basic_ostreamIcNS2_11char_traitsIcEEEEPKcRKNS_8TestInfoE, symObjAddr: 0x256C0, symBinAddr: 0x100083D30, symSize: 0x9A0 }
  - { offsetInCU: 0x14ACE2, offset: 0x2EFD43, size: 0x8, addend: 0x0, symName: __ZNK7testing8UnitTest21reportable_test_countEv, symObjAddr: 0x271D0, symBinAddr: 0x100085840, symSize: 0xA0 }
  - { offsetInCU: 0x14AEBF, offset: 0x2EFF20, size: 0x8, addend: 0x0, symName: __ZNK7testing8UnitTest15start_timestampEv, symObjAddr: 0x27270, symBinAddr: 0x1000858E0, symSize: 0x20 }
  - { offsetInCU: 0x14AF1E, offset: 0x2EFF7F, size: 0x8, addend: 0x0, symName: __ZNK7testing8UnitTest18ad_hoc_test_resultEv, symObjAddr: 0x27290, symBinAddr: 0x100085900, symSize: 0x10 }
  - { offsetInCU: 0x14AF55, offset: 0x2EFFB6, size: 0x8, addend: 0x0, symName: __ZN7testing8internal25JsonUnitTestResultPrinterC2EPKc, symObjAddr: 0x272A0, symBinAddr: 0x100085910, symSize: 0x130 }
  - { offsetInCU: 0x14B6A6, offset: 0x2F0707, size: 0x8, addend: 0x0, symName: __ZN7testing8internal25JsonUnitTestResultPrinterC1EPKc, symObjAddr: 0x273D0, symBinAddr: 0x100085A40, symSize: 0x10 }
  - { offsetInCU: 0x14B6EE, offset: 0x2F074F, size: 0x8, addend: 0x0, symName: __ZN7testing8internal25JsonUnitTestResultPrinter18OnTestIterationEndERKNS_8UnitTestEi, symObjAddr: 0x273E0, symBinAddr: 0x100085A50, symSize: 0x120 }
  - { offsetInCU: 0x14BB31, offset: 0x2F0B92, size: 0x8, addend: 0x0, symName: __ZN7testing8internal25JsonUnitTestResultPrinter17PrintJsonUnitTestEPNSt3__113basic_ostreamIcNS2_11char_traitsIcEEEERKNS_8UnitTestE, symObjAddr: 0x27500, symBinAddr: 0x100085B70, symSize: 0x7B0 }
  - { offsetInCU: 0x14F203, offset: 0x2F4264, size: 0x8, addend: 0x0, symName: __ZN7testing8internal25JsonUnitTestResultPrinter13OutputJsonKeyEPNSt3__113basic_ostreamIcNS2_11char_traitsIcEEEERKNS2_12basic_stringIcS5_NS2_9allocatorIcEEEESD_iSD_b, symObjAddr: 0x282D0, symBinAddr: 0x100086940, symSize: 0x380 }
  - { offsetInCU: 0x1500AD, offset: 0x2F510E, size: 0x8, addend: 0x0, symName: __ZN7testing8internal25JsonUnitTestResultPrinter13OutputJsonKeyEPNSt3__113basic_ostreamIcNS2_11char_traitsIcEEEERKNS2_12basic_stringIcS5_NS2_9allocatorIcEEEESD_SD_SD_b, symObjAddr: 0x27FA0, symBinAddr: 0x100086610, symSize: 0x330 }
  - { offsetInCU: 0x150E4B, offset: 0x2F5EAC, size: 0x8, addend: 0x0, symName: __ZN7testing8internal25JsonUnitTestResultPrinter20TestPropertiesAsJsonERKNS_10TestResultERKNSt3__112basic_stringIcNS5_11char_traitsIcEENS5_9allocatorIcEEEE, symObjAddr: 0x2A0C0, symBinAddr: 0x100088730, symSize: 0x380 }
  - { offsetInCU: 0x152017, offset: 0x2F7078, size: 0x8, addend: 0x0, symName: __ZN7testing8internal25JsonUnitTestResultPrinter18PrintJsonTestSuiteEPNSt3__113basic_ostreamIcNS2_11char_traitsIcEEEERKNS_9TestSuiteE, symObjAddr: 0x2B920, symBinAddr: 0x100089F90, symSize: 0x7D0 }
  - { offsetInCU: 0x155911, offset: 0x2FA972, size: 0x8, addend: 0x0, symName: __ZN7testing8internal25JsonUnitTestResultPrinter32OutputJsonTestSuiteForTestResultEPNSt3__113basic_ostreamIcNS2_11char_traitsIcEEEERKNS_10TestResultE, symObjAddr: 0x28650, symBinAddr: 0x100086CC0, symSize: 0xFC0 }
  - { offsetInCU: 0x16066D, offset: 0x3056CE, size: 0x8, addend: 0x0, symName: __ZN7testing8internal25JsonUnitTestResultPrinter10EscapeJsonERKNSt3__112basic_stringIcNS2_11char_traitsIcEENS2_9allocatorIcEEEE, symObjAddr: 0x27CB0, symBinAddr: 0x100086320, symSize: 0x2F0 }
  - { offsetInCU: 0x160E76, offset: 0x305ED7, size: 0x8, addend: 0x0, symName: __ZN7testing8internal25JsonUnitTestResultPrinter20OutputJsonTestResultEPNSt3__113basic_ostreamIcNS2_11char_traitsIcEEEERKNS_10TestResultE, symObjAddr: 0x2A440, symBinAddr: 0x100088AB0, symSize: 0xA20 }
  - { offsetInCU: 0x163F6E, offset: 0x308FCF, size: 0x8, addend: 0x0, symName: __ZN7testing8internal25JsonUnitTestResultPrinter32OutputJsonTestSuiteForTestResultEPNSt3__113basic_ostreamIcNS2_11char_traitsIcEEEERKNS_10TestResultE.cold.5, symObjAddr: 0x3ED80, symBinAddr: 0x1003754E0, symSize: 0x30 }
  - { offsetInCU: 0x164049, offset: 0x3090AA, size: 0x8, addend: 0x0, symName: __ZN7testing8internal25JsonUnitTestResultPrinter32OutputJsonTestSuiteForTestResultEPNSt3__113basic_ostreamIcNS2_11char_traitsIcEEEERKNS_10TestResultE.cold.6, symObjAddr: 0x3EDB0, symBinAddr: 0x100375510, symSize: 0x30 }
  - { offsetInCU: 0x164124, offset: 0x309185, size: 0x8, addend: 0x0, symName: __ZN7testing8internal25JsonUnitTestResultPrinter32OutputJsonTestSuiteForTestResultEPNSt3__113basic_ostreamIcNS2_11char_traitsIcEEEERKNS_10TestResultE.cold.7, symObjAddr: 0x3EDE0, symBinAddr: 0x100375540, symSize: 0x30 }
  - { offsetInCU: 0x1641FF, offset: 0x309260, size: 0x8, addend: 0x0, symName: __ZN7testing8internal25JsonUnitTestResultPrinter32OutputJsonTestSuiteForTestResultEPNSt3__113basic_ostreamIcNS2_11char_traitsIcEEEERKNS_10TestResultE.cold.8, symObjAddr: 0x3EE10, symBinAddr: 0x100375570, symSize: 0x30 }
  - { offsetInCU: 0x1642DA, offset: 0x30933B, size: 0x8, addend: 0x0, symName: __ZN7testing8internal25JsonUnitTestResultPrinter32OutputJsonTestSuiteForTestResultEPNSt3__113basic_ostreamIcNS2_11char_traitsIcEEEERKNS_10TestResultE.cold.1, symObjAddr: 0x3EC80, symBinAddr: 0x1003753E0, symSize: 0x40 }
  - { offsetInCU: 0x1643B5, offset: 0x309416, size: 0x8, addend: 0x0, symName: __ZN7testing8internal25JsonUnitTestResultPrinter32OutputJsonTestSuiteForTestResultEPNSt3__113basic_ostreamIcNS2_11char_traitsIcEEEERKNS_10TestResultE.cold.2, symObjAddr: 0x3ECC0, symBinAddr: 0x100375420, symSize: 0x40 }
  - { offsetInCU: 0x164490, offset: 0x3094F1, size: 0x8, addend: 0x0, symName: __ZN7testing8internal25JsonUnitTestResultPrinter32OutputJsonTestSuiteForTestResultEPNSt3__113basic_ostreamIcNS2_11char_traitsIcEEEERKNS_10TestResultE.cold.3, symObjAddr: 0x3ED00, symBinAddr: 0x100375460, symSize: 0x40 }
  - { offsetInCU: 0x16456B, offset: 0x3095CC, size: 0x8, addend: 0x0, symName: __ZN7testing8internal25JsonUnitTestResultPrinter32OutputJsonTestSuiteForTestResultEPNSt3__113basic_ostreamIcNS2_11char_traitsIcEEEERKNS_10TestResultE.cold.4, symObjAddr: 0x3ED40, symBinAddr: 0x1003754A0, symSize: 0x40 }
  - { offsetInCU: 0x164646, offset: 0x3096A7, size: 0x8, addend: 0x0, symName: __ZN7testing8internal25JsonUnitTestResultPrinter32OutputJsonTestSuiteForTestResultEPNSt3__113basic_ostreamIcNS2_11char_traitsIcEEEERKNS_10TestResultE.cold.9, symObjAddr: 0x3EE40, symBinAddr: 0x1003755A0, symSize: 0x30 }
  - { offsetInCU: 0x164721, offset: 0x309782, size: 0x8, addend: 0x0, symName: __ZN7testing8internal25JsonUnitTestResultPrinter32OutputJsonTestSuiteForTestResultEPNSt3__113basic_ostreamIcNS2_11char_traitsIcEEEERKNS_10TestResultE.cold.10, symObjAddr: 0x3EE70, symBinAddr: 0x1003755D0, symSize: 0x40 }
  - { offsetInCU: 0x1647FC, offset: 0x30985D, size: 0x8, addend: 0x0, symName: __ZN7testing8internal25JsonUnitTestResultPrinter18OutputJsonTestInfoEPNSt3__113basic_ostreamIcNS2_11char_traitsIcEEEEPKcRKNS_8TestInfoE, symObjAddr: 0x2AE60, symBinAddr: 0x1000894D0, symSize: 0xAC0 }
  - { offsetInCU: 0x16A75E, offset: 0x30F7BF, size: 0x8, addend: 0x0, symName: __ZN7testing8internal25JsonUnitTestResultPrinter17PrintJsonTestListEPNSt3__113basic_ostreamIcNS2_11char_traitsIcEEEERKNS2_6vectorIPNS_9TestSuiteENS2_9allocatorISA_EEEE, symObjAddr: 0x2C0F0, symBinAddr: 0x10008A760, symSize: 0x2F0 }
  - { offsetInCU: 0x16C042, offset: 0x3110A3, size: 0x8, addend: 0x0, symName: __ZN7testing8internal17StreamingListener9UrlEncodeEPKc, symObjAddr: 0x2C3E0, symBinAddr: 0x10008AA50, symSize: 0x130 }
  - { offsetInCU: 0x16C538, offset: 0x311599, size: 0x8, addend: 0x0, symName: __ZN7testing8internal17StreamingListener12SocketWriter14MakeConnectionEv, symObjAddr: 0x2C510, symBinAddr: 0x10008AB80, symSize: 0x250 }
  - { offsetInCU: 0x16CCFD, offset: 0x311D5E, size: 0x8, addend: 0x0, symName: __ZN7testing8internal18OsStackTraceGetter17CurrentStackTraceEii, symObjAddr: 0x2C760, symBinAddr: 0x10008ADD0, symSize: 0x10 }
  - { offsetInCU: 0x16CDC5, offset: 0x311E26, size: 0x8, addend: 0x0, symName: __ZN7testing8internal18OsStackTraceGetter16UponLeavingGTestEv, symObjAddr: 0x2C770, symBinAddr: 0x10008ADE0, symSize: 0x10 }
  - { offsetInCU: 0x16CE53, offset: 0x311EB4, size: 0x8, addend: 0x0, symName: __ZN7testing18TestEventListenersC2Ev, symObjAddr: 0x2C780, symBinAddr: 0x10008ADF0, symSize: 0x40 }
  - { offsetInCU: 0x16CF13, offset: 0x311F74, size: 0x8, addend: 0x0, symName: __ZN7testing18TestEventListenersC1Ev, symObjAddr: 0x2C7C0, symBinAddr: 0x10008AE30, symSize: 0x40 }
  - { offsetInCU: 0x16CFD7, offset: 0x312038, size: 0x8, addend: 0x0, symName: __ZN7testing18TestEventListenersD2Ev, symObjAddr: 0x2C800, symBinAddr: 0x10008AE70, symSize: 0x20 }
  - { offsetInCU: 0x16D023, offset: 0x312084, size: 0x8, addend: 0x0, symName: __ZN7testing18TestEventListenersD1Ev, symObjAddr: 0x2C820, symBinAddr: 0x10008AE90, symSize: 0x20 }
  - { offsetInCU: 0x16D073, offset: 0x3120D4, size: 0x8, addend: 0x0, symName: __ZN7testing18TestEventListeners6AppendEPNS_17TestEventListenerE, symObjAddr: 0x2C840, symBinAddr: 0x10008AEB0, symSize: 0x10 }
  - { offsetInCU: 0x16D0E7, offset: 0x312148, size: 0x8, addend: 0x0, symName: __ZN7testing18TestEventListeners7ReleaseEPNS_17TestEventListenerE, symObjAddr: 0x2C850, symBinAddr: 0x10008AEC0, symSize: 0xB0 }
  - { offsetInCU: 0x16D3DC, offset: 0x31243D, size: 0x8, addend: 0x0, symName: __ZN7testing18TestEventListeners23SetDefaultResultPrinterEPNS_17TestEventListenerE, symObjAddr: 0x2C900, symBinAddr: 0x10008AF70, symSize: 0xF0 }
  - { offsetInCU: 0x16D6F5, offset: 0x312756, size: 0x8, addend: 0x0, symName: __ZN7testing18TestEventListeners22SetDefaultXmlGeneratorEPNS_17TestEventListenerE, symObjAddr: 0x2C9F0, symBinAddr: 0x10008B060, symSize: 0x100 }
  - { offsetInCU: 0x16DA29, offset: 0x312A8A, size: 0x8, addend: 0x0, symName: __ZNK7testing18TestEventListeners22EventForwardingEnabledEv, symObjAddr: 0x2CAF0, symBinAddr: 0x10008B160, symSize: 0x10 }
  - { offsetInCU: 0x16DA8D, offset: 0x312AEE, size: 0x8, addend: 0x0, symName: __ZN7testing8UnitTestD1Ev, symObjAddr: 0x2CB70, symBinAddr: 0x10008B1E0, symSize: 0x40 }
  - { offsetInCU: 0x16DB2D, offset: 0x312B8E, size: 0x8, addend: 0x0, symName: __ZNK7testing8UnitTest27successful_test_suite_countEv, symObjAddr: 0x2CBB0, symBinAddr: 0x10008B220, symSize: 0x70 }
  - { offsetInCU: 0x16DC95, offset: 0x312CF6, size: 0x8, addend: 0x0, symName: __ZNK7testing8UnitTest23failed_test_suite_countEv, symObjAddr: 0x2CC20, symBinAddr: 0x10008B290, symSize: 0x70 }
  - { offsetInCU: 0x16DDDC, offset: 0x312E3D, size: 0x8, addend: 0x0, symName: __ZNK7testing8UnitTest26successful_test_case_countEv, symObjAddr: 0x2CC90, symBinAddr: 0x10008B300, symSize: 0x70 }
  - { offsetInCU: 0x16DF44, offset: 0x312FA5, size: 0x8, addend: 0x0, symName: __ZNK7testing8UnitTest22failed_test_case_countEv, symObjAddr: 0x2CD00, symBinAddr: 0x10008B370, symSize: 0x70 }
  - { offsetInCU: 0x16E08B, offset: 0x3130EC, size: 0x8, addend: 0x0, symName: __ZNK7testing8UnitTest21total_test_case_countEv, symObjAddr: 0x2CD70, symBinAddr: 0x10008B3E0, symSize: 0x20 }
  - { offsetInCU: 0x16E113, offset: 0x313174, size: 0x8, addend: 0x0, symName: __ZNK7testing8UnitTest22test_case_to_run_countEv, symObjAddr: 0x2CD90, symBinAddr: 0x10008B400, symSize: 0x40 }
  - { offsetInCU: 0x16E28C, offset: 0x3132ED, size: 0x8, addend: 0x0, symName: __ZNK7testing8UnitTest19disabled_test_countEv, symObjAddr: 0x2CDD0, symBinAddr: 0x10008B440, symSize: 0x90 }
  - { offsetInCU: 0x16E476, offset: 0x3134D7, size: 0x8, addend: 0x0, symName: __ZNK7testing8UnitTest16total_test_countEv, symObjAddr: 0x2CE60, symBinAddr: 0x10008B4D0, symSize: 0x60 }
  - { offsetInCU: 0x16E58F, offset: 0x3135F0, size: 0x8, addend: 0x0, symName: __ZNK7testing8UnitTest6FailedEv, symObjAddr: 0x2CEC0, symBinAddr: 0x10008B530, symSize: 0xF0 }
  - { offsetInCU: 0x16E7C6, offset: 0x313827, size: 0x8, addend: 0x0, symName: __ZNK7testing8UnitTest11GetTestCaseEi, symObjAddr: 0x2CFB0, symBinAddr: 0x10008B620, symSize: 0x50 }
  - { offsetInCU: 0x16E909, offset: 0x31396A, size: 0x8, addend: 0x0, symName: __ZN7testing8UnitTest19GetMutableTestSuiteEi, symObjAddr: 0x2D000, symBinAddr: 0x10008B670, symSize: 0x50 }
  - { offsetInCU: 0x16EE2A, offset: 0x313E8B, size: 0x8, addend: 0x0, symName: __ZN7testing8UnitTest14AddEnvironmentEPNS_11EnvironmentE, symObjAddr: 0x2D050, symBinAddr: 0x10008B6C0, symSize: 0x140 }
  - { offsetInCU: 0x16F3D8, offset: 0x314439, size: 0x8, addend: 0x0, symName: __ZNKSt3__16vectorIPN7testing11EnvironmentENS_9allocatorIS3_EEE20__throw_length_errorB8ue170006Ev, symObjAddr: 0x3CA80, symBinAddr: 0x10009A480, symSize: 0x10 }
  - { offsetInCU: 0x16F401, offset: 0x314462, size: 0x8, addend: 0x0, symName: __ZNSt3__16vectorIN7testing8internal9TraceInfoENS_9allocatorIS3_EEE21__push_back_slow_pathIRKS3_EEvOT_, symObjAddr: 0x3CA90, symBinAddr: 0x10009A490, symSize: 0x2A0 }
  - { offsetInCU: 0x16F429, offset: 0x31448A, size: 0x8, addend: 0x0, symName: __ZN7testing8internal26GoogleTestFailureExceptionD1Ev, symObjAddr: 0x2D190, symBinAddr: 0x10008B800, symSize: 0x10 }
  - { offsetInCU: 0x16F4E3, offset: 0x314544, size: 0x8, addend: 0x0, symName: __ZN7testing8UnitTest3RunEv, symObjAddr: 0x2D2B0, symBinAddr: 0x10008B920, symSize: 0xA0 }
  - { offsetInCU: 0x16F69C, offset: 0x3146FD, size: 0x8, addend: 0x0, symName: __ZN7testing8internal23ScopedPrematureExitFileC2EPKc, symObjAddr: 0x36610, symBinAddr: 0x100094190, symSize: 0x120 }
  - { offsetInCU: 0x16FD8E, offset: 0x314DEF, size: 0x8, addend: 0x0, symName: __ZN7testing8internal23ScopedPrematureExitFileD2Ev, symObjAddr: 0x36730, symBinAddr: 0x1000942B0, symSize: 0xF0 }
  - { offsetInCU: 0x1704F5, offset: 0x315556, size: 0x8, addend: 0x0, symName: __ZN7testing8internal12UnitTestImpl11RunAllTestsEv, symObjAddr: 0x2D4B0, symBinAddr: 0x10008BB20, symSize: 0xC30 }
  - { offsetInCU: 0x17266B, offset: 0x3176CC, size: 0x8, addend: 0x0, symName: __ZN7testing8internal12UnitTestImpl19PostFlagParsingInitEv, symObjAddr: 0x2F350, symBinAddr: 0x10008D9C0, symSize: 0x1D0 }
  - { offsetInCU: 0x172DD2, offset: 0x317E33, size: 0x8, addend: 0x0, symName: __ZN7testing8internal12UnitTestImpl11FilterTestsENS1_18ReactionToShardingE, symObjAddr: 0x2FCF0, symBinAddr: 0x10008E360, symSize: 0x310 }
  - { offsetInCU: 0x173F69, offset: 0x318FCA, size: 0x8, addend: 0x0, symName: __ZN7testing8internal12UnitTestImpl23ListTestsMatchingFilterEv, symObjAddr: 0x30000, symBinAddr: 0x10008E670, symSize: 0x690 }
  - { offsetInCU: 0x1756DE, offset: 0x31A73F, size: 0x8, addend: 0x0, symName: __ZNK7testing8UnitTest18current_test_suiteEv, symObjAddr: 0x2E0E0, symBinAddr: 0x10008C750, symSize: 0x40 }
  - { offsetInCU: 0x1757BF, offset: 0x31A820, size: 0x8, addend: 0x0, symName: __ZNK7testing8UnitTest17current_test_caseEv, symObjAddr: 0x2E120, symBinAddr: 0x10008C790, symSize: 0x40 }
  - { offsetInCU: 0x1758A0, offset: 0x31A901, size: 0x8, addend: 0x0, symName: __ZNK7testing8UnitTest17current_test_infoEv, symObjAddr: 0x2E160, symBinAddr: 0x10008C7D0, symSize: 0x40 }
  - { offsetInCU: 0x175997, offset: 0x31A9F8, size: 0x8, addend: 0x0, symName: __ZN7testing8UnitTest27parameterized_test_registryEv, symObjAddr: 0x2E1A0, symBinAddr: 0x10008C810, symSize: 0x10 }
  - { offsetInCU: 0x1759D5, offset: 0x31AA36, size: 0x8, addend: 0x0, symName: __ZN7testing8UnitTestC2Ev, symObjAddr: 0x2E1B0, symBinAddr: 0x10008C820, symSize: 0x70 }
  - { offsetInCU: 0x175A9F, offset: 0x31AB00, size: 0x8, addend: 0x0, symName: __ZN7testing8internal12UnitTestImplC1EPNS_8UnitTestE, symObjAddr: 0x2E220, symBinAddr: 0x10008C890, symSize: 0x10 }
  - { offsetInCU: 0x175AE7, offset: 0x31AB48, size: 0x8, addend: 0x0, symName: __ZN7testing8UnitTestD2Ev, symObjAddr: 0x2E230, symBinAddr: 0x10008C8A0, symSize: 0x40 }
  - { offsetInCU: 0x175B6A, offset: 0x31ABCB, size: 0x8, addend: 0x0, symName: __ZN7testing8UnitTestD0Ev, symObjAddr: 0x2E270, symBinAddr: 0x10008C8E0, symSize: 0x40 }
  - { offsetInCU: 0x175D9B, offset: 0x31ADFC, size: 0x8, addend: 0x0, symName: __ZN7testing8UnitTest14PushGTestTraceERKNS_8internal9TraceInfoE, symObjAddr: 0x2E2B0, symBinAddr: 0x10008C920, symSize: 0x140 }
  - { offsetInCU: 0x17645C, offset: 0x31B4BD, size: 0x8, addend: 0x0, symName: __ZNSt3__16vectorIN7testing8internal9TraceInfoENS_9allocatorIS3_EEE21__push_back_slow_pathIRKS3_EEvOT_, symObjAddr: 0x3CA90, symBinAddr: 0x10009A490, symSize: 0x2A0 }
  - { offsetInCU: 0x177214, offset: 0x31C275, size: 0x8, addend: 0x0, symName: __ZN7testing8UnitTest13PopGTestTraceEv, symObjAddr: 0x2E3F0, symBinAddr: 0x10008CA60, symSize: 0x80 }
  - { offsetInCU: 0x1781D3, offset: 0x31D234, size: 0x8, addend: 0x0, symName: __ZN7testing8internal11ThreadLocalIPNS_31TestPartResultReporterInterfaceEE9CreateKeyEv, symObjAddr: 0x3CDA0, symBinAddr: 0x10009A7A0, symSize: 0xA0 }
  - { offsetInCU: 0x178372, offset: 0x31D3D3, size: 0x8, addend: 0x0, symName: __ZN7testing8internal11ThreadLocalINSt3__16vectorINS0_9TraceInfoENS2_9allocatorIS4_EEEEE9CreateKeyEv, symObjAddr: 0x3CED0, symBinAddr: 0x10009A8D0, symSize: 0xA0 }
  - { offsetInCU: 0x178511, offset: 0x31D572, size: 0x8, addend: 0x0, symName: __ZN7testing8internal11ThreadLocalINSt3__16vectorINS0_9TraceInfoENS2_9allocatorIS4_EEEEED2Ev, symObjAddr: 0x3D170, symBinAddr: 0x10009AB70, symSize: 0xC0 }
  - { offsetInCU: 0x178757, offset: 0x31D7B8, size: 0x8, addend: 0x0, symName: __ZNSt3__110unique_ptrIN7testing8internal24InternalRunDeathTestFlagENS_14default_deleteIS3_EEED1B8ue170006Ev, symObjAddr: 0x2E8D0, symBinAddr: 0x10008CF40, symSize: 0x50 }
  - { offsetInCU: 0x17896E, offset: 0x31D9CF, size: 0x8, addend: 0x0, symName: __ZNSt3__16__treeINS_12__value_typeINS_12basic_stringIcNS_11char_traitsIcEENS_9allocatorIcEEEEN7testing8internal34TypeParameterizedTestSuiteRegistry30TypeParameterizedTestSuiteInfoEEENS_19__map_value_compareIS7_SC_NS_4lessIS7_EELb1EEENS5_ISC_EEE7destroyEPNS_11__tree_nodeISC_PvEE, symObjAddr: 0x36820, symBinAddr: 0x1000943A0, symSize: 0x60 }
  - { offsetInCU: 0x178E1E, offset: 0x31DE7F, size: 0x8, addend: 0x0, symName: __ZN7testing8internal30ParameterizedTestSuiteRegistryD2Ev, symObjAddr: 0x36880, symBinAddr: 0x100094400, symSize: 0xB0 }
  - { offsetInCU: 0x179520, offset: 0x31E581, size: 0x8, addend: 0x0, symName: __ZNSt3__113unordered_mapINS_12basic_stringIcNS_11char_traitsIcEENS_9allocatorIcEEEEPN7testing9TestSuiteENS_4hashIS6_EENS_8equal_toIS6_EENS4_INS_4pairIKS6_S9_EEEEED1B8ue170006Ev, symObjAddr: 0x2E920, symBinAddr: 0x10008CF90, symSize: 0x70 }
  - { offsetInCU: 0x17998E, offset: 0x31E9EF, size: 0x8, addend: 0x0, symName: __ZN7testing8internal11ThreadLocalIPNS_31TestPartResultReporterInterfaceEED2Ev, symObjAddr: 0x3D0B0, symBinAddr: 0x10009AAB0, symSize: 0xC0 }
  - { offsetInCU: 0x179EC1, offset: 0x31EF22, size: 0x8, addend: 0x0, symName: __ZN7testing8internal38DefaultPerThreadTestPartResultReporterD1Ev, symObjAddr: 0x2E990, symBinAddr: 0x10008D000, symSize: 0x10 }
  - { offsetInCU: 0x179EED, offset: 0x31EF4E, size: 0x8, addend: 0x0, symName: __ZN7testing8internal35DefaultGlobalTestPartResultReporterD1Ev, symObjAddr: 0x2E9A0, symBinAddr: 0x10008D010, symSize: 0x10 }
  - { offsetInCU: 0x179F4D, offset: 0x31EFAE, size: 0x8, addend: 0x0, symName: __ZN7testing8internal12UnitTestImplD2Ev, symObjAddr: 0x2E9B0, symBinAddr: 0x10008D020, symSize: 0x230 }
  - { offsetInCU: 0x17B10B, offset: 0x32016C, size: 0x8, addend: 0x0, symName: __ZN7testing8internal12UnitTestImplD1Ev, symObjAddr: 0x2EBE0, symBinAddr: 0x10008D250, symSize: 0x10 }
  - { offsetInCU: 0x17B160, offset: 0x3201C1, size: 0x8, addend: 0x0, symName: __ZN7testing8internal12UnitTestImplD0Ev, symObjAddr: 0x2EBF0, symBinAddr: 0x10008D260, symSize: 0x20 }
  - { offsetInCU: 0x17B1C4, offset: 0x320225, size: 0x8, addend: 0x0, symName: __ZN7testing8internal12UnitTestImpl32SuppressTestEventsIfInSubprocessEv, symObjAddr: 0x2EC10, symBinAddr: 0x10008D280, symSize: 0x20 }
  - { offsetInCU: 0x17B300, offset: 0x320361, size: 0x8, addend: 0x0, symName: __ZN7testing8internal12UnitTestImpl18ConfigureXmlOutputEv, symObjAddr: 0x2EC30, symBinAddr: 0x10008D2A0, symSize: 0x420 }
  - { offsetInCU: 0x17C1BD, offset: 0x32121E, size: 0x8, addend: 0x0, symName: __ZN7testing8internal12UnitTestImpl24ConfigureStreamingOutputEv, symObjAddr: 0x2F050, symBinAddr: 0x10008D6C0, symSize: 0x300 }
  - { offsetInCU: 0x17D228, offset: 0x322289, size: 0x8, addend: 0x0, symName: __ZN7testing8internal17StreamingListenerC2ERKNSt3__112basic_stringIcNS2_11char_traitsIcEENS2_9allocatorIcEEEESA_, symObjAddr: 0x36930, symBinAddr: 0x1000944B0, symSize: 0x100 }
  - { offsetInCU: 0x17DF8A, offset: 0x322FEB, size: 0x8, addend: 0x0, symName: __ZNSt3__112__hash_tableINS_17__hash_value_typeINS_12basic_stringIcNS_11char_traitsIcEENS_9allocatorIcEEEEPN7testing9TestSuiteEEENS_22__unordered_map_hasherIS7_SB_NS_4hashIS7_EENS_8equal_toIS7_EELb1EEENS_21__unordered_map_equalIS7_SB_SG_SE_Lb1EEENS5_ISB_EEE4findIS7_EENS_15__hash_iteratorIPNS_11__hash_nodeISB_PvEEEERKT_, symObjAddr: 0x3D230, symBinAddr: 0x10009AC30, symSize: 0x230 }
  - { offsetInCU: 0x17E284, offset: 0x3232E5, size: 0x8, addend: 0x0, symName: __ZNSt3__112__hash_tableINS_17__hash_value_typeINS_12basic_stringIcNS_11char_traitsIcEENS_9allocatorIcEEEEPN7testing9TestSuiteEEENS_22__unordered_map_hasherIS7_SB_NS_4hashIS7_EENS_8equal_toIS7_EELb1EEENS_21__unordered_map_equalIS7_SB_SG_SE_Lb1EEENS5_ISB_EEE25__emplace_unique_key_argsIS7_JRKS7_RKSA_EEENS_4pairINS_15__hash_iteratorIPNS_11__hash_nodeISB_PvEEEEbEERKT_DpOT0_, symObjAddr: 0x3D460, symBinAddr: 0x10009AE60, symSize: 0x3D0 }
  - { offsetInCU: 0x17E8A9, offset: 0x32390A, size: 0x8, addend: 0x0, symName: __ZNSt3__16vectorIPN7testing9TestSuiteENS_9allocatorIS3_EEE6insertENS_11__wrap_iterIPKS3_EERS8_, symObjAddr: 0x2FA00, symBinAddr: 0x10008E070, symSize: 0x270 }
  - { offsetInCU: 0x17F5FC, offset: 0x32465D, size: 0x8, addend: 0x0, symName: __ZNKSt3__16vectorIPN7testing9TestSuiteENS_9allocatorIS3_EEE20__throw_length_errorB8ue170006Ev, symObjAddr: 0x3DC90, symBinAddr: 0x10009B690, symSize: 0x10 }
  - { offsetInCU: 0x17F625, offset: 0x324686, size: 0x8, addend: 0x0, symName: __ZN7testing8internal18StreamableToStringIPcEENSt3__112basic_stringIcNS3_11char_traitsIcEENS3_9allocatorIcEEEERKT_, symObjAddr: 0x3DCA0, symBinAddr: 0x10009B6A0, symSize: 0xC0 }
  - { offsetInCU: 0x17F99C, offset: 0x3249FD, size: 0x8, addend: 0x0, symName: __ZN7testing8internal12UnitTestImpl12ShuffleTestsEv, symObjAddr: 0x30690, symBinAddr: 0x10008ED00, symSize: 0xB0 }
  - { offsetInCU: 0x17FB5B, offset: 0x324BBC, size: 0x8, addend: 0x0, symName: __ZN7testing8internal12UnitTestImpl14UnshuffleTestsEv, symObjAddr: 0x308A0, symBinAddr: 0x10008EF10, symSize: 0x80 }
  - { offsetInCU: 0x17FBC7, offset: 0x324C28, size: 0x8, addend: 0x0, symName: __ZN7testing8internal24XmlUnitTestResultPrinterD1Ev, symObjAddr: 0x30A00, symBinAddr: 0x10008F070, symSize: 0x20 }
  - { offsetInCU: 0x17FD0D, offset: 0x324D6E, size: 0x8, addend: 0x0, symName: __ZN7testing8internal25JsonUnitTestResultPrinterD1Ev, symObjAddr: 0x30A20, symBinAddr: 0x10008F090, symSize: 0x20 }
  - { offsetInCU: 0x17FE53, offset: 0x324EB4, size: 0x8, addend: 0x0, symName: __ZN7testing8internal12UnitTestImpl25set_os_stack_trace_getterEPNS0_27OsStackTraceGetterInterfaceE, symObjAddr: 0x30A40, symBinAddr: 0x10008F0B0, symSize: 0x30 }
  - { offsetInCU: 0x17FED2, offset: 0x324F33, size: 0x8, addend: 0x0, symName: __ZN7testing11ScopedTrace9PushTraceEPKciNSt3__112basic_stringIcNS3_11char_traitsIcEENS3_9allocatorIcEEEE, symObjAddr: 0x31D60, symBinAddr: 0x1000903D0, symSize: 0xD0 }
  - { offsetInCU: 0x180269, offset: 0x3252CA, size: 0x8, addend: 0x0, symName: __ZN7testing11ScopedTraceD2Ev, symObjAddr: 0x31E30, symBinAddr: 0x1000904A0, symSize: 0x90 }
  - { offsetInCU: 0x1802BD, offset: 0x32531E, size: 0x8, addend: 0x0, symName: __ZN7testing11ScopedTraceD1Ev, symObjAddr: 0x31EC0, symBinAddr: 0x100090530, symSize: 0x10 }
  - { offsetInCU: 0x1802F7, offset: 0x325358, size: 0x8, addend: 0x0, symName: __ZN7testing8internal13DeathTestImplD1Ev, symObjAddr: 0x31ED0, symBinAddr: 0x1003750C0, symSize: 0x10 }
  - { offsetInCU: 0x180320, offset: 0x325381, size: 0x8, addend: 0x0, symName: __ZN7testing8internal13DeathTestImplD0Ev, symObjAddr: 0x31EE0, symBinAddr: 0x1003750D0, symSize: 0x10 }
  - { offsetInCU: 0x180349, offset: 0x3253AA, size: 0x8, addend: 0x0, symName: __ZN7testing8internal16ForkingDeathTestD1Ev, symObjAddr: 0x31EF0, symBinAddr: 0x1003750E0, symSize: 0x10 }
  - { offsetInCU: 0x180375, offset: 0x3253D6, size: 0x8, addend: 0x0, symName: __ZN7testing8internal16ForkingDeathTestD0Ev, symObjAddr: 0x31F00, symBinAddr: 0x1003750F0, symSize: 0x10 }
  - { offsetInCU: 0x1803DB, offset: 0x32543C, size: 0x8, addend: 0x0, symName: __ZN7testing8internal15NoExecDeathTestD1Ev, symObjAddr: 0x31F10, symBinAddr: 0x100090540, symSize: 0x10 }
  - { offsetInCU: 0x180451, offset: 0x3254B2, size: 0x8, addend: 0x0, symName: __ZN7testing8internal13DeathTestImplD2Ev, symObjAddr: 0x384A0, symBinAddr: 0x100096020, symSize: 0x170 }
  - { offsetInCU: 0x180892, offset: 0x3258F3, size: 0x8, addend: 0x0, symName: __ZN7testing8internal15NoExecDeathTestD0Ev, symObjAddr: 0x31F20, symBinAddr: 0x100090550, symSize: 0x20 }
  - { offsetInCU: 0x180951, offset: 0x3259B2, size: 0x8, addend: 0x0, symName: __ZN7testing8internal13ExecDeathTestD1Ev, symObjAddr: 0x31F40, symBinAddr: 0x100090570, symSize: 0x10 }
  - { offsetInCU: 0x1809E4, offset: 0x325A45, size: 0x8, addend: 0x0, symName: __ZN7testing8internal13ExecDeathTestD0Ev, symObjAddr: 0x31F50, symBinAddr: 0x100090580, symSize: 0x20 }
  - { offsetInCU: 0x180A86, offset: 0x325AE7, size: 0x8, addend: 0x0, symName: __ZN7testing8internal23DefaultDeathTestFactoryD1Ev, symObjAddr: 0x31F70, symBinAddr: 0x1000905A0, symSize: 0x10 }
  - { offsetInCU: 0x180AB1, offset: 0x325B12, size: 0x8, addend: 0x0, symName: __ZN7testing8internal23DefaultDeathTestFactoryD0Ev, symObjAddr: 0x31F80, symBinAddr: 0x1000905B0, symSize: 0x10 }
  - { offsetInCU: 0x180ADC, offset: 0x325B3D, size: 0x8, addend: 0x0, symName: __ZN7testing8internal35DefaultGlobalTestPartResultReporterD0Ev, symObjAddr: 0x31F90, symBinAddr: 0x1000905C0, symSize: 0x10 }
  - { offsetInCU: 0x180B08, offset: 0x325B69, size: 0x8, addend: 0x0, symName: __ZN7testing8internal38DefaultPerThreadTestPartResultReporterD0Ev, symObjAddr: 0x31FA0, symBinAddr: 0x1000905D0, symSize: 0x10 }
  - { offsetInCU: 0x180B34, offset: 0x325B95, size: 0x8, addend: 0x0, symName: __ZN7testing8internal27PrettyUnitTestResultPrinterD1Ev, symObjAddr: 0x31FC0, symBinAddr: 0x1000905E0, symSize: 0x10 }
  - { offsetInCU: 0x180B60, offset: 0x325BC1, size: 0x8, addend: 0x0, symName: __ZN7testing8internal27PrettyUnitTestResultPrinterD0Ev, symObjAddr: 0x31FD0, symBinAddr: 0x1000905F0, symSize: 0x10 }
  - { offsetInCU: 0x180B8C, offset: 0x325BED, size: 0x8, addend: 0x0, symName: __ZN7testing8internal27PrettyUnitTestResultPrinter18OnTestProgramStartERKNS_8UnitTestE, symObjAddr: 0x31FE0, symBinAddr: 0x100090600, symSize: 0x10 }
  - { offsetInCU: 0x180BBC, offset: 0x325C1D, size: 0x8, addend: 0x0, symName: __ZN7testing8internal27PrettyUnitTestResultPrinter22OnEnvironmentsSetUpEndERKNS_8UnitTestE, symObjAddr: 0x31FF0, symBinAddr: 0x100090610, symSize: 0x10 }
  - { offsetInCU: 0x180BEC, offset: 0x325C4D, size: 0x8, addend: 0x0, symName: __ZN7testing17TestEventListener16OnTestSuiteStartERKNS_9TestSuiteE, symObjAddr: 0x32000, symBinAddr: 0x100090620, symSize: 0x10 }
  - { offsetInCU: 0x180C1C, offset: 0x325C7D, size: 0x8, addend: 0x0, symName: __ZN7testing17TestEventListener14OnTestSuiteEndERKNS_9TestSuiteE, symObjAddr: 0x32010, symBinAddr: 0x100090630, symSize: 0x10 }
  - { offsetInCU: 0x180C4C, offset: 0x325CAD, size: 0x8, addend: 0x0, symName: __ZN7testing8internal27PrettyUnitTestResultPrinter25OnEnvironmentsTearDownEndERKNS_8UnitTestE, symObjAddr: 0x32020, symBinAddr: 0x100090640, symSize: 0x10 }
  - { offsetInCU: 0x180C7C, offset: 0x325CDD, size: 0x8, addend: 0x0, symName: __ZN7testing8internal27PrettyUnitTestResultPrinter16OnTestProgramEndERKNS_8UnitTestE, symObjAddr: 0x32030, symBinAddr: 0x100090650, symSize: 0x10 }
  - { offsetInCU: 0x180CAC, offset: 0x325D0D, size: 0x8, addend: 0x0, symName: __ZN7testing8internal26BriefUnitTestResultPrinterD1Ev, symObjAddr: 0x32040, symBinAddr: 0x100090660, symSize: 0x10 }
  - { offsetInCU: 0x180CD8, offset: 0x325D39, size: 0x8, addend: 0x0, symName: __ZN7testing8internal26BriefUnitTestResultPrinterD0Ev, symObjAddr: 0x32050, symBinAddr: 0x100090670, symSize: 0x10 }
  - { offsetInCU: 0x180D04, offset: 0x325D65, size: 0x8, addend: 0x0, symName: __ZN7testing8internal26BriefUnitTestResultPrinter18OnTestProgramStartERKNS_8UnitTestE, symObjAddr: 0x32060, symBinAddr: 0x100090680, symSize: 0x10 }
  - { offsetInCU: 0x180D34, offset: 0x325D95, size: 0x8, addend: 0x0, symName: __ZN7testing8internal26BriefUnitTestResultPrinter20OnTestIterationStartERKNS_8UnitTestEi, symObjAddr: 0x32070, symBinAddr: 0x100090690, symSize: 0x10 }
  - { offsetInCU: 0x180D6F, offset: 0x325DD0, size: 0x8, addend: 0x0, symName: __ZN7testing8internal26BriefUnitTestResultPrinter24OnEnvironmentsSetUpStartERKNS_8UnitTestE, symObjAddr: 0x32080, symBinAddr: 0x1000906A0, symSize: 0x10 }
  - { offsetInCU: 0x180D9F, offset: 0x325E00, size: 0x8, addend: 0x0, symName: __ZN7testing8internal26BriefUnitTestResultPrinter22OnEnvironmentsSetUpEndERKNS_8UnitTestE, symObjAddr: 0x32090, symBinAddr: 0x1000906B0, symSize: 0x10 }
  - { offsetInCU: 0x180DCF, offset: 0x325E30, size: 0x8, addend: 0x0, symName: __ZN7testing8internal26BriefUnitTestResultPrinter15OnTestCaseStartERKNS_9TestSuiteE, symObjAddr: 0x320A0, symBinAddr: 0x1000906C0, symSize: 0x10 }
  - { offsetInCU: 0x180DFF, offset: 0x325E60, size: 0x8, addend: 0x0, symName: __ZN7testing8internal26BriefUnitTestResultPrinter11OnTestStartERKNS_8TestInfoE, symObjAddr: 0x320B0, symBinAddr: 0x1000906D0, symSize: 0x10 }
  - { offsetInCU: 0x180E2F, offset: 0x325E90, size: 0x8, addend: 0x0, symName: __ZN7testing8internal26BriefUnitTestResultPrinter14OnTestDisabledERKNS_8TestInfoE, symObjAddr: 0x320C0, symBinAddr: 0x1000906E0, symSize: 0x10 }
  - { offsetInCU: 0x180E5F, offset: 0x325EC0, size: 0x8, addend: 0x0, symName: __ZN7testing8internal26BriefUnitTestResultPrinter13OnTestCaseEndERKNS_9TestSuiteE, symObjAddr: 0x320D0, symBinAddr: 0x1000906F0, symSize: 0x10 }
  - { offsetInCU: 0x180E8F, offset: 0x325EF0, size: 0x8, addend: 0x0, symName: __ZN7testing8internal26BriefUnitTestResultPrinter27OnEnvironmentsTearDownStartERKNS_8UnitTestE, symObjAddr: 0x320E0, symBinAddr: 0x100090700, symSize: 0x10 }
  - { offsetInCU: 0x180EBF, offset: 0x325F20, size: 0x8, addend: 0x0, symName: __ZN7testing8internal26BriefUnitTestResultPrinter25OnEnvironmentsTearDownEndERKNS_8UnitTestE, symObjAddr: 0x320F0, symBinAddr: 0x100090710, symSize: 0x10 }
  - { offsetInCU: 0x180EEF, offset: 0x325F50, size: 0x8, addend: 0x0, symName: __ZN7testing8internal26BriefUnitTestResultPrinter16OnTestProgramEndERKNS_8UnitTestE, symObjAddr: 0x32100, symBinAddr: 0x100090720, symSize: 0x10 }
  - { offsetInCU: 0x180F1F, offset: 0x325F80, size: 0x8, addend: 0x0, symName: __ZN7testing8internal24XmlUnitTestResultPrinterD0Ev, symObjAddr: 0x32110, symBinAddr: 0x100090730, symSize: 0x30 }
  - { offsetInCU: 0x1810B5, offset: 0x326116, size: 0x8, addend: 0x0, symName: __ZN7testing22EmptyTestEventListener18OnTestProgramStartERKNS_8UnitTestE, symObjAddr: 0x32140, symBinAddr: 0x100090760, symSize: 0x10 }
  - { offsetInCU: 0x1810E5, offset: 0x326146, size: 0x8, addend: 0x0, symName: __ZN7testing22EmptyTestEventListener20OnTestIterationStartERKNS_8UnitTestEi, symObjAddr: 0x32150, symBinAddr: 0x100090770, symSize: 0x10 }
  - { offsetInCU: 0x181120, offset: 0x326181, size: 0x8, addend: 0x0, symName: __ZN7testing22EmptyTestEventListener24OnEnvironmentsSetUpStartERKNS_8UnitTestE, symObjAddr: 0x32160, symBinAddr: 0x100090780, symSize: 0x10 }
  - { offsetInCU: 0x181150, offset: 0x3261B1, size: 0x8, addend: 0x0, symName: __ZN7testing22EmptyTestEventListener22OnEnvironmentsSetUpEndERKNS_8UnitTestE, symObjAddr: 0x32170, symBinAddr: 0x100090790, symSize: 0x10 }
  - { offsetInCU: 0x181180, offset: 0x3261E1, size: 0x8, addend: 0x0, symName: __ZN7testing22EmptyTestEventListener16OnTestSuiteStartERKNS_9TestSuiteE, symObjAddr: 0x32180, symBinAddr: 0x1000907A0, symSize: 0x10 }
  - { offsetInCU: 0x1811B0, offset: 0x326211, size: 0x8, addend: 0x0, symName: __ZN7testing22EmptyTestEventListener15OnTestCaseStartERKNS_9TestSuiteE, symObjAddr: 0x32190, symBinAddr: 0x1000907B0, symSize: 0x10 }
  - { offsetInCU: 0x1811E0, offset: 0x326241, size: 0x8, addend: 0x0, symName: __ZN7testing22EmptyTestEventListener11OnTestStartERKNS_8TestInfoE, symObjAddr: 0x321A0, symBinAddr: 0x1000907C0, symSize: 0x10 }
  - { offsetInCU: 0x181210, offset: 0x326271, size: 0x8, addend: 0x0, symName: __ZN7testing22EmptyTestEventListener14OnTestDisabledERKNS_8TestInfoE, symObjAddr: 0x321B0, symBinAddr: 0x1000907D0, symSize: 0x10 }
  - { offsetInCU: 0x181240, offset: 0x3262A1, size: 0x8, addend: 0x0, symName: __ZN7testing22EmptyTestEventListener16OnTestPartResultERKNS_14TestPartResultE, symObjAddr: 0x321C0, symBinAddr: 0x1000907E0, symSize: 0x10 }
  - { offsetInCU: 0x181270, offset: 0x3262D1, size: 0x8, addend: 0x0, symName: __ZN7testing22EmptyTestEventListener9OnTestEndERKNS_8TestInfoE, symObjAddr: 0x321D0, symBinAddr: 0x1000907F0, symSize: 0x10 }
  - { offsetInCU: 0x1812A0, offset: 0x326301, size: 0x8, addend: 0x0, symName: __ZN7testing22EmptyTestEventListener14OnTestSuiteEndERKNS_9TestSuiteE, symObjAddr: 0x321E0, symBinAddr: 0x100090800, symSize: 0x10 }
  - { offsetInCU: 0x1812D0, offset: 0x326331, size: 0x8, addend: 0x0, symName: __ZN7testing22EmptyTestEventListener13OnTestCaseEndERKNS_9TestSuiteE, symObjAddr: 0x321F0, symBinAddr: 0x100090810, symSize: 0x10 }
  - { offsetInCU: 0x181300, offset: 0x326361, size: 0x8, addend: 0x0, symName: __ZN7testing22EmptyTestEventListener27OnEnvironmentsTearDownStartERKNS_8UnitTestE, symObjAddr: 0x32200, symBinAddr: 0x100090820, symSize: 0x10 }
  - { offsetInCU: 0x181330, offset: 0x326391, size: 0x8, addend: 0x0, symName: __ZN7testing22EmptyTestEventListener25OnEnvironmentsTearDownEndERKNS_8UnitTestE, symObjAddr: 0x32210, symBinAddr: 0x100090830, symSize: 0x10 }
  - { offsetInCU: 0x181360, offset: 0x3263C1, size: 0x8, addend: 0x0, symName: __ZN7testing22EmptyTestEventListener16OnTestProgramEndERKNS_8UnitTestE, symObjAddr: 0x32220, symBinAddr: 0x100090840, symSize: 0x10 }
  - { offsetInCU: 0x181390, offset: 0x3263F1, size: 0x8, addend: 0x0, symName: __ZN7testing8internal25JsonUnitTestResultPrinterD0Ev, symObjAddr: 0x32230, symBinAddr: 0x100090850, symSize: 0x30 }
  - { offsetInCU: 0x181526, offset: 0x326587, size: 0x8, addend: 0x0, symName: __ZN7testing8internal18OsStackTraceGetterD1Ev, symObjAddr: 0x32260, symBinAddr: 0x100090880, symSize: 0x10 }
  - { offsetInCU: 0x181552, offset: 0x3265B3, size: 0x8, addend: 0x0, symName: __ZN7testing8internal18OsStackTraceGetterD0Ev, symObjAddr: 0x32270, symBinAddr: 0x100090890, symSize: 0x10 }
  - { offsetInCU: 0x18157E, offset: 0x3265DF, size: 0x8, addend: 0x0, symName: __ZN7testing8internal9DeathTestD1Ev, symObjAddr: 0x32280, symBinAddr: 0x100375100, symSize: 0x10 }
  - { offsetInCU: 0x1815A7, offset: 0x326608, size: 0x8, addend: 0x0, symName: __ZN7testing8internal9DeathTestD0Ev, symObjAddr: 0x32290, symBinAddr: 0x100375110, symSize: 0x10 }
  - { offsetInCU: 0x1815D0, offset: 0x326631, size: 0x8, addend: 0x0, symName: __ZN7testing7MatcherIRKNSt3__112basic_stringIcNS1_11char_traitsIcEENS1_9allocatorIcEEEEED0Ev, symObjAddr: 0x322A0, symBinAddr: 0x1000908A0, symSize: 0x60 }
  - { offsetInCU: 0x18170A, offset: 0x32676B, size: 0x8, addend: 0x0, symName: __ZNK7testing8internal11MatcherBaseIRKNSt3__112basic_stringIcNS2_11char_traitsIcEENS2_9allocatorIcEEEEE18DescribeNegationToEPNS2_13basic_ostreamIcS5_EE, symObjAddr: 0x32300, symBinAddr: 0x100090900, symSize: 0x90 }
  - { offsetInCU: 0x18186B, offset: 0x3268CC, size: 0x8, addend: 0x0, symName: __ZN7testing7MatcherINSt3__112basic_stringIcNS1_11char_traitsIcEENS1_9allocatorIcEEEEED0Ev, symObjAddr: 0x32390, symBinAddr: 0x100090990, symSize: 0x60 }
  - { offsetInCU: 0x1819A5, offset: 0x326A06, size: 0x8, addend: 0x0, symName: __ZNK7testing8internal11MatcherBaseINSt3__112basic_stringIcNS2_11char_traitsIcEENS2_9allocatorIcEEEEE10DescribeToEPNS2_13basic_ostreamIcS5_EE, symObjAddr: 0x323F0, symBinAddr: 0x1000909F0, symSize: 0x90 }
  - { offsetInCU: 0x181B06, offset: 0x326B67, size: 0x8, addend: 0x0, symName: __ZNK7testing8internal11MatcherBaseINSt3__112basic_stringIcNS2_11char_traitsIcEENS2_9allocatorIcEEEEE18DescribeNegationToEPNS2_13basic_ostreamIcS5_EE, symObjAddr: 0x32480, symBinAddr: 0x100090A80, symSize: 0x90 }
  - { offsetInCU: 0x181C67, offset: 0x326CC8, size: 0x8, addend: 0x0, symName: __ZN7testing7MatcherIRKNSt3__117basic_string_viewIcNS1_11char_traitsIcEEEEED0Ev, symObjAddr: 0x32510, symBinAddr: 0x100090B10, symSize: 0x60 }
  - { offsetInCU: 0x181DA1, offset: 0x326E02, size: 0x8, addend: 0x0, symName: __ZNK7testing8internal11MatcherBaseIRKNSt3__117basic_string_viewIcNS2_11char_traitsIcEEEEE10DescribeToEPNS2_13basic_ostreamIcS5_EE, symObjAddr: 0x32570, symBinAddr: 0x100090B70, symSize: 0x90 }
  - { offsetInCU: 0x181F02, offset: 0x326F63, size: 0x8, addend: 0x0, symName: __ZNK7testing8internal11MatcherBaseIRKNSt3__117basic_string_viewIcNS2_11char_traitsIcEEEEE18DescribeNegationToEPNS2_13basic_ostreamIcS5_EE, symObjAddr: 0x32600, symBinAddr: 0x100090C00, symSize: 0x90 }
  - { offsetInCU: 0x182063, offset: 0x3270C4, size: 0x8, addend: 0x0, symName: __ZN7testing7MatcherINSt3__117basic_string_viewIcNS1_11char_traitsIcEEEEED0Ev, symObjAddr: 0x32690, symBinAddr: 0x100090C90, symSize: 0x60 }
  - { offsetInCU: 0x18219D, offset: 0x3271FE, size: 0x8, addend: 0x0, symName: __ZNK7testing8internal11MatcherBaseINSt3__117basic_string_viewIcNS2_11char_traitsIcEEEEE10DescribeToEPNS2_13basic_ostreamIcS5_EE, symObjAddr: 0x326F0, symBinAddr: 0x100090CF0, symSize: 0x90 }
  - { offsetInCU: 0x1822FE, offset: 0x32735F, size: 0x8, addend: 0x0, symName: __ZNK7testing8internal11MatcherBaseINSt3__117basic_string_viewIcNS2_11char_traitsIcEEEEE18DescribeNegationToEPNS2_13basic_ostreamIcS5_EE, symObjAddr: 0x32780, symBinAddr: 0x100090D80, symSize: 0x90 }
  - { offsetInCU: 0x18247B, offset: 0x3274DC, size: 0x8, addend: 0x0, symName: __ZN7testing8internal26GoogleTestFailureExceptionD0Ev, symObjAddr: 0x32810, symBinAddr: 0x100090E10, symSize: 0x20 }
  - { offsetInCU: 0x1824FE, offset: 0x32755F, size: 0x8, addend: 0x0, symName: __ZN7testing8internal11MatcherBaseIRKNSt3__112basic_stringIcNS2_11char_traitsIcEENS2_9allocatorIcEEEEED1Ev, symObjAddr: 0x32840, symBinAddr: 0x100090E40, symSize: 0x40 }
  - { offsetInCU: 0x182617, offset: 0x327678, size: 0x8, addend: 0x0, symName: __ZN7testing8internal11MatcherBaseIRKNSt3__112basic_stringIcNS2_11char_traitsIcEENS2_9allocatorIcEEEEED0Ev, symObjAddr: 0x32880, symBinAddr: 0x100090E80, symSize: 0x60 }
  - { offsetInCU: 0x182BF5, offset: 0x327C56, size: 0x8, addend: 0x0, symName: __ZNKSt3__16vectorINS_12basic_stringIcNS_11char_traitsIcEENS_9allocatorIcEEEENS4_IS6_EEE20__throw_length_errorB8ue170006Ev, symObjAddr: 0x33CE0, symBinAddr: 0x100091F40, symSize: 0x10 }
  - { offsetInCU: 0x182C1E, offset: 0x327C7F, size: 0x8, addend: 0x0, symName: __ZNSt3__114__split_bufferINS_12basic_stringIcNS_11char_traitsIcEENS_9allocatorIcEEEERNS4_IS6_EEED1Ev, symObjAddr: 0x33CF0, symBinAddr: 0x100091F50, symSize: 0x60 }
  - { offsetInCU: 0x182C2A, offset: 0x327C8B, size: 0x8, addend: 0x0, symName: __ZNSt3__114__split_bufferINS_12basic_stringIcNS_11char_traitsIcEENS_9allocatorIcEEEERNS4_IS6_EEED1Ev, symObjAddr: 0x33CF0, symBinAddr: 0x100091F50, symSize: 0x60 }
  - { offsetInCU: 0x183159, offset: 0x3281BA, size: 0x8, addend: 0x0, symName: __ZNSt3__114__split_bufferINS_12basic_stringIcNS_11char_traitsIcEENS_9allocatorIcEEEERNS4_IS6_EEE9push_backEOS6_, symObjAddr: 0x340E0, symBinAddr: 0x100092340, symSize: 0x240 }
  - { offsetInCU: 0x183BA2, offset: 0x328C03, size: 0x8, addend: 0x0, symName: __ZNSt3__128__exception_guard_exceptionsINS_29_AllocatorDestroyRangeReverseINS_9allocatorINS_12basic_stringIcNS_11char_traitsIcEENS2_IcEEEEEEPS7_EEED1B8ue170006Ev, symObjAddr: 0x34320, symBinAddr: 0x100092580, symSize: 0x50 }
  - { offsetInCU: 0x18487A, offset: 0x3298DB, size: 0x8, addend: 0x0, symName: __ZNSt3__112__hash_tableINS_12basic_stringIcNS_11char_traitsIcEENS_9allocatorIcEEEENS_4hashIS6_EENS_8equal_toIS6_EENS4_IS6_EEE8__rehashILb1EEEvm, symObjAddr: 0x34C50, symBinAddr: 0x100092A00, symSize: 0x150 }
  - { offsetInCU: 0x18496A, offset: 0x3299CB, size: 0x8, addend: 0x0, symName: __ZNSt3__110unique_ptrINS_11__hash_nodeINS_12basic_stringIcNS_11char_traitsIcEENS_9allocatorIcEEEEPvEENS_22__hash_node_destructorINS5_IS9_EEEEED1B8ue170006Ev, symObjAddr: 0x34760, symBinAddr: 0x1000929C0, symSize: 0x40 }
  - { offsetInCU: 0x184F28, offset: 0x329F89, size: 0x8, addend: 0x0, symName: __ZNSt3__112__hash_tableINS_12basic_stringIcNS_11char_traitsIcEENS_9allocatorIcEEEENS_4hashIS6_EENS_8equal_toIS6_EENS4_IS6_EEE11__do_rehashILb1EEEvm, symObjAddr: 0x34DA0, symBinAddr: 0x100092B50, symSize: 0x1B0 }
  - { offsetInCU: 0x1856B4, offset: 0x32A715, size: 0x8, addend: 0x0, symName: __ZNSt3__16__treeINS_12__value_typeINS_12basic_stringIcNS_11char_traitsIcEENS_9allocatorIcEEEEmEENS_19__map_value_compareIS7_S8_NS_4lessIS7_EELb1EEENS5_IS8_EEE12__find_equalIS7_EERPNS_16__tree_node_baseIPvEERPNS_15__tree_end_nodeISJ_EERKT_, symObjAddr: 0x358A0, symBinAddr: 0x1000935C0, symSize: 0x120 }
  - { offsetInCU: 0x18594D, offset: 0x32A9AE, size: 0x8, addend: 0x0, symName: __ZNSt3__16__treeINS_12__value_typeINS_12basic_stringIcNS_11char_traitsIcEENS_9allocatorIcEEEEmEENS_19__map_value_compareIS7_S8_NS_4lessIS7_EELb1EEENS5_IS8_EEE16__construct_nodeIJRKNS_21piecewise_construct_tENS_5tupleIJRKS7_EEENSJ_IJEEEEEENS_10unique_ptrINS_11__tree_nodeIS8_PvEENS_22__tree_node_destructorINS5_ISR_EEEEEEDpOT_, symObjAddr: 0x359C0, symBinAddr: 0x1000936E0, symSize: 0xF0 }
  - { offsetInCU: 0x1864A0, offset: 0x32B501, size: 0x8, addend: 0x0, symName: __ZNSt3__110unique_ptrINS_11__tree_nodeINS_12__value_typeINS_12basic_stringIcNS_11char_traitsIcEENS_9allocatorIcEEEEmEEPvEENS_22__tree_node_destructorINS6_ISB_EEEEED1B8ue170006Ev, symObjAddr: 0x35AB0, symBinAddr: 0x1000937D0, symSize: 0x40 }
  - { offsetInCU: 0x186A6A, offset: 0x32BACB, size: 0x8, addend: 0x0, symName: __ZNSt3__16vectorINS_12basic_stringIcNS_11char_traitsIcEENS_9allocatorIcEEEENS4_IS6_EEEC2IPKPKcLi0EEET_SE_.cold.1, symObjAddr: 0x3EEB0, symBinAddr: 0x100375610, symSize: 0x50 }
  - { offsetInCU: 0x187414, offset: 0x32C475, size: 0x8, addend: 0x0, symName: __ZN7testing8internal17StreamingListener12SocketWriterC2ERKNSt3__112basic_stringIcNS3_11char_traitsIcEENS3_9allocatorIcEEEESB_, symObjAddr: 0x37E80, symBinAddr: 0x100095A00, symSize: 0x190 }
  - { offsetInCU: 0x187F29, offset: 0x32CF8A, size: 0x8, addend: 0x0, symName: __ZN7testing8internal17StreamingListener20AbstractSocketWriter6SendLnERKNSt3__112basic_stringIcNS3_11char_traitsIcEENS3_9allocatorIcEEEE, symObjAddr: 0x382C0, symBinAddr: 0x100095E40, symSize: 0x120 }
  - { offsetInCU: 0x1886AA, offset: 0x32D70B, size: 0x8, addend: 0x0, symName: __ZN7testing8internal17StreamingListenerD1Ev, symObjAddr: 0x36A30, symBinAddr: 0x1000945B0, symSize: 0x30 }
  - { offsetInCU: 0x1887AA, offset: 0x32D80B, size: 0x8, addend: 0x0, symName: __ZN7testing8internal17StreamingListenerD0Ev, symObjAddr: 0x36A60, symBinAddr: 0x1000945E0, symSize: 0x40 }
  - { offsetInCU: 0x1888DA, offset: 0x32D93B, size: 0x8, addend: 0x0, symName: __ZN7testing8internal17StreamingListener18OnTestProgramStartERKNS_8UnitTestE, symObjAddr: 0x36AA0, symBinAddr: 0x100094620, symSize: 0x70 }
  - { offsetInCU: 0x188DA5, offset: 0x32DE06, size: 0x8, addend: 0x0, symName: __ZN7testing8internal17StreamingListener20OnTestIterationStartERKNS_8UnitTestEi, symObjAddr: 0x36B10, symBinAddr: 0x100094690, symSize: 0x120 }
  - { offsetInCU: 0x18951F, offset: 0x32E580, size: 0x8, addend: 0x0, symName: __ZN7testing8internal17StreamingListener16OnTestSuiteStartERKNS_9TestSuiteE, symObjAddr: 0x36C30, symBinAddr: 0x1000947B0, symSize: 0x100 }
  - { offsetInCU: 0x189EAE, offset: 0x32EF0F, size: 0x8, addend: 0x0, symName: __ZN7testing8internal17StreamingListener11OnTestStartERKNS_8TestInfoE, symObjAddr: 0x36D30, symBinAddr: 0x1000948B0, symSize: 0xE0 }
  - { offsetInCU: 0x18A6DB, offset: 0x32F73C, size: 0x8, addend: 0x0, symName: __ZN7testing8internal17StreamingListener16OnTestPartResultERKNS_14TestPartResultE, symObjAddr: 0x36E10, symBinAddr: 0x100094990, symSize: 0x4A0 }
  - { offsetInCU: 0x18C16B, offset: 0x3311CC, size: 0x8, addend: 0x0, symName: __ZN7testing8internal17StreamingListener9OnTestEndERKNS_8TestInfoE, symObjAddr: 0x372B0, symBinAddr: 0x100094E30, symSize: 0x310 }
  - { offsetInCU: 0x18D66B, offset: 0x3326CC, size: 0x8, addend: 0x0, symName: __ZN7testing8internal17StreamingListener14OnTestSuiteEndERKNS_9TestSuiteE, symObjAddr: 0x375C0, symBinAddr: 0x100095140, symSize: 0x300 }
  - { offsetInCU: 0x18EB7D, offset: 0x333BDE, size: 0x8, addend: 0x0, symName: __ZN7testing8internal17StreamingListener18OnTestIterationEndERKNS_8UnitTestEi, symObjAddr: 0x378C0, symBinAddr: 0x100095440, symSize: 0x420 }
  - { offsetInCU: 0x1902D3, offset: 0x335334, size: 0x8, addend: 0x0, symName: __ZN7testing8internal17StreamingListener16OnTestProgramEndERKNS_8UnitTestE, symObjAddr: 0x37CE0, symBinAddr: 0x100095860, symSize: 0x1A0 }
  - { offsetInCU: 0x190D20, offset: 0x335D81, size: 0x8, addend: 0x0, symName: __ZN7testing8internal17StreamingListener12SocketWriterD1Ev, symObjAddr: 0x38010, symBinAddr: 0x100095B90, symSize: 0x60 }
  - { offsetInCU: 0x190FB6, offset: 0x336017, size: 0x8, addend: 0x0, symName: __ZN7testing8internal17StreamingListener12SocketWriter15CloseConnectionEv, symObjAddr: 0x38230, symBinAddr: 0x100095DB0, symSize: 0x90 }
  - { offsetInCU: 0x191151, offset: 0x3361B2, size: 0x8, addend: 0x0, symName: __ZN7testing8internal17StreamingListener12SocketWriterD0Ev, symObjAddr: 0x38070, symBinAddr: 0x100095BF0, symSize: 0x60 }
  - { offsetInCU: 0x191410, offset: 0x336471, size: 0x8, addend: 0x0, symName: __ZN7testing8internal17StreamingListener12SocketWriter4SendERKNSt3__112basic_stringIcNS3_11char_traitsIcEENS3_9allocatorIcEEEE, symObjAddr: 0x380D0, symBinAddr: 0x100095C50, symSize: 0x160 }
  - { offsetInCU: 0x191C73, offset: 0x336CD4, size: 0x8, addend: 0x0, symName: __ZNKSt3__112basic_stringIwNS_11char_traitsIwEENS_9allocatorIwEEE20__throw_length_errorB8ue170006Ev, symObjAddr: 0x38950, symBinAddr: 0x1000964D0, symSize: 0x10 }
  - { offsetInCU: 0x191C9C, offset: 0x336CFD, size: 0x8, addend: 0x0, symName: __ZN7testing8internal11MatcherBaseINSt3__112basic_stringIcNS2_11char_traitsIcEENS2_9allocatorIcEEEEED1Ev, symObjAddr: 0x38960, symBinAddr: 0x1000964E0, symSize: 0x40 }
  - { offsetInCU: 0x191CA8, offset: 0x336D09, size: 0x8, addend: 0x0, symName: __ZN7testing8internal11MatcherBaseINSt3__112basic_stringIcNS2_11char_traitsIcEENS2_9allocatorIcEEEEED1Ev, symObjAddr: 0x38960, symBinAddr: 0x1000964E0, symSize: 0x40 }
  - { offsetInCU: 0x191DC1, offset: 0x336E22, size: 0x8, addend: 0x0, symName: __ZN7testing8internal11MatcherBaseINSt3__112basic_stringIcNS2_11char_traitsIcEENS2_9allocatorIcEEEEED0Ev, symObjAddr: 0x389A0, symBinAddr: 0x100096520, symSize: 0x60 }
  - { offsetInCU: 0x191EDF, offset: 0x336F40, size: 0x8, addend: 0x0, symName: __ZN7testing8internal11MatcherBaseIRKNSt3__117basic_string_viewIcNS2_11char_traitsIcEEEEED1Ev, symObjAddr: 0x38A00, symBinAddr: 0x100096580, symSize: 0x40 }
  - { offsetInCU: 0x191FF8, offset: 0x337059, size: 0x8, addend: 0x0, symName: __ZN7testing8internal11MatcherBaseIRKNSt3__117basic_string_viewIcNS2_11char_traitsIcEEEEED0Ev, symObjAddr: 0x38A40, symBinAddr: 0x1000965C0, symSize: 0x60 }
  - { offsetInCU: 0x192116, offset: 0x337177, size: 0x8, addend: 0x0, symName: __ZN7testing8internal11MatcherBaseINSt3__117basic_string_viewIcNS2_11char_traitsIcEEEEED1Ev, symObjAddr: 0x38AA0, symBinAddr: 0x100096620, symSize: 0x40 }
  - { offsetInCU: 0x19222F, offset: 0x337290, size: 0x8, addend: 0x0, symName: __ZN7testing8internal11MatcherBaseINSt3__117basic_string_viewIcNS2_11char_traitsIcEEEEED0Ev, symObjAddr: 0x38AE0, symBinAddr: 0x100096660, symSize: 0x60 }
  - { offsetInCU: 0x19234D, offset: 0x3373AE, size: 0x8, addend: 0x0, symName: __ZNSt12out_of_rangeC1B8ue170006EPKc, symObjAddr: 0x38BA0, symBinAddr: 0x100096720, symSize: 0x30 }
  - { offsetInCU: 0x1923DD, offset: 0x33743E, size: 0x8, addend: 0x0, symName: __ZN7testing8internal24DummyMatchResultListenerD1Ev, symObjAddr: 0x38BD0, symBinAddr: 0x100096750, symSize: 0x10 }
  - { offsetInCU: 0x192408, offset: 0x337469, size: 0x8, addend: 0x0, symName: __ZN7testing8internal24DummyMatchResultListenerD0Ev, symObjAddr: 0x38BE0, symBinAddr: 0x100096760, symSize: 0x10 }
  - { offsetInCU: 0x1924CF, offset: 0x337530, size: 0x8, addend: 0x0, symName: __ZN7testing8internal11MatcherBaseIRKNSt3__112basic_stringIcNS2_11char_traitsIcEENS2_9allocatorIcEEEEE19MatchAndExplainImplINSB_11ValuePolicyINS0_9EqMatcherIS8_EELb0EEEEEDTcldtclsrT_3Getfp_E15MatchAndExplainfp0_clptfp1_6streamEEERKSB_SA_PNS_19MatchResultListenerE, symObjAddr: 0x38E50, symBinAddr: 0x1000969D0, symSize: 0xA0 }
  - { offsetInCU: 0x1926EB, offset: 0x33774C, size: 0x8, addend: 0x0, symName: __ZN7testing8internal11MatcherBaseIRKNSt3__112basic_stringIcNS2_11char_traitsIcEENS2_9allocatorIcEEEEE12DescribeImplINSB_11ValuePolicyINS0_9EqMatcherIS8_EELb0EEEEEvRKSB_PNS2_13basic_ostreamIcS5_EEb, symObjAddr: 0x38EF0, symBinAddr: 0x100096A70, symSize: 0x60 }
  - { offsetInCU: 0x192828, offset: 0x337889, size: 0x8, addend: 0x0, symName: __ZN7testing8internal11MatcherBaseIRKNSt3__112basic_stringIcNS2_11char_traitsIcEENS2_9allocatorIcEEEEE16GetDescriberImplINSB_11ValuePolicyINS0_9EqMatcherIS8_EELb0EEEEEPKNS_25MatcherDescriberInterfaceERKSB_, symObjAddr: 0x38F50, symBinAddr: 0x100096AD0, symSize: 0x10 }
  - { offsetInCU: 0x19288D, offset: 0x3378EE, size: 0x8, addend: 0x0, symName: __ZN7testing8internal13SharedPayloadINS0_9EqMatcherINSt3__112basic_stringIcNS3_11char_traitsIcEENS3_9allocatorIcEEEEEEE7DestroyEPNS0_17SharedPayloadBaseE, symObjAddr: 0x38F60, symBinAddr: 0x100096AE0, symSize: 0x30 }
  - { offsetInCU: 0x192A8A, offset: 0x337AEB, size: 0x8, addend: 0x0, symName: __ZN7testing8internal11MatcherBaseINSt3__112basic_stringIcNS2_11char_traitsIcEENS2_9allocatorIcEEEEE19MatchAndExplainImplINS9_11ValuePolicyINS0_9EqMatcherIS8_EELb0EEEEEDTcldtclsrT_3Getfp_E15MatchAndExplainfp0_clptfp1_6streamEEERKS9_RKS8_PNS_19MatchResultListenerE, symObjAddr: 0x38F90, symBinAddr: 0x100096B10, symSize: 0xA0 }
  - { offsetInCU: 0x192C62, offset: 0x337CC3, size: 0x8, addend: 0x0, symName: __ZN7testing8internal11MatcherBaseINSt3__112basic_stringIcNS2_11char_traitsIcEENS2_9allocatorIcEEEEE12DescribeImplINS9_11ValuePolicyINS0_9EqMatcherIS8_EELb0EEEEEvRKS9_PNS2_13basic_ostreamIcS5_EEb, symObjAddr: 0x39030, symBinAddr: 0x100096BB0, symSize: 0x60 }
  - { offsetInCU: 0x192D9F, offset: 0x337E00, size: 0x8, addend: 0x0, symName: __ZN7testing8internal11MatcherBaseINSt3__112basic_stringIcNS2_11char_traitsIcEENS2_9allocatorIcEEEEE16GetDescriberImplINS9_11ValuePolicyINS0_9EqMatcherIS8_EELb0EEEEEPKNS_25MatcherDescriberInterfaceERKS9_, symObjAddr: 0x39090, symBinAddr: 0x100096C10, symSize: 0x10 }
  - { offsetInCU: 0x192E93, offset: 0x337EF4, size: 0x8, addend: 0x0, symName: __ZN7testing8internal11MatcherBaseIRKNSt3__117basic_string_viewIcNS2_11char_traitsIcEEEEE19MatchAndExplainImplINS9_11ValuePolicyINS0_9EqMatcherINS2_12basic_stringIcS5_NS2_9allocatorIcEEEEEELb0EEEEEDTcldtclsrT_3Getfp_E15MatchAndExplainfp0_clptfp1_6streamEEERKS9_S8_PNS_19MatchResultListenerE, symObjAddr: 0x390A0, symBinAddr: 0x100096C20, symSize: 0x50 }
  - { offsetInCU: 0x193025, offset: 0x338086, size: 0x8, addend: 0x0, symName: __ZN7testing8internal11MatcherBaseIRKNSt3__117basic_string_viewIcNS2_11char_traitsIcEEEEE12DescribeImplINS9_11ValuePolicyINS0_9EqMatcherINS2_12basic_stringIcS5_NS2_9allocatorIcEEEEEELb0EEEEEvRKS9_PNS2_13basic_ostreamIcS5_EEb, symObjAddr: 0x390F0, symBinAddr: 0x100096C70, symSize: 0x60 }
  - { offsetInCU: 0x193162, offset: 0x3381C3, size: 0x8, addend: 0x0, symName: __ZN7testing8internal11MatcherBaseIRKNSt3__117basic_string_viewIcNS2_11char_traitsIcEEEEE16GetDescriberImplINS9_11ValuePolicyINS0_9EqMatcherINS2_12basic_stringIcS5_NS2_9allocatorIcEEEEEELb0EEEEEPKNS_25MatcherDescriberInterfaceERKS9_, symObjAddr: 0x39150, symBinAddr: 0x100096CD0, symSize: 0x10 }
  - { offsetInCU: 0x1931A3, offset: 0x338204, size: 0x8, addend: 0x0, symName: __ZN7testing8internal11MatcherBaseINSt3__117basic_string_viewIcNS2_11char_traitsIcEEEEE19MatchAndExplainImplINS7_11ValuePolicyINS0_9EqMatcherINS2_12basic_stringIcS5_NS2_9allocatorIcEEEEEELb0EEEEEDTcldtclsrT_3Getfp_E15MatchAndExplainfp0_clptfp1_6streamEEERKS7_RKS6_PNS_19MatchResultListenerE, symObjAddr: 0x39160, symBinAddr: 0x100096CE0, symSize: 0x50 }
  - { offsetInCU: 0x193335, offset: 0x338396, size: 0x8, addend: 0x0, symName: __ZN7testing8internal11MatcherBaseINSt3__117basic_string_viewIcNS2_11char_traitsIcEEEEE12DescribeImplINS7_11ValuePolicyINS0_9EqMatcherINS2_12basic_stringIcS5_NS2_9allocatorIcEEEEEELb0EEEEEvRKS7_PNS2_13basic_ostreamIcS5_EEb, symObjAddr: 0x391B0, symBinAddr: 0x100096D30, symSize: 0x60 }
  - { offsetInCU: 0x193472, offset: 0x3384D3, size: 0x8, addend: 0x0, symName: __ZN7testing8internal11MatcherBaseINSt3__117basic_string_viewIcNS2_11char_traitsIcEEEEE16GetDescriberImplINS7_11ValuePolicyINS0_9EqMatcherINS2_12basic_stringIcS5_NS2_9allocatorIcEEEEEELb0EEEEEPKNS_25MatcherDescriberInterfaceERKS7_, symObjAddr: 0x39210, symBinAddr: 0x100096D90, symSize: 0x10 }
  - { offsetInCU: 0x193551, offset: 0x3385B2, size: 0x8, addend: 0x0, symName: __ZNSt3__16vectorINS_12basic_stringIcNS_11char_traitsIcEENS_9allocatorIcEEEENS4_IS6_EEEC2ERKS8_.cold.1, symObjAddr: 0x3EF00, symBinAddr: 0x100375660, symSize: 0x50 }
  - { offsetInCU: 0x19396D, offset: 0x3389CE, size: 0x8, addend: 0x0, symName: __ZNSt3__16vectorINS_12basic_stringIcNS_11char_traitsIcEENS_9allocatorIcEEEENS4_IS6_EEEC2INS_11__wrap_iterIPKS6_EELi0EEET_SE_.cold.1, symObjAddr: 0x3EF50, symBinAddr: 0x1003756B0, symSize: 0x4A }
  - { offsetInCU: 0x194069, offset: 0x3390CA, size: 0x8, addend: 0x0, symName: __ZNKSt3__16vectorIN7testing14TestPartResultENS_9allocatorIS2_EEE20__throw_length_errorB8ue170006Ev, symObjAddr: 0x39D10, symBinAddr: 0x100097890, symSize: 0x10 }
  - { offsetInCU: 0x194092, offset: 0x3390F3, size: 0x8, addend: 0x0, symName: __ZNSt3__114__split_bufferIN7testing14TestPartResultERNS_9allocatorIS2_EEED2Ev, symObjAddr: 0x39D20, symBinAddr: 0x1000978A0, symSize: 0xA0 }
  - { offsetInCU: 0x19409E, offset: 0x3390FF, size: 0x8, addend: 0x0, symName: __ZNSt3__114__split_bufferIN7testing14TestPartResultERNS_9allocatorIS2_EEED2Ev, symObjAddr: 0x39D20, symBinAddr: 0x1000978A0, symSize: 0xA0 }
  - { offsetInCU: 0x1947F1, offset: 0x339852, size: 0x8, addend: 0x0, symName: __ZNSt3__110unique_ptrINS_11__tree_nodeINS_12basic_stringIcNS_11char_traitsIcEENS_9allocatorIcEEEEPvEENS_22__tree_node_destructorINS5_IS9_EEEEED1B8ue170006Ev, symObjAddr: 0x3A1A0, symBinAddr: 0x100097BB0, symSize: 0x40 }
  - { offsetInCU: 0x194B83, offset: 0x339BE4, size: 0x8, addend: 0x0, symName: '__ZZN7testing12RegisterTestIJEZNS_8internal23InsertSyntheticTestCaseERKNSt3__112basic_stringIcNS2_11char_traitsIcEENS2_9allocatorIcEEEENS1_12CodeLocationEbE3$_0EEPNS_8TestInfoEPKcSG_SG_SG_SG_iT0_EN11FactoryImplD1Ev', symObjAddr: 0x3A330, symBinAddr: 0x100097D40, symSize: 0x40 }
  - { offsetInCU: 0x194E9F, offset: 0x339F00, size: 0x8, addend: 0x0, symName: '__ZZN7testing12RegisterTestIJEZNS_8internal23InsertSyntheticTestCaseERKNSt3__112basic_stringIcNS2_11char_traitsIcEENS2_9allocatorIcEEEENS1_12CodeLocationEbE3$_0EEPNS_8TestInfoEPKcSG_SG_SG_SG_iT0_EN11FactoryImplD0Ev', symObjAddr: 0x3A370, symBinAddr: 0x100097D80, symSize: 0x40 }
  - { offsetInCU: 0x195220, offset: 0x33A281, size: 0x8, addend: 0x0, symName: '__ZZN7testing12RegisterTestIJEZNS_8internal23InsertSyntheticTestCaseERKNSt3__112basic_stringIcNS2_11char_traitsIcEENS2_9allocatorIcEEEENS1_12CodeLocationEbE3$_0EEPNS_8TestInfoEPKcSG_SG_SG_SG_iT0_EN11FactoryImpl10CreateTestEv', symObjAddr: 0x3A3B0, symBinAddr: 0x100097DC0, symSize: 0x100 }
  - { offsetInCU: 0x195919, offset: 0x33A97A, size: 0x8, addend: 0x0, symName: __ZN7testing8internal12_GLOBAL__N_111FailureTestC1ERKNS0_12CodeLocationENSt3__112basic_stringIcNS6_11char_traitsIcEENS6_9allocatorIcEEEEb, symObjAddr: 0x3A4B0, symBinAddr: 0x100097EC0, symSize: 0x140 }
  - { offsetInCU: 0x1960F4, offset: 0x33B155, size: 0x8, addend: 0x0, symName: __ZN7testing8internal12_GLOBAL__N_111FailureTestD1Ev, symObjAddr: 0x3A5F0, symBinAddr: 0x100098000, symSize: 0x70 }
  - { offsetInCU: 0x1964D7, offset: 0x33B538, size: 0x8, addend: 0x0, symName: __ZN7testing8internal12_GLOBAL__N_111FailureTestD0Ev, symObjAddr: 0x3A660, symBinAddr: 0x100098070, symSize: 0x70 }
  - { offsetInCU: 0x1968C1, offset: 0x33B922, size: 0x8, addend: 0x0, symName: __ZN7testing8internal12_GLOBAL__N_111FailureTest8TestBodyEv, symObjAddr: 0x3A6D0, symBinAddr: 0x1000980E0, symSize: 0x1B0 }
  - { offsetInCU: 0x1971C2, offset: 0x33C223, size: 0x8, addend: 0x0, symName: '__ZZN7testing12RegisterTestIJEZNS_8internal34TypeParameterizedTestSuiteRegistry22CheckForInstantiationsEvE3$_1EEPNS_8TestInfoEPKcS7_S7_S7_S7_iT0_EN11FactoryImplD1Ev', symObjAddr: 0x3AAF0, symBinAddr: 0x100098500, symSize: 0x60 }
  - { offsetInCU: 0x19762C, offset: 0x33C68D, size: 0x8, addend: 0x0, symName: '__ZZN7testing12RegisterTestIJEZNS_8internal34TypeParameterizedTestSuiteRegistry22CheckForInstantiationsEvE3$_1EEPNS_8TestInfoEPKcS7_S7_S7_S7_iT0_EN11FactoryImplD0Ev', symObjAddr: 0x3AB50, symBinAddr: 0x100098560, symSize: 0x60 }
  - { offsetInCU: 0x197AC6, offset: 0x33CB27, size: 0x8, addend: 0x0, symName: '__ZZN7testing12RegisterTestIJEZNS_8internal34TypeParameterizedTestSuiteRegistry22CheckForInstantiationsEvE3$_1EEPNS_8TestInfoEPKcS7_S7_S7_S7_iT0_EN11FactoryImpl10CreateTestEv', symObjAddr: 0x3ABB0, symBinAddr: 0x1000985C0, symSize: 0x100 }
  - { offsetInCU: 0x19854D, offset: 0x33D5AE, size: 0x8, addend: 0x0, symName: __ZNKSt3__16vectorINS0_IdNS_9allocatorIdEEEENS1_IS3_EEE20__throw_length_errorB8ue170006Ev, symObjAddr: 0x3AFA0, symBinAddr: 0x1000989B0, symSize: 0x10 }
  - { offsetInCU: 0x198576, offset: 0x33D5D7, size: 0x8, addend: 0x0, symName: __ZNKSt3__16vectorIN7testing8internal13edit_distance8EditTypeENS_9allocatorIS4_EEE20__throw_length_errorB8ue170006Ev, symObjAddr: 0x3AFB0, symBinAddr: 0x1000989C0, symSize: 0x10 }
  - { offsetInCU: 0x198582, offset: 0x33D5E3, size: 0x8, addend: 0x0, symName: __ZNSt3__128__exception_guard_exceptionsINS_6vectorINS1_IdNS_9allocatorIdEEEENS2_IS4_EEE16__destroy_vectorEED1B8ue170006Ev, symObjAddr: 0x3AF30, symBinAddr: 0x100098940, symSize: 0x70 }
  - { offsetInCU: 0x198C48, offset: 0x33DCA9, size: 0x8, addend: 0x0, symName: __ZNKSt3__16vectorINS0_IN7testing8internal13edit_distance8EditTypeENS_9allocatorIS4_EEEENS5_IS7_EEE20__throw_length_errorB8ue170006Ev, symObjAddr: 0x3B180, symBinAddr: 0x100098B90, symSize: 0x10 }
  - { offsetInCU: 0x198C71, offset: 0x33DCD2, size: 0x8, addend: 0x0, symName: __ZNKSt3__16vectorImNS_9allocatorImEEE20__throw_length_errorB8ue170006Ev, symObjAddr: 0x3B190, symBinAddr: 0x100098BA0, symSize: 0x10 }
  - { offsetInCU: 0x198C7D, offset: 0x33DCDE, size: 0x8, addend: 0x0, symName: __ZNSt3__128__exception_guard_exceptionsINS_6vectorINS1_IN7testing8internal13edit_distance8EditTypeENS_9allocatorIS5_EEEENS6_IS8_EEE16__destroy_vectorEED1B8ue170006Ev, symObjAddr: 0x3B110, symBinAddr: 0x100098B20, symSize: 0x70 }
  - { offsetInCU: 0x1993A6, offset: 0x33E407, size: 0x8, addend: 0x0, symName: __ZNKSt3__16vectorIN7testing12TestPropertyENS_9allocatorIS2_EEE20__throw_length_errorB8ue170006Ev, symObjAddr: 0x3B870, symBinAddr: 0x100099280, symSize: 0x10 }
  - { offsetInCU: 0x1993CF, offset: 0x33E430, size: 0x8, addend: 0x0, symName: __ZN7testing8internal14GTestFlagSaverD2Ev, symObjAddr: 0x3B880, symBinAddr: 0x100099290, symSize: 0x1E0 }
  - { offsetInCU: 0x1993DB, offset: 0x33E43C, size: 0x8, addend: 0x0, symName: __ZNSt3__114__split_bufferIN7testing12TestPropertyERNS_9allocatorIS2_EEED1Ev, symObjAddr: 0x3B7F0, symBinAddr: 0x100099200, symSize: 0x80 }
  - { offsetInCU: 0x19A002, offset: 0x33F063, size: 0x8, addend: 0x0, symName: __ZNKSt3__16vectorIN7testing8internal9TraceInfoENS_9allocatorIS3_EEE20__throw_length_errorB8ue170006Ev, symObjAddr: 0x3CD90, symBinAddr: 0x10009A790, symSize: 0x10 }
  - { offsetInCU: 0x19A02B, offset: 0x33F08C, size: 0x8, addend: 0x0, symName: __ZN7testing8internal11ThreadLocalIPNS_31TestPartResultReporterInterfaceEE9CreateKeyEv, symObjAddr: 0x3CDA0, symBinAddr: 0x10009A7A0, symSize: 0xA0 }
  - { offsetInCU: 0x19A037, offset: 0x33F098, size: 0x8, addend: 0x0, symName: __ZNSt3__114__split_bufferIN7testing8internal9TraceInfoERNS_9allocatorIS3_EEED1Ev, symObjAddr: 0x3CD30, symBinAddr: 0x10009A730, symSize: 0x60 }
  - { offsetInCU: 0x19A364, offset: 0x33F3C5, size: 0x8, addend: 0x0, symName: _DeleteThreadLocalValue, symObjAddr: 0x3CE40, symBinAddr: 0x10009A840, symSize: 0x20 }
  - { offsetInCU: 0x19A38D, offset: 0x33F3EE, size: 0x8, addend: 0x0, symName: __ZN7testing8internal11ThreadLocalIPNS_31TestPartResultReporterInterfaceEE26InstanceValueHolderFactoryD1Ev, symObjAddr: 0x3CE60, symBinAddr: 0x10009A860, symSize: 0x10 }
  - { offsetInCU: 0x19A3B9, offset: 0x33F41A, size: 0x8, addend: 0x0, symName: __ZN7testing8internal11ThreadLocalIPNS_31TestPartResultReporterInterfaceEE26InstanceValueHolderFactoryD0Ev, symObjAddr: 0x3CE70, symBinAddr: 0x10009A870, symSize: 0x10 }
  - { offsetInCU: 0x19A431, offset: 0x33F492, size: 0x8, addend: 0x0, symName: __ZNK7testing8internal11ThreadLocalIPNS_31TestPartResultReporterInterfaceEE26InstanceValueHolderFactory13MakeNewHolderEv, symObjAddr: 0x3CE80, symBinAddr: 0x10009A880, symSize: 0x30 }
  - { offsetInCU: 0x19A4AA, offset: 0x33F50B, size: 0x8, addend: 0x0, symName: __ZN7testing8internal11ThreadLocalIPNS_31TestPartResultReporterInterfaceEE11ValueHolderD1Ev, symObjAddr: 0x3CEB0, symBinAddr: 0x10009A8B0, symSize: 0x10 }
  - { offsetInCU: 0x19A4D6, offset: 0x33F537, size: 0x8, addend: 0x0, symName: __ZN7testing8internal11ThreadLocalIPNS_31TestPartResultReporterInterfaceEE11ValueHolderD0Ev, symObjAddr: 0x3CEC0, symBinAddr: 0x10009A8C0, symSize: 0x10 }
  - { offsetInCU: 0x19A502, offset: 0x33F563, size: 0x8, addend: 0x0, symName: __ZN7testing8internal11ThreadLocalINSt3__16vectorINS0_9TraceInfoENS2_9allocatorIS4_EEEEE25DefaultValueHolderFactoryD1Ev, symObjAddr: 0x3CF70, symBinAddr: 0x10009A970, symSize: 0x10 }
  - { offsetInCU: 0x19A52E, offset: 0x33F58F, size: 0x8, addend: 0x0, symName: __ZN7testing8internal11ThreadLocalINSt3__16vectorINS0_9TraceInfoENS2_9allocatorIS4_EEEEE25DefaultValueHolderFactoryD0Ev, symObjAddr: 0x3CF80, symBinAddr: 0x10009A980, symSize: 0x10 }
  - { offsetInCU: 0x19A5C2, offset: 0x33F623, size: 0x8, addend: 0x0, symName: __ZNK7testing8internal11ThreadLocalINSt3__16vectorINS0_9TraceInfoENS2_9allocatorIS4_EEEEE25DefaultValueHolderFactory13MakeNewHolderEv, symObjAddr: 0x3CF90, symBinAddr: 0x10009A990, symSize: 0x30 }
  - { offsetInCU: 0x19A6EB, offset: 0x33F74C, size: 0x8, addend: 0x0, symName: __ZN7testing8internal11ThreadLocalINSt3__16vectorINS0_9TraceInfoENS2_9allocatorIS4_EEEEE11ValueHolderD1Ev, symObjAddr: 0x3CFC0, symBinAddr: 0x10009A9C0, symSize: 0x80 }
  - { offsetInCU: 0x19AA8A, offset: 0x33FAEB, size: 0x8, addend: 0x0, symName: __ZN7testing8internal11ThreadLocalINSt3__16vectorINS0_9TraceInfoENS2_9allocatorIS4_EEEEE11ValueHolderD0Ev, symObjAddr: 0x3D040, symBinAddr: 0x10009AA40, symSize: 0x70 }
  - { offsetInCU: 0x19B09B, offset: 0x3400FC, size: 0x8, addend: 0x0, symName: __ZNSt3__112__hash_tableINS_17__hash_value_typeINS_12basic_stringIcNS_11char_traitsIcEENS_9allocatorIcEEEEPN7testing9TestSuiteEEENS_22__unordered_map_hasherIS7_SB_NS_4hashIS7_EENS_8equal_toIS7_EELb1EEENS_21__unordered_map_equalIS7_SB_SG_SE_Lb1EEENS5_ISB_EEE21__construct_node_hashIRKS7_JRKSA_EEENS_10unique_ptrINS_11__hash_nodeISB_PvEENS_22__hash_node_destructorINS5_ISU_EEEEEEmOT_DpOT0_, symObjAddr: 0x3D830, symBinAddr: 0x10009B230, symSize: 0x120 }
  - { offsetInCU: 0x19B765, offset: 0x3407C6, size: 0x8, addend: 0x0, symName: __ZNSt3__112__hash_tableINS_17__hash_value_typeINS_12basic_stringIcNS_11char_traitsIcEENS_9allocatorIcEEEEPN7testing9TestSuiteEEENS_22__unordered_map_hasherIS7_SB_NS_4hashIS7_EENS_8equal_toIS7_EELb1EEENS_21__unordered_map_equalIS7_SB_SG_SE_Lb1EEENS5_ISB_EEE8__rehashILb1EEEvm, symObjAddr: 0x3D990, symBinAddr: 0x10009B390, symSize: 0x150 }
  - { offsetInCU: 0x19B855, offset: 0x3408B6, size: 0x8, addend: 0x0, symName: __ZNSt3__110unique_ptrINS_11__hash_nodeINS_17__hash_value_typeINS_12basic_stringIcNS_11char_traitsIcEENS_9allocatorIcEEEEPN7testing9TestSuiteEEEPvEENS_22__hash_node_destructorINS6_ISE_EEEEED1B8ue170006Ev, symObjAddr: 0x3D950, symBinAddr: 0x10009B350, symSize: 0x40 }
  - { offsetInCU: 0x19BEAD, offset: 0x340F0E, size: 0x8, addend: 0x0, symName: __ZNSt3__112__hash_tableINS_17__hash_value_typeINS_12basic_stringIcNS_11char_traitsIcEENS_9allocatorIcEEEEPN7testing9TestSuiteEEENS_22__unordered_map_hasherIS7_SB_NS_4hashIS7_EENS_8equal_toIS7_EELb1EEENS_21__unordered_map_equalIS7_SB_SG_SE_Lb1EEENS5_ISB_EEE11__do_rehashILb1EEEvm, symObjAddr: 0x3DAE0, symBinAddr: 0x10009B4E0, symSize: 0x1B0 }
...
